
LPC1768/rosserial_test.elf:     file format elf32-littlearm
architecture: arm, flags 0x00000112:
EXEC_P, HAS_SYMS, D_PAGED
start address 0x0000411d


Disassembly of section .text:

00000000 <__isr_vector>:
       0:	10008000 	.word	0x10008000
       4:	0000411d 	.word	0x0000411d
       8:	0000414d 	.word	0x0000414d
       c:	0000414f 	.word	0x0000414f
      10:	00004151 	.word	0x00004151
      14:	00004153 	.word	0x00004153
      18:	00004155 	.word	0x00004155
	...
      2c:	00004157 	.word	0x00004157
      30:	00004159 	.word	0x00004159
      34:	00000000 	.word	0x00000000
      38:	0000415b 	.word	0x0000415b
      3c:	0000415d 	.word	0x0000415d
      40:	0000415f 	.word	0x0000415f
      44:	0000415f 	.word	0x0000415f
      48:	0000415f 	.word	0x0000415f
      4c:	0000415f 	.word	0x0000415f
      50:	0000415f 	.word	0x0000415f
      54:	0000415f 	.word	0x0000415f
      58:	0000415f 	.word	0x0000415f
      5c:	0000415f 	.word	0x0000415f
      60:	0000415f 	.word	0x0000415f
      64:	0000415f 	.word	0x0000415f
      68:	0000415f 	.word	0x0000415f
      6c:	0000415f 	.word	0x0000415f
      70:	0000415f 	.word	0x0000415f
      74:	0000415f 	.word	0x0000415f
      78:	0000415f 	.word	0x0000415f
      7c:	0000415f 	.word	0x0000415f
      80:	0000415f 	.word	0x0000415f
      84:	0000415f 	.word	0x0000415f
      88:	0000415f 	.word	0x0000415f
      8c:	0000415f 	.word	0x0000415f
      90:	0000415f 	.word	0x0000415f
      94:	0000415f 	.word	0x0000415f
      98:	0000415f 	.word	0x0000415f
      9c:	0000415f 	.word	0x0000415f
      a0:	0000415f 	.word	0x0000415f
      a4:	0000415f 	.word	0x0000415f
      a8:	0000415f 	.word	0x0000415f
      ac:	0000415f 	.word	0x0000415f
      b0:	0000415f 	.word	0x0000415f
      b4:	0000415f 	.word	0x0000415f
      b8:	0000415f 	.word	0x0000415f
      bc:	0000415f 	.word	0x0000415f
      c0:	0000415f 	.word	0x0000415f
      c4:	0000415f 	.word	0x0000415f
      c8:	0000415f 	.word	0x0000415f

000000cc <deregister_tm_clones>:
      cc:	4b04      	ldr	r3, [pc, #16]	; (e0 <deregister_tm_clones+0x14>)
      ce:	4805      	ldr	r0, [pc, #20]	; (e4 <deregister_tm_clones+0x18>)
      d0:	1a1b      	subs	r3, r3, r0
      d2:	2b06      	cmp	r3, #6
      d4:	d902      	bls.n	dc <deregister_tm_clones+0x10>
      d6:	4b04      	ldr	r3, [pc, #16]	; (e8 <deregister_tm_clones+0x1c>)
      d8:	b103      	cbz	r3, dc <deregister_tm_clones+0x10>
      da:	4718      	bx	r3
      dc:	4770      	bx	lr
      de:	bf00      	nop
      e0:	10000167 	.word	0x10000167
      e4:	10000164 	.word	0x10000164
      e8:	00000000 	.word	0x00000000

000000ec <register_tm_clones>:
      ec:	4905      	ldr	r1, [pc, #20]	; (104 <register_tm_clones+0x18>)
      ee:	4806      	ldr	r0, [pc, #24]	; (108 <register_tm_clones+0x1c>)
      f0:	1a09      	subs	r1, r1, r0
      f2:	1089      	asrs	r1, r1, #2
      f4:	eb01 71d1 	add.w	r1, r1, r1, lsr #31
      f8:	1049      	asrs	r1, r1, #1
      fa:	d002      	beq.n	102 <register_tm_clones+0x16>
      fc:	4b03      	ldr	r3, [pc, #12]	; (10c <register_tm_clones+0x20>)
      fe:	b103      	cbz	r3, 102 <register_tm_clones+0x16>
     100:	4718      	bx	r3
     102:	4770      	bx	lr
     104:	10000164 	.word	0x10000164
     108:	10000164 	.word	0x10000164
     10c:	00000000 	.word	0x00000000

00000110 <__do_global_dtors_aux>:
     110:	b510      	push	{r4, lr}
     112:	4c06      	ldr	r4, [pc, #24]	; (12c <__do_global_dtors_aux+0x1c>)
     114:	7823      	ldrb	r3, [r4, #0]
     116:	b943      	cbnz	r3, 12a <__do_global_dtors_aux+0x1a>
     118:	f7ff ffd8 	bl	cc <deregister_tm_clones>
     11c:	4b04      	ldr	r3, [pc, #16]	; (130 <__do_global_dtors_aux+0x20>)
     11e:	b113      	cbz	r3, 126 <__do_global_dtors_aux+0x16>
     120:	4804      	ldr	r0, [pc, #16]	; (134 <__do_global_dtors_aux+0x24>)
     122:	f3af 8000 	nop.w
     126:	2301      	movs	r3, #1
     128:	7023      	strb	r3, [r4, #0]
     12a:	bd10      	pop	{r4, pc}
     12c:	10000164 	.word	0x10000164
     130:	00000000 	.word	0x00000000
     134:	000078a0 	.word	0x000078a0

00000138 <frame_dummy>:
     138:	b508      	push	{r3, lr}
     13a:	4b08      	ldr	r3, [pc, #32]	; (15c <frame_dummy+0x24>)
     13c:	b11b      	cbz	r3, 146 <frame_dummy+0xe>
     13e:	4908      	ldr	r1, [pc, #32]	; (160 <frame_dummy+0x28>)
     140:	4808      	ldr	r0, [pc, #32]	; (164 <frame_dummy+0x2c>)
     142:	f3af 8000 	nop.w
     146:	4808      	ldr	r0, [pc, #32]	; (168 <frame_dummy+0x30>)
     148:	6803      	ldr	r3, [r0, #0]
     14a:	b913      	cbnz	r3, 152 <frame_dummy+0x1a>
     14c:	e8bd 4008 	ldmia.w	sp!, {r3, lr}
     150:	e7cc      	b.n	ec <register_tm_clones>
     152:	4b06      	ldr	r3, [pc, #24]	; (16c <frame_dummy+0x34>)
     154:	2b00      	cmp	r3, #0
     156:	d0f9      	beq.n	14c <frame_dummy+0x14>
     158:	4798      	blx	r3
     15a:	e7f7      	b.n	14c <frame_dummy+0x14>
     15c:	00000000 	.word	0x00000000
     160:	10000168 	.word	0x10000168
     164:	000078a0 	.word	0x000078a0
     168:	10000164 	.word	0x10000164
     16c:	00000000 	.word	0x00000000

00000170 <std_msgs::Time::serialize(unsigned char*) const>:
     170:	4603      	mov	r3, r0
     172:	6842      	ldr	r2, [r0, #4]
     174:	2008      	movs	r0, #8
     176:	700a      	strb	r2, [r1, #0]
     178:	685a      	ldr	r2, [r3, #4]
     17a:	40c2      	lsrs	r2, r0
     17c:	704a      	strb	r2, [r1, #1]
     17e:	88da      	ldrh	r2, [r3, #6]
     180:	708a      	strb	r2, [r1, #2]
     182:	79da      	ldrb	r2, [r3, #7]
     184:	70ca      	strb	r2, [r1, #3]
     186:	689a      	ldr	r2, [r3, #8]
     188:	710a      	strb	r2, [r1, #4]
     18a:	689a      	ldr	r2, [r3, #8]
     18c:	40c2      	lsrs	r2, r0
     18e:	714a      	strb	r2, [r1, #5]
     190:	895a      	ldrh	r2, [r3, #10]
     192:	718a      	strb	r2, [r1, #6]
     194:	7adb      	ldrb	r3, [r3, #11]
     196:	71cb      	strb	r3, [r1, #7]
     198:	4770      	bx	lr
     19a:	bf00      	nop

0000019c <std_msgs::Time::deserialize(unsigned char*)>:
     19c:	4602      	mov	r2, r0
     19e:	b410      	push	{r4}
     1a0:	780b      	ldrb	r3, [r1, #0]
     1a2:	2008      	movs	r0, #8
     1a4:	6053      	str	r3, [r2, #4]
     1a6:	784c      	ldrb	r4, [r1, #1]
     1a8:	ea43 2304 	orr.w	r3, r3, r4, lsl #8
     1ac:	6053      	str	r3, [r2, #4]
     1ae:	788c      	ldrb	r4, [r1, #2]
     1b0:	ea43 4304 	orr.w	r3, r3, r4, lsl #16
     1b4:	6053      	str	r3, [r2, #4]
     1b6:	78cc      	ldrb	r4, [r1, #3]
     1b8:	ea43 6304 	orr.w	r3, r3, r4, lsl #24
     1bc:	6053      	str	r3, [r2, #4]
     1be:	790b      	ldrb	r3, [r1, #4]
     1c0:	6093      	str	r3, [r2, #8]
     1c2:	794c      	ldrb	r4, [r1, #5]
     1c4:	ea43 2304 	orr.w	r3, r3, r4, lsl #8
     1c8:	6093      	str	r3, [r2, #8]
     1ca:	798c      	ldrb	r4, [r1, #6]
     1cc:	ea43 4304 	orr.w	r3, r3, r4, lsl #16
     1d0:	6093      	str	r3, [r2, #8]
     1d2:	79c9      	ldrb	r1, [r1, #7]
     1d4:	bc10      	pop	{r4}
     1d6:	ea43 6301 	orr.w	r3, r3, r1, lsl #24
     1da:	6093      	str	r3, [r2, #8]
     1dc:	4770      	bx	lr
     1de:	bf00      	nop

000001e0 <std_msgs::Time::getType()>:
     1e0:	4800      	ldr	r0, [pc, #0]	; (1e4 <std_msgs::Time::getType()+0x4>)
     1e2:	4770      	bx	lr
     1e4:	00007100 	.word	0x00007100

000001e8 <std_msgs::Time::getMD5()>:
     1e8:	4800      	ldr	r0, [pc, #0]	; (1ec <std_msgs::Time::getMD5()+0x4>)
     1ea:	4770      	bx	lr
     1ec:	00007110 	.word	0x00007110

000001f0 <rosserial_msgs::TopicInfo::getType()>:
     1f0:	4800      	ldr	r0, [pc, #0]	; (1f4 <rosserial_msgs::TopicInfo::getType()+0x4>)
     1f2:	4770      	bx	lr
     1f4:	00007134 	.word	0x00007134

000001f8 <rosserial_msgs::TopicInfo::getMD5()>:
     1f8:	4800      	ldr	r0, [pc, #0]	; (1fc <rosserial_msgs::TopicInfo::getMD5()+0x4>)
     1fa:	4770      	bx	lr
     1fc:	00007150 	.word	0x00007150

00000200 <rosserial_msgs::Log::getType()>:
     200:	4800      	ldr	r0, [pc, #0]	; (204 <rosserial_msgs::Log::getType()+0x4>)
     202:	4770      	bx	lr
     204:	00007174 	.word	0x00007174

00000208 <rosserial_msgs::Log::getMD5()>:
     208:	4800      	ldr	r0, [pc, #0]	; (20c <rosserial_msgs::Log::getMD5()+0x4>)
     20a:	4770      	bx	lr
     20c:	00007188 	.word	0x00007188

00000210 <rosserial_msgs::RequestParamResponse::getType()>:
     210:	4800      	ldr	r0, [pc, #0]	; (214 <rosserial_msgs::RequestParamResponse::getType()+0x4>)
     212:	4770      	bx	lr
     214:	00007288 	.word	0x00007288

00000218 <rosserial_msgs::RequestParamResponse::getMD5()>:
     218:	4800      	ldr	r0, [pc, #0]	; (21c <rosserial_msgs::RequestParamResponse::getMD5()+0x4>)
     21a:	4770      	bx	lr
     21c:	000071ac 	.word	0x000071ac

00000220 <std_msgs::Header::getType()>:
     220:	4800      	ldr	r0, [pc, #0]	; (224 <std_msgs::Header::getType()+0x4>)
     222:	4770      	bx	lr
     224:	000071d0 	.word	0x000071d0

00000228 <std_msgs::Header::getMD5()>:
     228:	4800      	ldr	r0, [pc, #0]	; (22c <std_msgs::Header::getMD5()+0x4>)
     22a:	4770      	bx	lr
     22c:	000071e0 	.word	0x000071e0

00000230 <fish_msgs::joystick_in::getType()>:
     230:	4800      	ldr	r0, [pc, #0]	; (234 <fish_msgs::joystick_in::getType()+0x4>)
     232:	4770      	bx	lr
     234:	00007204 	.word	0x00007204

00000238 <fish_msgs::joystick_in::getMD5()>:
     238:	4800      	ldr	r0, [pc, #0]	; (23c <fish_msgs::joystick_in::getMD5()+0x4>)
     23a:	4770      	bx	lr
     23c:	0000721c 	.word	0x0000721c

00000240 <ros::Subscriber<fish_msgs::joystick_in>::getEndpointType()>:
     240:	6ac0      	ldr	r0, [r0, #44]	; 0x2c
     242:	4770      	bx	lr

00000244 <ros::Subscriber<fish_msgs::joystick_in>::getMsgType()>:
     244:	4800      	ldr	r0, [pc, #0]	; (248 <ros::Subscriber<fish_msgs::joystick_in>::getMsgType()+0x4>)
     246:	4770      	bx	lr
     248:	00007204 	.word	0x00007204

0000024c <ros::Subscriber<fish_msgs::joystick_in>::getMsgMD5()>:
     24c:	4800      	ldr	r0, [pc, #0]	; (250 <ros::Subscriber<fish_msgs::joystick_in>::getMsgMD5()+0x4>)
     24e:	4770      	bx	lr
     250:	0000721c 	.word	0x0000721c

00000254 <ros::NodeHandle_<MbedHardware, 25, 25, 512, 512>::connected()>:
     254:	f890 05fc 	ldrb.w	r0, [r0, #1532]	; 0x5fc
     258:	4770      	bx	lr
     25a:	bf00      	nop

0000025c <setLEDs(fish_msgs::joystick_in const&)>:
     25c:	b510      	push	{r4, lr}
     25e:	4604      	mov	r4, r0
     260:	f990 001b 	ldrsb.w	r0, [r0, #27]
     264:	f004 f8d6 	bl	4414 <__aeabi_i2d>
     268:	2200      	movs	r2, #0
     26a:	4b22      	ldr	r3, [pc, #136]	; (2f4 <setLEDs(fish_msgs::joystick_in const&)+0x98>)
     26c:	f003 ff86 	bl	417c <__adddf3>
     270:	2200      	movs	r2, #0
     272:	4b21      	ldr	r3, [pc, #132]	; (2f8 <setLEDs(fish_msgs::joystick_in const&)+0x9c>)
     274:	f004 f934 	bl	44e0 <__aeabi_dmul>
     278:	f004 fb44 	bl	4904 <__aeabi_d2f>
     27c:	4601      	mov	r1, r0
     27e:	481f      	ldr	r0, [pc, #124]	; (2fc <setLEDs(fish_msgs::joystick_in const&)+0xa0>)
     280:	f002 ff0a 	bl	3098 <pwmout_write>
     284:	f994 001a 	ldrsb.w	r0, [r4, #26]
     288:	f004 f8c4 	bl	4414 <__aeabi_i2d>
     28c:	2200      	movs	r2, #0
     28e:	4b19      	ldr	r3, [pc, #100]	; (2f4 <setLEDs(fish_msgs::joystick_in const&)+0x98>)
     290:	f003 ff74 	bl	417c <__adddf3>
     294:	2200      	movs	r2, #0
     296:	4b18      	ldr	r3, [pc, #96]	; (2f8 <setLEDs(fish_msgs::joystick_in const&)+0x9c>)
     298:	f004 f922 	bl	44e0 <__aeabi_dmul>
     29c:	f004 fb32 	bl	4904 <__aeabi_d2f>
     2a0:	4601      	mov	r1, r0
     2a2:	4817      	ldr	r0, [pc, #92]	; (300 <setLEDs(fish_msgs::joystick_in const&)+0xa4>)
     2a4:	f002 fef8 	bl	3098 <pwmout_write>
     2a8:	f994 0019 	ldrsb.w	r0, [r4, #25]
     2ac:	f004 f8b2 	bl	4414 <__aeabi_i2d>
     2b0:	2200      	movs	r2, #0
     2b2:	4b10      	ldr	r3, [pc, #64]	; (2f4 <setLEDs(fish_msgs::joystick_in const&)+0x98>)
     2b4:	f003 ff62 	bl	417c <__adddf3>
     2b8:	2200      	movs	r2, #0
     2ba:	4b0f      	ldr	r3, [pc, #60]	; (2f8 <setLEDs(fish_msgs::joystick_in const&)+0x9c>)
     2bc:	f004 f910 	bl	44e0 <__aeabi_dmul>
     2c0:	f004 fb20 	bl	4904 <__aeabi_d2f>
     2c4:	4601      	mov	r1, r0
     2c6:	480f      	ldr	r0, [pc, #60]	; (304 <setLEDs(fish_msgs::joystick_in const&)+0xa8>)
     2c8:	f002 fee6 	bl	3098 <pwmout_write>
     2cc:	f994 0018 	ldrsb.w	r0, [r4, #24]
     2d0:	f004 f8a0 	bl	4414 <__aeabi_i2d>
     2d4:	2200      	movs	r2, #0
     2d6:	4b07      	ldr	r3, [pc, #28]	; (2f4 <setLEDs(fish_msgs::joystick_in const&)+0x98>)
     2d8:	f003 ff50 	bl	417c <__adddf3>
     2dc:	2200      	movs	r2, #0
     2de:	4b06      	ldr	r3, [pc, #24]	; (2f8 <setLEDs(fish_msgs::joystick_in const&)+0x9c>)
     2e0:	f004 f8fe 	bl	44e0 <__aeabi_dmul>
     2e4:	f004 fb0e 	bl	4904 <__aeabi_d2f>
     2e8:	e8bd 4010 	ldmia.w	sp!, {r4, lr}
     2ec:	4601      	mov	r1, r0
     2ee:	4806      	ldr	r0, [pc, #24]	; (308 <setLEDs(fish_msgs::joystick_in const&)+0xac>)
     2f0:	f002 bed2 	b.w	3098 <pwmout_write>
     2f4:	40600000 	.word	0x40600000
     2f8:	3f700000 	.word	0x3f700000
     2fc:	100001b8 	.word	0x100001b8
     300:	100007f8 	.word	0x100007f8
     304:	10000180 	.word	0x10000180
     308:	10000800 	.word	0x10000800

0000030c <std_msgs::Header::deserialize(unsigned char*)>:
     30c:	b4f0      	push	{r4, r5, r6, r7}
     30e:	780b      	ldrb	r3, [r1, #0]
     310:	4604      	mov	r4, r0
     312:	6043      	str	r3, [r0, #4]
     314:	784a      	ldrb	r2, [r1, #1]
     316:	b082      	sub	sp, #8
     318:	ea43 2302 	orr.w	r3, r3, r2, lsl #8
     31c:	6043      	str	r3, [r0, #4]
     31e:	788a      	ldrb	r2, [r1, #2]
     320:	f101 070f 	add.w	r7, r1, #15
     324:	ea43 4302 	orr.w	r3, r3, r2, lsl #16
     328:	6043      	str	r3, [r0, #4]
     32a:	78ca      	ldrb	r2, [r1, #3]
     32c:	ea43 6302 	orr.w	r3, r3, r2, lsl #24
     330:	6043      	str	r3, [r0, #4]
     332:	790b      	ldrb	r3, [r1, #4]
     334:	6083      	str	r3, [r0, #8]
     336:	794a      	ldrb	r2, [r1, #5]
     338:	ea43 2302 	orr.w	r3, r3, r2, lsl #8
     33c:	6083      	str	r3, [r0, #8]
     33e:	798a      	ldrb	r2, [r1, #6]
     340:	ea43 4302 	orr.w	r3, r3, r2, lsl #16
     344:	6083      	str	r3, [r0, #8]
     346:	79ca      	ldrb	r2, [r1, #7]
     348:	ea43 6302 	orr.w	r3, r3, r2, lsl #24
     34c:	6083      	str	r3, [r0, #8]
     34e:	7a0b      	ldrb	r3, [r1, #8]
     350:	60c3      	str	r3, [r0, #12]
     352:	7a4a      	ldrb	r2, [r1, #9]
     354:	ea43 2302 	orr.w	r3, r3, r2, lsl #8
     358:	60c3      	str	r3, [r0, #12]
     35a:	7a8a      	ldrb	r2, [r1, #10]
     35c:	ea43 4302 	orr.w	r3, r3, r2, lsl #16
     360:	60c3      	str	r3, [r0, #12]
     362:	7aca      	ldrb	r2, [r1, #11]
     364:	ea43 6302 	orr.w	r3, r3, r2, lsl #24
     368:	60c3      	str	r3, [r0, #12]
     36a:	68c8      	ldr	r0, [r1, #12]
     36c:	9001      	str	r0, [sp, #4]
     36e:	9e01      	ldr	r6, [sp, #4]
     370:	f106 0010 	add.w	r0, r6, #16
     374:	2810      	cmp	r0, #16
     376:	d909      	bls.n	38c <std_msgs::Header::deserialize(unsigned char*)+0x80>
     378:	463b      	mov	r3, r7
     37a:	f106 050f 	add.w	r5, r6, #15
     37e:	440d      	add	r5, r1
     380:	f813 2f01 	ldrb.w	r2, [r3, #1]!
     384:	42ab      	cmp	r3, r5
     386:	f803 2c01 	strb.w	r2, [r3, #-1]
     38a:	d1f9      	bne.n	380 <std_msgs::Header::deserialize(unsigned char*)+0x74>
     38c:	4431      	add	r1, r6
     38e:	2300      	movs	r3, #0
     390:	73cb      	strb	r3, [r1, #15]
     392:	6127      	str	r7, [r4, #16]
     394:	b002      	add	sp, #8
     396:	bcf0      	pop	{r4, r5, r6, r7}
     398:	4770      	bx	lr
     39a:	bf00      	nop

0000039c <rosserial_msgs::Log::deserialize(unsigned char*)>:
     39c:	460b      	mov	r3, r1
     39e:	b4f0      	push	{r4, r5, r6, r7}
     3a0:	f813 2b01 	ldrb.w	r2, [r3], #1
     3a4:	4606      	mov	r6, r0
     3a6:	7102      	strb	r2, [r0, #4]
     3a8:	6818      	ldr	r0, [r3, #0]
     3aa:	b082      	sub	sp, #8
     3ac:	9001      	str	r0, [sp, #4]
     3ae:	9d01      	ldr	r5, [sp, #4]
     3b0:	1d0f      	adds	r7, r1, #4
     3b2:	1d68      	adds	r0, r5, #5
     3b4:	2805      	cmp	r0, #5
     3b6:	d908      	bls.n	3ca <rosserial_msgs::Log::deserialize(unsigned char*)+0x2e>
     3b8:	463b      	mov	r3, r7
     3ba:	1d2c      	adds	r4, r5, #4
     3bc:	440c      	add	r4, r1
     3be:	f813 2f01 	ldrb.w	r2, [r3, #1]!
     3c2:	42a3      	cmp	r3, r4
     3c4:	f803 2c01 	strb.w	r2, [r3, #-1]
     3c8:	d1f9      	bne.n	3be <rosserial_msgs::Log::deserialize(unsigned char*)+0x22>
     3ca:	440d      	add	r5, r1
     3cc:	2300      	movs	r3, #0
     3ce:	712b      	strb	r3, [r5, #4]
     3d0:	60b7      	str	r7, [r6, #8]
     3d2:	b002      	add	sp, #8
     3d4:	bcf0      	pop	{r4, r5, r6, r7}
     3d6:	4770      	bx	lr

000003d8 <rosserial_msgs::TopicInfo::deserialize(unsigned char*)>:
     3d8:	b4f0      	push	{r4, r5, r6, r7}
     3da:	780b      	ldrb	r3, [r1, #0]
     3dc:	4605      	mov	r5, r0
     3de:	8083      	strh	r3, [r0, #4]
     3e0:	784a      	ldrb	r2, [r1, #1]
     3e2:	b084      	sub	sp, #16
     3e4:	ea43 2302 	orr.w	r3, r3, r2, lsl #8
     3e8:	8083      	strh	r3, [r0, #4]
     3ea:	f8d1 0002 	ldr.w	r0, [r1, #2]
     3ee:	1d4f      	adds	r7, r1, #5
     3f0:	9001      	str	r0, [sp, #4]
     3f2:	9a01      	ldr	r2, [sp, #4]
     3f4:	1d96      	adds	r6, r2, #6
     3f6:	2e06      	cmp	r6, #6
     3f8:	d908      	bls.n	40c <rosserial_msgs::TopicInfo::deserialize(unsigned char*)+0x34>
     3fa:	463b      	mov	r3, r7
     3fc:	1d54      	adds	r4, r2, #5
     3fe:	440c      	add	r4, r1
     400:	f813 0f01 	ldrb.w	r0, [r3, #1]!
     404:	429c      	cmp	r4, r3
     406:	f803 0c01 	strb.w	r0, [r3, #-1]
     40a:	d1f9      	bne.n	400 <rosserial_msgs::TopicInfo::deserialize(unsigned char*)+0x28>
     40c:	188b      	adds	r3, r1, r2
     40e:	2000      	movs	r0, #0
     410:	7158      	strb	r0, [r3, #5]
     412:	60af      	str	r7, [r5, #8]
     414:	5988      	ldr	r0, [r1, r6]
     416:	3604      	adds	r6, #4
     418:	9002      	str	r0, [sp, #8]
     41a:	9b02      	ldr	r3, [sp, #8]
     41c:	4433      	add	r3, r6
     41e:	429e      	cmp	r6, r3
     420:	d209      	bcs.n	436 <rosserial_msgs::TopicInfo::deserialize(unsigned char*)+0x5e>
     422:	4630      	mov	r0, r6
     424:	3209      	adds	r2, #9
     426:	440a      	add	r2, r1
     428:	f812 4f01 	ldrb.w	r4, [r2, #1]!
     42c:	3001      	adds	r0, #1
     42e:	4298      	cmp	r0, r3
     430:	f802 4c01 	strb.w	r4, [r2, #-1]
     434:	d3f8      	bcc.n	428 <rosserial_msgs::TopicInfo::deserialize(unsigned char*)+0x50>
     436:	3e01      	subs	r6, #1
     438:	440e      	add	r6, r1
     43a:	18ca      	adds	r2, r1, r3
     43c:	2000      	movs	r0, #0
     43e:	f802 0c01 	strb.w	r0, [r2, #-1]
     442:	60ee      	str	r6, [r5, #12]
     444:	6810      	ldr	r0, [r2, #0]
     446:	1d1e      	adds	r6, r3, #4
     448:	9003      	str	r0, [sp, #12]
     44a:	9803      	ldr	r0, [sp, #12]
     44c:	4430      	add	r0, r6
     44e:	4286      	cmp	r6, r0
     450:	d209      	bcs.n	466 <rosserial_msgs::TopicInfo::deserialize(unsigned char*)+0x8e>
     452:	4632      	mov	r2, r6
     454:	3303      	adds	r3, #3
     456:	440b      	add	r3, r1
     458:	f813 4f01 	ldrb.w	r4, [r3, #1]!
     45c:	3201      	adds	r2, #1
     45e:	4282      	cmp	r2, r0
     460:	f803 4c01 	strb.w	r4, [r3, #-1]
     464:	d3f8      	bcc.n	458 <rosserial_msgs::TopicInfo::deserialize(unsigned char*)+0x80>
     466:	3e01      	subs	r6, #1
     468:	180c      	adds	r4, r1, r0
     46a:	440e      	add	r6, r1
     46c:	2300      	movs	r3, #0
     46e:	f804 3c01 	strb.w	r3, [r4, #-1]
     472:	612e      	str	r6, [r5, #16]
     474:	78a3      	ldrb	r3, [r4, #2]
     476:	7866      	ldrb	r6, [r4, #1]
     478:	5c0a      	ldrb	r2, [r1, r0]
     47a:	041b      	lsls	r3, r3, #16
     47c:	78e1      	ldrb	r1, [r4, #3]
     47e:	ea43 2306 	orr.w	r3, r3, r6, lsl #8
     482:	4313      	orrs	r3, r2
     484:	ea43 6301 	orr.w	r3, r3, r1, lsl #24
     488:	3004      	adds	r0, #4
     48a:	616b      	str	r3, [r5, #20]
     48c:	b004      	add	sp, #16
     48e:	bcf0      	pop	{r4, r5, r6, r7}
     490:	4770      	bx	lr
     492:	bf00      	nop

00000494 <std_msgs::Header::serialize(unsigned char*) const>:
     494:	6843      	ldr	r3, [r0, #4]
     496:	b570      	push	{r4, r5, r6, lr}
     498:	700b      	strb	r3, [r1, #0]
     49a:	6843      	ldr	r3, [r0, #4]
     49c:	b082      	sub	sp, #8
     49e:	0a1b      	lsrs	r3, r3, #8
     4a0:	704b      	strb	r3, [r1, #1]
     4a2:	88c3      	ldrh	r3, [r0, #6]
     4a4:	4605      	mov	r5, r0
     4a6:	708b      	strb	r3, [r1, #2]
     4a8:	79c3      	ldrb	r3, [r0, #7]
     4aa:	460c      	mov	r4, r1
     4ac:	70cb      	strb	r3, [r1, #3]
     4ae:	6883      	ldr	r3, [r0, #8]
     4b0:	710b      	strb	r3, [r1, #4]
     4b2:	6883      	ldr	r3, [r0, #8]
     4b4:	0a1b      	lsrs	r3, r3, #8
     4b6:	714b      	strb	r3, [r1, #5]
     4b8:	8943      	ldrh	r3, [r0, #10]
     4ba:	718b      	strb	r3, [r1, #6]
     4bc:	7ac3      	ldrb	r3, [r0, #11]
     4be:	71cb      	strb	r3, [r1, #7]
     4c0:	68c3      	ldr	r3, [r0, #12]
     4c2:	720b      	strb	r3, [r1, #8]
     4c4:	68c3      	ldr	r3, [r0, #12]
     4c6:	0a1b      	lsrs	r3, r3, #8
     4c8:	724b      	strb	r3, [r1, #9]
     4ca:	89c3      	ldrh	r3, [r0, #14]
     4cc:	728b      	strb	r3, [r1, #10]
     4ce:	7bc3      	ldrb	r3, [r0, #15]
     4d0:	72cb      	strb	r3, [r1, #11]
     4d2:	6900      	ldr	r0, [r0, #16]
     4d4:	f005 ffc7 	bl	6466 <strlen>
     4d8:	4606      	mov	r6, r0
     4da:	ab02      	add	r3, sp, #8
     4dc:	f843 0d04 	str.w	r0, [r3, #-4]!
     4e0:	6818      	ldr	r0, [r3, #0]
     4e2:	4632      	mov	r2, r6
     4e4:	60e0      	str	r0, [r4, #12]
     4e6:	6929      	ldr	r1, [r5, #16]
     4e8:	f104 0010 	add.w	r0, r4, #16
     4ec:	f005 f8f0 	bl	56d0 <memcpy>
     4f0:	f106 0010 	add.w	r0, r6, #16
     4f4:	b002      	add	sp, #8
     4f6:	bd70      	pop	{r4, r5, r6, pc}

000004f8 <rosserial_msgs::RequestParamResponse::serialize(unsigned char*) const>:
     4f8:	e92d 43f0 	stmdb	sp!, {r4, r5, r6, r7, r8, r9, lr}
     4fc:	7903      	ldrb	r3, [r0, #4]
     4fe:	2400      	movs	r4, #0
     500:	700b      	strb	r3, [r1, #0]
     502:	704c      	strb	r4, [r1, #1]
     504:	708c      	strb	r4, [r1, #2]
     506:	70cc      	strb	r4, [r1, #3]
     508:	7903      	ldrb	r3, [r0, #4]
     50a:	b083      	sub	sp, #12
     50c:	2b00      	cmp	r3, #0
     50e:	d068      	beq.n	5e2 <rosserial_msgs::RequestParamResponse::serialize(unsigned char*) const+0xea>
     510:	460b      	mov	r3, r1
     512:	2504      	movs	r5, #4
     514:	68c2      	ldr	r2, [r0, #12]
     516:	1c66      	adds	r6, r4, #1
     518:	f852 2024 	ldr.w	r2, [r2, r4, lsl #2]
     51c:	b2f4      	uxtb	r4, r6
     51e:	ea4f 2e12 	mov.w	lr, r2, lsr #8
     522:	0c17      	lsrs	r7, r2, #16
     524:	0e16      	lsrs	r6, r2, #24
     526:	711a      	strb	r2, [r3, #4]
     528:	f883 e005 	strb.w	lr, [r3, #5]
     52c:	719f      	strb	r7, [r3, #6]
     52e:	71de      	strb	r6, [r3, #7]
     530:	7902      	ldrb	r2, [r0, #4]
     532:	3504      	adds	r5, #4
     534:	42a2      	cmp	r2, r4
     536:	f103 0304 	add.w	r3, r3, #4
     53a:	d8eb      	bhi.n	514 <rosserial_msgs::RequestParamResponse::serialize(unsigned char*) const+0x1c>
     53c:	462b      	mov	r3, r5
     53e:	1d2a      	adds	r2, r5, #4
     540:	4615      	mov	r5, r2
     542:	f103 0c01 	add.w	r12, r3, #1
     546:	f103 0e02 	add.w	lr, r3, #2
     54a:	1cdf      	adds	r7, r3, #3
     54c:	7c06      	ldrb	r6, [r0, #16]
     54e:	2400      	movs	r4, #0
     550:	54ce      	strb	r6, [r1, r3]
     552:	f801 400c 	strb.w	r4, [r1, r12]
     556:	f801 400e 	strb.w	r4, [r1, lr]
     55a:	55cc      	strb	r4, [r1, r7]
     55c:	7c03      	ldrb	r3, [r0, #16]
     55e:	b1ab      	cbz	r3, 58c <rosserial_msgs::RequestParamResponse::serialize(unsigned char*) const+0x94>
     560:	194b      	adds	r3, r1, r5
     562:	6982      	ldr	r2, [r0, #24]
     564:	1c66      	adds	r6, r4, #1
     566:	f852 2024 	ldr.w	r2, [r2, r4, lsl #2]
     56a:	b2f4      	uxtb	r4, r6
     56c:	ea4f 2e12 	mov.w	lr, r2, lsr #8
     570:	0c17      	lsrs	r7, r2, #16
     572:	0e16      	lsrs	r6, r2, #24
     574:	554a      	strb	r2, [r1, r5]
     576:	f883 e001 	strb.w	lr, [r3, #1]
     57a:	709f      	strb	r7, [r3, #2]
     57c:	70de      	strb	r6, [r3, #3]
     57e:	7c02      	ldrb	r2, [r0, #16]
     580:	3504      	adds	r5, #4
     582:	42a2      	cmp	r2, r4
     584:	f103 0304 	add.w	r3, r3, #4
     588:	d8eb      	bhi.n	562 <rosserial_msgs::RequestParamResponse::serialize(unsigned char*) const+0x6a>
     58a:	462a      	mov	r2, r5
     58c:	7f06      	ldrb	r6, [r0, #28]
     58e:	194b      	adds	r3, r1, r5
     590:	2400      	movs	r4, #0
     592:	548e      	strb	r6, [r1, r2]
     594:	705c      	strb	r4, [r3, #1]
     596:	709c      	strb	r4, [r3, #2]
     598:	70dc      	strb	r4, [r3, #3]
     59a:	7f03      	ldrb	r3, [r0, #28]
     59c:	1d2e      	adds	r6, r5, #4
     59e:	b1e3      	cbz	r3, 5da <rosserial_msgs::RequestParamResponse::serialize(unsigned char*) const+0xe2>
     5a0:	4688      	mov	r8, r1
     5a2:	4607      	mov	r7, r0
     5a4:	6a7b      	ldr	r3, [r7, #36]	; 0x24
     5a6:	f106 0904 	add.w	r9, r6, #4
     5aa:	f853 0024 	ldr.w	r0, [r3, r4, lsl #2]
     5ae:	f005 ff5a 	bl	6466 <strlen>
     5b2:	4605      	mov	r5, r0
     5b4:	9001      	str	r0, [sp, #4]
     5b6:	9801      	ldr	r0, [sp, #4]
     5b8:	462a      	mov	r2, r5
     5ba:	f848 0006 	str.w	r0, [r8, r6]
     5be:	6a7b      	ldr	r3, [r7, #36]	; 0x24
     5c0:	eb08 0009 	add.w	r0, r8, r9
     5c4:	f853 1024 	ldr.w	r1, [r3, r4, lsl #2]
     5c8:	f005 f882 	bl	56d0 <memcpy>
     5cc:	3401      	adds	r4, #1
     5ce:	7f3b      	ldrb	r3, [r7, #28]
     5d0:	b2e4      	uxtb	r4, r4
     5d2:	42a3      	cmp	r3, r4
     5d4:	eb05 0609 	add.w	r6, r5, r9
     5d8:	d8e4      	bhi.n	5a4 <rosserial_msgs::RequestParamResponse::serialize(unsigned char*) const+0xac>
     5da:	4630      	mov	r0, r6
     5dc:	b003      	add	sp, #12
     5de:	e8bd 83f0 	ldmia.w	sp!, {r4, r5, r6, r7, r8, r9, pc}
     5e2:	2208      	movs	r2, #8
     5e4:	4615      	mov	r5, r2
     5e6:	2707      	movs	r7, #7
     5e8:	f04f 0e06 	mov.w	lr, #6
     5ec:	f04f 0c05 	mov.w	r12, #5
     5f0:	2304      	movs	r3, #4
     5f2:	e7ab      	b.n	54c <rosserial_msgs::RequestParamResponse::serialize(unsigned char*) const+0x54>

000005f4 <rosserial_msgs::Log::serialize(unsigned char*) const>:
     5f4:	b570      	push	{r4, r5, r6, lr}
     5f6:	7903      	ldrb	r3, [r0, #4]
     5f8:	b082      	sub	sp, #8
     5fa:	700b      	strb	r3, [r1, #0]
     5fc:	4606      	mov	r6, r0
     5fe:	6880      	ldr	r0, [r0, #8]
     600:	460d      	mov	r5, r1
     602:	f005 ff30 	bl	6466 <strlen>
     606:	4604      	mov	r4, r0
     608:	ab02      	add	r3, sp, #8
     60a:	f843 0d04 	str.w	r0, [r3, #-4]!
     60e:	6818      	ldr	r0, [r3, #0]
     610:	4622      	mov	r2, r4
     612:	f8c5 0001 	str.w	r0, [r5, #1]
     616:	68b1      	ldr	r1, [r6, #8]
     618:	1d68      	adds	r0, r5, #5
     61a:	f005 f859 	bl	56d0 <memcpy>
     61e:	1d60      	adds	r0, r4, #5
     620:	b002      	add	sp, #8
     622:	bd70      	pop	{r4, r5, r6, pc}

00000624 <rosserial_msgs::TopicInfo::serialize(unsigned char*) const>:
     624:	8883      	ldrh	r3, [r0, #4]
     626:	e92d 41f0 	stmdb	sp!, {r4, r5, r6, r7, r8, lr}
     62a:	700b      	strb	r3, [r1, #0]
     62c:	8883      	ldrh	r3, [r0, #4]
     62e:	b084      	sub	sp, #16
     630:	0a1b      	lsrs	r3, r3, #8
     632:	704b      	strb	r3, [r1, #1]
     634:	4606      	mov	r6, r0
     636:	6880      	ldr	r0, [r0, #8]
     638:	460d      	mov	r5, r1
     63a:	f005 ff14 	bl	6466 <strlen>
     63e:	4604      	mov	r4, r0
     640:	ab04      	add	r3, sp, #16
     642:	f843 0d0c 	str.w	r0, [r3, #-12]!
     646:	6818      	ldr	r0, [r3, #0]
     648:	4622      	mov	r2, r4
     64a:	f8c5 0002 	str.w	r0, [r5, #2]
     64e:	68b1      	ldr	r1, [r6, #8]
     650:	1da8      	adds	r0, r5, #6
     652:	f005 f83d 	bl	56d0 <memcpy>
     656:	68f0      	ldr	r0, [r6, #12]
     658:	f005 ff05 	bl	6466 <strlen>
     65c:	4680      	mov	r8, r0
     65e:	ab04      	add	r3, sp, #16
     660:	f843 0d08 	str.w	r0, [r3, #-8]!
     664:	6818      	ldr	r0, [r3, #0]
     666:	1da3      	adds	r3, r4, #6
     668:	50e8      	str	r0, [r5, r3]
     66a:	340a      	adds	r4, #10
     66c:	68f1      	ldr	r1, [r6, #12]
     66e:	4642      	mov	r2, r8
     670:	1928      	adds	r0, r5, r4
     672:	f005 f82d 	bl	56d0 <memcpy>
     676:	6930      	ldr	r0, [r6, #16]
     678:	f005 fef5 	bl	6466 <strlen>
     67c:	4607      	mov	r7, r0
     67e:	ab04      	add	r3, sp, #16
     680:	f843 0d04 	str.w	r0, [r3, #-4]!
     684:	6818      	ldr	r0, [r3, #0]
     686:	4444      	add	r4, r8
     688:	5128      	str	r0, [r5, r4]
     68a:	3404      	adds	r4, #4
     68c:	6931      	ldr	r1, [r6, #16]
     68e:	1928      	adds	r0, r5, r4
     690:	463a      	mov	r2, r7
     692:	f005 f81d 	bl	56d0 <memcpy>
     696:	6973      	ldr	r3, [r6, #20]
     698:	1938      	adds	r0, r7, r4
     69a:	182a      	adds	r2, r5, r0
     69c:	542b      	strb	r3, [r5, r0]
     69e:	0a1e      	lsrs	r6, r3, #8
     6a0:	0c1c      	lsrs	r4, r3, #16
     6a2:	0e19      	lsrs	r1, r3, #24
     6a4:	3004      	adds	r0, #4
     6a6:	7056      	strb	r6, [r2, #1]
     6a8:	7094      	strb	r4, [r2, #2]
     6aa:	70d1      	strb	r1, [r2, #3]
     6ac:	b004      	add	sp, #16
     6ae:	e8bd 81f0 	ldmia.w	sp!, {r4, r5, r6, r7, r8, pc}
     6b2:	bf00      	nop

000006b4 <rosserial_msgs::RequestParamResponse::deserialize(unsigned char*)>:
     6b4:	e92d 41f0 	stmdb	sp!, {r4, r5, r6, r7, r8, lr}
     6b8:	7903      	ldrb	r3, [r0, #4]
     6ba:	780c      	ldrb	r4, [r1, #0]
     6bc:	b082      	sub	sp, #8
     6be:	42a3      	cmp	r3, r4
     6c0:	4605      	mov	r5, r0
     6c2:	460e      	mov	r6, r1
     6c4:	f0c0 8082 	bcc.w	7cc <rosserial_msgs::RequestParamResponse::deserialize(unsigned char*)+0x118>
     6c8:	712c      	strb	r4, [r5, #4]
     6ca:	2c00      	cmp	r4, #0
     6cc:	f000 8087 	beq.w	7de <rosserial_msgs::RequestParamResponse::deserialize(unsigned char*)+0x12a>
     6d0:	4633      	mov	r3, r6
     6d2:	f105 0708 	add.w	r7, r5, #8
     6d6:	2000      	movs	r0, #0
     6d8:	2404      	movs	r4, #4
     6da:	799a      	ldrb	r2, [r3, #6]
     6dc:	f893 e005 	ldrb.w	lr, [r3, #5]
     6e0:	7919      	ldrb	r1, [r3, #4]
     6e2:	0412      	lsls	r2, r2, #16
     6e4:	ea42 220e 	orr.w	r2, r2, lr, lsl #8
     6e8:	f893 e007 	ldrb.w	lr, [r3, #7]
     6ec:	430a      	orrs	r2, r1
     6ee:	ea42 620e 	orr.w	r2, r2, lr, lsl #24
     6f2:	60aa      	str	r2, [r5, #8]
     6f4:	f8d7 e000 	ldr.w	lr, [r7]
     6f8:	68ea      	ldr	r2, [r5, #12]
     6fa:	1c41      	adds	r1, r0, #1
     6fc:	f842 e020 	str.w	lr, [r2, r0, lsl #2]
     700:	792a      	ldrb	r2, [r5, #4]
     702:	b2c8      	uxtb	r0, r1
     704:	4282      	cmp	r2, r0
     706:	f104 0404 	add.w	r4, r4, #4
     70a:	f103 0304 	add.w	r3, r3, #4
     70e:	d8e4      	bhi.n	6da <rosserial_msgs::RequestParamResponse::deserialize(unsigned char*)+0x26>
     710:	4623      	mov	r3, r4
     712:	f816 8003 	ldrb.w	r8, [r6, r3]
     716:	7c2b      	ldrb	r3, [r5, #16]
     718:	1d27      	adds	r7, r4, #4
     71a:	4543      	cmp	r3, r8
     71c:	463c      	mov	r4, r7
     71e:	d366      	bcc.n	7ee <rosserial_msgs::RequestParamResponse::deserialize(unsigned char*)+0x13a>
     720:	f885 8010 	strb.w	r8, [r5, #16]
     724:	f1b8 0f00 	cmp.w	r8, #0
     728:	d01f      	beq.n	76a <rosserial_msgs::RequestParamResponse::deserialize(unsigned char*)+0xb6>
     72a:	f105 0714 	add.w	r7, r5, #20
     72e:	1933      	adds	r3, r6, r4
     730:	2000      	movs	r0, #0
     732:	789a      	ldrb	r2, [r3, #2]
     734:	f893 e001 	ldrb.w	lr, [r3, #1]
     738:	7819      	ldrb	r1, [r3, #0]
     73a:	0412      	lsls	r2, r2, #16
     73c:	ea42 220e 	orr.w	r2, r2, lr, lsl #8
     740:	f893 e003 	ldrb.w	lr, [r3, #3]
     744:	430a      	orrs	r2, r1
     746:	ea42 620e 	orr.w	r2, r2, lr, lsl #24
     74a:	616a      	str	r2, [r5, #20]
     74c:	f8d7 e000 	ldr.w	lr, [r7]
     750:	69aa      	ldr	r2, [r5, #24]
     752:	1c41      	adds	r1, r0, #1
     754:	f842 e020 	str.w	lr, [r2, r0, lsl #2]
     758:	7c2a      	ldrb	r2, [r5, #16]
     75a:	b2c8      	uxtb	r0, r1
     75c:	4282      	cmp	r2, r0
     75e:	f104 0404 	add.w	r4, r4, #4
     762:	f103 0304 	add.w	r3, r3, #4
     766:	d8e4      	bhi.n	732 <rosserial_msgs::RequestParamResponse::deserialize(unsigned char*)+0x7e>
     768:	4627      	mov	r7, r4
     76a:	5df7      	ldrb	r7, [r6, r7]
     76c:	7f2b      	ldrb	r3, [r5, #28]
     76e:	42bb      	cmp	r3, r7
     770:	d344      	bcc.n	7fc <rosserial_msgs::RequestParamResponse::deserialize(unsigned char*)+0x148>
     772:	1d23      	adds	r3, r4, #4
     774:	772f      	strb	r7, [r5, #28]
     776:	b32f      	cbz	r7, 7c4 <rosserial_msgs::RequestParamResponse::deserialize(unsigned char*)+0x110>
     778:	2700      	movs	r7, #0
     77a:	46bc      	mov	r12, r7
     77c:	f105 0e20 	add.w	lr, r5, #32
     780:	58f0      	ldr	r0, [r6, r3]
     782:	1d1c      	adds	r4, r3, #4
     784:	9001      	str	r0, [sp, #4]
     786:	9801      	ldr	r0, [sp, #4]
     788:	4420      	add	r0, r4
     78a:	4284      	cmp	r4, r0
     78c:	d209      	bcs.n	7a2 <rosserial_msgs::RequestParamResponse::deserialize(unsigned char*)+0xee>
     78e:	4622      	mov	r2, r4
     790:	3303      	adds	r3, #3
     792:	4433      	add	r3, r6
     794:	f813 1f01 	ldrb.w	r1, [r3, #1]!
     798:	3201      	adds	r2, #1
     79a:	4282      	cmp	r2, r0
     79c:	f803 1c01 	strb.w	r1, [r3, #-1]
     7a0:	d3f8      	bcc.n	794 <rosserial_msgs::RequestParamResponse::deserialize(unsigned char*)+0xe0>
     7a2:	3c01      	subs	r4, #1
     7a4:	1833      	adds	r3, r6, r0
     7a6:	4434      	add	r4, r6
     7a8:	f803 cc01 	strb.w	r12, [r3, #-1]
     7ac:	622c      	str	r4, [r5, #32]
     7ae:	6a6a      	ldr	r2, [r5, #36]	; 0x24
     7b0:	f8de 1000 	ldr.w	r1, [lr]
     7b4:	1c7b      	adds	r3, r7, #1
     7b6:	f842 1027 	str.w	r1, [r2, r7, lsl #2]
     7ba:	7f2a      	ldrb	r2, [r5, #28]
     7bc:	b2df      	uxtb	r7, r3
     7be:	42ba      	cmp	r2, r7
     7c0:	4603      	mov	r3, r0
     7c2:	d8dd      	bhi.n	780 <rosserial_msgs::RequestParamResponse::deserialize(unsigned char*)+0xcc>
     7c4:	4618      	mov	r0, r3
     7c6:	b002      	add	sp, #8
     7c8:	e8bd 81f0 	ldmia.w	sp!, {r4, r5, r6, r7, r8, pc}
     7cc:	00a1      	lsls	r1, r4, #2
     7ce:	68c0      	ldr	r0, [r0, #12]
     7d0:	f001 fe0e 	bl	23f0 <__wrap_realloc>
     7d4:	712c      	strb	r4, [r5, #4]
     7d6:	60e8      	str	r0, [r5, #12]
     7d8:	2c00      	cmp	r4, #0
     7da:	f47f af79 	bne.w	6d0 <rosserial_msgs::RequestParamResponse::deserialize(unsigned char*)+0x1c>
     7de:	2304      	movs	r3, #4
     7e0:	f816 8003 	ldrb.w	r8, [r6, r3]
     7e4:	7c2b      	ldrb	r3, [r5, #16]
     7e6:	2708      	movs	r7, #8
     7e8:	4543      	cmp	r3, r8
     7ea:	463c      	mov	r4, r7
     7ec:	d298      	bcs.n	720 <rosserial_msgs::RequestParamResponse::deserialize(unsigned char*)+0x6c>
     7ee:	ea4f 0188 	mov.w	r1, r8, lsl #2
     7f2:	69a8      	ldr	r0, [r5, #24]
     7f4:	f001 fdfc 	bl	23f0 <__wrap_realloc>
     7f8:	61a8      	str	r0, [r5, #24]
     7fa:	e791      	b.n	720 <rosserial_msgs::RequestParamResponse::deserialize(unsigned char*)+0x6c>
     7fc:	00b9      	lsls	r1, r7, #2
     7fe:	6a68      	ldr	r0, [r5, #36]	; 0x24
     800:	f001 fdf6 	bl	23f0 <__wrap_realloc>
     804:	6268      	str	r0, [r5, #36]	; 0x24
     806:	e7b4      	b.n	772 <rosserial_msgs::RequestParamResponse::deserialize(unsigned char*)+0xbe>

00000808 <fish_msgs::joystick_in::serialize(unsigned char*) const>:
     808:	6883      	ldr	r3, [r0, #8]
     80a:	b570      	push	{r4, r5, r6, lr}
     80c:	700b      	strb	r3, [r1, #0]
     80e:	6883      	ldr	r3, [r0, #8]
     810:	4605      	mov	r5, r0
     812:	0a1b      	lsrs	r3, r3, #8
     814:	704b      	strb	r3, [r1, #1]
     816:	8943      	ldrh	r3, [r0, #10]
     818:	b082      	sub	sp, #8
     81a:	708b      	strb	r3, [r1, #2]
     81c:	7ac3      	ldrb	r3, [r0, #11]
     81e:	460c      	mov	r4, r1
     820:	70cb      	strb	r3, [r1, #3]
     822:	68c3      	ldr	r3, [r0, #12]
     824:	710b      	strb	r3, [r1, #4]
     826:	68c3      	ldr	r3, [r0, #12]
     828:	0a1b      	lsrs	r3, r3, #8
     82a:	714b      	strb	r3, [r1, #5]
     82c:	89c3      	ldrh	r3, [r0, #14]
     82e:	718b      	strb	r3, [r1, #6]
     830:	7bc3      	ldrb	r3, [r0, #15]
     832:	71cb      	strb	r3, [r1, #7]
     834:	6903      	ldr	r3, [r0, #16]
     836:	720b      	strb	r3, [r1, #8]
     838:	6903      	ldr	r3, [r0, #16]
     83a:	0a1b      	lsrs	r3, r3, #8
     83c:	724b      	strb	r3, [r1, #9]
     83e:	8a43      	ldrh	r3, [r0, #18]
     840:	728b      	strb	r3, [r1, #10]
     842:	7cc3      	ldrb	r3, [r0, #19]
     844:	72cb      	strb	r3, [r1, #11]
     846:	6940      	ldr	r0, [r0, #20]
     848:	f005 fe0d 	bl	6466 <strlen>
     84c:	4606      	mov	r6, r0
     84e:	ab02      	add	r3, sp, #8
     850:	f843 0d04 	str.w	r0, [r3, #-4]!
     854:	6818      	ldr	r0, [r3, #0]
     856:	4632      	mov	r2, r6
     858:	60e0      	str	r0, [r4, #12]
     85a:	6969      	ldr	r1, [r5, #20]
     85c:	f104 0010 	add.w	r0, r4, #16
     860:	f004 ff36 	bl	56d0 <memcpy>
     864:	7e2b      	ldrb	r3, [r5, #24]
     866:	4434      	add	r4, r6
     868:	7423      	strb	r3, [r4, #16]
     86a:	7e6b      	ldrb	r3, [r5, #25]
     86c:	f106 0014 	add.w	r0, r6, #20
     870:	7463      	strb	r3, [r4, #17]
     872:	7eab      	ldrb	r3, [r5, #26]
     874:	74a3      	strb	r3, [r4, #18]
     876:	7eeb      	ldrb	r3, [r5, #27]
     878:	74e3      	strb	r3, [r4, #19]
     87a:	b002      	add	sp, #8
     87c:	bd70      	pop	{r4, r5, r6, pc}
     87e:	bf00      	nop

00000880 <ros::Subscriber<fish_msgs::joystick_in>::callback(unsigned char*)>:
     880:	b5f0      	push	{r4, r5, r6, r7, lr}
     882:	780b      	ldrb	r3, [r1, #0]
     884:	4604      	mov	r4, r0
     886:	6143      	str	r3, [r0, #20]
     888:	784a      	ldrb	r2, [r1, #1]
     88a:	f100 050c 	add.w	r5, r0, #12
     88e:	ea43 2302 	orr.w	r3, r3, r2, lsl #8
     892:	6143      	str	r3, [r0, #20]
     894:	788a      	ldrb	r2, [r1, #2]
     896:	b083      	sub	sp, #12
     898:	ea43 4302 	orr.w	r3, r3, r2, lsl #16
     89c:	6143      	str	r3, [r0, #20]
     89e:	78ca      	ldrb	r2, [r1, #3]
     8a0:	f101 0e0f 	add.w	lr, r1, #15
     8a4:	ea43 6302 	orr.w	r3, r3, r2, lsl #24
     8a8:	6143      	str	r3, [r0, #20]
     8aa:	790b      	ldrb	r3, [r1, #4]
     8ac:	6183      	str	r3, [r0, #24]
     8ae:	794a      	ldrb	r2, [r1, #5]
     8b0:	ea43 2302 	orr.w	r3, r3, r2, lsl #8
     8b4:	6183      	str	r3, [r0, #24]
     8b6:	798a      	ldrb	r2, [r1, #6]
     8b8:	ea43 4302 	orr.w	r3, r3, r2, lsl #16
     8bc:	6183      	str	r3, [r0, #24]
     8be:	79ca      	ldrb	r2, [r1, #7]
     8c0:	ea43 6302 	orr.w	r3, r3, r2, lsl #24
     8c4:	6183      	str	r3, [r0, #24]
     8c6:	7a0b      	ldrb	r3, [r1, #8]
     8c8:	61c3      	str	r3, [r0, #28]
     8ca:	7a4a      	ldrb	r2, [r1, #9]
     8cc:	ea43 2302 	orr.w	r3, r3, r2, lsl #8
     8d0:	61c3      	str	r3, [r0, #28]
     8d2:	7a8a      	ldrb	r2, [r1, #10]
     8d4:	ea43 4302 	orr.w	r3, r3, r2, lsl #16
     8d8:	61c3      	str	r3, [r0, #28]
     8da:	7aca      	ldrb	r2, [r1, #11]
     8dc:	ea43 6302 	orr.w	r3, r3, r2, lsl #24
     8e0:	61c3      	str	r3, [r0, #28]
     8e2:	68c8      	ldr	r0, [r1, #12]
     8e4:	9001      	str	r0, [sp, #4]
     8e6:	9e01      	ldr	r6, [sp, #4]
     8e8:	f106 0710 	add.w	r7, r6, #16
     8ec:	2f10      	cmp	r7, #16
     8ee:	d909      	bls.n	904 <ros::Subscriber<fish_msgs::joystick_in>::callback(unsigned char*)+0x84>
     8f0:	4673      	mov	r3, lr
     8f2:	f106 000f 	add.w	r0, r6, #15
     8f6:	4408      	add	r0, r1
     8f8:	f813 2f01 	ldrb.w	r2, [r3, #1]!
     8fc:	4283      	cmp	r3, r0
     8fe:	f803 2c01 	strb.w	r2, [r3, #-1]
     902:	d1f9      	bne.n	8f8 <ros::Subscriber<fish_msgs::joystick_in>::callback(unsigned char*)+0x78>
     904:	4628      	mov	r0, r5
     906:	198b      	adds	r3, r1, r6
     908:	2200      	movs	r2, #0
     90a:	73da      	strb	r2, [r3, #15]
     90c:	f8c4 e020 	str.w	lr, [r4, #32]
     910:	5dca      	ldrb	r2, [r1, r7]
     912:	f884 2024 	strb.w	r2, [r4, #36]	; 0x24
     916:	7c59      	ldrb	r1, [r3, #17]
     918:	6aa2      	ldr	r2, [r4, #40]	; 0x28
     91a:	f884 1025 	strb.w	r1, [r4, #37]	; 0x25
     91e:	7c99      	ldrb	r1, [r3, #18]
     920:	f884 1026 	strb.w	r1, [r4, #38]	; 0x26
     924:	7cdb      	ldrb	r3, [r3, #19]
     926:	f884 3027 	strb.w	r3, [r4, #39]	; 0x27
     92a:	b003      	add	sp, #12
     92c:	e8bd 40f0 	ldmia.w	sp!, {r4, r5, r6, r7, lr}
     930:	4710      	bx	r2
     932:	bf00      	nop

00000934 <fish_msgs::joystick_in::deserialize(unsigned char*)>:
     934:	780b      	ldrb	r3, [r1, #0]
     936:	b4f0      	push	{r4, r5, r6, r7}
     938:	6083      	str	r3, [r0, #8]
     93a:	784a      	ldrb	r2, [r1, #1]
     93c:	4604      	mov	r4, r0
     93e:	ea43 2302 	orr.w	r3, r3, r2, lsl #8
     942:	6083      	str	r3, [r0, #8]
     944:	788a      	ldrb	r2, [r1, #2]
     946:	b082      	sub	sp, #8
     948:	ea43 4302 	orr.w	r3, r3, r2, lsl #16
     94c:	6083      	str	r3, [r0, #8]
     94e:	78ca      	ldrb	r2, [r1, #3]
     950:	f101 070f 	add.w	r7, r1, #15
     954:	ea43 6302 	orr.w	r3, r3, r2, lsl #24
     958:	6083      	str	r3, [r0, #8]
     95a:	790b      	ldrb	r3, [r1, #4]
     95c:	60c3      	str	r3, [r0, #12]
     95e:	794a      	ldrb	r2, [r1, #5]
     960:	ea43 2302 	orr.w	r3, r3, r2, lsl #8
     964:	60c3      	str	r3, [r0, #12]
     966:	798a      	ldrb	r2, [r1, #6]
     968:	ea43 4302 	orr.w	r3, r3, r2, lsl #16
     96c:	60c3      	str	r3, [r0, #12]
     96e:	79ca      	ldrb	r2, [r1, #7]
     970:	ea43 6302 	orr.w	r3, r3, r2, lsl #24
     974:	60c3      	str	r3, [r0, #12]
     976:	7a0b      	ldrb	r3, [r1, #8]
     978:	6103      	str	r3, [r0, #16]
     97a:	7a4a      	ldrb	r2, [r1, #9]
     97c:	ea43 2302 	orr.w	r3, r3, r2, lsl #8
     980:	6103      	str	r3, [r0, #16]
     982:	7a8a      	ldrb	r2, [r1, #10]
     984:	ea43 4302 	orr.w	r3, r3, r2, lsl #16
     988:	6103      	str	r3, [r0, #16]
     98a:	7aca      	ldrb	r2, [r1, #11]
     98c:	ea43 6302 	orr.w	r3, r3, r2, lsl #24
     990:	6103      	str	r3, [r0, #16]
     992:	68c8      	ldr	r0, [r1, #12]
     994:	9001      	str	r0, [sp, #4]
     996:	9801      	ldr	r0, [sp, #4]
     998:	f100 0610 	add.w	r6, r0, #16
     99c:	2e10      	cmp	r6, #16
     99e:	d909      	bls.n	9b4 <fish_msgs::joystick_in::deserialize(unsigned char*)+0x80>
     9a0:	463b      	mov	r3, r7
     9a2:	f100 050f 	add.w	r5, r0, #15
     9a6:	440d      	add	r5, r1
     9a8:	f813 2f01 	ldrb.w	r2, [r3, #1]!
     9ac:	42ab      	cmp	r3, r5
     9ae:	f803 2c01 	strb.w	r2, [r3, #-1]
     9b2:	d1f9      	bne.n	9a8 <fish_msgs::joystick_in::deserialize(unsigned char*)+0x74>
     9b4:	180b      	adds	r3, r1, r0
     9b6:	2200      	movs	r2, #0
     9b8:	73da      	strb	r2, [r3, #15]
     9ba:	6167      	str	r7, [r4, #20]
     9bc:	5d8a      	ldrb	r2, [r1, r6]
     9be:	3014      	adds	r0, #20
     9c0:	7622      	strb	r2, [r4, #24]
     9c2:	7c5a      	ldrb	r2, [r3, #17]
     9c4:	7662      	strb	r2, [r4, #25]
     9c6:	7c9a      	ldrb	r2, [r3, #18]
     9c8:	76a2      	strb	r2, [r4, #26]
     9ca:	7cdb      	ldrb	r3, [r3, #19]
     9cc:	76e3      	strb	r3, [r4, #27]
     9ce:	b002      	add	sp, #8
     9d0:	bcf0      	pop	{r4, r5, r6, r7}
     9d2:	4770      	bx	lr

000009d4 <ros::NodeHandle_<MbedHardware, 25, 25, 512, 512>::publish(int, ros::Msg const*)>:
     9d4:	e92d 41f0 	stmdb	sp!, {r4, r5, r6, r7, r8, lr}
     9d8:	2963      	cmp	r1, #99	; 0x63
     9da:	b084      	sub	sp, #16
     9dc:	dd03      	ble.n	9e6 <ros::NodeHandle_<MbedHardware, 25, 25, 512, 512>::publish(int, ros::Msg const*)+0x12>
     9de:	f890 55fc 	ldrb.w	r5, [r0, #1532]	; 0x5fc
     9e2:	2d00      	cmp	r5, #0
     9e4:	d04a      	beq.n	a7c <ros::NodeHandle_<MbedHardware, 25, 25, 512, 512>::publish(int, ros::Msg const*)+0xa8>
     9e6:	4606      	mov	r6, r0
     9e8:	6813      	ldr	r3, [r2, #0]
     9ea:	4688      	mov	r8, r1
     9ec:	4610      	mov	r0, r2
     9ee:	681b      	ldr	r3, [r3, #0]
     9f0:	f206 3127 	addw	r1, r6, #807	; 0x327
     9f4:	4798      	blx	r3
     9f6:	b2c4      	uxtb	r4, r0
     9f8:	f3c0 2107 	ubfx	r1, r0, #8, #8
     9fc:	1862      	adds	r2, r4, r1
     9fe:	43d2      	mvns	r2, r2
     a00:	b280      	uxth	r0, r0
     a02:	f886 4322 	strb.w	r4, [r6, #802]	; 0x322
     a06:	24ff      	movs	r4, #255	; 0xff
     a08:	f206 3725 	addw	r7, r6, #805	; 0x325
     a0c:	f200 3526 	addw	r5, r0, #806	; 0x326
     a10:	f886 2324 	strb.w	r2, [r6, #804]	; 0x324
     a14:	f886 4320 	strb.w	r4, [r6, #800]	; 0x320
     a18:	22fe      	movs	r2, #254	; 0xfe
     a1a:	fa5f f488 	uxtb.w	r4, r8
     a1e:	f348 2807 	sbfx	r8, r8, #8, #8
     a22:	f886 2321 	strb.w	r2, [r6, #801]	; 0x321
     a26:	463b      	mov	r3, r7
     a28:	f886 1323 	strb.w	r1, [r6, #803]	; 0x323
     a2c:	4435      	add	r5, r6
     a2e:	f886 4325 	strb.w	r4, [r6, #805]	; 0x325
     a32:	f886 8326 	strb.w	r8, [r6, #806]	; 0x326
     a36:	2200      	movs	r2, #0
     a38:	e001      	b.n	a3e <ros::NodeHandle_<MbedHardware, 25, 25, 512, 512>::publish(int, ros::Msg const*)+0x6a>
     a3a:	f813 4f01 	ldrb.w	r4, [r3, #1]!
     a3e:	42ab      	cmp	r3, r5
     a40:	4422      	add	r2, r4
     a42:	d1fa      	bne.n	a3a <ros::NodeHandle_<MbedHardware, 25, 25, 512, 512>::publish(int, ros::Msg const*)+0x66>
     a44:	43d2      	mvns	r2, r2
     a46:	1dc3      	adds	r3, r0, #7
     a48:	f100 0508 	add.w	r5, r0, #8
     a4c:	b29b      	uxth	r3, r3
     a4e:	b2ad      	uxth	r5, r5
     a50:	4433      	add	r3, r6
     a52:	f5b5 7f00 	cmp.w	r5, #512	; 0x200
     a56:	f883 2320 	strb.w	r2, [r3, #800]	; 0x320
     a5a:	d813      	bhi.n	a84 <ros::NodeHandle_<MbedHardware, 25, 25, 512, 512>::publish(int, ros::Msg const*)+0xb0>
     a5c:	f506 7748 	add.w	r7, r6, #800	; 0x320
     a60:	b165      	cbz	r5, a7c <ros::NodeHandle_<MbedHardware, 25, 25, 512, 512>::publish(int, ros::Msg const*)+0xa8>
     a62:	1e6b      	subs	r3, r5, #1
     a64:	441f      	add	r7, r3
     a66:	f106 0844 	add.w	r8, r6, #68	; 0x44
     a6a:	f206 341f 	addw	r4, r6, #799	; 0x31f
     a6e:	f814 1f01 	ldrb.w	r1, [r4, #1]!
     a72:	4640      	mov	r0, r8
     a74:	f003 fb10 	bl	4098 <mbed::Stream::putc(int)>
     a78:	42a7      	cmp	r7, r4
     a7a:	d1f8      	bne.n	a6e <ros::NodeHandle_<MbedHardware, 25, 25, 512, 512>::publish(int, ros::Msg const*)+0x9a>
     a7c:	4628      	mov	r0, r5
     a7e:	b004      	add	sp, #16
     a80:	e8bd 81f0 	ldmia.w	sp!, {r4, r5, r6, r7, r8, pc}
     a84:	4930      	ldr	r1, [pc, #192]	; (b48 <ros::NodeHandle_<MbedHardware, 25, 25, 512, 512>::publish(int, ros::Msg const*)+0x174>)
     a86:	4c31      	ldr	r4, [pc, #196]	; (b4c <ros::NodeHandle_<MbedHardware, 25, 25, 512, 512>::publish(int, ros::Msg const*)+0x178>)
     a88:	2203      	movs	r2, #3
     a8a:	6833      	ldr	r3, [r6, #0]
     a8c:	9101      	str	r1, [sp, #4]
     a8e:	9403      	str	r4, [sp, #12]
     a90:	f88d 2008 	strb.w	r2, [sp, #8]
     a94:	681b      	ldr	r3, [r3, #0]
     a96:	492e      	ldr	r1, [pc, #184]	; (b50 <ros::NodeHandle_<MbedHardware, 25, 25, 512, 512>::publish(int, ros::Msg const*)+0x17c>)
     a98:	428b      	cmp	r3, r1
     a9a:	d14d      	bne.n	b38 <ros::NodeHandle_<MbedHardware, 25, 25, 512, 512>::publish(int, ros::Msg const*)+0x164>
     a9c:	ab04      	add	r3, sp, #16
     a9e:	2138      	movs	r1, #56	; 0x38
     aa0:	f843 1d10 	str.w	r1, [r3, #-16]!
     aa4:	6818      	ldr	r0, [r3, #0]
     aa6:	f886 2327 	strb.w	r2, [r6, #807]	; 0x327
     aaa:	f8c6 0328 	str.w	r0, [r6, #808]	; 0x328
     aae:	f104 0c30 	add.w	r12, r4, #48	; 0x30
     ab2:	f506 754b 	add.w	r5, r6, #812	; 0x32c
     ab6:	46a6      	mov	lr, r4
     ab8:	e8be 000f 	ldmia.w	lr!, {r0, r1, r2, r3}
     abc:	45e6      	cmp	lr, r12
     abe:	6028      	str	r0, [r5, #0]
     ac0:	6069      	str	r1, [r5, #4]
     ac2:	60aa      	str	r2, [r5, #8]
     ac4:	60eb      	str	r3, [r5, #12]
     ac6:	f104 0410 	add.w	r4, r4, #16
     aca:	f105 0510 	add.w	r5, r5, #16
     ace:	d1f2      	bne.n	ab6 <ros::NodeHandle_<MbedHardware, 25, 25, 512, 512>::publish(int, ros::Msg const*)+0xe2>
     ad0:	cc03      	ldmia	r4!, {r0, r1}
     ad2:	f04f 0e00 	mov.w	lr, #0
     ad6:	6028      	str	r0, [r5, #0]
     ad8:	6069      	str	r1, [r5, #4]
     ada:	f04f 0c07 	mov.w	r12, #7
     ade:	21c2      	movs	r1, #194	; 0xc2
     ae0:	25ff      	movs	r5, #255	; 0xff
     ae2:	24fe      	movs	r4, #254	; 0xfe
     ae4:	203d      	movs	r0, #61	; 0x3d
     ae6:	f886 1324 	strb.w	r1, [r6, #804]	; 0x324
     aea:	4673      	mov	r3, lr
     aec:	4662      	mov	r2, r12
     aee:	f886 e323 	strb.w	lr, [r6, #803]	; 0x323
     af2:	f886 e326 	strb.w	lr, [r6, #806]	; 0x326
     af6:	f886 c325 	strb.w	r12, [r6, #805]	; 0x325
     afa:	f886 5320 	strb.w	r5, [r6, #800]	; 0x320
     afe:	f886 4321 	strb.w	r4, [r6, #801]	; 0x321
     b02:	f886 0322 	strb.w	r0, [r6, #802]	; 0x322
     b06:	f206 3163 	addw	r1, r6, #867	; 0x363
     b0a:	e001      	b.n	b10 <ros::NodeHandle_<MbedHardware, 25, 25, 512, 512>::publish(int, ros::Msg const*)+0x13c>
     b0c:	f817 2f01 	ldrb.w	r2, [r7, #1]!
     b10:	428f      	cmp	r7, r1
     b12:	4413      	add	r3, r2
     b14:	d1fa      	bne.n	b0c <ros::NodeHandle_<MbedHardware, 25, 25, 512, 512>::publish(int, ros::Msg const*)+0x138>
     b16:	43db      	mvns	r3, r3
     b18:	f106 0744 	add.w	r7, r6, #68	; 0x44
     b1c:	f886 3364 	strb.w	r3, [r6, #868]	; 0x364
     b20:	f206 351f 	addw	r5, r6, #799	; 0x31f
     b24:	f506 7459 	add.w	r4, r6, #868	; 0x364
     b28:	f815 1f01 	ldrb.w	r1, [r5, #1]!
     b2c:	4638      	mov	r0, r7
     b2e:	f003 fab3 	bl	4098 <mbed::Stream::putc(int)>
     b32:	42ac      	cmp	r4, r5
     b34:	d1f8      	bne.n	b28 <ros::NodeHandle_<MbedHardware, 25, 25, 512, 512>::publish(int, ros::Msg const*)+0x154>
     b36:	e003      	b.n	b40 <ros::NodeHandle_<MbedHardware, 25, 25, 512, 512>::publish(int, ros::Msg const*)+0x16c>
     b38:	4630      	mov	r0, r6
     b3a:	aa01      	add	r2, sp, #4
     b3c:	2107      	movs	r1, #7
     b3e:	4798      	blx	r3
     b40:	f04f 35ff 	mov.w	r5, #4294967295
     b44:	e79a      	b.n	a7c <ros::NodeHandle_<MbedHardware, 25, 25, 512, 512>::publish(int, ros::Msg const*)+0xa8>
     b46:	bf00      	nop
     b48:	0000707c 	.word	0x0000707c
     b4c:	00007240 	.word	0x00007240
     b50:	000009d5 	.word	0x000009d5

00000b54 <main>:
     b54:	e92d 4880 	stmdb	sp!, {r7, r11, lr}
     b58:	f8df 937c 	ldr.w	r9, [pc, #892]	; ed8 <Stack_Size+0x2d8>
     b5c:	b089      	sub	sp, #36	; 0x24
     b5e:	f8d9 1100 	ldr.w	r1, [r9, #256]	; 0x100
     b62:	f109 0004 	add.w	r0, r9, #4
     b66:	f003 f9c1 	bl	3eec <mbed::SerialBase::baud(int)>
     b6a:	2200      	movs	r2, #0
     b6c:	4613      	mov	r3, r2
     b6e:	f509 61b0 	add.w	r1, r9, #1408	; 0x580
     b72:	f8c9 25e8 	str.w	r2, [r9, #1512]	; 0x5e8
     b76:	f8c9 25ec 	str.w	r2, [r9, #1516]	; 0x5ec
     b7a:	f8c9 25f4 	str.w	r2, [r9, #1524]	; 0x5f4
     b7e:	f8c9 25f0 	str.w	r2, [r9, #1520]	; 0x5f0
     b82:	f851 2f04 	ldr.w	r2, [r1, #4]!
     b86:	b11a      	cbz	r2, b90 <main+0x3c>
     b88:	3301      	adds	r3, #1
     b8a:	2b19      	cmp	r3, #25
     b8c:	d1f9      	bne.n	b82 <main+0x2e>
     b8e:	e006      	b.n	b9e <main+0x4a>
     b90:	4acf      	ldr	r2, [pc, #828]	; (ed0 <Stack_Size+0x2d0>)
     b92:	eb09 0183 	add.w	r1, r9, r3, lsl #2
     b96:	3364      	adds	r3, #100	; 0x64
     b98:	f8c1 2584 	str.w	r2, [r1, #1412]	; 0x584
     b9c:	6053      	str	r3, [r2, #4]
     b9e:	f8df 8348 	ldr.w	r8, [pc, #840]	; ee8 <Stack_Size+0x2e8>
     ba2:	f5a8 7a48 	sub.w	r10, r8, #800	; 0x320
     ba6:	e00d      	b.n	bc4 <main+0x70>
     ba8:	f899 35fc 	ldrb.w	r3, [r9, #1532]	; 0x5fc
     bac:	b13b      	cbz	r3, bbe <main+0x6a>
     bae:	f640 12c4 	movw	r2, #2500	; 0x9c4
     bb2:	f8da 3600 	ldr.w	r3, [r10, #1536]	; 0x600
     bb6:	1ae3      	subs	r3, r4, r3
     bb8:	4293      	cmp	r3, r2
     bba:	f200 8197 	bhi.w	eec <Stack_Size+0x2ec>
     bbe:	2001      	movs	r0, #1
     bc0:	f002 f8fa 	bl	2db8 <wait_ms>
     bc4:	48c3      	ldr	r0, [pc, #780]	; (ed4 <Stack_Size+0x2d4>)
     bc6:	f003 fa97 	bl	40f8 <mbed::Timer::read_ms()>
     bca:	f642 22f8 	movw	r2, #11000	; 0x2af8
     bce:	f8d9 3604 	ldr.w	r3, [r9, #1540]	; 0x604
     bd2:	4604      	mov	r4, r0
     bd4:	1ac3      	subs	r3, r0, r3
     bd6:	4293      	cmp	r3, r2
     bd8:	bf84      	itt	hi
     bda:	2300      	movhi	r3, #0
     bdc:	f88a 35fc 	strbhi.w	r3, [r10, #1532]	; 0x5fc
     be0:	f8d9 35e8 	ldr.w	r3, [r9, #1512]	; 0x5e8
     be4:	b133      	cbz	r3, bf4 <main+0xa0>
     be6:	f8da 3608 	ldr.w	r3, [r10, #1544]	; 0x608
     bea:	4298      	cmp	r0, r3
     bec:	bf84      	itt	hi
     bee:	2300      	movhi	r3, #0
     bf0:	f8ca 35e8 	strhi.w	r3, [r10, #1512]	; 0x5e8
     bf4:	4db8      	ldr	r5, [pc, #736]	; (ed8 <Stack_Size+0x2d8>)
     bf6:	1d28      	adds	r0, r5, #4
     bf8:	f001 fdac 	bl	2754 <AjK::MODSERIAL::rxBufferEmpty()>
     bfc:	4607      	mov	r7, r0
     bfe:	2800      	cmp	r0, #0
     c00:	d1d2      	bne.n	ba8 <main+0x54>
     c02:	2101      	movs	r1, #1
     c04:	1d28      	adds	r0, r5, #4
     c06:	f001 fc1b 	bl	2440 <AjK::MODSERIAL::__getc(bool)>
     c0a:	2800      	cmp	r0, #0
     c0c:	dbcc      	blt.n	ba8 <main+0x54>
     c0e:	f8da 35f8 	ldr.w	r3, [r10, #1528]	; 0x5f8
     c12:	f8da 65e8 	ldr.w	r6, [r10, #1512]	; 0x5e8
     c16:	4403      	add	r3, r0
     c18:	2e07      	cmp	r6, #7
     c1a:	f8ca 35f8 	str.w	r3, [r10, #1528]	; 0x5f8
     c1e:	f000 80a9 	beq.w	d74 <Stack_Size+0x174>
     c22:	b956      	cbnz	r6, c3a <Stack_Size+0x3a>
     c24:	28ff      	cmp	r0, #255	; 0xff
     c26:	f040 80b9 	bne.w	d9c <Stack_Size+0x19c>
     c2a:	2201      	movs	r2, #1
     c2c:	f104 0314 	add.w	r3, r4, #20
     c30:	f8ca 25e8 	str.w	r2, [r10, #1512]	; 0x5e8
     c34:	f8ca 3608 	str.w	r3, [r10, #1544]	; 0x608
     c38:	e7dc      	b.n	bf4 <main+0xa0>
     c3a:	2e01      	cmp	r6, #1
     c3c:	f000 80b9 	beq.w	db2 <Stack_Size+0x1b2>
     c40:	2e02      	cmp	r6, #2
     c42:	f000 8106 	beq.w	e52 <Stack_Size+0x252>
     c46:	2e03      	cmp	r6, #3
     c48:	f000 810d 	beq.w	e66 <Stack_Size+0x266>
     c4c:	2e04      	cmp	r6, #4
     c4e:	f000 8114 	beq.w	e7a <Stack_Size+0x27a>
     c52:	2e05      	cmp	r6, #5
     c54:	f000 8120 	beq.w	e98 <Stack_Size+0x298>
     c58:	2e06      	cmp	r6, #6
     c5a:	f000 8125 	beq.w	ea8 <Stack_Size+0x2a8>
     c5e:	2e08      	cmp	r6, #8
     c60:	d1c8      	bne.n	bf4 <main+0xa0>
     c62:	4a9e      	ldr	r2, [pc, #632]	; (edc <Stack_Size+0x2dc>)
     c64:	2100      	movs	r1, #0
     c66:	401a      	ands	r2, r3
     c68:	428a      	cmp	r2, r1
     c6a:	f8c9 15e8 	str.w	r1, [r9, #1512]	; 0x5e8
     c6e:	f2c0 8186 	blt.w	f7e <Stack_Size+0x37e>
     c72:	2aff      	cmp	r2, #255	; 0xff
     c74:	d1be      	bne.n	bf4 <main+0xa0>
     c76:	f8d9 35f0 	ldr.w	r3, [r9, #1520]	; 0x5f0
     c7a:	4d97      	ldr	r5, [pc, #604]	; (ed8 <Stack_Size+0x2d8>)
     c7c:	2b00      	cmp	r3, #0
     c7e:	f000 826d 	beq.w	115c <Stack_Size+0x55c>
     c82:	2b0a      	cmp	r3, #10
     c84:	f000 822f 	beq.w	10e6 <Stack_Size+0x4e6>
     c88:	2b06      	cmp	r3, #6
     c8a:	f000 8181 	beq.w	f90 <Stack_Size+0x390>
     c8e:	2b0b      	cmp	r3, #11
     c90:	f000 817a 	beq.w	f88 <Stack_Size+0x388>
     c94:	eb0a 0383 	add.w	r3, r10, r3, lsl #2
     c98:	f8d3 33f4 	ldr.w	r3, [r3, #1012]	; 0x3f4
     c9c:	2b00      	cmp	r3, #0
     c9e:	d0a9      	beq.n	bf4 <main+0xa0>
     ca0:	681a      	ldr	r2, [r3, #0]
     ca2:	498f      	ldr	r1, [pc, #572]	; (ee0 <Stack_Size+0x2e0>)
     ca4:	6812      	ldr	r2, [r2, #0]
     ca6:	428a      	cmp	r2, r1
     ca8:	f040 8425 	bne.w	14f6 <Stack_Size+0x8f6>
     cac:	f89a 2120 	ldrb.w	r2, [r10, #288]	; 0x120
     cb0:	f103 000c 	add.w	r0, r3, #12
     cb4:	615a      	str	r2, [r3, #20]
     cb6:	f89a 1121 	ldrb.w	r1, [r10, #289]	; 0x121
     cba:	ea42 2201 	orr.w	r2, r2, r1, lsl #8
     cbe:	615a      	str	r2, [r3, #20]
     cc0:	f89a 1122 	ldrb.w	r1, [r10, #290]	; 0x122
     cc4:	ea42 4201 	orr.w	r2, r2, r1, lsl #16
     cc8:	615a      	str	r2, [r3, #20]
     cca:	f89a 1123 	ldrb.w	r1, [r10, #291]	; 0x123
     cce:	ea42 6201 	orr.w	r2, r2, r1, lsl #24
     cd2:	615a      	str	r2, [r3, #20]
     cd4:	f89a 2124 	ldrb.w	r2, [r10, #292]	; 0x124
     cd8:	619a      	str	r2, [r3, #24]
     cda:	f89a 1125 	ldrb.w	r1, [r10, #293]	; 0x125
     cde:	ea42 2201 	orr.w	r2, r2, r1, lsl #8
     ce2:	619a      	str	r2, [r3, #24]
     ce4:	f89a 1126 	ldrb.w	r1, [r10, #294]	; 0x126
     ce8:	ea42 4201 	orr.w	r2, r2, r1, lsl #16
     cec:	619a      	str	r2, [r3, #24]
     cee:	f89a 1127 	ldrb.w	r1, [r10, #295]	; 0x127
     cf2:	ea42 6201 	orr.w	r2, r2, r1, lsl #24
     cf6:	619a      	str	r2, [r3, #24]
     cf8:	f89a 2128 	ldrb.w	r2, [r10, #296]	; 0x128
     cfc:	61da      	str	r2, [r3, #28]
     cfe:	f89a 1129 	ldrb.w	r1, [r10, #297]	; 0x129
     d02:	ea42 2201 	orr.w	r2, r2, r1, lsl #8
     d06:	61da      	str	r2, [r3, #28]
     d08:	f89a 112a 	ldrb.w	r1, [r10, #298]	; 0x12a
     d0c:	ea42 4201 	orr.w	r2, r2, r1, lsl #16
     d10:	61da      	str	r2, [r3, #28]
     d12:	f89a 112b 	ldrb.w	r1, [r10, #299]	; 0x12b
     d16:	ea42 6201 	orr.w	r2, r2, r1, lsl #24
     d1a:	61da      	str	r2, [r3, #28]
     d1c:	f8da 112c 	ldr.w	r1, [r10, #300]	; 0x12c
     d20:	f101 0710 	add.w	r7, r1, #16
     d24:	2f10      	cmp	r7, #16
     d26:	d90a      	bls.n	d3e <Stack_Size+0x13e>
     d28:	f201 162f 	addw	r6, r1, #303	; 0x12f
     d2c:	f205 152f 	addw	r5, r5, #303	; 0x12f
     d30:	4456      	add	r6, r10
     d32:	f815 2f01 	ldrb.w	r2, [r5, #1]!
     d36:	42ae      	cmp	r6, r5
     d38:	f805 2c01 	strb.w	r2, [r5, #-1]
     d3c:	d1f9      	bne.n	d32 <Stack_Size+0x132>
     d3e:	eb09 0201 	add.w	r2, r9, r1
     d42:	2100      	movs	r1, #0
     d44:	f882 112f 	strb.w	r1, [r2, #303]	; 0x12f
     d48:	4966      	ldr	r1, [pc, #408]	; (ee4 <Stack_Size+0x2e4>)
     d4a:	444f      	add	r7, r9
     d4c:	6219      	str	r1, [r3, #32]
     d4e:	f897 1120 	ldrb.w	r1, [r7, #288]	; 0x120
     d52:	f883 1024 	strb.w	r1, [r3, #36]	; 0x24
     d56:	f892 5131 	ldrb.w	r5, [r2, #305]	; 0x131
     d5a:	6a99      	ldr	r1, [r3, #40]	; 0x28
     d5c:	f883 5025 	strb.w	r5, [r3, #37]	; 0x25
     d60:	f892 5132 	ldrb.w	r5, [r2, #306]	; 0x132
     d64:	f883 5026 	strb.w	r5, [r3, #38]	; 0x26
     d68:	f892 2133 	ldrb.w	r2, [r2, #307]	; 0x133
     d6c:	f883 2027 	strb.w	r2, [r3, #39]	; 0x27
     d70:	4788      	blx	r1
     d72:	e73f      	b.n	bf4 <main+0xa0>
     d74:	f8da 25f4 	ldr.w	r2, [r10, #1524]	; 0x5f4
     d78:	f8da 35ec 	ldr.w	r3, [r10, #1516]	; 0x5ec
     d7c:	1c51      	adds	r1, r2, #1
     d7e:	3b01      	subs	r3, #1
     d80:	4452      	add	r2, r10
     d82:	f8ca 15f4 	str.w	r1, [r10, #1524]	; 0x5f4
     d86:	f882 0120 	strb.w	r0, [r2, #288]	; 0x120
     d8a:	f8ca 35ec 	str.w	r3, [r10, #1516]	; 0x5ec
     d8e:	2b00      	cmp	r3, #0
     d90:	f47f af30 	bne.w	bf4 <main+0xa0>
     d94:	2308      	movs	r3, #8
     d96:	f8c9 35e8 	str.w	r3, [r9, #1512]	; 0x5e8
     d9a:	e72b      	b.n	bf4 <main+0xa0>
     d9c:	f505 7082 	add.w	r0, r5, #260	; 0x104
     da0:	f003 f9aa 	bl	40f8 <mbed::Timer::read_ms()>
     da4:	1b00      	subs	r0, r0, r4
     da6:	2805      	cmp	r0, #5
     da8:	f67f af24 	bls.w	bf4 <main+0xa0>
     dac:	f885 65fc 	strb.w	r6, [r5, #1532]	; 0x5fc
     db0:	e705      	b.n	bbe <main+0x6a>
     db2:	28fe      	cmp	r0, #254	; 0xfe
     db4:	d06c      	beq.n	e90 <Stack_Size+0x290>
     db6:	f89a 35fc 	ldrb.w	r3, [r10, #1532]	; 0x5fc
     dba:	f8ca 75e8 	str.w	r7, [r10, #1512]	; 0x5e8
     dbe:	2b00      	cmp	r3, #0
     dc0:	f47f af18 	bne.w	bf4 <main+0xa0>
     dc4:	200a      	movs	r0, #10
     dc6:	461a      	mov	r2, r3
     dc8:	f88a 3327 	strb.w	r3, [r10, #807]	; 0x327
     dcc:	f88a 3328 	strb.w	r3, [r10, #808]	; 0x328
     dd0:	f88a 3329 	strb.w	r3, [r10, #809]	; 0x329
     dd4:	f88a 332a 	strb.w	r3, [r10, #810]	; 0x32a
     dd8:	f88a 332b 	strb.w	r3, [r10, #811]	; 0x32b
     ddc:	f88a 332c 	strb.w	r3, [r10, #812]	; 0x32c
     de0:	f88a 332d 	strb.w	r3, [r10, #813]	; 0x32d
     de4:	f88a 332e 	strb.w	r3, [r10, #814]	; 0x32e
     de8:	f88a 3323 	strb.w	r3, [r10, #803]	; 0x323
     dec:	f88a 3326 	strb.w	r3, [r10, #806]	; 0x326
     df0:	23fe      	movs	r3, #254	; 0xfe
     df2:	4601      	mov	r1, r0
     df4:	26ff      	movs	r6, #255	; 0xff
     df6:	f88a 0325 	strb.w	r0, [r10, #805]	; 0x325
     dfa:	f88a 3321 	strb.w	r3, [r10, #801]	; 0x321
     dfe:	2008      	movs	r0, #8
     e00:	23f7      	movs	r3, #247	; 0xf7
     e02:	f88a 3324 	strb.w	r3, [r10, #804]	; 0x324
     e06:	f88a 6320 	strb.w	r6, [r10, #800]	; 0x320
     e0a:	f205 3325 	addw	r3, r5, #805	; 0x325
     e0e:	f88a 0322 	strb.w	r0, [r10, #802]	; 0x322
     e12:	f205 352e 	addw	r5, r5, #814	; 0x32e
     e16:	e001      	b.n	e1c <Stack_Size+0x21c>
     e18:	f813 1f01 	ldrb.w	r1, [r3, #1]!
     e1c:	42ab      	cmp	r3, r5
     e1e:	440a      	add	r2, r1
     e20:	d1fa      	bne.n	e18 <Stack_Size+0x218>
     e22:	43d2      	mvns	r2, r2
     e24:	4645      	mov	r5, r8
     e26:	f889 232f 	strb.w	r2, [r9, #815]	; 0x32f
     e2a:	f108 070f 	add.w	r7, r8, #15
     e2e:	21ff      	movs	r1, #255	; 0xff
     e30:	e001      	b.n	e36 <Stack_Size+0x236>
     e32:	f815 1f01 	ldrb.w	r1, [r5, #1]!
     e36:	4e28      	ldr	r6, [pc, #160]	; (ed8 <Stack_Size+0x2d8>)
     e38:	f106 0044 	add.w	r0, r6, #68	; 0x44
     e3c:	f003 f92c 	bl	4098 <mbed::Stream::putc(int)>
     e40:	42bd      	cmp	r5, r7
     e42:	d1f6      	bne.n	e32 <Stack_Size+0x232>
     e44:	f506 7082 	add.w	r0, r6, #260	; 0x104
     e48:	f003 f956 	bl	40f8 <mbed::Timer::read_ms()>
     e4c:	f8c6 0114 	str.w	r0, [r6, #276]	; 0x114
     e50:	e6d0      	b.n	bf4 <main+0xa0>
     e52:	2303      	movs	r3, #3
     e54:	f8ca 05ec 	str.w	r0, [r10, #1516]	; 0x5ec
     e58:	f8ca 75f4 	str.w	r7, [r10, #1524]	; 0x5f4
     e5c:	f8ca 05f8 	str.w	r0, [r10, #1528]	; 0x5f8
     e60:	f8ca 35e8 	str.w	r3, [r10, #1512]	; 0x5e8
     e64:	e6c6      	b.n	bf4 <main+0xa0>
     e66:	f8da 35ec 	ldr.w	r3, [r10, #1516]	; 0x5ec
     e6a:	2204      	movs	r2, #4
     e6c:	eb03 2000 	add.w	r0, r3, r0, lsl #8
     e70:	f8ca 05ec 	str.w	r0, [r10, #1516]	; 0x5ec
     e74:	f8ca 25e8 	str.w	r2, [r10, #1512]	; 0x5e8
     e78:	e6bc      	b.n	bf4 <main+0xa0>
     e7a:	4a18      	ldr	r2, [pc, #96]	; (edc <Stack_Size+0x2dc>)
     e7c:	401a      	ands	r2, r3
     e7e:	2a00      	cmp	r2, #0
     e80:	db21      	blt.n	ec6 <Stack_Size+0x2c6>
     e82:	2aff      	cmp	r2, #255	; 0xff
     e84:	bf0c      	ite	eq
     e86:	2305      	moveq	r3, #5
     e88:	2300      	movne	r3, #0
     e8a:	f8c9 35e8 	str.w	r3, [r9, #1512]	; 0x5e8
     e8e:	e6b1      	b.n	bf4 <main+0xa0>
     e90:	2302      	movs	r3, #2
     e92:	f8ca 35e8 	str.w	r3, [r10, #1512]	; 0x5e8
     e96:	e6ad      	b.n	bf4 <main+0xa0>
     e98:	2306      	movs	r3, #6
     e9a:	f8ca 05f0 	str.w	r0, [r10, #1520]	; 0x5f0
     e9e:	f8ca 05f8 	str.w	r0, [r10, #1528]	; 0x5f8
     ea2:	f8ca 35e8 	str.w	r3, [r10, #1512]	; 0x5e8
     ea6:	e6a5      	b.n	bf4 <main+0xa0>
     ea8:	f8d9 35f0 	ldr.w	r3, [r9, #1520]	; 0x5f0
     eac:	f8d9 25ec 	ldr.w	r2, [r9, #1516]	; 0x5ec
     eb0:	eb03 2300 	add.w	r3, r3, r0, lsl #8
     eb4:	2107      	movs	r1, #7
     eb6:	f8c9 35f0 	str.w	r3, [r9, #1520]	; 0x5f0
     eba:	f8c9 15e8 	str.w	r1, [r9, #1512]	; 0x5e8
     ebe:	2a00      	cmp	r2, #0
     ec0:	f43f af68 	beq.w	d94 <Stack_Size+0x194>
     ec4:	e696      	b.n	bf4 <main+0xa0>
     ec6:	3a01      	subs	r2, #1
     ec8:	f062 02ff 	orn	r2, r2, #255	; 0xff
     ecc:	3201      	adds	r2, #1
     ece:	e7d8      	b.n	e82 <Stack_Size+0x282>
     ed0:	10000188 	.word	0x10000188
     ed4:	100002c4 	.word	0x100002c4
     ed8:	100001c0 	.word	0x100001c0
     edc:	800000ff 	.word	0x800000ff
     ee0:	00000881 	.word	0x00000881
     ee4:	100002ef 	.word	0x100002ef
     ee8:	100004e0 	.word	0x100004e0
     eec:	250a      	movs	r5, #10
     eee:	26ff      	movs	r6, #255	; 0xff
     ef0:	4bb5      	ldr	r3, [pc, #724]	; (11c8 <Stack_Size+0x5c8>)
     ef2:	2000      	movs	r0, #0
     ef4:	4629      	mov	r1, r5
     ef6:	27fe      	movs	r7, #254	; 0xfe
     ef8:	f88a 5325 	strb.w	r5, [r10, #805]	; 0x325
     efc:	f88a 6320 	strb.w	r6, [r10, #800]	; 0x320
     f00:	25f7      	movs	r5, #247	; 0xf7
     f02:	2608      	movs	r6, #8
     f04:	4602      	mov	r2, r0
     f06:	f88a 0327 	strb.w	r0, [r10, #807]	; 0x327
     f0a:	f88a 0328 	strb.w	r0, [r10, #808]	; 0x328
     f0e:	f88a 0329 	strb.w	r0, [r10, #809]	; 0x329
     f12:	f88a 032a 	strb.w	r0, [r10, #810]	; 0x32a
     f16:	f88a 032b 	strb.w	r0, [r10, #811]	; 0x32b
     f1a:	f88a 032c 	strb.w	r0, [r10, #812]	; 0x32c
     f1e:	f88a 032d 	strb.w	r0, [r10, #813]	; 0x32d
     f22:	f88a 032e 	strb.w	r0, [r10, #814]	; 0x32e
     f26:	f88a 0323 	strb.w	r0, [r10, #803]	; 0x323
     f2a:	f88a 0326 	strb.w	r0, [r10, #806]	; 0x326
     f2e:	f88a 7321 	strb.w	r7, [r10, #801]	; 0x321
     f32:	f103 0009 	add.w	r0, r3, #9
     f36:	f88a 6322 	strb.w	r6, [r10, #802]	; 0x322
     f3a:	f88a 5324 	strb.w	r5, [r10, #804]	; 0x324
     f3e:	e001      	b.n	f44 <Stack_Size+0x344>
     f40:	f813 1f01 	ldrb.w	r1, [r3, #1]!
     f44:	4283      	cmp	r3, r0
     f46:	440a      	add	r2, r1
     f48:	d1fa      	bne.n	f40 <Stack_Size+0x340>
     f4a:	43d2      	mvns	r2, r2
     f4c:	4645      	mov	r5, r8
     f4e:	f889 232f 	strb.w	r2, [r9, #815]	; 0x32f
     f52:	f108 070f 	add.w	r7, r8, #15
     f56:	21ff      	movs	r1, #255	; 0xff
     f58:	e001      	b.n	f5e <Stack_Size+0x35e>
     f5a:	f815 1f01 	ldrb.w	r1, [r5, #1]!
     f5e:	4e9b      	ldr	r6, [pc, #620]	; (11cc <Stack_Size+0x5cc>)
     f60:	f106 0044 	add.w	r0, r6, #68	; 0x44
     f64:	f003 f898 	bl	4098 <mbed::Stream::putc(int)>
     f68:	42bd      	cmp	r5, r7
     f6a:	d1f6      	bne.n	f5a <Stack_Size+0x35a>
     f6c:	f506 7082 	add.w	r0, r6, #260	; 0x104
     f70:	f003 f8c2 	bl	40f8 <mbed::Timer::read_ms()>
     f74:	f8c6 4600 	str.w	r4, [r6, #1536]	; 0x600
     f78:	f8c6 0114 	str.w	r0, [r6, #276]	; 0x114
     f7c:	e61f      	b.n	bbe <main+0x6a>
     f7e:	3a01      	subs	r2, #1
     f80:	f062 02ff 	orn	r2, r2, #255	; 0xff
     f84:	3201      	adds	r2, #1
     f86:	e674      	b.n	c72 <Stack_Size+0x72>
     f88:	2300      	movs	r3, #0
     f8a:	f88a 35fc 	strb.w	r3, [r10, #1532]	; 0x5fc
     f8e:	e631      	b.n	bf4 <main+0xa0>
     f90:	f89a 5120 	ldrb.w	r5, [r10, #288]	; 0x120
     f94:	f89a 3614 	ldrb.w	r3, [r10, #1556]	; 0x614
     f98:	42ab      	cmp	r3, r5
     f9a:	d206      	bcs.n	faa <Stack_Size+0x3aa>
     f9c:	00a9      	lsls	r1, r5, #2
     f9e:	f8da 061c 	ldr.w	r0, [r10, #1564]	; 0x61c
     fa2:	f001 fa25 	bl	23f0 <__wrap_realloc>
     fa6:	f8ca 061c 	str.w	r0, [r10, #1564]	; 0x61c
     faa:	f889 5614 	strb.w	r5, [r9, #1556]	; 0x614
     fae:	2d00      	cmp	r5, #0
     fb0:	f000 82a7 	beq.w	1502 <Stack_Size+0x902>
     fb4:	4e85      	ldr	r6, [pc, #532]	; (11cc <Stack_Size+0x5cc>)
     fb6:	2704      	movs	r7, #4
     fb8:	2500      	movs	r5, #0
     fba:	f896 3126 	ldrb.w	r3, [r6, #294]	; 0x126
     fbe:	f896 1125 	ldrb.w	r1, [r6, #293]	; 0x125
     fc2:	f896 2124 	ldrb.w	r2, [r6, #292]	; 0x124
     fc6:	041b      	lsls	r3, r3, #16
     fc8:	ea43 2301 	orr.w	r3, r3, r1, lsl #8
     fcc:	f896 1127 	ldrb.w	r1, [r6, #295]	; 0x127
     fd0:	4313      	orrs	r3, r2
     fd2:	ea43 6301 	orr.w	r3, r3, r1, lsl #24
     fd6:	f8c9 3618 	str.w	r3, [r9, #1560]	; 0x618
     fda:	4b7d      	ldr	r3, [pc, #500]	; (11d0 <Stack_Size+0x5d0>)
     fdc:	3704      	adds	r7, #4
     fde:	6818      	ldr	r0, [r3, #0]
     fe0:	f8d9 361c 	ldr.w	r3, [r9, #1564]	; 0x61c
     fe4:	3604      	adds	r6, #4
     fe6:	f843 0025 	str.w	r0, [r3, r5, lsl #2]
     fea:	f899 3614 	ldrb.w	r3, [r9, #1556]	; 0x614
     fee:	3501      	adds	r5, #1
     ff0:	b2ed      	uxtb	r5, r5
     ff2:	42ab      	cmp	r3, r5
     ff4:	d8e1      	bhi.n	fba <Stack_Size+0x3ba>
     ff6:	1d3e      	adds	r6, r7, #4
     ff8:	4635      	mov	r5, r6
     ffa:	444f      	add	r7, r9
     ffc:	f897 7120 	ldrb.w	r7, [r7, #288]	; 0x120
    1000:	f899 3620 	ldrb.w	r3, [r9, #1568]	; 0x620
    1004:	42bb      	cmp	r3, r7
    1006:	d206      	bcs.n	1016 <Stack_Size+0x416>
    1008:	00b9      	lsls	r1, r7, #2
    100a:	f8da 0628 	ldr.w	r0, [r10, #1576]	; 0x628
    100e:	f001 f9ef 	bl	23f0 <__wrap_realloc>
    1012:	f8ca 0628 	str.w	r0, [r10, #1576]	; 0x628
    1016:	f889 7620 	strb.w	r7, [r9, #1568]	; 0x620
    101a:	b30f      	cbz	r7, 1060 <Stack_Size+0x460>
    101c:	eb0a 0705 	add.w	r7, r10, r5
    1020:	2600      	movs	r6, #0
    1022:	f897 3122 	ldrb.w	r3, [r7, #290]	; 0x122
    1026:	f897 1121 	ldrb.w	r1, [r7, #289]	; 0x121
    102a:	f897 2120 	ldrb.w	r2, [r7, #288]	; 0x120
    102e:	041b      	lsls	r3, r3, #16
    1030:	ea43 2301 	orr.w	r3, r3, r1, lsl #8
    1034:	f897 1123 	ldrb.w	r1, [r7, #291]	; 0x123
    1038:	4313      	orrs	r3, r2
    103a:	ea43 6301 	orr.w	r3, r3, r1, lsl #24
    103e:	f8c9 3624 	str.w	r3, [r9, #1572]	; 0x624
    1042:	4b64      	ldr	r3, [pc, #400]	; (11d4 <Stack_Size+0x5d4>)
    1044:	3504      	adds	r5, #4
    1046:	6818      	ldr	r0, [r3, #0]
    1048:	f8d9 3628 	ldr.w	r3, [r9, #1576]	; 0x628
    104c:	3704      	adds	r7, #4
    104e:	f843 0026 	str.w	r0, [r3, r6, lsl #2]
    1052:	f899 3620 	ldrb.w	r3, [r9, #1568]	; 0x620
    1056:	3601      	adds	r6, #1
    1058:	b2f6      	uxtb	r6, r6
    105a:	42b3      	cmp	r3, r6
    105c:	d8e1      	bhi.n	1022 <Stack_Size+0x422>
    105e:	462e      	mov	r6, r5
    1060:	444e      	add	r6, r9
    1062:	f896 6120 	ldrb.w	r6, [r6, #288]	; 0x120
    1066:	f899 362c 	ldrb.w	r3, [r9, #1580]	; 0x62c
    106a:	42b3      	cmp	r3, r6
    106c:	d206      	bcs.n	107c <Stack_Size+0x47c>
    106e:	00b1      	lsls	r1, r6, #2
    1070:	f8da 0634 	ldr.w	r0, [r10, #1588]	; 0x634
    1074:	f001 f9bc 	bl	23f0 <__wrap_realloc>
    1078:	f8ca 0634 	str.w	r0, [r10, #1588]	; 0x634
    107c:	3504      	adds	r5, #4
    107e:	f889 662c 	strb.w	r6, [r9, #1580]	; 0x62c
    1082:	b366      	cbz	r6, 10de <Stack_Size+0x4de>
    1084:	f04f 0e00 	mov.w	lr, #0
    1088:	46f4      	mov	r12, lr
    108a:	4b53      	ldr	r3, [pc, #332]	; (11d8 <Stack_Size+0x5d8>)
    108c:	1d2f      	adds	r7, r5, #4
    108e:	5958      	ldr	r0, [r3, r5]
    1090:	9007      	str	r0, [sp, #28]
    1092:	9e07      	ldr	r6, [sp, #28]
    1094:	443e      	add	r6, r7
    1096:	42be      	cmp	r6, r7
    1098:	d909      	bls.n	10ae <Stack_Size+0x4ae>
    109a:	463a      	mov	r2, r7
    109c:	f205 1323 	addw	r3, r5, #291	; 0x123
    10a0:	4453      	add	r3, r10
    10a2:	7859      	ldrb	r1, [r3, #1]
    10a4:	3201      	adds	r2, #1
    10a6:	4296      	cmp	r6, r2
    10a8:	f803 1b01 	strb.w	r1, [r3], #1
    10ac:	d8f9      	bhi.n	10a2 <Stack_Size+0x4a2>
    10ae:	4a4a      	ldr	r2, [pc, #296]	; (11d8 <Stack_Size+0x5d8>)
    10b0:	1e7b      	subs	r3, r7, #1
    10b2:	4413      	add	r3, r2
    10b4:	eb09 0206 	add.w	r2, r9, r6
    10b8:	f882 c11f 	strb.w	r12, [r2, #287]	; 0x11f
    10bc:	f8c9 3630 	str.w	r3, [r9, #1584]	; 0x630
    10c0:	4b46      	ldr	r3, [pc, #280]	; (11dc <Stack_Size+0x5dc>)
    10c2:	4635      	mov	r5, r6
    10c4:	6818      	ldr	r0, [r3, #0]
    10c6:	f8d9 3634 	ldr.w	r3, [r9, #1588]	; 0x634
    10ca:	f843 002e 	str.w	r0, [r3, lr, lsl #2]
    10ce:	f899 362c 	ldrb.w	r3, [r9, #1580]	; 0x62c
    10d2:	f10e 0e01 	add.w	lr, lr, #1
    10d6:	fa5f fe8e 	uxtb.w	lr, lr
    10da:	4573      	cmp	r3, lr
    10dc:	d8d5      	bhi.n	108a <Stack_Size+0x48a>
    10de:	2301      	movs	r3, #1
    10e0:	f889 360c 	strb.w	r3, [r9, #1548]	; 0x60c
    10e4:	e586      	b.n	bf4 <main+0xa0>
    10e6:	f505 7082 	add.w	r0, r5, #260	; 0x104
    10ea:	f003 f805 	bl	40f8 <mbed::Timer::read_ms()>
    10ee:	f8da 6114 	ldr.w	r6, [r10, #276]	; 0x114
    10f2:	f8da 2120 	ldr.w	r2, [r10, #288]	; 0x120
    10f6:	f8da 3124 	ldr.w	r3, [r10, #292]	; 0x124
    10fa:	4f39      	ldr	r7, [pc, #228]	; (11e0 <Stack_Size+0x5e0>)
    10fc:	1b86      	subs	r6, r0, r6
    10fe:	f505 7082 	add.w	r0, r5, #260	; 0x104
    1102:	f102 3bff 	add.w	r11, r2, #4294967295
    1106:	441f      	add	r7, r3
    1108:	f002 fff6 	bl	40f8 <mbed::Timer::read_ms()>
    110c:	4b35      	ldr	r3, [pc, #212]	; (11e4 <Stack_Size+0x5e4>)
    110e:	4935      	ldr	r1, [pc, #212]	; (11e4 <Stack_Size+0x5e4>)
    1110:	fba3 3206 	umull	r3, r2, r3, r6
    1114:	fba1 1e00 	umull	r1, lr, r1, r0
    1118:	f44f 737a 	mov.w	r3, #1000	; 0x3e8
    111c:	0992      	lsrs	r2, r2, #6
    111e:	fb03 6612 	mls	r6, r3, r2, r6
    1122:	ea4f 1e9e 	mov.w	lr, lr, lsr #6
    1126:	fb03 031e 	mls	r3, r3, lr, r0
    112a:	482f      	ldr	r0, [pc, #188]	; (11e8 <Stack_Size+0x5e8>)
    112c:	445a      	add	r2, r11
    112e:	fb00 7106 	mla	r1, r0, r6, r7
    1132:	fb00 1313 	mls	r3, r0, r3, r1
    1136:	ebce 0202 	rsb	r2, lr, r2
    113a:	f505 718e 	add.w	r1, r5, #284	; 0x11c
    113e:	f505 708c 	add.w	r0, r5, #280	; 0x118
    1142:	f8ca 311c 	str.w	r3, [r10, #284]	; 0x11c
    1146:	f8ca 2118 	str.w	r2, [r10, #280]	; 0x118
    114a:	f001 f965 	bl	2418 <ros::normalizeSecNSec(unsigned long&, unsigned long&)>
    114e:	f505 7082 	add.w	r0, r5, #260	; 0x104
    1152:	f002 ffd1 	bl	40f8 <mbed::Timer::read_ms()>
    1156:	f8ca 0604 	str.w	r0, [r10, #1540]	; 0x604
    115a:	e54b      	b.n	bf4 <main+0xa0>
    115c:	f885 3327 	strb.w	r3, [r5, #807]	; 0x327
    1160:	f885 3328 	strb.w	r3, [r5, #808]	; 0x328
    1164:	f885 3329 	strb.w	r3, [r5, #809]	; 0x329
    1168:	f885 332a 	strb.w	r3, [r5, #810]	; 0x32a
    116c:	f885 332b 	strb.w	r3, [r5, #811]	; 0x32b
    1170:	f885 332c 	strb.w	r3, [r5, #812]	; 0x32c
    1174:	f885 332d 	strb.w	r3, [r5, #813]	; 0x32d
    1178:	f885 332e 	strb.w	r3, [r5, #814]	; 0x32e
    117c:	f885 3323 	strb.w	r3, [r5, #803]	; 0x323
    1180:	f885 3326 	strb.w	r3, [r5, #806]	; 0x326
    1184:	4619      	mov	r1, r3
    1186:	23fe      	movs	r3, #254	; 0xfe
    1188:	260a      	movs	r6, #10
    118a:	f885 2320 	strb.w	r2, [r5, #800]	; 0x320
    118e:	f885 3321 	strb.w	r3, [r5, #801]	; 0x321
    1192:	2208      	movs	r2, #8
    1194:	23f7      	movs	r3, #247	; 0xf7
    1196:	f885 3324 	strb.w	r3, [r5, #804]	; 0x324
    119a:	f885 6325 	strb.w	r6, [r5, #805]	; 0x325
    119e:	f885 2322 	strb.w	r2, [r5, #802]	; 0x322
    11a2:	f205 332e 	addw	r3, r5, #814	; 0x32e
    11a6:	4630      	mov	r0, r6
    11a8:	f205 3525 	addw	r5, r5, #805	; 0x325
    11ac:	e001      	b.n	11b2 <Stack_Size+0x5b2>
    11ae:	f815 0f01 	ldrb.w	r0, [r5, #1]!
    11b2:	42ab      	cmp	r3, r5
    11b4:	4401      	add	r1, r0
    11b6:	d1fa      	bne.n	11ae <Stack_Size+0x5ae>
    11b8:	43c9      	mvns	r1, r1
    11ba:	f8df 8030 	ldr.w	r8, [pc, #48]	; 11ec <Stack_Size+0x5ec>
    11be:	f889 132f 	strb.w	r1, [r9, #815]	; 0x32f
    11c2:	4646      	mov	r6, r8
    11c4:	21ff      	movs	r1, #255	; 0xff
    11c6:	e015      	b.n	11f4 <Stack_Size+0x5f4>
    11c8:	100004e5 	.word	0x100004e5
    11cc:	100001c0 	.word	0x100001c0
    11d0:	100007d8 	.word	0x100007d8
    11d4:	100007e4 	.word	0x100007e4
    11d8:	100002e0 	.word	0x100002e0
    11dc:	100007f0 	.word	0x100007f0
    11e0:	3b9aca00 	.word	0x3b9aca00
    11e4:	10624dd3 	.word	0x10624dd3
    11e8:	000f4240 	.word	0x000f4240
    11ec:	100004e0 	.word	0x100004e0
    11f0:	f816 1f01 	ldrb.w	r1, [r6, #1]!
    11f4:	4dc5      	ldr	r5, [pc, #788]	; (150c <Stack_Size+0x90c>)
    11f6:	f105 0044 	add.w	r0, r5, #68	; 0x44
    11fa:	f002 ff4d 	bl	4098 <mbed::Stream::putc(int)>
    11fe:	f205 332f 	addw	r3, r5, #815	; 0x32f
    1202:	429e      	cmp	r6, r3
    1204:	d1f4      	bne.n	11f0 <Stack_Size+0x5f0>
    1206:	f505 7082 	add.w	r0, r5, #260	; 0x104
    120a:	f002 ff75 	bl	40f8 <mbed::Timer::read_ms()>
    120e:	f205 531c 	addw	r3, r5, #1308	; 0x51c
    1212:	9402      	str	r4, [sp, #8]
    1214:	461c      	mov	r4, r3
    1216:	f505 7259 	add.w	r2, r5, #868	; 0x364
    121a:	f8c5 0114 	str.w	r0, [r5, #276]	; 0x114
    121e:	9201      	str	r2, [sp, #4]
    1220:	f854 3f04 	ldr.w	r3, [r4, #4]!
    1224:	2b00      	cmp	r3, #0
    1226:	f000 809c 	beq.w	1362 <Stack_Size+0x762>
    122a:	6858      	ldr	r0, [r3, #4]
    122c:	689d      	ldr	r5, [r3, #8]
    122e:	6802      	ldr	r2, [r0, #0]
    1230:	f8d3 b000 	ldr.w	r11, [r3]
    1234:	6892      	ldr	r2, [r2, #8]
    1236:	4790      	blx	r2
    1238:	6823      	ldr	r3, [r4, #0]
    123a:	4607      	mov	r7, r0
    123c:	6858      	ldr	r0, [r3, #4]
    123e:	6803      	ldr	r3, [r0, #0]
    1240:	68db      	ldr	r3, [r3, #12]
    1242:	4798      	blx	r3
    1244:	6823      	ldr	r3, [r4, #0]
    1246:	4606      	mov	r6, r0
    1248:	691b      	ldr	r3, [r3, #16]
    124a:	2b63      	cmp	r3, #99	; 0x63
    124c:	dd04      	ble.n	1258 <Stack_Size+0x658>
    124e:	f899 25fc 	ldrb.w	r2, [r9, #1532]	; 0x5fc
    1252:	2a00      	cmp	r2, #0
    1254:	f000 8085 	beq.w	1362 <Stack_Size+0x762>
    1258:	f3c5 2207 	ubfx	r2, r5, #8, #8
    125c:	4658      	mov	r0, r11
    125e:	9303      	str	r3, [sp, #12]
    1260:	f889 5327 	strb.w	r5, [r9, #807]	; 0x327
    1264:	f889 2328 	strb.w	r2, [r9, #808]	; 0x328
    1268:	f005 f8fd 	bl	6466 <strlen>
    126c:	4605      	mov	r5, r0
    126e:	9005      	str	r0, [sp, #20]
    1270:	4ba7      	ldr	r3, [pc, #668]	; (1510 <Stack_Size+0x910>)
    1272:	9805      	ldr	r0, [sp, #20]
    1274:	4659      	mov	r1, r11
    1276:	6018      	str	r0, [r3, #0]
    1278:	462a      	mov	r2, r5
    127a:	1d18      	adds	r0, r3, #4
    127c:	f004 fa28 	bl	56d0 <memcpy>
    1280:	4638      	mov	r0, r7
    1282:	f005 f8f0 	bl	6466 <strlen>
    1286:	4683      	mov	r11, r0
    1288:	9006      	str	r0, [sp, #24]
    128a:	4ba2      	ldr	r3, [pc, #648]	; (1514 <Stack_Size+0x914>)
    128c:	9806      	ldr	r0, [sp, #24]
    128e:	1daa      	adds	r2, r5, #6
    1290:	350a      	adds	r5, #10
    1292:	5098      	str	r0, [r3, r2]
    1294:	4639      	mov	r1, r7
    1296:	465a      	mov	r2, r11
    1298:	1958      	adds	r0, r3, r5
    129a:	f004 fa19 	bl	56d0 <memcpy>
    129e:	4630      	mov	r0, r6
    12a0:	f005 f8e1 	bl	6466 <strlen>
    12a4:	4607      	mov	r7, r0
    12a6:	9007      	str	r0, [sp, #28]
    12a8:	4b9a      	ldr	r3, [pc, #616]	; (1514 <Stack_Size+0x914>)
    12aa:	445d      	add	r5, r11
    12ac:	9807      	ldr	r0, [sp, #28]
    12ae:	f105 0b04 	add.w	r11, r5, #4
    12b2:	5158      	str	r0, [r3, r5]
    12b4:	4631      	mov	r1, r6
    12b6:	463a      	mov	r2, r7
    12b8:	eb03 000b 	add.w	r0, r3, r11
    12bc:	f004 fa08 	bl	56d0 <memcpy>
    12c0:	eb07 000b 	add.w	r0, r7, r11
    12c4:	1d06      	adds	r6, r0, #4
    12c6:	f3c6 2207 	ubfx	r2, r6, #8, #8
    12ca:	fa5f fc86 	uxtb.w	r12, r6
    12ce:	eb0c 0702 	add.w	r7, r12, r2
    12d2:	43ff      	mvns	r7, r7
    12d4:	9b03      	ldr	r3, [sp, #12]
    12d6:	2500      	movs	r5, #0
    12d8:	4448      	add	r0, r9
    12da:	f04f 0e02 	mov.w	lr, #2
    12de:	b2b6      	uxth	r6, r6
    12e0:	f880 e328 	strb.w	lr, [r0, #808]	; 0x328
    12e4:	f880 5327 	strb.w	r5, [r0, #807]	; 0x327
    12e8:	f880 5329 	strb.w	r5, [r0, #809]	; 0x329
    12ec:	f880 532a 	strb.w	r5, [r0, #810]	; 0x32a
    12f0:	4629      	mov	r1, r5
    12f2:	b2d8      	uxtb	r0, r3
    12f4:	f206 3526 	addw	r5, r6, #806	; 0x326
    12f8:	f04f 0eff 	mov.w	lr, #255	; 0xff
    12fc:	f889 7324 	strb.w	r7, [r9, #804]	; 0x324
    1300:	f343 2307 	sbfx	r3, r3, #8, #8
    1304:	27fe      	movs	r7, #254	; 0xfe
    1306:	f889 2323 	strb.w	r2, [r9, #803]	; 0x323
    130a:	f889 c322 	strb.w	r12, [r9, #802]	; 0x322
    130e:	4a82      	ldr	r2, [pc, #520]	; (1518 <Stack_Size+0x918>)
    1310:	444d      	add	r5, r9
    1312:	f889 e320 	strb.w	lr, [r9, #800]	; 0x320
    1316:	f889 7321 	strb.w	r7, [r9, #801]	; 0x321
    131a:	f889 0325 	strb.w	r0, [r9, #805]	; 0x325
    131e:	f889 3326 	strb.w	r3, [r9, #806]	; 0x326
    1322:	e001      	b.n	1328 <Stack_Size+0x728>
    1324:	f812 0f01 	ldrb.w	r0, [r2, #1]!
    1328:	42aa      	cmp	r2, r5
    132a:	4401      	add	r1, r0
    132c:	d1fa      	bne.n	1324 <Stack_Size+0x724>
    132e:	43c9      	mvns	r1, r1
    1330:	1df2      	adds	r2, r6, #7
    1332:	f106 0308 	add.w	r3, r6, #8
    1336:	b292      	uxth	r2, r2
    1338:	b29b      	uxth	r3, r3
    133a:	444a      	add	r2, r9
    133c:	f5b3 7f00 	cmp.w	r3, #512	; 0x200
    1340:	f882 1320 	strb.w	r1, [r2, #800]	; 0x320
    1344:	f200 80fc 	bhi.w	1540 <Stack_Size+0x940>
    1348:	b15b      	cbz	r3, 1362 <Stack_Size+0x762>
    134a:	f203 331f 	addw	r3, r3, #799	; 0x31f
    134e:	4d73      	ldr	r5, [pc, #460]	; (151c <Stack_Size+0x91c>)
    1350:	eb0a 0603 	add.w	r6, r10, r3
    1354:	f815 1f01 	ldrb.w	r1, [r5, #1]!
    1358:	4871      	ldr	r0, [pc, #452]	; (1520 <Stack_Size+0x920>)
    135a:	f002 fe9d 	bl	4098 <mbed::Stream::putc(int)>
    135e:	42b5      	cmp	r5, r6
    1360:	d1f8      	bne.n	1354 <Stack_Size+0x754>
    1362:	4b70      	ldr	r3, [pc, #448]	; (1524 <Stack_Size+0x924>)
    1364:	429c      	cmp	r4, r3
    1366:	f47f af5b 	bne.w	1220 <Stack_Size+0x620>
    136a:	9c02      	ldr	r4, [sp, #8]
    136c:	9401      	str	r4, [sp, #4]
    136e:	461c      	mov	r4, r3
    1370:	f854 0f04 	ldr.w	r0, [r4, #4]!
    1374:	2800      	cmp	r0, #0
    1376:	f000 80a3 	beq.w	14c0 <Stack_Size+0x8c0>
    137a:	e890 0808 	ldmia.w	r0, {r3, r11}
    137e:	496a      	ldr	r1, [pc, #424]	; (1528 <Stack_Size+0x928>)
    1380:	689a      	ldr	r2, [r3, #8]
    1382:	6887      	ldr	r7, [r0, #8]
    1384:	428a      	cmp	r2, r1
    1386:	f040 80b1 	bne.w	14ec <Stack_Size+0x8ec>
    138a:	4e68      	ldr	r6, [pc, #416]	; (152c <Stack_Size+0x92c>)
    138c:	68da      	ldr	r2, [r3, #12]
    138e:	4968      	ldr	r1, [pc, #416]	; (1530 <Stack_Size+0x930>)
    1390:	428a      	cmp	r2, r1
    1392:	f040 80a6 	bne.w	14e2 <Stack_Size+0x8e2>
    1396:	4d67      	ldr	r5, [pc, #412]	; (1534 <Stack_Size+0x934>)
    1398:	685b      	ldr	r3, [r3, #4]
    139a:	4a67      	ldr	r2, [pc, #412]	; (1538 <Stack_Size+0x938>)
    139c:	4293      	cmp	r3, r2
    139e:	f040 809d 	bne.w	14dc <Stack_Size+0x8dc>
    13a2:	6ac3      	ldr	r3, [r0, #44]	; 0x2c
    13a4:	2b63      	cmp	r3, #99	; 0x63
    13a6:	dd04      	ble.n	13b2 <Stack_Size+0x7b2>
    13a8:	f899 25fc 	ldrb.w	r2, [r9, #1532]	; 0x5fc
    13ac:	2a00      	cmp	r2, #0
    13ae:	f000 8087 	beq.w	14c0 <Stack_Size+0x8c0>
    13b2:	f3cb 2207 	ubfx	r2, r11, #8, #8
    13b6:	4638      	mov	r0, r7
    13b8:	9302      	str	r3, [sp, #8]
    13ba:	f889 b327 	strb.w	r11, [r9, #807]	; 0x327
    13be:	f889 2328 	strb.w	r2, [r9, #808]	; 0x328
    13c2:	f005 f850 	bl	6466 <strlen>
    13c6:	4683      	mov	r11, r0
    13c8:	9005      	str	r0, [sp, #20]
    13ca:	4b51      	ldr	r3, [pc, #324]	; (1510 <Stack_Size+0x910>)
    13cc:	9805      	ldr	r0, [sp, #20]
    13ce:	4639      	mov	r1, r7
    13d0:	6018      	str	r0, [r3, #0]
    13d2:	465a      	mov	r2, r11
    13d4:	1d18      	adds	r0, r3, #4
    13d6:	f004 f97b 	bl	56d0 <memcpy>
    13da:	4630      	mov	r0, r6
    13dc:	f005 f843 	bl	6466 <strlen>
    13e0:	4607      	mov	r7, r0
    13e2:	9006      	str	r0, [sp, #24]
    13e4:	4b4b      	ldr	r3, [pc, #300]	; (1514 <Stack_Size+0x914>)
    13e6:	9806      	ldr	r0, [sp, #24]
    13e8:	f10b 0206 	add.w	r2, r11, #6
    13ec:	f10b 0b0a 	add.w	r11, r11, #10
    13f0:	5098      	str	r0, [r3, r2]
    13f2:	4631      	mov	r1, r6
    13f4:	463a      	mov	r2, r7
    13f6:	eb03 000b 	add.w	r0, r3, r11
    13fa:	f004 f969 	bl	56d0 <memcpy>
    13fe:	4628      	mov	r0, r5
    1400:	f005 f831 	bl	6466 <strlen>
    1404:	4606      	mov	r6, r0
    1406:	9007      	str	r0, [sp, #28]
    1408:	4b42      	ldr	r3, [pc, #264]	; (1514 <Stack_Size+0x914>)
    140a:	44bb      	add	r11, r7
    140c:	9807      	ldr	r0, [sp, #28]
    140e:	f10b 0704 	add.w	r7, r11, #4
    1412:	f843 000b 	str.w	r0, [r3, r11]
    1416:	4629      	mov	r1, r5
    1418:	4632      	mov	r2, r6
    141a:	19d8      	adds	r0, r3, r7
    141c:	f004 f958 	bl	56d0 <memcpy>
    1420:	19f0      	adds	r0, r6, r7
    1422:	1d07      	adds	r7, r0, #4
    1424:	f3c7 2207 	ubfx	r2, r7, #8, #8
    1428:	fa5f fc87 	uxtb.w	r12, r7
    142c:	eb0c 0b02 	add.w	r11, r12, r2
    1430:	ea6f 0b0b 	mvn.w	r11, r11
    1434:	9b02      	ldr	r3, [sp, #8]
    1436:	2500      	movs	r5, #0
    1438:	4448      	add	r0, r9
    143a:	2602      	movs	r6, #2
    143c:	b2bf      	uxth	r7, r7
    143e:	f880 6328 	strb.w	r6, [r0, #808]	; 0x328
    1442:	f880 5327 	strb.w	r5, [r0, #807]	; 0x327
    1446:	f880 5329 	strb.w	r5, [r0, #809]	; 0x329
    144a:	f880 532a 	strb.w	r5, [r0, #810]	; 0x32a
    144e:	4629      	mov	r1, r5
    1450:	b2d8      	uxtb	r0, r3
    1452:	f207 3526 	addw	r5, r7, #806	; 0x326
    1456:	f04f 0eff 	mov.w	lr, #255	; 0xff
    145a:	26fe      	movs	r6, #254	; 0xfe
    145c:	f343 2307 	sbfx	r3, r3, #8, #8
    1460:	f889 2323 	strb.w	r2, [r9, #803]	; 0x323
    1464:	f889 b324 	strb.w	r11, [r9, #804]	; 0x324
    1468:	f889 c322 	strb.w	r12, [r9, #802]	; 0x322
    146c:	4a2a      	ldr	r2, [pc, #168]	; (1518 <Stack_Size+0x918>)
    146e:	444d      	add	r5, r9
    1470:	f889 e320 	strb.w	lr, [r9, #800]	; 0x320
    1474:	f889 6321 	strb.w	r6, [r9, #801]	; 0x321
    1478:	f889 0325 	strb.w	r0, [r9, #805]	; 0x325
    147c:	f889 3326 	strb.w	r3, [r9, #806]	; 0x326
    1480:	e001      	b.n	1486 <Stack_Size+0x886>
    1482:	f812 0f01 	ldrb.w	r0, [r2, #1]!
    1486:	42aa      	cmp	r2, r5
    1488:	4401      	add	r1, r0
    148a:	d1fa      	bne.n	1482 <Stack_Size+0x882>
    148c:	43c9      	mvns	r1, r1
    148e:	1dfa      	adds	r2, r7, #7
    1490:	f107 0308 	add.w	r3, r7, #8
    1494:	b292      	uxth	r2, r2
    1496:	b29b      	uxth	r3, r3
    1498:	444a      	add	r2, r9
    149a:	f5b3 7f00 	cmp.w	r3, #512	; 0x200
    149e:	f882 1320 	strb.w	r1, [r2, #800]	; 0x320
    14a2:	f200 8093 	bhi.w	15cc <Stack_Size+0x9cc>
    14a6:	b15b      	cbz	r3, 14c0 <Stack_Size+0x8c0>
    14a8:	f203 331f 	addw	r3, r3, #799	; 0x31f
    14ac:	4d1b      	ldr	r5, [pc, #108]	; (151c <Stack_Size+0x91c>)
    14ae:	eb0a 0603 	add.w	r6, r10, r3
    14b2:	f815 1f01 	ldrb.w	r1, [r5, #1]!
    14b6:	481a      	ldr	r0, [pc, #104]	; (1520 <Stack_Size+0x920>)
    14b8:	f002 fdee 	bl	4098 <mbed::Stream::putc(int)>
    14bc:	42ae      	cmp	r6, r5
    14be:	d1f8      	bne.n	14b2 <Stack_Size+0x8b2>
    14c0:	4b1e      	ldr	r3, [pc, #120]	; (153c <Stack_Size+0x93c>)
    14c2:	429c      	cmp	r4, r3
    14c4:	f47f af54 	bne.w	1370 <Stack_Size+0x770>
    14c8:	9c01      	ldr	r4, [sp, #4]
    14ca:	2301      	movs	r3, #1
    14cc:	f8c9 4600 	str.w	r4, [r9, #1536]	; 0x600
    14d0:	f8c9 4604 	str.w	r4, [r9, #1540]	; 0x604
    14d4:	f889 35fc 	strb.w	r3, [r9, #1532]	; 0x5fc
    14d8:	f7ff bb71 	b.w	bbe <main+0x6a>
    14dc:	4798      	blx	r3
    14de:	4603      	mov	r3, r0
    14e0:	e760      	b.n	13a4 <Stack_Size+0x7a4>
    14e2:	4790      	blx	r2
    14e4:	4605      	mov	r5, r0
    14e6:	6820      	ldr	r0, [r4, #0]
    14e8:	6803      	ldr	r3, [r0, #0]
    14ea:	e755      	b.n	1398 <Stack_Size+0x798>
    14ec:	4790      	blx	r2
    14ee:	4606      	mov	r6, r0
    14f0:	6820      	ldr	r0, [r4, #0]
    14f2:	6803      	ldr	r3, [r0, #0]
    14f4:	e74a      	b.n	138c <Stack_Size+0x78c>
    14f6:	f505 7190 	add.w	r1, r5, #288	; 0x120
    14fa:	4618      	mov	r0, r3
    14fc:	4790      	blx	r2
    14fe:	f7ff bb79 	b.w	bf4 <main+0xa0>
    1502:	2608      	movs	r6, #8
    1504:	4635      	mov	r5, r6
    1506:	2704      	movs	r7, #4
    1508:	e577      	b.n	ffa <Stack_Size+0x3fa>
    150a:	bf00      	nop
    150c:	100001c0 	.word	0x100001c0
    1510:	100004e9 	.word	0x100004e9
    1514:	100004e7 	.word	0x100004e7
    1518:	100004e5 	.word	0x100004e5
    151c:	100004df 	.word	0x100004df
    1520:	10000204 	.word	0x10000204
    1524:	10000740 	.word	0x10000740
    1528:	00000245 	.word	0x00000245
    152c:	00007204 	.word	0x00007204
    1530:	0000024d 	.word	0x0000024d
    1534:	0000721c 	.word	0x0000721c
    1538:	00000241 	.word	0x00000241
    153c:	100007a4 	.word	0x100007a4
    1540:	4e45      	ldr	r6, [pc, #276]	; (1658 <Stack_Size+0xa58>)
    1542:	4d46      	ldr	r5, [pc, #280]	; (165c <Stack_Size+0xa5c>)
    1544:	ce0f      	ldmia	r6!, {r0, r1, r2, r3}
    1546:	c50f      	stmia	r5!, {r0, r1, r2, r3}
    1548:	ce0f      	ldmia	r6!, {r0, r1, r2, r3}
    154a:	c50f      	stmia	r5!, {r0, r1, r2, r3}
    154c:	ce0f      	ldmia	r6!, {r0, r1, r2, r3}
    154e:	c50f      	stmia	r5!, {r0, r1, r2, r3}
    1550:	e896 0003 	ldmia.w	r6, {r0, r1}
    1554:	2303      	movs	r3, #3
    1556:	f88a 3327 	strb.w	r3, [r10, #807]	; 0x327
    155a:	2338      	movs	r3, #56	; 0x38
    155c:	f8ca 3328 	str.w	r3, [r10, #808]	; 0x328
    1560:	23ff      	movs	r3, #255	; 0xff
    1562:	e885 0003 	stmia.w	r5, {r0, r1}
    1566:	f88a 3320 	strb.w	r3, [r10, #800]	; 0x320
    156a:	23fe      	movs	r3, #254	; 0xfe
    156c:	f88a 3321 	strb.w	r3, [r10, #801]	; 0x321
    1570:	233d      	movs	r3, #61	; 0x3d
    1572:	f88a 3322 	strb.w	r3, [r10, #802]	; 0x322
    1576:	f04f 0e00 	mov.w	lr, #0
    157a:	f04f 0c07 	mov.w	r12, #7
    157e:	23c2      	movs	r3, #194	; 0xc2
    1580:	eb05 020c 	add.w	r2, r5, r12
    1584:	4677      	mov	r7, lr
    1586:	46e3      	mov	r11, r12
    1588:	3d37      	subs	r5, #55	; 0x37
    158a:	f88a e323 	strb.w	lr, [r10, #803]	; 0x323
    158e:	f88a e326 	strb.w	lr, [r10, #806]	; 0x326
    1592:	f88a c325 	strb.w	r12, [r10, #805]	; 0x325
    1596:	f88a 3324 	strb.w	r3, [r10, #804]	; 0x324
    159a:	e001      	b.n	15a0 <Stack_Size+0x9a0>
    159c:	f815 bf01 	ldrb.w	r11, [r5, #1]!
    15a0:	42aa      	cmp	r2, r5
    15a2:	445f      	add	r7, r11
    15a4:	d1fa      	bne.n	159c <Stack_Size+0x99c>
    15a6:	43ff      	mvns	r7, r7
    15a8:	4d2d      	ldr	r5, [pc, #180]	; (1660 <Stack_Size+0xa60>)
    15aa:	f889 7364 	strb.w	r7, [r9, #868]	; 0x364
    15ae:	21ff      	movs	r1, #255	; 0xff
    15b0:	e001      	b.n	15b6 <Stack_Size+0x9b6>
    15b2:	f815 1f01 	ldrb.w	r1, [r5, #1]!
    15b6:	482b      	ldr	r0, [pc, #172]	; (1664 <Stack_Size+0xa64>)
    15b8:	f002 fd6e 	bl	4098 <mbed::Stream::putc(int)>
    15bc:	9b01      	ldr	r3, [sp, #4]
    15be:	429d      	cmp	r5, r3
    15c0:	d1f7      	bne.n	15b2 <Stack_Size+0x9b2>
    15c2:	4b29      	ldr	r3, [pc, #164]	; (1668 <Stack_Size+0xa68>)
    15c4:	429c      	cmp	r4, r3
    15c6:	f47f ae2b 	bne.w	1220 <Stack_Size+0x620>
    15ca:	e6ce      	b.n	136a <Stack_Size+0x76a>
    15cc:	4e22      	ldr	r6, [pc, #136]	; (1658 <Stack_Size+0xa58>)
    15ce:	4d23      	ldr	r5, [pc, #140]	; (165c <Stack_Size+0xa5c>)
    15d0:	ce0f      	ldmia	r6!, {r0, r1, r2, r3}
    15d2:	c50f      	stmia	r5!, {r0, r1, r2, r3}
    15d4:	ce0f      	ldmia	r6!, {r0, r1, r2, r3}
    15d6:	c50f      	stmia	r5!, {r0, r1, r2, r3}
    15d8:	ce0f      	ldmia	r6!, {r0, r1, r2, r3}
    15da:	c50f      	stmia	r5!, {r0, r1, r2, r3}
    15dc:	e896 0003 	ldmia.w	r6, {r0, r1}
    15e0:	2303      	movs	r3, #3
    15e2:	f88a 3327 	strb.w	r3, [r10, #807]	; 0x327
    15e6:	2338      	movs	r3, #56	; 0x38
    15e8:	f8ca 3328 	str.w	r3, [r10, #808]	; 0x328
    15ec:	23ff      	movs	r3, #255	; 0xff
    15ee:	e885 0003 	stmia.w	r5, {r0, r1}
    15f2:	f88a 3320 	strb.w	r3, [r10, #800]	; 0x320
    15f6:	23fe      	movs	r3, #254	; 0xfe
    15f8:	f88a 3321 	strb.w	r3, [r10, #801]	; 0x321
    15fc:	233d      	movs	r3, #61	; 0x3d
    15fe:	f88a 3322 	strb.w	r3, [r10, #802]	; 0x322
    1602:	f04f 0e00 	mov.w	lr, #0
    1606:	f04f 0c07 	mov.w	r12, #7
    160a:	23c2      	movs	r3, #194	; 0xc2
    160c:	eb05 020c 	add.w	r2, r5, r12
    1610:	4677      	mov	r7, lr
    1612:	46e3      	mov	r11, r12
    1614:	3d37      	subs	r5, #55	; 0x37
    1616:	f88a e323 	strb.w	lr, [r10, #803]	; 0x323
    161a:	f88a e326 	strb.w	lr, [r10, #806]	; 0x326
    161e:	f88a c325 	strb.w	r12, [r10, #805]	; 0x325
    1622:	f88a 3324 	strb.w	r3, [r10, #804]	; 0x324
    1626:	e001      	b.n	162c <Stack_Size+0xa2c>
    1628:	f815 bf01 	ldrb.w	r11, [r5, #1]!
    162c:	42aa      	cmp	r2, r5
    162e:	445f      	add	r7, r11
    1630:	d1fa      	bne.n	1628 <Stack_Size+0xa28>
    1632:	43ff      	mvns	r7, r7
    1634:	4d0a      	ldr	r5, [pc, #40]	; (1660 <Stack_Size+0xa60>)
    1636:	f889 7364 	strb.w	r7, [r9, #868]	; 0x364
    163a:	21ff      	movs	r1, #255	; 0xff
    163c:	e001      	b.n	1642 <Stack_Size+0xa42>
    163e:	f815 1f01 	ldrb.w	r1, [r5, #1]!
    1642:	4808      	ldr	r0, [pc, #32]	; (1664 <Stack_Size+0xa64>)
    1644:	f002 fd28 	bl	4098 <mbed::Stream::putc(int)>
    1648:	4b08      	ldr	r3, [pc, #32]	; (166c <Stack_Size+0xa6c>)
    164a:	42ab      	cmp	r3, r5
    164c:	d1f7      	bne.n	163e <Stack_Size+0xa3e>
    164e:	4b08      	ldr	r3, [pc, #32]	; (1670 <Stack_Size+0xa70>)
    1650:	429c      	cmp	r4, r3
    1652:	f47f ae8d 	bne.w	1370 <Stack_Size+0x770>
    1656:	e737      	b.n	14c8 <Stack_Size+0x8c8>
    1658:	00007240 	.word	0x00007240
    165c:	100004ec 	.word	0x100004ec
    1660:	100004e0 	.word	0x100004e0
    1664:	10000204 	.word	0x10000204
    1668:	10000740 	.word	0x10000740
    166c:	10000524 	.word	0x10000524
    1670:	100007a4 	.word	0x100007a4

00001674 <ros::NodeHandle_<MbedHardware, 25, 25, 512, 512>::negotiateTopics()>:
    1674:	e92d 4ff0 	stmdb	sp!, {r4, r5, r6, r7, r8, r9, r10, r11, lr}
    1678:	4607      	mov	r7, r0
    167a:	4bc1      	ldr	r3, [pc, #772]	; (1980 <ros::NodeHandle_<MbedHardware, 25, 25, 512, 512>::negotiateTopics()+0x30c>)
    167c:	49c1      	ldr	r1, [pc, #772]	; (1984 <ros::NodeHandle_<MbedHardware, 25, 25, 512, 512>::negotiateTopics()+0x310>)
    167e:	b091      	sub	sp, #68	; 0x44
    1680:	2200      	movs	r2, #0
    1682:	f500 68b0 	add.w	r8, r0, #1408	; 0x580
    1686:	f200 5b1c 	addw	r11, r0, #1308	; 0x51c
    168a:	910a      	str	r1, [sp, #40]	; 0x28
    168c:	930c      	str	r3, [sp, #48]	; 0x30
    168e:	930d      	str	r3, [sp, #52]	; 0x34
    1690:	930e      	str	r3, [sp, #56]	; 0x38
    1692:	f8ad 202c 	strh.w	r2, [sp, #44]	; 0x2c
    1696:	920f      	str	r2, [sp, #60]	; 0x3c
    1698:	f8cd 8004 	str.w	r8, [sp, #4]
    169c:	f85b 3f04 	ldr.w	r3, [r11, #4]!
    16a0:	2b00      	cmp	r3, #0
    16a2:	f000 80bd 	beq.w	1820 <ros::NodeHandle_<MbedHardware, 25, 25, 512, 512>::negotiateTopics()+0x1ac>
    16a6:	6858      	ldr	r0, [r3, #4]
    16a8:	681c      	ldr	r4, [r3, #0]
    16aa:	6801      	ldr	r1, [r0, #0]
    16ac:	689a      	ldr	r2, [r3, #8]
    16ae:	940c      	str	r4, [sp, #48]	; 0x30
    16b0:	688b      	ldr	r3, [r1, #8]
    16b2:	f8ad 202c 	strh.w	r2, [sp, #44]	; 0x2c
    16b6:	4798      	blx	r3
    16b8:	f8db 3000 	ldr.w	r3, [r11]
    16bc:	900d      	str	r0, [sp, #52]	; 0x34
    16be:	6858      	ldr	r0, [r3, #4]
    16c0:	6803      	ldr	r3, [r0, #0]
    16c2:	68db      	ldr	r3, [r3, #12]
    16c4:	4798      	blx	r3
    16c6:	683b      	ldr	r3, [r7, #0]
    16c8:	f8db 1000 	ldr.w	r1, [r11]
    16cc:	f44f 7200 	mov.w	r2, #512	; 0x200
    16d0:	900e      	str	r0, [sp, #56]	; 0x38
    16d2:	681b      	ldr	r3, [r3, #0]
    16d4:	690e      	ldr	r6, [r1, #16]
    16d6:	920f      	str	r2, [sp, #60]	; 0x3c
    16d8:	4aab      	ldr	r2, [pc, #684]	; (1988 <ros::NodeHandle_<MbedHardware, 25, 25, 512, 512>::negotiateTopics()+0x314>)
    16da:	4681      	mov	r9, r0
    16dc:	4293      	cmp	r3, r2
    16de:	f040 818b 	bne.w	19f8 <ros::NodeHandle_<MbedHardware, 25, 25, 512, 512>::negotiateTopics()+0x384>
    16e2:	2e63      	cmp	r6, #99	; 0x63
    16e4:	dd04      	ble.n	16f0 <ros::NodeHandle_<MbedHardware, 25, 25, 512, 512>::negotiateTopics()+0x7c>
    16e6:	f897 35fc 	ldrb.w	r3, [r7, #1532]	; 0x5fc
    16ea:	2b00      	cmp	r3, #0
    16ec:	f000 8098 	beq.w	1820 <ros::NodeHandle_<MbedHardware, 25, 25, 512, 512>::negotiateTopics()+0x1ac>
    16f0:	f8bd 302c 	ldrh.w	r3, [sp, #44]	; 0x2c
    16f4:	9d0c      	ldr	r5, [sp, #48]	; 0x30
    16f6:	0a1a      	lsrs	r2, r3, #8
    16f8:	f887 3327 	strb.w	r3, [r7, #807]	; 0x327
    16fc:	f887 2328 	strb.w	r2, [r7, #808]	; 0x328
    1700:	4628      	mov	r0, r5
    1702:	f004 feb0 	bl	6466 <strlen>
    1706:	4604      	mov	r4, r0
    1708:	ab10      	add	r3, sp, #64	; 0x40
    170a:	f843 0d2c 	str.w	r0, [r3, #-44]!
    170e:	6818      	ldr	r0, [r3, #0]
    1710:	4629      	mov	r1, r5
    1712:	4622      	mov	r2, r4
    1714:	f8c7 0329 	str.w	r0, [r7, #809]	; 0x329
    1718:	f207 302d 	addw	r0, r7, #813	; 0x32d
    171c:	f003 ffd8 	bl	56d0 <memcpy>
    1720:	9d0d      	ldr	r5, [sp, #52]	; 0x34
    1722:	ab10      	add	r3, sp, #64	; 0x40
    1724:	4628      	mov	r0, r5
    1726:	9300      	str	r3, [sp, #0]
    1728:	f004 fe9d 	bl	6466 <strlen>
    172c:	f207 3e27 	addw	lr, r7, #807	; 0x327
    1730:	4603      	mov	r3, r0
    1732:	4629      	mov	r1, r5
    1734:	4675      	mov	r5, lr
    1736:	9a00      	ldr	r2, [sp, #0]
    1738:	9006      	str	r0, [sp, #24]
    173a:	f852 0d28 	ldr.w	r0, [r2, #-40]!
    173e:	9302      	str	r3, [sp, #8]
    1740:	9200      	str	r2, [sp, #0]
    1742:	1da2      	adds	r2, r4, #6
    1744:	340a      	adds	r4, #10
    1746:	f84e 0002 	str.w	r0, [lr, r2]
    174a:	461a      	mov	r2, r3
    174c:	1928      	adds	r0, r5, r4
    174e:	f003 ffbf 	bl	56d0 <memcpy>
    1752:	4648      	mov	r0, r9
    1754:	f004 fe87 	bl	6466 <strlen>
    1758:	4682      	mov	r10, r0
    175a:	9b02      	ldr	r3, [sp, #8]
    175c:	9007      	str	r0, [sp, #28]
    175e:	f10d 0840 	add.w	r8, sp, #64	; 0x40
    1762:	4423      	add	r3, r4
    1764:	f858 0d24 	ldr.w	r0, [r8, #-36]!
    1768:	1d1c      	adds	r4, r3, #4
    176a:	50e8      	str	r0, [r5, r3]
    176c:	4649      	mov	r1, r9
    176e:	4652      	mov	r2, r10
    1770:	1928      	adds	r0, r5, r4
    1772:	f003 ffad 	bl	56d0 <memcpy>
    1776:	eb0a 0004 	add.w	r0, r10, r4
    177a:	1d01      	adds	r1, r0, #4
    177c:	fa5f fa81 	uxtb.w	r10, r1
    1780:	f3c1 2907 	ubfx	r9, r1, #8, #8
    1784:	eb0a 0e09 	add.w	lr, r10, r9
    1788:	ea6f 0e0e 	mvn.w	lr, lr
    178c:	2400      	movs	r4, #0
    178e:	542c      	strb	r4, [r5, r0]
    1790:	eb05 0c00 	add.w	r12, r5, r0
    1794:	b289      	uxth	r1, r1
    1796:	2002      	movs	r0, #2
    1798:	f88c 4002 	strb.w	r4, [r12, #2]
    179c:	f88c 4003 	strb.w	r4, [r12, #3]
    17a0:	f88c 0001 	strb.w	r0, [r12, #1]
    17a4:	f207 3325 	addw	r3, r7, #805	; 0x325
    17a8:	4622      	mov	r2, r4
    17aa:	f201 3026 	addw	r0, r1, #806	; 0x326
    17ae:	24ff      	movs	r4, #255	; 0xff
    17b0:	f887 e324 	strb.w	lr, [r7, #804]	; 0x324
    17b4:	25fe      	movs	r5, #254	; 0xfe
    17b6:	fa5f fe86 	uxtb.w	lr, r6
    17ba:	f346 2607 	sbfx	r6, r6, #8, #8
    17be:	9302      	str	r3, [sp, #8]
    17c0:	f887 a322 	strb.w	r10, [r7, #802]	; 0x322
    17c4:	f887 9323 	strb.w	r9, [r7, #803]	; 0x323
    17c8:	4438      	add	r0, r7
    17ca:	f887 4320 	strb.w	r4, [r7, #800]	; 0x320
    17ce:	f887 5321 	strb.w	r5, [r7, #801]	; 0x321
    17d2:	f887 e325 	strb.w	lr, [r7, #805]	; 0x325
    17d6:	f887 6326 	strb.w	r6, [r7, #806]	; 0x326
    17da:	e001      	b.n	17e0 <ros::NodeHandle_<MbedHardware, 25, 25, 512, 512>::negotiateTopics()+0x16c>
    17dc:	f813 ef01 	ldrb.w	lr, [r3, #1]!
    17e0:	4298      	cmp	r0, r3
    17e2:	4472      	add	r2, lr
    17e4:	d1fa      	bne.n	17dc <ros::NodeHandle_<MbedHardware, 25, 25, 512, 512>::negotiateTopics()+0x168>
    17e6:	43d2      	mvns	r2, r2
    17e8:	1dc8      	adds	r0, r1, #7
    17ea:	f101 0308 	add.w	r3, r1, #8
    17ee:	b280      	uxth	r0, r0
    17f0:	b29b      	uxth	r3, r3
    17f2:	1839      	adds	r1, r7, r0
    17f4:	f5b3 7f00 	cmp.w	r3, #512	; 0x200
    17f8:	f881 2320 	strb.w	r2, [r1, #800]	; 0x320
    17fc:	f200 811d 	bhi.w	1a3a <ros::NodeHandle_<MbedHardware, 25, 25, 512, 512>::negotiateTopics()+0x3c6>
    1800:	f507 7548 	add.w	r5, r7, #800	; 0x320
    1804:	b163      	cbz	r3, 1820 <ros::NodeHandle_<MbedHardware, 25, 25, 512, 512>::negotiateTopics()+0x1ac>
    1806:	3b01      	subs	r3, #1
    1808:	441d      	add	r5, r3
    180a:	f107 0644 	add.w	r6, r7, #68	; 0x44
    180e:	f207 341f 	addw	r4, r7, #799	; 0x31f
    1812:	f814 1f01 	ldrb.w	r1, [r4, #1]!
    1816:	4630      	mov	r0, r6
    1818:	f002 fc3e 	bl	4098 <mbed::Stream::putc(int)>
    181c:	42a5      	cmp	r5, r4
    181e:	d1f8      	bne.n	1812 <ros::NodeHandle_<MbedHardware, 25, 25, 512, 512>::negotiateTopics()+0x19e>
    1820:	9b01      	ldr	r3, [sp, #4]
    1822:	459b      	cmp	r11, r3
    1824:	f47f af3a 	bne.w	169c <ros::NodeHandle_<MbedHardware, 25, 25, 512, 512>::negotiateTopics()+0x28>
    1828:	4698      	mov	r8, r3
    182a:	f207 53e4 	addw	r3, r7, #1508	; 0x5e4
    182e:	9301      	str	r3, [sp, #4]
    1830:	f858 0f04 	ldr.w	r0, [r8, #4]!
    1834:	2800      	cmp	r0, #0
    1836:	f000 80d5 	beq.w	19e4 <ros::NodeHandle_<MbedHardware, 25, 25, 512, 512>::negotiateTopics()+0x370>
    183a:	6882      	ldr	r2, [r0, #8]
    183c:	6803      	ldr	r3, [r0, #0]
    183e:	6841      	ldr	r1, [r0, #4]
    1840:	920c      	str	r2, [sp, #48]	; 0x30
    1842:	689a      	ldr	r2, [r3, #8]
    1844:	f8ad 102c 	strh.w	r1, [sp, #44]	; 0x2c
    1848:	4950      	ldr	r1, [pc, #320]	; (198c <ros::NodeHandle_<MbedHardware, 25, 25, 512, 512>::negotiateTopics()+0x318>)
    184a:	428a      	cmp	r2, r1
    184c:	f040 80ef 	bne.w	1a2e <ros::NodeHandle_<MbedHardware, 25, 25, 512, 512>::negotiateTopics()+0x3ba>
    1850:	4a4f      	ldr	r2, [pc, #316]	; (1990 <ros::NodeHandle_<MbedHardware, 25, 25, 512, 512>::negotiateTopics()+0x31c>)
    1852:	920d      	str	r2, [sp, #52]	; 0x34
    1854:	68da      	ldr	r2, [r3, #12]
    1856:	494f      	ldr	r1, [pc, #316]	; (1994 <ros::NodeHandle_<MbedHardware, 25, 25, 512, 512>::negotiateTopics()+0x320>)
    1858:	428a      	cmp	r2, r1
    185a:	f040 80e2 	bne.w	1a22 <ros::NodeHandle_<MbedHardware, 25, 25, 512, 512>::negotiateTopics()+0x3ae>
    185e:	4a4e      	ldr	r2, [pc, #312]	; (1998 <ros::NodeHandle_<MbedHardware, 25, 25, 512, 512>::negotiateTopics()+0x324>)
    1860:	6839      	ldr	r1, [r7, #0]
    1862:	920e      	str	r2, [sp, #56]	; 0x38
    1864:	f44f 7200 	mov.w	r2, #512	; 0x200
    1868:	685b      	ldr	r3, [r3, #4]
    186a:	680c      	ldr	r4, [r1, #0]
    186c:	920f      	str	r2, [sp, #60]	; 0x3c
    186e:	4a4b      	ldr	r2, [pc, #300]	; (199c <ros::NodeHandle_<MbedHardware, 25, 25, 512, 512>::negotiateTopics()+0x328>)
    1870:	4293      	cmp	r3, r2
    1872:	f040 80d3 	bne.w	1a1c <ros::NodeHandle_<MbedHardware, 25, 25, 512, 512>::negotiateTopics()+0x3a8>
    1876:	6ac6      	ldr	r6, [r0, #44]	; 0x2c
    1878:	f8df a10c 	ldr.w	r10, [pc, #268]	; 1988 <ros::NodeHandle_<MbedHardware, 25, 25, 512, 512>::negotiateTopics()+0x314>
    187c:	4554      	cmp	r4, r10
    187e:	f040 80c4 	bne.w	1a0a <ros::NodeHandle_<MbedHardware, 25, 25, 512, 512>::negotiateTopics()+0x396>
    1882:	2e63      	cmp	r6, #99	; 0x63
    1884:	dd04      	ble.n	1890 <ros::NodeHandle_<MbedHardware, 25, 25, 512, 512>::negotiateTopics()+0x21c>
    1886:	f897 35fc 	ldrb.w	r3, [r7, #1532]	; 0x5fc
    188a:	2b00      	cmp	r3, #0
    188c:	f000 80aa 	beq.w	19e4 <ros::NodeHandle_<MbedHardware, 25, 25, 512, 512>::negotiateTopics()+0x370>
    1890:	f8bd 302c 	ldrh.w	r3, [sp, #44]	; 0x2c
    1894:	9d0c      	ldr	r5, [sp, #48]	; 0x30
    1896:	0a1a      	lsrs	r2, r3, #8
    1898:	f887 3327 	strb.w	r3, [r7, #807]	; 0x327
    189c:	f887 2328 	strb.w	r2, [r7, #808]	; 0x328
    18a0:	4628      	mov	r0, r5
    18a2:	f004 fde0 	bl	6466 <strlen>
    18a6:	4604      	mov	r4, r0
    18a8:	ab10      	add	r3, sp, #64	; 0x40
    18aa:	f843 0d2c 	str.w	r0, [r3, #-44]!
    18ae:	6818      	ldr	r0, [r3, #0]
    18b0:	4629      	mov	r1, r5
    18b2:	4622      	mov	r2, r4
    18b4:	f8c7 0329 	str.w	r0, [r7, #809]	; 0x329
    18b8:	f207 302d 	addw	r0, r7, #813	; 0x32d
    18bc:	f003 ff08 	bl	56d0 <memcpy>
    18c0:	9d0d      	ldr	r5, [sp, #52]	; 0x34
    18c2:	ab10      	add	r3, sp, #64	; 0x40
    18c4:	4628      	mov	r0, r5
    18c6:	9300      	str	r3, [sp, #0]
    18c8:	f004 fdcd 	bl	6466 <strlen>
    18cc:	f207 3e27 	addw	lr, r7, #807	; 0x327
    18d0:	4603      	mov	r3, r0
    18d2:	4629      	mov	r1, r5
    18d4:	4675      	mov	r5, lr
    18d6:	9a00      	ldr	r2, [sp, #0]
    18d8:	9006      	str	r0, [sp, #24]
    18da:	f852 0d28 	ldr.w	r0, [r2, #-40]!
    18de:	9303      	str	r3, [sp, #12]
    18e0:	9200      	str	r2, [sp, #0]
    18e2:	1da2      	adds	r2, r4, #6
    18e4:	340a      	adds	r4, #10
    18e6:	f84e 0002 	str.w	r0, [lr, r2]
    18ea:	461a      	mov	r2, r3
    18ec:	1928      	adds	r0, r5, r4
    18ee:	f003 feef 	bl	56d0 <memcpy>
    18f2:	990e      	ldr	r1, [sp, #56]	; 0x38
    18f4:	f10d 0940 	add.w	r9, sp, #64	; 0x40
    18f8:	4608      	mov	r0, r1
    18fa:	9102      	str	r1, [sp, #8]
    18fc:	f004 fdb3 	bl	6466 <strlen>
    1900:	4683      	mov	r11, r0
    1902:	9b03      	ldr	r3, [sp, #12]
    1904:	9007      	str	r0, [sp, #28]
    1906:	4423      	add	r3, r4
    1908:	f859 0d24 	ldr.w	r0, [r9, #-36]!
    190c:	1d1c      	adds	r4, r3, #4
    190e:	50e8      	str	r0, [r5, r3]
    1910:	465a      	mov	r2, r11
    1912:	1928      	adds	r0, r5, r4
    1914:	9902      	ldr	r1, [sp, #8]
    1916:	f003 fedb 	bl	56d0 <memcpy>
    191a:	eb0b 0004 	add.w	r0, r11, r4
    191e:	1d02      	adds	r2, r0, #4
    1920:	fa5f fb82 	uxtb.w	r11, r2
    1924:	f3c2 2c07 	ubfx	r12, r2, #8, #8
    1928:	eb0b 040c 	add.w	r4, r11, r12
    192c:	43e4      	mvns	r4, r4
    192e:	990f      	ldr	r1, [sp, #60]	; 0x3c
    1930:	eb05 0e00 	add.w	lr, r5, r0
    1934:	5429      	strb	r1, [r5, r0]
    1936:	0a08      	lsrs	r0, r1, #8
    1938:	f88e 0001 	strb.w	r0, [lr, #1]
    193c:	b292      	uxth	r2, r2
    193e:	0c08      	lsrs	r0, r1, #16
    1940:	0e09      	lsrs	r1, r1, #24
    1942:	f88e 0002 	strb.w	r0, [lr, #2]
    1946:	f88e 1003 	strb.w	r1, [lr, #3]
    194a:	f207 3325 	addw	r3, r7, #805	; 0x325
    194e:	21fe      	movs	r1, #254	; 0xfe
    1950:	f202 3026 	addw	r0, r2, #806	; 0x326
    1954:	25ff      	movs	r5, #255	; 0xff
    1956:	f887 4324 	strb.w	r4, [r7, #804]	; 0x324
    195a:	b2f4      	uxtb	r4, r6
    195c:	f346 2607 	sbfx	r6, r6, #8, #8
    1960:	f887 1321 	strb.w	r1, [r7, #801]	; 0x321
    1964:	9302      	str	r3, [sp, #8]
    1966:	f887 b322 	strb.w	r11, [r7, #802]	; 0x322
    196a:	f887 c323 	strb.w	r12, [r7, #803]	; 0x323
    196e:	4438      	add	r0, r7
    1970:	f887 5320 	strb.w	r5, [r7, #800]	; 0x320
    1974:	f887 4325 	strb.w	r4, [r7, #805]	; 0x325
    1978:	f887 6326 	strb.w	r6, [r7, #806]	; 0x326
    197c:	2100      	movs	r1, #0
    197e:	e011      	b.n	19a4 <ros::NodeHandle_<MbedHardware, 25, 25, 512, 512>::negotiateTopics()+0x330>
    1980:	00007278 	.word	0x00007278
    1984:	00007064 	.word	0x00007064
    1988:	000009d5 	.word	0x000009d5
    198c:	00000245 	.word	0x00000245
    1990:	00007204 	.word	0x00007204
    1994:	0000024d 	.word	0x0000024d
    1998:	0000721c 	.word	0x0000721c
    199c:	00000241 	.word	0x00000241
    19a0:	f813 4f01 	ldrb.w	r4, [r3, #1]!
    19a4:	4298      	cmp	r0, r3
    19a6:	4421      	add	r1, r4
    19a8:	d1fa      	bne.n	19a0 <ros::NodeHandle_<MbedHardware, 25, 25, 512, 512>::negotiateTopics()+0x32c>
    19aa:	43c9      	mvns	r1, r1
    19ac:	1dd0      	adds	r0, r2, #7
    19ae:	f102 0308 	add.w	r3, r2, #8
    19b2:	b280      	uxth	r0, r0
    19b4:	b29b      	uxth	r3, r3
    19b6:	183a      	adds	r2, r7, r0
    19b8:	f5b3 7f00 	cmp.w	r3, #512	; 0x200
    19bc:	f882 1320 	strb.w	r1, [r2, #800]	; 0x320
    19c0:	f200 8099 	bhi.w	1af6 <ros::NodeHandle_<MbedHardware, 25, 25, 512, 512>::negotiateTopics()+0x482>
    19c4:	f507 7548 	add.w	r5, r7, #800	; 0x320
    19c8:	b163      	cbz	r3, 19e4 <ros::NodeHandle_<MbedHardware, 25, 25, 512, 512>::negotiateTopics()+0x370>
    19ca:	3b01      	subs	r3, #1
    19cc:	441d      	add	r5, r3
    19ce:	f107 0644 	add.w	r6, r7, #68	; 0x44
    19d2:	f207 341f 	addw	r4, r7, #799	; 0x31f
    19d6:	f814 1f01 	ldrb.w	r1, [r4, #1]!
    19da:	4630      	mov	r0, r6
    19dc:	f002 fb5c 	bl	4098 <mbed::Stream::putc(int)>
    19e0:	42a5      	cmp	r5, r4
    19e2:	d1f8      	bne.n	19d6 <ros::NodeHandle_<MbedHardware, 25, 25, 512, 512>::negotiateTopics()+0x362>
    19e4:	9b01      	ldr	r3, [sp, #4]
    19e6:	4543      	cmp	r3, r8
    19e8:	f47f af22 	bne.w	1830 <ros::NodeHandle_<MbedHardware, 25, 25, 512, 512>::negotiateTopics()+0x1bc>
    19ec:	2301      	movs	r3, #1
    19ee:	f887 35fc 	strb.w	r3, [r7, #1532]	; 0x5fc
    19f2:	b011      	add	sp, #68	; 0x44
    19f4:	e8bd 8ff0 	ldmia.w	sp!, {r4, r5, r6, r7, r8, r9, r10, r11, pc}
    19f8:	4631      	mov	r1, r6
    19fa:	aa0a      	add	r2, sp, #40	; 0x28
    19fc:	4638      	mov	r0, r7
    19fe:	4798      	blx	r3
    1a00:	9b01      	ldr	r3, [sp, #4]
    1a02:	459b      	cmp	r11, r3
    1a04:	f47f ae4a 	bne.w	169c <ros::NodeHandle_<MbedHardware, 25, 25, 512, 512>::negotiateTopics()+0x28>
    1a08:	e70e      	b.n	1828 <ros::NodeHandle_<MbedHardware, 25, 25, 512, 512>::negotiateTopics()+0x1b4>
    1a0a:	4631      	mov	r1, r6
    1a0c:	aa0a      	add	r2, sp, #40	; 0x28
    1a0e:	4638      	mov	r0, r7
    1a10:	47a0      	blx	r4
    1a12:	9b01      	ldr	r3, [sp, #4]
    1a14:	4543      	cmp	r3, r8
    1a16:	f47f af0b 	bne.w	1830 <ros::NodeHandle_<MbedHardware, 25, 25, 512, 512>::negotiateTopics()+0x1bc>
    1a1a:	e7e7      	b.n	19ec <ros::NodeHandle_<MbedHardware, 25, 25, 512, 512>::negotiateTopics()+0x378>
    1a1c:	4798      	blx	r3
    1a1e:	4606      	mov	r6, r0
    1a20:	e72a      	b.n	1878 <ros::NodeHandle_<MbedHardware, 25, 25, 512, 512>::negotiateTopics()+0x204>
    1a22:	4790      	blx	r2
    1a24:	4602      	mov	r2, r0
    1a26:	f8d8 0000 	ldr.w	r0, [r8]
    1a2a:	6803      	ldr	r3, [r0, #0]
    1a2c:	e718      	b.n	1860 <ros::NodeHandle_<MbedHardware, 25, 25, 512, 512>::negotiateTopics()+0x1ec>
    1a2e:	4790      	blx	r2
    1a30:	4602      	mov	r2, r0
    1a32:	f8d8 0000 	ldr.w	r0, [r8]
    1a36:	6803      	ldr	r3, [r0, #0]
    1a38:	e70b      	b.n	1852 <ros::NodeHandle_<MbedHardware, 25, 25, 512, 512>::negotiateTopics()+0x1de>
    1a3a:	4961      	ldr	r1, [pc, #388]	; (1bc0 <ros::NodeHandle_<MbedHardware, 25, 25, 512, 512>::negotiateTopics()+0x54c>)
    1a3c:	2203      	movs	r2, #3
    1a3e:	9107      	str	r1, [sp, #28]
    1a40:	4960      	ldr	r1, [pc, #384]	; (1bc4 <ros::NodeHandle_<MbedHardware, 25, 25, 512, 512>::negotiateTopics()+0x550>)
    1a42:	683b      	ldr	r3, [r7, #0]
    1a44:	9109      	str	r1, [sp, #36]	; 0x24
    1a46:	f88d 2020 	strb.w	r2, [sp, #32]
    1a4a:	681b      	ldr	r3, [r3, #0]
    1a4c:	495e      	ldr	r1, [pc, #376]	; (1bc8 <ros::NodeHandle_<MbedHardware, 25, 25, 512, 512>::negotiateTopics()+0x554>)
    1a4e:	428b      	cmp	r3, r1
    1a50:	f040 80ac 	bne.w	1bac <ros::NodeHandle_<MbedHardware, 25, 25, 512, 512>::negotiateTopics()+0x538>
    1a54:	2338      	movs	r3, #56	; 0x38
    1a56:	9306      	str	r3, [sp, #24]
    1a58:	9b00      	ldr	r3, [sp, #0]
    1a5a:	4c5a      	ldr	r4, [pc, #360]	; (1bc4 <ros::NodeHandle_<MbedHardware, 25, 25, 512, 512>::negotiateTopics()+0x550>)
    1a5c:	6818      	ldr	r0, [r3, #0]
    1a5e:	f887 2327 	strb.w	r2, [r7, #807]	; 0x327
    1a62:	f8c7 0328 	str.w	r0, [r7, #808]	; 0x328
    1a66:	f104 0e30 	add.w	lr, r4, #48	; 0x30
    1a6a:	f507 754b 	add.w	r5, r7, #812	; 0x32c
    1a6e:	4626      	mov	r6, r4
    1a70:	ce0f      	ldmia	r6!, {r0, r1, r2, r3}
    1a72:	4576      	cmp	r6, lr
    1a74:	6028      	str	r0, [r5, #0]
    1a76:	6069      	str	r1, [r5, #4]
    1a78:	60aa      	str	r2, [r5, #8]
    1a7a:	60eb      	str	r3, [r5, #12]
    1a7c:	f104 0410 	add.w	r4, r4, #16
    1a80:	f105 0510 	add.w	r5, r5, #16
    1a84:	d1f3      	bne.n	1a6e <ros::NodeHandle_<MbedHardware, 25, 25, 512, 512>::negotiateTopics()+0x3fa>
    1a86:	cc03      	ldmia	r4!, {r0, r1}
    1a88:	9b02      	ldr	r3, [sp, #8]
    1a8a:	6028      	str	r0, [r5, #0]
    1a8c:	6069      	str	r1, [r5, #4]
    1a8e:	20ff      	movs	r0, #255	; 0xff
    1a90:	21fe      	movs	r1, #254	; 0xfe
    1a92:	2600      	movs	r6, #0
    1a94:	f04f 0e07 	mov.w	lr, #7
    1a98:	f887 0320 	strb.w	r0, [r7, #800]	; 0x320
    1a9c:	f887 1321 	strb.w	r1, [r7, #801]	; 0x321
    1aa0:	203d      	movs	r0, #61	; 0x3d
    1aa2:	21c2      	movs	r1, #194	; 0xc2
    1aa4:	f887 1324 	strb.w	r1, [r7, #804]	; 0x324
    1aa8:	4632      	mov	r2, r6
    1aaa:	4674      	mov	r4, lr
    1aac:	f887 6323 	strb.w	r6, [r7, #803]	; 0x323
    1ab0:	f887 6326 	strb.w	r6, [r7, #806]	; 0x326
    1ab4:	f887 e325 	strb.w	lr, [r7, #805]	; 0x325
    1ab8:	f887 0322 	strb.w	r0, [r7, #802]	; 0x322
    1abc:	f207 3163 	addw	r1, r7, #867	; 0x363
    1ac0:	e001      	b.n	1ac6 <ros::NodeHandle_<MbedHardware, 25, 25, 512, 512>::negotiateTopics()+0x452>
    1ac2:	f813 4f01 	ldrb.w	r4, [r3, #1]!
    1ac6:	4299      	cmp	r1, r3
    1ac8:	4422      	add	r2, r4
    1aca:	d1fa      	bne.n	1ac2 <ros::NodeHandle_<MbedHardware, 25, 25, 512, 512>::negotiateTopics()+0x44e>
    1acc:	43d2      	mvns	r2, r2
    1ace:	f107 0644 	add.w	r6, r7, #68	; 0x44
    1ad2:	f887 2364 	strb.w	r2, [r7, #868]	; 0x364
    1ad6:	f207 341f 	addw	r4, r7, #799	; 0x31f
    1ada:	f507 7559 	add.w	r5, r7, #868	; 0x364
    1ade:	f814 1f01 	ldrb.w	r1, [r4, #1]!
    1ae2:	4630      	mov	r0, r6
    1ae4:	f002 fad8 	bl	4098 <mbed::Stream::putc(int)>
    1ae8:	42ac      	cmp	r4, r5
    1aea:	d1f8      	bne.n	1ade <ros::NodeHandle_<MbedHardware, 25, 25, 512, 512>::negotiateTopics()+0x46a>
    1aec:	9b01      	ldr	r3, [sp, #4]
    1aee:	459b      	cmp	r11, r3
    1af0:	f47f add4 	bne.w	169c <ros::NodeHandle_<MbedHardware, 25, 25, 512, 512>::negotiateTopics()+0x28>
    1af4:	e698      	b.n	1828 <ros::NodeHandle_<MbedHardware, 25, 25, 512, 512>::negotiateTopics()+0x1b4>
    1af6:	4932      	ldr	r1, [pc, #200]	; (1bc0 <ros::NodeHandle_<MbedHardware, 25, 25, 512, 512>::negotiateTopics()+0x54c>)
    1af8:	4c32      	ldr	r4, [pc, #200]	; (1bc4 <ros::NodeHandle_<MbedHardware, 25, 25, 512, 512>::negotiateTopics()+0x550>)
    1afa:	2203      	movs	r2, #3
    1afc:	683b      	ldr	r3, [r7, #0]
    1afe:	9107      	str	r1, [sp, #28]
    1b00:	9409      	str	r4, [sp, #36]	; 0x24
    1b02:	f88d 2020 	strb.w	r2, [sp, #32]
    1b06:	681b      	ldr	r3, [r3, #0]
    1b08:	4553      	cmp	r3, r10
    1b0a:	d154      	bne.n	1bb6 <ros::NodeHandle_<MbedHardware, 25, 25, 512, 512>::negotiateTopics()+0x542>
    1b0c:	2338      	movs	r3, #56	; 0x38
    1b0e:	9306      	str	r3, [sp, #24]
    1b10:	9b00      	ldr	r3, [sp, #0]
    1b12:	f887 2327 	strb.w	r2, [r7, #807]	; 0x327
    1b16:	6818      	ldr	r0, [r3, #0]
    1b18:	f104 0e30 	add.w	lr, r4, #48	; 0x30
    1b1c:	f8c7 0328 	str.w	r0, [r7, #808]	; 0x328
    1b20:	f507 754b 	add.w	r5, r7, #812	; 0x32c
    1b24:	4626      	mov	r6, r4
    1b26:	ce0f      	ldmia	r6!, {r0, r1, r2, r3}
    1b28:	4576      	cmp	r6, lr
    1b2a:	6028      	str	r0, [r5, #0]
    1b2c:	6069      	str	r1, [r5, #4]
    1b2e:	60aa      	str	r2, [r5, #8]
    1b30:	60eb      	str	r3, [r5, #12]
    1b32:	f104 0410 	add.w	r4, r4, #16
    1b36:	f105 0510 	add.w	r5, r5, #16
    1b3a:	d1f3      	bne.n	1b24 <ros::NodeHandle_<MbedHardware, 25, 25, 512, 512>::negotiateTopics()+0x4b0>
    1b3c:	cc03      	ldmia	r4!, {r0, r1}
    1b3e:	9b02      	ldr	r3, [sp, #8]
    1b40:	6028      	str	r0, [r5, #0]
    1b42:	6069      	str	r1, [r5, #4]
    1b44:	20ff      	movs	r0, #255	; 0xff
    1b46:	21fe      	movs	r1, #254	; 0xfe
    1b48:	2600      	movs	r6, #0
    1b4a:	f04f 0e07 	mov.w	lr, #7
    1b4e:	f887 0320 	strb.w	r0, [r7, #800]	; 0x320
    1b52:	f887 1321 	strb.w	r1, [r7, #801]	; 0x321
    1b56:	203d      	movs	r0, #61	; 0x3d
    1b58:	21c2      	movs	r1, #194	; 0xc2
    1b5a:	f887 1324 	strb.w	r1, [r7, #804]	; 0x324
    1b5e:	4632      	mov	r2, r6
    1b60:	4674      	mov	r4, lr
    1b62:	f887 6323 	strb.w	r6, [r7, #803]	; 0x323
    1b66:	f887 6326 	strb.w	r6, [r7, #806]	; 0x326
    1b6a:	f887 e325 	strb.w	lr, [r7, #805]	; 0x325
    1b6e:	f887 0322 	strb.w	r0, [r7, #802]	; 0x322
    1b72:	f207 3163 	addw	r1, r7, #867	; 0x363
    1b76:	e001      	b.n	1b7c <ros::NodeHandle_<MbedHardware, 25, 25, 512, 512>::negotiateTopics()+0x508>
    1b78:	f813 4f01 	ldrb.w	r4, [r3, #1]!
    1b7c:	428b      	cmp	r3, r1
    1b7e:	4422      	add	r2, r4
    1b80:	d1fa      	bne.n	1b78 <ros::NodeHandle_<MbedHardware, 25, 25, 512, 512>::negotiateTopics()+0x504>
    1b82:	43d2      	mvns	r2, r2
    1b84:	f107 0644 	add.w	r6, r7, #68	; 0x44
    1b88:	f887 2364 	strb.w	r2, [r7, #868]	; 0x364
    1b8c:	f207 341f 	addw	r4, r7, #799	; 0x31f
    1b90:	f507 7559 	add.w	r5, r7, #868	; 0x364
    1b94:	f814 1f01 	ldrb.w	r1, [r4, #1]!
    1b98:	4630      	mov	r0, r6
    1b9a:	f002 fa7d 	bl	4098 <mbed::Stream::putc(int)>
    1b9e:	42a5      	cmp	r5, r4
    1ba0:	d1f8      	bne.n	1b94 <ros::NodeHandle_<MbedHardware, 25, 25, 512, 512>::negotiateTopics()+0x520>
    1ba2:	9b01      	ldr	r3, [sp, #4]
    1ba4:	4543      	cmp	r3, r8
    1ba6:	f47f ae43 	bne.w	1830 <ros::NodeHandle_<MbedHardware, 25, 25, 512, 512>::negotiateTopics()+0x1bc>
    1baa:	e71f      	b.n	19ec <ros::NodeHandle_<MbedHardware, 25, 25, 512, 512>::negotiateTopics()+0x378>
    1bac:	4642      	mov	r2, r8
    1bae:	2107      	movs	r1, #7
    1bb0:	4638      	mov	r0, r7
    1bb2:	4798      	blx	r3
    1bb4:	e634      	b.n	1820 <ros::NodeHandle_<MbedHardware, 25, 25, 512, 512>::negotiateTopics()+0x1ac>
    1bb6:	464a      	mov	r2, r9
    1bb8:	2107      	movs	r1, #7
    1bba:	4638      	mov	r0, r7
    1bbc:	4798      	blx	r3
    1bbe:	e711      	b.n	19e4 <ros::NodeHandle_<MbedHardware, 25, 25, 512, 512>::negotiateTopics()+0x370>
    1bc0:	0000707c 	.word	0x0000707c
    1bc4:	00007240 	.word	0x00007240
    1bc8:	000009d5 	.word	0x000009d5

00001bcc <ros::NodeHandle_<MbedHardware, 25, 25, 512, 512>::spinOnce()>:
    1bcc:	e92d 4ff0 	stmdb	sp!, {r4, r5, r6, r7, r8, r9, r10, r11, lr}
    1bd0:	f500 7382 	add.w	r3, r0, #260	; 0x104
    1bd4:	4604      	mov	r4, r0
    1bd6:	b087      	sub	sp, #28
    1bd8:	4618      	mov	r0, r3
    1bda:	9301      	str	r3, [sp, #4]
    1bdc:	f002 fa8c 	bl	40f8 <mbed::Timer::read_ms()>
    1be0:	f642 22f8 	movw	r2, #11000	; 0x2af8
    1be4:	f8d4 3604 	ldr.w	r3, [r4, #1540]	; 0x604
    1be8:	4606      	mov	r6, r0
    1bea:	1ac3      	subs	r3, r0, r3
    1bec:	4293      	cmp	r3, r2
    1bee:	bf84      	itt	hi
    1bf0:	2300      	movhi	r3, #0
    1bf2:	f884 35fc 	strbhi.w	r3, [r4, #1532]	; 0x5fc
    1bf6:	f8d4 35e8 	ldr.w	r3, [r4, #1512]	; 0x5e8
    1bfa:	b133      	cbz	r3, 1c0a <ros::NodeHandle_<MbedHardware, 25, 25, 512, 512>::spinOnce()+0x3e>
    1bfc:	f8d4 3608 	ldr.w	r3, [r4, #1544]	; 0x608
    1c00:	4283      	cmp	r3, r0
    1c02:	bf3c      	itt	cc
    1c04:	2300      	movcc	r3, #0
    1c06:	f8c4 35e8 	strcc.w	r3, [r4, #1512]	; 0x5e8
    1c0a:	f8df 83f0 	ldr.w	r8, [pc, #1008]	; 1ffc <ros::NodeHandle_<MbedHardware, 25, 25, 512, 512>::spinOnce()+0x430>
    1c0e:	1d25      	adds	r5, r4, #4
    1c10:	4628      	mov	r0, r5
    1c12:	f000 fd9f 	bl	2754 <AjK::MODSERIAL::rxBufferEmpty()>
    1c16:	4681      	mov	r9, r0
    1c18:	b170      	cbz	r0, 1c38 <ros::NodeHandle_<MbedHardware, 25, 25, 512, 512>::spinOnce()+0x6c>
    1c1a:	f894 05fc 	ldrb.w	r0, [r4, #1532]	; 0x5fc
    1c1e:	b140      	cbz	r0, 1c32 <ros::NodeHandle_<MbedHardware, 25, 25, 512, 512>::spinOnce()+0x66>
    1c20:	f640 12c4 	movw	r2, #2500	; 0x9c4
    1c24:	f8d4 3600 	ldr.w	r3, [r4, #1536]	; 0x600
    1c28:	1af3      	subs	r3, r6, r3
    1c2a:	4293      	cmp	r3, r2
    1c2c:	f200 8174 	bhi.w	1f18 <ros::NodeHandle_<MbedHardware, 25, 25, 512, 512>::spinOnce()+0x34c>
    1c30:	2000      	movs	r0, #0
    1c32:	b007      	add	sp, #28
    1c34:	e8bd 8ff0 	ldmia.w	sp!, {r4, r5, r6, r7, r8, r9, r10, r11, pc}
    1c38:	2101      	movs	r1, #1
    1c3a:	4628      	mov	r0, r5
    1c3c:	f000 fc00 	bl	2440 <AjK::MODSERIAL::__getc(bool)>
    1c40:	2800      	cmp	r0, #0
    1c42:	dbea      	blt.n	1c1a <ros::NodeHandle_<MbedHardware, 25, 25, 512, 512>::spinOnce()+0x4e>
    1c44:	f8d4 35f8 	ldr.w	r3, [r4, #1528]	; 0x5f8
    1c48:	f8d4 75e8 	ldr.w	r7, [r4, #1512]	; 0x5e8
    1c4c:	4403      	add	r3, r0
    1c4e:	2f07      	cmp	r7, #7
    1c50:	f8c4 35f8 	str.w	r3, [r4, #1528]	; 0x5f8
    1c54:	f000 80ab 	beq.w	1dae <ros::NodeHandle_<MbedHardware, 25, 25, 512, 512>::spinOnce()+0x1e2>
    1c58:	b957      	cbnz	r7, 1c70 <ros::NodeHandle_<MbedHardware, 25, 25, 512, 512>::spinOnce()+0xa4>
    1c5a:	28ff      	cmp	r0, #255	; 0xff
    1c5c:	f040 80bb 	bne.w	1dd6 <ros::NodeHandle_<MbedHardware, 25, 25, 512, 512>::spinOnce()+0x20a>
    1c60:	2201      	movs	r2, #1
    1c62:	f106 0314 	add.w	r3, r6, #20
    1c66:	f8c4 25e8 	str.w	r2, [r4, #1512]	; 0x5e8
    1c6a:	f8c4 3608 	str.w	r3, [r4, #1544]	; 0x608
    1c6e:	e7cf      	b.n	1c10 <ros::NodeHandle_<MbedHardware, 25, 25, 512, 512>::spinOnce()+0x44>
    1c70:	2f01      	cmp	r7, #1
    1c72:	f000 80be 	beq.w	1df2 <ros::NodeHandle_<MbedHardware, 25, 25, 512, 512>::spinOnce()+0x226>
    1c76:	2f02      	cmp	r7, #2
    1c78:	f000 8114 	beq.w	1ea4 <ros::NodeHandle_<MbedHardware, 25, 25, 512, 512>::spinOnce()+0x2d8>
    1c7c:	2f03      	cmp	r7, #3
    1c7e:	f000 811b 	beq.w	1eb8 <ros::NodeHandle_<MbedHardware, 25, 25, 512, 512>::spinOnce()+0x2ec>
    1c82:	2f04      	cmp	r7, #4
    1c84:	f000 8122 	beq.w	1ecc <ros::NodeHandle_<MbedHardware, 25, 25, 512, 512>::spinOnce()+0x300>
    1c88:	2f05      	cmp	r7, #5
    1c8a:	f000 812e 	beq.w	1eea <ros::NodeHandle_<MbedHardware, 25, 25, 512, 512>::spinOnce()+0x31e>
    1c8e:	2f06      	cmp	r7, #6
    1c90:	f000 8133 	beq.w	1efa <ros::NodeHandle_<MbedHardware, 25, 25, 512, 512>::spinOnce()+0x32e>
    1c94:	2f08      	cmp	r7, #8
    1c96:	d1bb      	bne.n	1c10 <ros::NodeHandle_<MbedHardware, 25, 25, 512, 512>::spinOnce()+0x44>
    1c98:	4ad4      	ldr	r2, [pc, #848]	; (1fec <ros::NodeHandle_<MbedHardware, 25, 25, 512, 512>::spinOnce()+0x420>)
    1c9a:	2100      	movs	r1, #0
    1c9c:	401a      	ands	r2, r3
    1c9e:	428a      	cmp	r2, r1
    1ca0:	f8c4 15e8 	str.w	r1, [r4, #1512]	; 0x5e8
    1ca4:	f2c0 819c 	blt.w	1fe0 <ros::NodeHandle_<MbedHardware, 25, 25, 512, 512>::spinOnce()+0x414>
    1ca8:	2aff      	cmp	r2, #255	; 0xff
    1caa:	d1b1      	bne.n	1c10 <ros::NodeHandle_<MbedHardware, 25, 25, 512, 512>::spinOnce()+0x44>
    1cac:	f8d4 35f0 	ldr.w	r3, [r4, #1520]	; 0x5f0
    1cb0:	2b00      	cmp	r3, #0
    1cb2:	f000 82a0 	beq.w	21f6 <ros::NodeHandle_<MbedHardware, 25, 25, 512, 512>::spinOnce()+0x62a>
    1cb6:	2b0a      	cmp	r3, #10
    1cb8:	f000 8260 	beq.w	217c <ros::NodeHandle_<MbedHardware, 25, 25, 512, 512>::spinOnce()+0x5b0>
    1cbc:	2b06      	cmp	r3, #6
    1cbe:	f000 81a8 	beq.w	2012 <ros::NodeHandle_<MbedHardware, 25, 25, 512, 512>::spinOnce()+0x446>
    1cc2:	2b0b      	cmp	r3, #11
    1cc4:	f000 81a1 	beq.w	200a <ros::NodeHandle_<MbedHardware, 25, 25, 512, 512>::spinOnce()+0x43e>
    1cc8:	eb04 0383 	add.w	r3, r4, r3, lsl #2
    1ccc:	f8d3 23f4 	ldr.w	r2, [r3, #1012]	; 0x3f4
    1cd0:	2a00      	cmp	r2, #0
    1cd2:	d09d      	beq.n	1c10 <ros::NodeHandle_<MbedHardware, 25, 25, 512, 512>::spinOnce()+0x44>
    1cd4:	6813      	ldr	r3, [r2, #0]
    1cd6:	48c6      	ldr	r0, [pc, #792]	; (1ff0 <ros::NodeHandle_<MbedHardware, 25, 25, 512, 512>::spinOnce()+0x424>)
    1cd8:	681b      	ldr	r3, [r3, #0]
    1cda:	f504 7190 	add.w	r1, r4, #288	; 0x120
    1cde:	4283      	cmp	r3, r0
    1ce0:	f040 8286 	bne.w	21f0 <ros::NodeHandle_<MbedHardware, 25, 25, 512, 512>::spinOnce()+0x624>
    1ce4:	f894 3120 	ldrb.w	r3, [r4, #288]	; 0x120
    1ce8:	f102 070c 	add.w	r7, r2, #12
    1cec:	6153      	str	r3, [r2, #20]
    1cee:	f894 0121 	ldrb.w	r0, [r4, #289]	; 0x121
    1cf2:	f204 192f 	addw	r9, r4, #303	; 0x12f
    1cf6:	ea43 2300 	orr.w	r3, r3, r0, lsl #8
    1cfa:	6153      	str	r3, [r2, #20]
    1cfc:	f894 0122 	ldrb.w	r0, [r4, #290]	; 0x122
    1d00:	ea43 4300 	orr.w	r3, r3, r0, lsl #16
    1d04:	6153      	str	r3, [r2, #20]
    1d06:	f894 0123 	ldrb.w	r0, [r4, #291]	; 0x123
    1d0a:	ea43 6300 	orr.w	r3, r3, r0, lsl #24
    1d0e:	6153      	str	r3, [r2, #20]
    1d10:	f894 3124 	ldrb.w	r3, [r4, #292]	; 0x124
    1d14:	6193      	str	r3, [r2, #24]
    1d16:	f894 0125 	ldrb.w	r0, [r4, #293]	; 0x125
    1d1a:	ea43 2300 	orr.w	r3, r3, r0, lsl #8
    1d1e:	6193      	str	r3, [r2, #24]
    1d20:	f894 0126 	ldrb.w	r0, [r4, #294]	; 0x126
    1d24:	ea43 4300 	orr.w	r3, r3, r0, lsl #16
    1d28:	6193      	str	r3, [r2, #24]
    1d2a:	f894 0127 	ldrb.w	r0, [r4, #295]	; 0x127
    1d2e:	ea43 6300 	orr.w	r3, r3, r0, lsl #24
    1d32:	6193      	str	r3, [r2, #24]
    1d34:	f894 3128 	ldrb.w	r3, [r4, #296]	; 0x128
    1d38:	61d3      	str	r3, [r2, #28]
    1d3a:	f894 0129 	ldrb.w	r0, [r4, #297]	; 0x129
    1d3e:	ea43 2300 	orr.w	r3, r3, r0, lsl #8
    1d42:	61d3      	str	r3, [r2, #28]
    1d44:	f894 012a 	ldrb.w	r0, [r4, #298]	; 0x12a
    1d48:	ea43 4300 	orr.w	r3, r3, r0, lsl #16
    1d4c:	61d3      	str	r3, [r2, #28]
    1d4e:	f894 012b 	ldrb.w	r0, [r4, #299]	; 0x12b
    1d52:	ea43 6300 	orr.w	r3, r3, r0, lsl #24
    1d56:	61d3      	str	r3, [r2, #28]
    1d58:	f8d4 012c 	ldr.w	r0, [r4, #300]	; 0x12c
    1d5c:	9003      	str	r0, [sp, #12]
    1d5e:	f8dd e00c 	ldr.w	lr, [sp, #12]
    1d62:	f10e 0a10 	add.w	r10, lr, #16
    1d66:	f1ba 0f10 	cmp.w	r10, #16
    1d6a:	d909      	bls.n	1d80 <ros::NodeHandle_<MbedHardware, 25, 25, 512, 512>::spinOnce()+0x1b4>
    1d6c:	464b      	mov	r3, r9
    1d6e:	f10e 0c0f 	add.w	r12, lr, #15
    1d72:	448c      	add	r12, r1
    1d74:	f813 0f01 	ldrb.w	r0, [r3, #1]!
    1d78:	459c      	cmp	r12, r3
    1d7a:	f803 0c01 	strb.w	r0, [r3, #-1]
    1d7e:	d1f9      	bne.n	1d74 <ros::NodeHandle_<MbedHardware, 25, 25, 512, 512>::spinOnce()+0x1a8>
    1d80:	eb01 030e 	add.w	r3, r1, lr
    1d84:	2000      	movs	r0, #0
    1d86:	73d8      	strb	r0, [r3, #15]
    1d88:	f8c2 9020 	str.w	r9, [r2, #32]
    1d8c:	f811 100a 	ldrb.w	r1, [r1, r10]
    1d90:	4638      	mov	r0, r7
    1d92:	f882 1024 	strb.w	r1, [r2, #36]	; 0x24
    1d96:	7c5f      	ldrb	r7, [r3, #17]
    1d98:	6a91      	ldr	r1, [r2, #40]	; 0x28
    1d9a:	f882 7025 	strb.w	r7, [r2, #37]	; 0x25
    1d9e:	7c9f      	ldrb	r7, [r3, #18]
    1da0:	f882 7026 	strb.w	r7, [r2, #38]	; 0x26
    1da4:	7cdb      	ldrb	r3, [r3, #19]
    1da6:	f882 3027 	strb.w	r3, [r2, #39]	; 0x27
    1daa:	4788      	blx	r1
    1dac:	e730      	b.n	1c10 <ros::NodeHandle_<MbedHardware, 25, 25, 512, 512>::spinOnce()+0x44>
    1dae:	f8d4 35f4 	ldr.w	r3, [r4, #1524]	; 0x5f4
    1db2:	1c5a      	adds	r2, r3, #1
    1db4:	4423      	add	r3, r4
    1db6:	f8c4 25f4 	str.w	r2, [r4, #1524]	; 0x5f4
    1dba:	f883 0120 	strb.w	r0, [r3, #288]	; 0x120
    1dbe:	f8d4 35ec 	ldr.w	r3, [r4, #1516]	; 0x5ec
    1dc2:	3b01      	subs	r3, #1
    1dc4:	f8c4 35ec 	str.w	r3, [r4, #1516]	; 0x5ec
    1dc8:	2b00      	cmp	r3, #0
    1dca:	f47f af21 	bne.w	1c10 <ros::NodeHandle_<MbedHardware, 25, 25, 512, 512>::spinOnce()+0x44>
    1dce:	2308      	movs	r3, #8
    1dd0:	f8c4 35e8 	str.w	r3, [r4, #1512]	; 0x5e8
    1dd4:	e71c      	b.n	1c10 <ros::NodeHandle_<MbedHardware, 25, 25, 512, 512>::spinOnce()+0x44>
    1dd6:	9801      	ldr	r0, [sp, #4]
    1dd8:	f002 f98e 	bl	40f8 <mbed::Timer::read_ms()>
    1ddc:	1b80      	subs	r0, r0, r6
    1dde:	2805      	cmp	r0, #5
    1de0:	f67f af16 	bls.w	1c10 <ros::NodeHandle_<MbedHardware, 25, 25, 512, 512>::spinOnce()+0x44>
    1de4:	f06f 0001 	mvn.w	r0, #1
    1de8:	f884 75fc 	strb.w	r7, [r4, #1532]	; 0x5fc
    1dec:	b007      	add	sp, #28
    1dee:	e8bd 8ff0 	ldmia.w	sp!, {r4, r5, r6, r7, r8, r9, r10, r11, pc}
    1df2:	28fe      	cmp	r0, #254	; 0xfe
    1df4:	d075      	beq.n	1ee2 <ros::NodeHandle_<MbedHardware, 25, 25, 512, 512>::spinOnce()+0x316>
    1df6:	f894 35fc 	ldrb.w	r3, [r4, #1532]	; 0x5fc
    1dfa:	f8c4 95e8 	str.w	r9, [r4, #1512]	; 0x5e8
    1dfe:	2b00      	cmp	r3, #0
    1e00:	f47f af06 	bne.w	1c10 <ros::NodeHandle_<MbedHardware, 25, 25, 512, 512>::spinOnce()+0x44>
    1e04:	497b      	ldr	r1, [pc, #492]	; (1ff4 <ros::NodeHandle_<MbedHardware, 25, 25, 512, 512>::spinOnce()+0x428>)
    1e06:	6822      	ldr	r2, [r4, #0]
    1e08:	9103      	str	r1, [sp, #12]
    1e0a:	6817      	ldr	r7, [r2, #0]
    1e0c:	4a7a      	ldr	r2, [pc, #488]	; (1ff8 <ros::NodeHandle_<MbedHardware, 25, 25, 512, 512>::spinOnce()+0x42c>)
    1e0e:	9304      	str	r3, [sp, #16]
    1e10:	4297      	cmp	r7, r2
    1e12:	9305      	str	r3, [sp, #20]
    1e14:	f040 80da 	bne.w	1fcc <ros::NodeHandle_<MbedHardware, 25, 25, 512, 512>::spinOnce()+0x400>
    1e18:	200a      	movs	r0, #10
    1e1a:	461a      	mov	r2, r3
    1e1c:	4601      	mov	r1, r0
    1e1e:	f04f 0eff 	mov.w	lr, #255	; 0xff
    1e22:	f884 3327 	strb.w	r3, [r4, #807]	; 0x327
    1e26:	f884 3328 	strb.w	r3, [r4, #808]	; 0x328
    1e2a:	f884 3329 	strb.w	r3, [r4, #809]	; 0x329
    1e2e:	f884 332a 	strb.w	r3, [r4, #810]	; 0x32a
    1e32:	f884 332b 	strb.w	r3, [r4, #811]	; 0x32b
    1e36:	f884 332c 	strb.w	r3, [r4, #812]	; 0x32c
    1e3a:	f884 332d 	strb.w	r3, [r4, #813]	; 0x32d
    1e3e:	f884 332e 	strb.w	r3, [r4, #814]	; 0x32e
    1e42:	f884 3323 	strb.w	r3, [r4, #803]	; 0x323
    1e46:	f884 3326 	strb.w	r3, [r4, #806]	; 0x326
    1e4a:	27fe      	movs	r7, #254	; 0xfe
    1e4c:	23f7      	movs	r3, #247	; 0xf7
    1e4e:	f884 0325 	strb.w	r0, [r4, #805]	; 0x325
    1e52:	2008      	movs	r0, #8
    1e54:	f884 0322 	strb.w	r0, [r4, #802]	; 0x322
    1e58:	f884 3324 	strb.w	r3, [r4, #804]	; 0x324
    1e5c:	f884 e320 	strb.w	lr, [r4, #800]	; 0x320
    1e60:	f884 7321 	strb.w	r7, [r4, #801]	; 0x321
    1e64:	f204 3325 	addw	r3, r4, #805	; 0x325
    1e68:	f204 302e 	addw	r0, r4, #814	; 0x32e
    1e6c:	e001      	b.n	1e72 <ros::NodeHandle_<MbedHardware, 25, 25, 512, 512>::spinOnce()+0x2a6>
    1e6e:	f813 1f01 	ldrb.w	r1, [r3, #1]!
    1e72:	4298      	cmp	r0, r3
    1e74:	440a      	add	r2, r1
    1e76:	d1fa      	bne.n	1e6e <ros::NodeHandle_<MbedHardware, 25, 25, 512, 512>::spinOnce()+0x2a2>
    1e78:	43d2      	mvns	r2, r2
    1e7a:	f104 0a44 	add.w	r10, r4, #68	; 0x44
    1e7e:	f884 232f 	strb.w	r2, [r4, #815]	; 0x32f
    1e82:	f204 371f 	addw	r7, r4, #799	; 0x31f
    1e86:	f204 392f 	addw	r9, r4, #815	; 0x32f
    1e8a:	f817 1f01 	ldrb.w	r1, [r7, #1]!
    1e8e:	4650      	mov	r0, r10
    1e90:	f002 f902 	bl	4098 <mbed::Stream::putc(int)>
    1e94:	454f      	cmp	r7, r9
    1e96:	d1f8      	bne.n	1e8a <ros::NodeHandle_<MbedHardware, 25, 25, 512, 512>::spinOnce()+0x2be>
    1e98:	9801      	ldr	r0, [sp, #4]
    1e9a:	f002 f92d 	bl	40f8 <mbed::Timer::read_ms()>
    1e9e:	f8c4 0114 	str.w	r0, [r4, #276]	; 0x114
    1ea2:	e6b5      	b.n	1c10 <ros::NodeHandle_<MbedHardware, 25, 25, 512, 512>::spinOnce()+0x44>
    1ea4:	2303      	movs	r3, #3
    1ea6:	f8c4 05ec 	str.w	r0, [r4, #1516]	; 0x5ec
    1eaa:	f8c4 95f4 	str.w	r9, [r4, #1524]	; 0x5f4
    1eae:	f8c4 05f8 	str.w	r0, [r4, #1528]	; 0x5f8
    1eb2:	f8c4 35e8 	str.w	r3, [r4, #1512]	; 0x5e8
    1eb6:	e6ab      	b.n	1c10 <ros::NodeHandle_<MbedHardware, 25, 25, 512, 512>::spinOnce()+0x44>
    1eb8:	f8d4 35ec 	ldr.w	r3, [r4, #1516]	; 0x5ec
    1ebc:	2204      	movs	r2, #4
    1ebe:	eb03 2000 	add.w	r0, r3, r0, lsl #8
    1ec2:	f8c4 05ec 	str.w	r0, [r4, #1516]	; 0x5ec
    1ec6:	f8c4 25e8 	str.w	r2, [r4, #1512]	; 0x5e8
    1eca:	e6a1      	b.n	1c10 <ros::NodeHandle_<MbedHardware, 25, 25, 512, 512>::spinOnce()+0x44>
    1ecc:	4a47      	ldr	r2, [pc, #284]	; (1fec <ros::NodeHandle_<MbedHardware, 25, 25, 512, 512>::spinOnce()+0x420>)
    1ece:	401a      	ands	r2, r3
    1ed0:	2a00      	cmp	r2, #0
    1ed2:	db76      	blt.n	1fc2 <ros::NodeHandle_<MbedHardware, 25, 25, 512, 512>::spinOnce()+0x3f6>
    1ed4:	2aff      	cmp	r2, #255	; 0xff
    1ed6:	bf0c      	ite	eq
    1ed8:	2305      	moveq	r3, #5
    1eda:	2300      	movne	r3, #0
    1edc:	f8c4 35e8 	str.w	r3, [r4, #1512]	; 0x5e8
    1ee0:	e696      	b.n	1c10 <ros::NodeHandle_<MbedHardware, 25, 25, 512, 512>::spinOnce()+0x44>
    1ee2:	2302      	movs	r3, #2
    1ee4:	f8c4 35e8 	str.w	r3, [r4, #1512]	; 0x5e8
    1ee8:	e692      	b.n	1c10 <ros::NodeHandle_<MbedHardware, 25, 25, 512, 512>::spinOnce()+0x44>
    1eea:	2306      	movs	r3, #6
    1eec:	f8c4 05f0 	str.w	r0, [r4, #1520]	; 0x5f0
    1ef0:	f8c4 05f8 	str.w	r0, [r4, #1528]	; 0x5f8
    1ef4:	f8c4 35e8 	str.w	r3, [r4, #1512]	; 0x5e8
    1ef8:	e68a      	b.n	1c10 <ros::NodeHandle_<MbedHardware, 25, 25, 512, 512>::spinOnce()+0x44>
    1efa:	f8d4 35f0 	ldr.w	r3, [r4, #1520]	; 0x5f0
    1efe:	f8d4 25ec 	ldr.w	r2, [r4, #1516]	; 0x5ec
    1f02:	eb03 2300 	add.w	r3, r3, r0, lsl #8
    1f06:	2107      	movs	r1, #7
    1f08:	f8c4 35f0 	str.w	r3, [r4, #1520]	; 0x5f0
    1f0c:	f8c4 15e8 	str.w	r1, [r4, #1512]	; 0x5e8
    1f10:	2a00      	cmp	r2, #0
    1f12:	f43f af5c 	beq.w	1dce <ros::NodeHandle_<MbedHardware, 25, 25, 512, 512>::spinOnce()+0x202>
    1f16:	e67b      	b.n	1c10 <ros::NodeHandle_<MbedHardware, 25, 25, 512, 512>::spinOnce()+0x44>
    1f18:	4a36      	ldr	r2, [pc, #216]	; (1ff4 <ros::NodeHandle_<MbedHardware, 25, 25, 512, 512>::spinOnce()+0x428>)
    1f1a:	6823      	ldr	r3, [r4, #0]
    1f1c:	9203      	str	r2, [sp, #12]
    1f1e:	681d      	ldr	r5, [r3, #0]
    1f20:	4a35      	ldr	r2, [pc, #212]	; (1ff8 <ros::NodeHandle_<MbedHardware, 25, 25, 512, 512>::spinOnce()+0x42c>)
    1f22:	2300      	movs	r3, #0
    1f24:	4295      	cmp	r5, r2
    1f26:	9304      	str	r3, [sp, #16]
    1f28:	9305      	str	r3, [sp, #20]
    1f2a:	d169      	bne.n	2000 <ros::NodeHandle_<MbedHardware, 25, 25, 512, 512>::spinOnce()+0x434>
    1f2c:	200a      	movs	r0, #10
    1f2e:	461a      	mov	r2, r3
    1f30:	4601      	mov	r1, r0
    1f32:	f04f 0eff 	mov.w	lr, #255	; 0xff
    1f36:	f884 3327 	strb.w	r3, [r4, #807]	; 0x327
    1f3a:	f884 3328 	strb.w	r3, [r4, #808]	; 0x328
    1f3e:	f884 3329 	strb.w	r3, [r4, #809]	; 0x329
    1f42:	f884 332a 	strb.w	r3, [r4, #810]	; 0x32a
    1f46:	f884 332b 	strb.w	r3, [r4, #811]	; 0x32b
    1f4a:	f884 332c 	strb.w	r3, [r4, #812]	; 0x32c
    1f4e:	f884 332d 	strb.w	r3, [r4, #813]	; 0x32d
    1f52:	f884 332e 	strb.w	r3, [r4, #814]	; 0x32e
    1f56:	f884 3323 	strb.w	r3, [r4, #803]	; 0x323
    1f5a:	f884 3326 	strb.w	r3, [r4, #806]	; 0x326
    1f5e:	25fe      	movs	r5, #254	; 0xfe
    1f60:	23f7      	movs	r3, #247	; 0xf7
    1f62:	f884 0325 	strb.w	r0, [r4, #805]	; 0x325
    1f66:	2008      	movs	r0, #8
    1f68:	f884 0322 	strb.w	r0, [r4, #802]	; 0x322
    1f6c:	f884 3324 	strb.w	r3, [r4, #804]	; 0x324
    1f70:	f884 e320 	strb.w	lr, [r4, #800]	; 0x320
    1f74:	f884 5321 	strb.w	r5, [r4, #801]	; 0x321
    1f78:	f204 3325 	addw	r3, r4, #805	; 0x325
    1f7c:	f204 302e 	addw	r0, r4, #814	; 0x32e
    1f80:	e001      	b.n	1f86 <ros::NodeHandle_<MbedHardware, 25, 25, 512, 512>::spinOnce()+0x3ba>
    1f82:	f813 1f01 	ldrb.w	r1, [r3, #1]!
    1f86:	4283      	cmp	r3, r0
    1f88:	440a      	add	r2, r1
    1f8a:	d1fa      	bne.n	1f82 <ros::NodeHandle_<MbedHardware, 25, 25, 512, 512>::spinOnce()+0x3b6>
    1f8c:	43d2      	mvns	r2, r2
    1f8e:	f104 0944 	add.w	r9, r4, #68	; 0x44
    1f92:	f884 232f 	strb.w	r2, [r4, #815]	; 0x32f
    1f96:	f204 351f 	addw	r5, r4, #799	; 0x31f
    1f9a:	f204 382f 	addw	r8, r4, #815	; 0x32f
    1f9e:	f815 1f01 	ldrb.w	r1, [r5, #1]!
    1fa2:	4648      	mov	r0, r9
    1fa4:	f002 f878 	bl	4098 <mbed::Stream::putc(int)>
    1fa8:	45a8      	cmp	r8, r5
    1faa:	d1f8      	bne.n	1f9e <ros::NodeHandle_<MbedHardware, 25, 25, 512, 512>::spinOnce()+0x3d2>
    1fac:	9801      	ldr	r0, [sp, #4]
    1fae:	f002 f8a3 	bl	40f8 <mbed::Timer::read_ms()>
    1fb2:	f8c4 0114 	str.w	r0, [r4, #276]	; 0x114
    1fb6:	2000      	movs	r0, #0
    1fb8:	f8c4 6600 	str.w	r6, [r4, #1536]	; 0x600
    1fbc:	b007      	add	sp, #28
    1fbe:	e8bd 8ff0 	ldmia.w	sp!, {r4, r5, r6, r7, r8, r9, r10, r11, pc}
    1fc2:	3a01      	subs	r2, #1
    1fc4:	f062 02ff 	orn	r2, r2, #255	; 0xff
    1fc8:	3201      	adds	r2, #1
    1fca:	e783      	b.n	1ed4 <ros::NodeHandle_<MbedHardware, 25, 25, 512, 512>::spinOnce()+0x308>
    1fcc:	aa03      	add	r2, sp, #12
    1fce:	210a      	movs	r1, #10
    1fd0:	4620      	mov	r0, r4
    1fd2:	47b8      	blx	r7
    1fd4:	9801      	ldr	r0, [sp, #4]
    1fd6:	f002 f88f 	bl	40f8 <mbed::Timer::read_ms()>
    1fda:	f8c4 0114 	str.w	r0, [r4, #276]	; 0x114
    1fde:	e617      	b.n	1c10 <ros::NodeHandle_<MbedHardware, 25, 25, 512, 512>::spinOnce()+0x44>
    1fe0:	3a01      	subs	r2, #1
    1fe2:	f062 02ff 	orn	r2, r2, #255	; 0xff
    1fe6:	3201      	adds	r2, #1
    1fe8:	e65e      	b.n	1ca8 <ros::NodeHandle_<MbedHardware, 25, 25, 512, 512>::spinOnce()+0xdc>
    1fea:	bf00      	nop
    1fec:	800000ff 	.word	0x800000ff
    1ff0:	00000881 	.word	0x00000881
    1ff4:	0000704c 	.word	0x0000704c
    1ff8:	000009d5 	.word	0x000009d5
    1ffc:	10624dd3 	.word	0x10624dd3
    2000:	aa03      	add	r2, sp, #12
    2002:	210a      	movs	r1, #10
    2004:	4620      	mov	r0, r4
    2006:	47a8      	blx	r5
    2008:	e7d0      	b.n	1fac <ros::NodeHandle_<MbedHardware, 25, 25, 512, 512>::spinOnce()+0x3e0>
    200a:	2300      	movs	r3, #0
    200c:	f884 35fc 	strb.w	r3, [r4, #1532]	; 0x5fc
    2010:	e5fe      	b.n	1c10 <ros::NodeHandle_<MbedHardware, 25, 25, 512, 512>::spinOnce()+0x44>
    2012:	f894 7120 	ldrb.w	r7, [r4, #288]	; 0x120
    2016:	f894 3614 	ldrb.w	r3, [r4, #1556]	; 0x614
    201a:	f504 7990 	add.w	r9, r4, #288	; 0x120
    201e:	42bb      	cmp	r3, r7
    2020:	d206      	bcs.n	2030 <ros::NodeHandle_<MbedHardware, 25, 25, 512, 512>::spinOnce()+0x464>
    2022:	00b9      	lsls	r1, r7, #2
    2024:	f8d4 061c 	ldr.w	r0, [r4, #1564]	; 0x61c
    2028:	f000 f9e2 	bl	23f0 <__wrap_realloc>
    202c:	f8c4 061c 	str.w	r0, [r4, #1564]	; 0x61c
    2030:	f884 7614 	strb.w	r7, [r4, #1556]	; 0x614
    2034:	2f00      	cmp	r7, #0
    2036:	f000 80f7 	beq.w	2228 <ros::NodeHandle_<MbedHardware, 25, 25, 512, 512>::spinOnce()+0x65c>
    203a:	4648      	mov	r0, r9
    203c:	f504 6ec3 	add.w	lr, r4, #1560	; 0x618
    2040:	2704      	movs	r7, #4
    2042:	2100      	movs	r1, #0
    2044:	7983      	ldrb	r3, [r0, #6]
    2046:	f890 c005 	ldrb.w	r12, [r0, #5]
    204a:	7902      	ldrb	r2, [r0, #4]
    204c:	041b      	lsls	r3, r3, #16
    204e:	ea43 230c 	orr.w	r3, r3, r12, lsl #8
    2052:	f890 c007 	ldrb.w	r12, [r0, #7]
    2056:	4313      	orrs	r3, r2
    2058:	ea43 630c 	orr.w	r3, r3, r12, lsl #24
    205c:	f8c4 3618 	str.w	r3, [r4, #1560]	; 0x618
    2060:	f8de 2000 	ldr.w	r2, [lr]
    2064:	f8d4 361c 	ldr.w	r3, [r4, #1564]	; 0x61c
    2068:	3704      	adds	r7, #4
    206a:	f843 2021 	str.w	r2, [r3, r1, lsl #2]
    206e:	f894 3614 	ldrb.w	r3, [r4, #1556]	; 0x614
    2072:	3101      	adds	r1, #1
    2074:	b2c9      	uxtb	r1, r1
    2076:	428b      	cmp	r3, r1
    2078:	f100 0004 	add.w	r0, r0, #4
    207c:	d8e2      	bhi.n	2044 <ros::NodeHandle_<MbedHardware, 25, 25, 512, 512>::spinOnce()+0x478>
    207e:	f107 0a04 	add.w	r10, r7, #4
    2082:	463b      	mov	r3, r7
    2084:	4657      	mov	r7, r10
    2086:	f819 b003 	ldrb.w	r11, [r9, r3]
    208a:	f894 3620 	ldrb.w	r3, [r4, #1568]	; 0x620
    208e:	455b      	cmp	r3, r11
    2090:	d207      	bcs.n	20a2 <ros::NodeHandle_<MbedHardware, 25, 25, 512, 512>::spinOnce()+0x4d6>
    2092:	ea4f 018b 	mov.w	r1, r11, lsl #2
    2096:	f8d4 0628 	ldr.w	r0, [r4, #1576]	; 0x628
    209a:	f000 f9a9 	bl	23f0 <__wrap_realloc>
    209e:	f8c4 0628 	str.w	r0, [r4, #1576]	; 0x628
    20a2:	f884 b620 	strb.w	r11, [r4, #1568]	; 0x620
    20a6:	f1bb 0f00 	cmp.w	r11, #0
    20aa:	d022      	beq.n	20f2 <ros::NodeHandle_<MbedHardware, 25, 25, 512, 512>::spinOnce()+0x526>
    20ac:	f204 6e24 	addw	lr, r4, #1572	; 0x624
    20b0:	eb09 0007 	add.w	r0, r9, r7
    20b4:	2100      	movs	r1, #0
    20b6:	7883      	ldrb	r3, [r0, #2]
    20b8:	f890 c001 	ldrb.w	r12, [r0, #1]
    20bc:	7802      	ldrb	r2, [r0, #0]
    20be:	041b      	lsls	r3, r3, #16
    20c0:	ea43 230c 	orr.w	r3, r3, r12, lsl #8
    20c4:	f890 c003 	ldrb.w	r12, [r0, #3]
    20c8:	4313      	orrs	r3, r2
    20ca:	ea43 630c 	orr.w	r3, r3, r12, lsl #24
    20ce:	f8c4 3624 	str.w	r3, [r4, #1572]	; 0x624
    20d2:	f8de 2000 	ldr.w	r2, [lr]
    20d6:	f8d4 3628 	ldr.w	r3, [r4, #1576]	; 0x628
    20da:	3704      	adds	r7, #4
    20dc:	f843 2021 	str.w	r2, [r3, r1, lsl #2]
    20e0:	f894 3620 	ldrb.w	r3, [r4, #1568]	; 0x620
    20e4:	3101      	adds	r1, #1
    20e6:	b2c9      	uxtb	r1, r1
    20e8:	428b      	cmp	r3, r1
    20ea:	f100 0004 	add.w	r0, r0, #4
    20ee:	d8e2      	bhi.n	20b6 <ros::NodeHandle_<MbedHardware, 25, 25, 512, 512>::spinOnce()+0x4ea>
    20f0:	46ba      	mov	r10, r7
    20f2:	f819 a00a 	ldrb.w	r10, [r9, r10]
    20f6:	f894 362c 	ldrb.w	r3, [r4, #1580]	; 0x62c
    20fa:	4553      	cmp	r3, r10
    20fc:	d207      	bcs.n	210e <ros::NodeHandle_<MbedHardware, 25, 25, 512, 512>::spinOnce()+0x542>
    20fe:	ea4f 018a 	mov.w	r1, r10, lsl #2
    2102:	f8d4 0634 	ldr.w	r0, [r4, #1588]	; 0x634
    2106:	f000 f973 	bl	23f0 <__wrap_realloc>
    210a:	f8c4 0634 	str.w	r0, [r4, #1588]	; 0x634
    210e:	3704      	adds	r7, #4
    2110:	f884 a62c 	strb.w	r10, [r4, #1580]	; 0x62c
    2114:	f1ba 0f00 	cmp.w	r10, #0
    2118:	d02c      	beq.n	2174 <ros::NodeHandle_<MbedHardware, 25, 25, 512, 512>::spinOnce()+0x5a8>
    211a:	2100      	movs	r1, #0
    211c:	468c      	mov	r12, r1
    211e:	f504 6ec6 	add.w	lr, r4, #1584	; 0x630
    2122:	f859 0007 	ldr.w	r0, [r9, r7]
    2126:	f107 0a04 	add.w	r10, r7, #4
    212a:	9003      	str	r0, [sp, #12]
    212c:	9a03      	ldr	r2, [sp, #12]
    212e:	4452      	add	r2, r10
    2130:	4592      	cmp	r10, r2
    2132:	d209      	bcs.n	2148 <ros::NodeHandle_<MbedHardware, 25, 25, 512, 512>::spinOnce()+0x57c>
    2134:	4650      	mov	r0, r10
    2136:	1cfb      	adds	r3, r7, #3
    2138:	444b      	add	r3, r9
    213a:	f813 7f01 	ldrb.w	r7, [r3, #1]!
    213e:	3001      	adds	r0, #1
    2140:	4290      	cmp	r0, r2
    2142:	f803 7c01 	strb.w	r7, [r3, #-1]
    2146:	d3f8      	bcc.n	213a <ros::NodeHandle_<MbedHardware, 25, 25, 512, 512>::spinOnce()+0x56e>
    2148:	f10a 33ff 	add.w	r3, r10, #4294967295
    214c:	444b      	add	r3, r9
    214e:	eb09 0002 	add.w	r0, r9, r2
    2152:	f800 cc01 	strb.w	r12, [r0, #-1]
    2156:	f8c4 3630 	str.w	r3, [r4, #1584]	; 0x630
    215a:	f8de 0000 	ldr.w	r0, [lr]
    215e:	f8d4 3634 	ldr.w	r3, [r4, #1588]	; 0x634
    2162:	4617      	mov	r7, r2
    2164:	f843 0021 	str.w	r0, [r3, r1, lsl #2]
    2168:	f894 362c 	ldrb.w	r3, [r4, #1580]	; 0x62c
    216c:	3101      	adds	r1, #1
    216e:	b2c9      	uxtb	r1, r1
    2170:	428b      	cmp	r3, r1
    2172:	d8d6      	bhi.n	2122 <ros::NodeHandle_<MbedHardware, 25, 25, 512, 512>::spinOnce()+0x556>
    2174:	2301      	movs	r3, #1
    2176:	f884 360c 	strb.w	r3, [r4, #1548]	; 0x60c
    217a:	e549      	b.n	1c10 <ros::NodeHandle_<MbedHardware, 25, 25, 512, 512>::spinOnce()+0x44>
    217c:	f8dd b004 	ldr.w	r11, [sp, #4]
    2180:	f8df a0b8 	ldr.w	r10, [pc, #184]	; 223c <ros::NodeHandle_<MbedHardware, 25, 25, 512, 512>::spinOnce()+0x670>
    2184:	4658      	mov	r0, r11
    2186:	f001 ffb7 	bl	40f8 <mbed::Timer::read_ms()>
    218a:	f8d4 7114 	ldr.w	r7, [r4, #276]	; 0x114
    218e:	f8d4 3124 	ldr.w	r3, [r4, #292]	; 0x124
    2192:	1bc7      	subs	r7, r0, r7
    2194:	4658      	mov	r0, r11
    2196:	449a      	add	r10, r3
    2198:	f8d4 9120 	ldr.w	r9, [r4, #288]	; 0x120
    219c:	f001 ffac 	bl	40f8 <mbed::Timer::read_ms()>
    21a0:	fba8 3e07 	umull	r3, lr, r8, r7
    21a4:	fba8 1200 	umull	r1, r2, r8, r0
    21a8:	ea4f 1e9e 	mov.w	lr, lr, lsr #6
    21ac:	f44f 737a 	mov.w	r3, #1000	; 0x3e8
    21b0:	fb03 771e 	mls	r7, r3, lr, r7
    21b4:	0991      	lsrs	r1, r2, #6
    21b6:	4a1f      	ldr	r2, [pc, #124]	; (2234 <ros::NodeHandle_<MbedHardware, 25, 25, 512, 512>::spinOnce()+0x668>)
    21b8:	fb03 0311 	mls	r3, r3, r1, r0
    21bc:	fb02 a207 	mla	r2, r2, r7, r10
    21c0:	4f1c      	ldr	r7, [pc, #112]	; (2234 <ros::NodeHandle_<MbedHardware, 25, 25, 512, 512>::spinOnce()+0x668>)
    21c2:	f109 39ff 	add.w	r9, r9, #4294967295
    21c6:	fb07 2313 	mls	r3, r7, r3, r2
    21ca:	44f1      	add	r9, lr
    21cc:	ebc1 0209 	rsb	r2, r1, r9
    21d0:	f8c4 311c 	str.w	r3, [r4, #284]	; 0x11c
    21d4:	f8c4 2118 	str.w	r2, [r4, #280]	; 0x118
    21d8:	f504 718e 	add.w	r1, r4, #284	; 0x11c
    21dc:	f504 708c 	add.w	r0, r4, #280	; 0x118
    21e0:	f000 f91a 	bl	2418 <ros::normalizeSecNSec(unsigned long&, unsigned long&)>
    21e4:	4658      	mov	r0, r11
    21e6:	f001 ff87 	bl	40f8 <mbed::Timer::read_ms()>
    21ea:	f8c4 0604 	str.w	r0, [r4, #1540]	; 0x604
    21ee:	e50f      	b.n	1c10 <ros::NodeHandle_<MbedHardware, 25, 25, 512, 512>::spinOnce()+0x44>
    21f0:	4610      	mov	r0, r2
    21f2:	4798      	blx	r3
    21f4:	e50c      	b.n	1c10 <ros::NodeHandle_<MbedHardware, 25, 25, 512, 512>::spinOnce()+0x44>
    21f6:	4910      	ldr	r1, [pc, #64]	; (2238 <ros::NodeHandle_<MbedHardware, 25, 25, 512, 512>::spinOnce()+0x66c>)
    21f8:	6822      	ldr	r2, [r4, #0]
    21fa:	9103      	str	r1, [sp, #12]
    21fc:	9304      	str	r3, [sp, #16]
    21fe:	210a      	movs	r1, #10
    2200:	9305      	str	r3, [sp, #20]
    2202:	4620      	mov	r0, r4
    2204:	6813      	ldr	r3, [r2, #0]
    2206:	aa03      	add	r2, sp, #12
    2208:	4798      	blx	r3
    220a:	9801      	ldr	r0, [sp, #4]
    220c:	f001 ff74 	bl	40f8 <mbed::Timer::read_ms()>
    2210:	f8c4 0114 	str.w	r0, [r4, #276]	; 0x114
    2214:	4620      	mov	r0, r4
    2216:	f7ff fa2d 	bl	1674 <ros::NodeHandle_<MbedHardware, 25, 25, 512, 512>::negotiateTopics()>
    221a:	f8c4 6600 	str.w	r6, [r4, #1536]	; 0x600
    221e:	f8c4 6604 	str.w	r6, [r4, #1540]	; 0x604
    2222:	f04f 30ff 	mov.w	r0, #4294967295
    2226:	e504      	b.n	1c32 <ros::NodeHandle_<MbedHardware, 25, 25, 512, 512>::spinOnce()+0x66>
    2228:	f04f 0a08 	mov.w	r10, #8
    222c:	4657      	mov	r7, r10
    222e:	2304      	movs	r3, #4
    2230:	e729      	b.n	2086 <ros::NodeHandle_<MbedHardware, 25, 25, 512, 512>::spinOnce()+0x4ba>
    2232:	bf00      	nop
    2234:	000f4240 	.word	0x000f4240
    2238:	0000704c 	.word	0x0000704c
    223c:	3b9aca00 	.word	0x3b9aca00

00002240 <_GLOBAL__sub_I_cmd_in>:
    2240:	b5f8      	push	{r3, r4, r5, r6, r7, lr}
    2242:	4c3c      	ldr	r4, [pc, #240]	; (2334 <_GLOBAL__sub_I_cmd_in+0xf4>)
    2244:	4a3c      	ldr	r2, [pc, #240]	; (2338 <_GLOBAL__sub_I_cmd_in+0xf8>)
    2246:	4620      	mov	r0, r4
    2248:	493c      	ldr	r1, [pc, #240]	; (233c <_GLOBAL__sub_I_cmd_in+0xfc>)
    224a:	2300      	movs	r3, #0
    224c:	f840 2b04 	str.w	r2, [r0], #4
    2250:	4a3b      	ldr	r2, [pc, #236]	; (2340 <_GLOBAL__sub_I_cmd_in+0x100>)
    2252:	f000 fa55 	bl	2700 <AjK::MODSERIAL::MODSERIAL(PinName, PinName, char const*)>
    2256:	f504 7082 	add.w	r0, r4, #260	; 0x104
    225a:	f001 ff31 	bl	40c0 <mbed::Timer::Timer()>
    225e:	f44f 4361 	mov.w	r3, #57600	; 0xe100
    2262:	f8c4 3100 	str.w	r3, [r4, #256]	; 0x100
    2266:	f504 7082 	add.w	r0, r4, #260	; 0x104
    226a:	f001 ff39 	bl	40e0 <mbed::Timer::start()>
    226e:	4a35      	ldr	r2, [pc, #212]	; (2344 <_GLOBAL__sub_I_cmd_in+0x104>)
    2270:	2300      	movs	r3, #0
    2272:	4619      	mov	r1, r3
    2274:	f884 35fc 	strb.w	r3, [r4, #1532]	; 0x5fc
    2278:	f8c4 2610 	str.w	r2, [r4, #1552]	; 0x610
    227c:	f884 3614 	strb.w	r3, [r4, #1556]	; 0x614
    2280:	f8c4 361c 	str.w	r3, [r4, #1564]	; 0x61c
    2284:	f884 3620 	strb.w	r3, [r4, #1568]	; 0x620
    2288:	f8c4 3628 	str.w	r3, [r4, #1576]	; 0x628
    228c:	f884 362c 	strb.w	r3, [r4, #1580]	; 0x62c
    2290:	f8c4 3634 	str.w	r3, [r4, #1588]	; 0x634
    2294:	f204 521c 	addw	r2, r4, #1308	; 0x51c
    2298:	f504 63b0 	add.w	r3, r4, #1408	; 0x580
    229c:	f842 1f04 	str.w	r1, [r2, #4]!
    22a0:	4293      	cmp	r3, r2
    22a2:	d1fb      	bne.n	229c <_GLOBAL__sub_I_cmd_in+0x5c>
    22a4:	4928      	ldr	r1, [pc, #160]	; (2348 <_GLOBAL__sub_I_cmd_in+0x108>)
    22a6:	2200      	movs	r2, #0
    22a8:	f843 2f04 	str.w	r2, [r3, #4]!
    22ac:	4299      	cmp	r1, r3
    22ae:	d1fb      	bne.n	22a8 <_GLOBAL__sub_I_cmd_in+0x68>
    22b0:	4a26      	ldr	r2, [pc, #152]	; (234c <_GLOBAL__sub_I_cmd_in+0x10c>)
    22b2:	2100      	movs	r1, #0
    22b4:	f502 7300 	add.w	r3, r2, #512	; 0x200
    22b8:	f802 1f01 	strb.w	r1, [r2, #1]!
    22bc:	4293      	cmp	r3, r2
    22be:	d1fb      	bne.n	22b8 <_GLOBAL__sub_I_cmd_in+0x78>
    22c0:	4923      	ldr	r1, [pc, #140]	; (2350 <_GLOBAL__sub_I_cmd_in+0x110>)
    22c2:	2200      	movs	r2, #0
    22c4:	f803 2f01 	strb.w	r2, [r3, #1]!
    22c8:	428b      	cmp	r3, r1
    22ca:	f04f 0400 	mov.w	r4, #0
    22ce:	d1f9      	bne.n	22c4 <_GLOBAL__sub_I_cmd_in+0x84>
    22d0:	4a20      	ldr	r2, [pc, #128]	; (2354 <_GLOBAL__sub_I_cmd_in+0x114>)
    22d2:	4921      	ldr	r1, [pc, #132]	; (2358 <_GLOBAL__sub_I_cmd_in+0x118>)
    22d4:	4817      	ldr	r0, [pc, #92]	; (2334 <_GLOBAL__sub_I_cmd_in+0xf4>)
    22d6:	f001 ff43 	bl	4160 <__aeabi_atexit>
    22da:	4920      	ldr	r1, [pc, #128]	; (235c <_GLOBAL__sub_I_cmd_in+0x11c>)
    22dc:	4820      	ldr	r0, [pc, #128]	; (2360 <_GLOBAL__sub_I_cmd_in+0x120>)
    22de:	f000 fe6b 	bl	2fb8 <pwmout_init>
    22e2:	4920      	ldr	r1, [pc, #128]	; (2364 <_GLOBAL__sub_I_cmd_in+0x124>)
    22e4:	4820      	ldr	r0, [pc, #128]	; (2368 <_GLOBAL__sub_I_cmd_in+0x128>)
    22e6:	f000 fe67 	bl	2fb8 <pwmout_init>
    22ea:	4920      	ldr	r1, [pc, #128]	; (236c <_GLOBAL__sub_I_cmd_in+0x12c>)
    22ec:	4820      	ldr	r0, [pc, #128]	; (2370 <_GLOBAL__sub_I_cmd_in+0x130>)
    22ee:	f000 fe63 	bl	2fb8 <pwmout_init>
    22f2:	4920      	ldr	r1, [pc, #128]	; (2374 <_GLOBAL__sub_I_cmd_in+0x134>)
    22f4:	4820      	ldr	r0, [pc, #128]	; (2378 <_GLOBAL__sub_I_cmd_in+0x138>)
    22f6:	f000 fe5f 	bl	2fb8 <pwmout_init>
    22fa:	4b20      	ldr	r3, [pc, #128]	; (237c <_GLOBAL__sub_I_cmd_in+0x13c>)
    22fc:	f8df e094 	ldr.w	lr, [pc, #148]	; 2394 <_GLOBAL__sub_I_cmd_in+0x154>
    2300:	4f1f      	ldr	r7, [pc, #124]	; (2380 <_GLOBAL__sub_I_cmd_in+0x140>)
    2302:	4e20      	ldr	r6, [pc, #128]	; (2384 <_GLOBAL__sub_I_cmd_in+0x144>)
    2304:	4d20      	ldr	r5, [pc, #128]	; (2388 <_GLOBAL__sub_I_cmd_in+0x148>)
    2306:	4821      	ldr	r0, [pc, #132]	; (238c <_GLOBAL__sub_I_cmd_in+0x14c>)
    2308:	4a21      	ldr	r2, [pc, #132]	; (2390 <_GLOBAL__sub_I_cmd_in+0x150>)
    230a:	2101      	movs	r1, #1
    230c:	f883 4024 	strb.w	r4, [r3, #36]	; 0x24
    2310:	f883 4025 	strb.w	r4, [r3, #37]	; 0x25
    2314:	f883 4026 	strb.w	r4, [r3, #38]	; 0x26
    2318:	f883 4027 	strb.w	r4, [r3, #39]	; 0x27
    231c:	615c      	str	r4, [r3, #20]
    231e:	619c      	str	r4, [r3, #24]
    2320:	61dc      	str	r4, [r3, #28]
    2322:	f8c3 e000 	str.w	lr, [r3]
    2326:	60df      	str	r7, [r3, #12]
    2328:	611e      	str	r6, [r3, #16]
    232a:	621d      	str	r5, [r3, #32]
    232c:	6298      	str	r0, [r3, #40]	; 0x28
    232e:	62d9      	str	r1, [r3, #44]	; 0x2c
    2330:	609a      	str	r2, [r3, #8]
    2332:	bdf8      	pop	{r3, r4, r5, r6, r7, pc}
    2334:	100001c0 	.word	0x100001c0
    2338:	000070dc 	.word	0x000070dc
    233c:	2009c002 	.word	0x2009c002
    2340:	2009c003 	.word	0x2009c003
    2344:	00007094 	.word	0x00007094
    2348:	100007a4 	.word	0x100007a4
    234c:	100002df 	.word	0x100002df
    2350:	100006df 	.word	0x100006df
    2354:	100000c8 	.word	0x100000c8
    2358:	00002399 	.word	0x00002399
    235c:	2009c032 	.word	0x2009c032
    2360:	10000800 	.word	0x10000800
    2364:	2009c034 	.word	0x2009c034
    2368:	10000180 	.word	0x10000180
    236c:	2009c037 	.word	0x2009c037
    2370:	100001b8 	.word	0x100001b8
    2374:	2009c035 	.word	0x2009c035
    2378:	100007f8 	.word	0x100007f8
    237c:	10000188 	.word	0x10000188
    2380:	000070c4 	.word	0x000070c4
    2384:	000070ac 	.word	0x000070ac
    2388:	00007278 	.word	0x00007278
    238c:	0000025d 	.word	0x0000025d
    2390:	0000727c 	.word	0x0000727c
    2394:	000070f0 	.word	0x000070f0

00002398 <ros::NodeHandle_<MbedHardware, 25, 25, 512, 512>::~NodeHandle_()>:
    2398:	b510      	push	{r4, lr}
    239a:	4604      	mov	r4, r0
    239c:	4b03      	ldr	r3, [pc, #12]	; (23ac <ros::NodeHandle_<MbedHardware, 25, 25, 512, 512>::~NodeHandle_()+0x14>)
    239e:	f840 3b04 	str.w	r3, [r0], #4
    23a2:	f000 f94f 	bl	2644 <AjK::MODSERIAL::~MODSERIAL()>
    23a6:	4620      	mov	r0, r4
    23a8:	bd10      	pop	{r4, pc}
    23aa:	bf00      	nop
    23ac:	000070dc 	.word	0x000070dc

000023b0 <_start>:
    23b0:	4a07      	ldr	r2, [pc, #28]	; (23d0 <_start+0x20>)
    23b2:	4808      	ldr	r0, [pc, #32]	; (23d4 <_start+0x24>)
    23b4:	b508      	push	{r3, lr}
    23b6:	2100      	movs	r1, #0
    23b8:	1a12      	subs	r2, r2, r0
    23ba:	f003 f9af 	bl	571c <memset>
    23be:	f3af 8000 	nop.w
    23c2:	f003 f8f5 	bl	55b0 <__libc_init_array>
    23c6:	f001 fd1d 	bl	3e04 <__wrap_main>
    23ca:	f002 fdf3 	bl	4fb4 <exit>
    23ce:	bf00      	nop
    23d0:	10000a18 	.word	0x10000a18
    23d4:	10000164 	.word	0x10000164

000023d8 <__wrap__isatty>:
    23d8:	2802      	cmp	r0, #2
    23da:	dc01      	bgt.n	23e0 <__wrap__isatty+0x8>
    23dc:	2001      	movs	r0, #1
    23de:	4770      	bx	lr
    23e0:	f001 bcd8 	b.w	3d94 <_isatty>

000023e4 <__wrap_malloc>:
    23e4:	f3ef 8305 	mrs	r3, IPSR
    23e8:	b103      	cbz	r3, 23ec <__wrap_malloc+0x8>
    23ea:	be00      	bkpt	0x0000
    23ec:	f003 b952 	b.w	5694 <malloc>

000023f0 <__wrap_realloc>:
    23f0:	f3ef 8305 	mrs	r3, IPSR
    23f4:	b103      	cbz	r3, 23f8 <__wrap_realloc+0x8>
    23f6:	be00      	bkpt	0x0000
    23f8:	f003 bec0 	b.w	617c <realloc>

000023fc <__wrap_free>:
    23fc:	f3ef 8305 	mrs	r3, IPSR
    2400:	b103      	cbz	r3, 2404 <__wrap_free+0x8>
    2402:	be00      	bkpt	0x0000
    2404:	f003 b94e 	b.w	56a4 <free>

00002408 <abort>:
    2408:	b508      	push	{r3, lr}
    240a:	2001      	movs	r0, #1
    240c:	f002 fdd2 	bl	4fb4 <exit>

00002410 <__cxa_pure_virtual>:
    2410:	b508      	push	{r3, lr}
    2412:	f7ff fff9 	bl	2408 <abort>
    2416:	bf00      	nop

00002418 <ros::normalizeSecNSec(unsigned long&, unsigned long&)>:
    2418:	b410      	push	{r4}
    241a:	680c      	ldr	r4, [r1, #0]
    241c:	4a06      	ldr	r2, [pc, #24]	; (2438 <ros::normalizeSecNSec(unsigned long&, unsigned long&)+0x20>)
    241e:	0a63      	lsrs	r3, r4, #9
    2420:	fba2 2303 	umull	r2, r3, r2, r3
    2424:	4a05      	ldr	r2, [pc, #20]	; (243c <ros::normalizeSecNSec(unsigned long&, unsigned long&)+0x24>)
    2426:	09db      	lsrs	r3, r3, #7
    2428:	fb02 4213 	mls	r2, r2, r3, r4
    242c:	6804      	ldr	r4, [r0, #0]
    242e:	4423      	add	r3, r4
    2430:	6003      	str	r3, [r0, #0]
    2432:	bc10      	pop	{r4}
    2434:	600a      	str	r2, [r1, #0]
    2436:	4770      	bx	lr
    2438:	00044b83 	.word	0x00044b83
    243c:	3b9aca00 	.word	0x3b9aca00

00002440 <AjK::MODSERIAL::__getc(bool)>:
    2440:	6fc3      	ldr	r3, [r0, #124]	; 0x7c
    2442:	b570      	push	{r4, r5, r6, lr}
    2444:	2b00      	cmp	r3, #0
    2446:	d02d      	beq.n	24a4 <AjK::MODSERIAL::__getc(bool)+0x64>
    2448:	6e42      	ldr	r2, [r0, #100]	; 0x64
    244a:	2a00      	cmp	r2, #0
    244c:	d02a      	beq.n	24a4 <AjK::MODSERIAL::__getc(bool)+0x64>
    244e:	2900      	cmp	r1, #0
    2450:	d02f      	beq.n	24b2 <AjK::MODSERIAL::__getc(bool)+0x72>
    2452:	f8d0 3084 	ldr.w	r3, [r0, #132]	; 0x84
    2456:	2b00      	cmp	r3, #0
    2458:	d0fb      	beq.n	2452 <AjK::MODSERIAL::__getc(bool)+0x12>
    245a:	6f43      	ldr	r3, [r0, #116]	; 0x74
    245c:	4604      	mov	r4, r0
    245e:	5cd5      	ldrb	r5, [r2, r3]
    2460:	6f43      	ldr	r3, [r0, #116]	; 0x74
    2462:	b2ed      	uxtb	r5, r5
    2464:	3301      	adds	r3, #1
    2466:	6743      	str	r3, [r0, #116]	; 0x74
    2468:	6f42      	ldr	r2, [r0, #116]	; 0x74
    246a:	6fc3      	ldr	r3, [r0, #124]	; 0x7c
    246c:	429a      	cmp	r2, r3
    246e:	bfa4      	itt	ge
    2470:	2300      	movge	r3, #0
    2472:	6743      	strge	r3, [r0, #116]	; 0x74
    2474:	f8d0 2084 	ldr.w	r2, [r0, #132]	; 0x84
    2478:	6fc3      	ldr	r3, [r0, #124]	; 0x7c
    247a:	429a      	cmp	r2, r3
    247c:	d009      	beq.n	2492 <AjK::MODSERIAL::__getc(bool)+0x52>
    247e:	6dc3      	ldr	r3, [r0, #92]	; 0x5c
    2480:	685e      	ldr	r6, [r3, #4]
    2482:	685a      	ldr	r2, [r3, #4]
    2484:	f022 0201 	bic.w	r2, r2, #1
    2488:	605a      	str	r2, [r3, #4]
    248a:	f000 f819 	bl	24c0 <AjK::MODSERIAL::isr_rx()>
    248e:	6de3      	ldr	r3, [r4, #92]	; 0x5c
    2490:	605e      	str	r6, [r3, #4]
    2492:	b672      	cpsid	i
    2494:	f8d4 3084 	ldr.w	r3, [r4, #132]	; 0x84
    2498:	3b01      	subs	r3, #1
    249a:	f8c4 3084 	str.w	r3, [r4, #132]	; 0x84
    249e:	b662      	cpsie	i
    24a0:	4628      	mov	r0, r5
    24a2:	bd70      	pop	{r4, r5, r6, pc}
    24a4:	6dc2      	ldr	r2, [r0, #92]	; 0x5c
    24a6:	7d13      	ldrb	r3, [r2, #20]
    24a8:	07db      	lsls	r3, r3, #31
    24aa:	d5fc      	bpl.n	24a6 <AjK::MODSERIAL::__getc(bool)+0x66>
    24ac:	7810      	ldrb	r0, [r2, #0]
    24ae:	b2c0      	uxtb	r0, r0
    24b0:	bd70      	pop	{r4, r5, r6, pc}
    24b2:	f8d0 3084 	ldr.w	r3, [r0, #132]	; 0x84
    24b6:	2b00      	cmp	r3, #0
    24b8:	d1cf      	bne.n	245a <AjK::MODSERIAL::__getc(bool)+0x1a>
    24ba:	f04f 30ff 	mov.w	r0, #4294967295
    24be:	bd70      	pop	{r4, r5, r6, pc}

000024c0 <AjK::MODSERIAL::isr_rx()>:
    24c0:	6dc3      	ldr	r3, [r0, #92]	; 0x5c
    24c2:	b570      	push	{r4, r5, r6, lr}
    24c4:	2b00      	cmp	r3, #0
    24c6:	d04e      	beq.n	2566 <AjK::MODSERIAL::isr_rx()+0xa6>
    24c8:	6fc2      	ldr	r2, [r0, #124]	; 0x7c
    24ca:	2a00      	cmp	r2, #0
    24cc:	d04b      	beq.n	2566 <AjK::MODSERIAL::isr_rx()+0xa6>
    24ce:	6e42      	ldr	r2, [r0, #100]	; 0x64
    24d0:	2a00      	cmp	r2, #0
    24d2:	d048      	beq.n	2566 <AjK::MODSERIAL::isr_rx()+0xa6>
    24d4:	4604      	mov	r4, r0
    24d6:	f100 0558 	add.w	r5, r0, #88	; 0x58
    24da:	2600      	movs	r6, #0
    24dc:	e020      	b.n	2520 <AjK::MODSERIAL::isr_rx()+0x60>
    24de:	6e62      	ldr	r2, [r4, #100]	; 0x64
    24e0:	b18a      	cbz	r2, 2506 <AjK::MODSERIAL::isr_rx()+0x46>
    24e2:	6ee1      	ldr	r1, [r4, #108]	; 0x6c
    24e4:	f894 3061 	ldrb.w	r3, [r4, #97]	; 0x61
    24e8:	b2db      	uxtb	r3, r3
    24ea:	5453      	strb	r3, [r2, r1]
    24ec:	f8d4 3084 	ldr.w	r3, [r4, #132]	; 0x84
    24f0:	3301      	adds	r3, #1
    24f2:	f8c4 3084 	str.w	r3, [r4, #132]	; 0x84
    24f6:	6ee3      	ldr	r3, [r4, #108]	; 0x6c
    24f8:	3301      	adds	r3, #1
    24fa:	66e3      	str	r3, [r4, #108]	; 0x6c
    24fc:	6ee2      	ldr	r2, [r4, #108]	; 0x6c
    24fe:	6fe3      	ldr	r3, [r4, #124]	; 0x7c
    2500:	429a      	cmp	r2, r3
    2502:	bfa8      	it	ge
    2504:	66e6      	strge	r6, [r4, #108]	; 0x6c
    2506:	f8d4 3098 	ldr.w	r3, [r4, #152]	; 0x98
    250a:	2b00      	cmp	r3, #0
    250c:	d034      	beq.n	2578 <AjK::MODSERIAL::isr_rx()+0xb8>
    250e:	4628      	mov	r0, r5
    2510:	4798      	blx	r3
    2512:	f894 2094 	ldrb.w	r2, [r4, #148]	; 0x94
    2516:	f894 3061 	ldrb.w	r3, [r4, #97]	; 0x61
    251a:	429a      	cmp	r2, r3
    251c:	d01c      	beq.n	2558 <AjK::MODSERIAL::isr_rx()+0x98>
    251e:	6de3      	ldr	r3, [r4, #92]	; 0x5c
    2520:	7d1a      	ldrb	r2, [r3, #20]
    2522:	07d0      	lsls	r0, r2, #31
    2524:	d538      	bpl.n	2598 <AjK::MODSERIAL::isr_rx()+0xd8>
    2526:	781b      	ldrb	r3, [r3, #0]
    2528:	b2db      	uxtb	r3, r3
    252a:	f884 3061 	strb.w	r3, [r4, #97]	; 0x61
    252e:	f8d4 2084 	ldr.w	r2, [r4, #132]	; 0x84
    2532:	6fe3      	ldr	r3, [r4, #124]	; 0x7c
    2534:	429a      	cmp	r2, r3
    2536:	d1d2      	bne.n	24de <AjK::MODSERIAL::isr_rx()+0x1e>
    2538:	f894 3061 	ldrb.w	r3, [r4, #97]	; 0x61
    253c:	f8d4 20b8 	ldr.w	r2, [r4, #184]	; 0xb8
    2540:	b2db      	uxtb	r3, r3
    2542:	f8c4 308c 	str.w	r3, [r4, #140]	; 0x8c
    2546:	b37a      	cbz	r2, 25a8 <AjK::MODSERIAL::isr_rx()+0xe8>
    2548:	4628      	mov	r0, r5
    254a:	4790      	blx	r2
    254c:	f894 2094 	ldrb.w	r2, [r4, #148]	; 0x94
    2550:	f894 3061 	ldrb.w	r3, [r4, #97]	; 0x61
    2554:	429a      	cmp	r2, r3
    2556:	d1e2      	bne.n	251e <AjK::MODSERIAL::isr_rx()+0x5e>
    2558:	f8d4 30e8 	ldr.w	r3, [r4, #232]	; 0xe8
    255c:	2b00      	cmp	r3, #0
    255e:	d048      	beq.n	25f2 <AjK::MODSERIAL::isr_rx()+0x132>
    2560:	4628      	mov	r0, r5
    2562:	4798      	blx	r3
    2564:	e7db      	b.n	251e <AjK::MODSERIAL::isr_rx()+0x5e>
    2566:	f8d0 3098 	ldr.w	r3, [r0, #152]	; 0x98
    256a:	f100 0158 	add.w	r1, r0, #88	; 0x58
    256e:	b383      	cbz	r3, 25d2 <AjK::MODSERIAL::isr_rx()+0x112>
    2570:	e8bd 4070 	ldmia.w	sp!, {r4, r5, r6, lr}
    2574:	4608      	mov	r0, r1
    2576:	4718      	bx	r3
    2578:	f8d4 009c 	ldr.w	r0, [r4, #156]	; 0x9c
    257c:	2800      	cmp	r0, #0
    257e:	d0c8      	beq.n	2512 <AjK::MODSERIAL::isr_rx()+0x52>
    2580:	f8d4 20a0 	ldr.w	r2, [r4, #160]	; 0xa0
    2584:	f8d4 30a4 	ldr.w	r3, [r4, #164]	; 0xa4
    2588:	b13a      	cbz	r2, 259a <AjK::MODSERIAL::isr_rx()+0xda>
    258a:	07d9      	lsls	r1, r3, #31
    258c:	d407      	bmi.n	259e <AjK::MODSERIAL::isr_rx()+0xde>
    258e:	eb00 0063 	add.w	r0, r0, r3, asr #1
    2592:	4629      	mov	r1, r5
    2594:	4790      	blx	r2
    2596:	e7bc      	b.n	2512 <AjK::MODSERIAL::isr_rx()+0x52>
    2598:	bd70      	pop	{r4, r5, r6, pc}
    259a:	07d9      	lsls	r1, r3, #31
    259c:	d5b9      	bpl.n	2512 <AjK::MODSERIAL::isr_rx()+0x52>
    259e:	105b      	asrs	r3, r3, #1
    25a0:	58c1      	ldr	r1, [r0, r3]
    25a2:	4418      	add	r0, r3
    25a4:	588a      	ldr	r2, [r1, r2]
    25a6:	e7f4      	b.n	2592 <AjK::MODSERIAL::isr_rx()+0xd2>
    25a8:	f8d4 30bc 	ldr.w	r3, [r4, #188]	; 0xbc
    25ac:	2b00      	cmp	r3, #0
    25ae:	d0b0      	beq.n	2512 <AjK::MODSERIAL::isr_rx()+0x52>
    25b0:	f8d4 20c0 	ldr.w	r2, [r4, #192]	; 0xc0
    25b4:	f8d4 00c4 	ldr.w	r0, [r4, #196]	; 0xc4
    25b8:	b122      	cbz	r2, 25c4 <AjK::MODSERIAL::isr_rx()+0x104>
    25ba:	07c1      	lsls	r1, r0, #31
    25bc:	d404      	bmi.n	25c8 <AjK::MODSERIAL::isr_rx()+0x108>
    25be:	eb03 0060 	add.w	r0, r3, r0, asr #1
    25c2:	e7e6      	b.n	2592 <AjK::MODSERIAL::isr_rx()+0xd2>
    25c4:	07c1      	lsls	r1, r0, #31
    25c6:	d5a4      	bpl.n	2512 <AjK::MODSERIAL::isr_rx()+0x52>
    25c8:	1040      	asrs	r0, r0, #1
    25ca:	5819      	ldr	r1, [r3, r0]
    25cc:	4418      	add	r0, r3
    25ce:	588a      	ldr	r2, [r1, r2]
    25d0:	e7df      	b.n	2592 <AjK::MODSERIAL::isr_rx()+0xd2>
    25d2:	f8d0 309c 	ldr.w	r3, [r0, #156]	; 0x9c
    25d6:	2b00      	cmp	r3, #0
    25d8:	d0de      	beq.n	2598 <AjK::MODSERIAL::isr_rx()+0xd8>
    25da:	f8d0 20a0 	ldr.w	r2, [r0, #160]	; 0xa0
    25de:	f8d0 00a4 	ldr.w	r0, [r0, #164]	; 0xa4
    25e2:	b31a      	cbz	r2, 262c <AjK::MODSERIAL::isr_rx()+0x16c>
    25e4:	07c4      	lsls	r4, r0, #31
    25e6:	d414      	bmi.n	2612 <AjK::MODSERIAL::isr_rx()+0x152>
    25e8:	eb03 0060 	add.w	r0, r3, r0, asr #1
    25ec:	e8bd 4070 	ldmia.w	sp!, {r4, r5, r6, lr}
    25f0:	4710      	bx	r2
    25f2:	f8d4 00ec 	ldr.w	r0, [r4, #236]	; 0xec
    25f6:	2800      	cmp	r0, #0
    25f8:	d091      	beq.n	251e <AjK::MODSERIAL::isr_rx()+0x5e>
    25fa:	f8d4 20f0 	ldr.w	r2, [r4, #240]	; 0xf0
    25fe:	f8d4 30f4 	ldr.w	r3, [r4, #244]	; 0xf4
    2602:	b15a      	cbz	r2, 261c <AjK::MODSERIAL::isr_rx()+0x15c>
    2604:	07d9      	lsls	r1, r3, #31
    2606:	d40c      	bmi.n	2622 <AjK::MODSERIAL::isr_rx()+0x162>
    2608:	eb00 0063 	add.w	r0, r0, r3, asr #1
    260c:	4629      	mov	r1, r5
    260e:	4790      	blx	r2
    2610:	e785      	b.n	251e <AjK::MODSERIAL::isr_rx()+0x5e>
    2612:	1040      	asrs	r0, r0, #1
    2614:	581c      	ldr	r4, [r3, r0]
    2616:	4418      	add	r0, r3
    2618:	58a2      	ldr	r2, [r4, r2]
    261a:	e7e7      	b.n	25ec <AjK::MODSERIAL::isr_rx()+0x12c>
    261c:	07d9      	lsls	r1, r3, #31
    261e:	f57f af7e 	bpl.w	251e <AjK::MODSERIAL::isr_rx()+0x5e>
    2622:	105b      	asrs	r3, r3, #1
    2624:	58c1      	ldr	r1, [r0, r3]
    2626:	4418      	add	r0, r3
    2628:	588a      	ldr	r2, [r1, r2]
    262a:	e7ef      	b.n	260c <AjK::MODSERIAL::isr_rx()+0x14c>
    262c:	07c5      	lsls	r5, r0, #31
    262e:	d4f0      	bmi.n	2612 <AjK::MODSERIAL::isr_rx()+0x152>
    2630:	bd70      	pop	{r4, r5, r6, pc}
    2632:	bf00      	nop

00002634 <mbed::SerialBase::~SerialBase()>:
    2634:	4770      	bx	lr
    2636:	bf00      	nop

00002638 <mbed::SerialBase::~SerialBase()>:
    2638:	b510      	push	{r4, lr}
    263a:	4604      	mov	r4, r0
    263c:	f001 fd95 	bl	416a <operator delete(void*)>
    2640:	4620      	mov	r0, r4
    2642:	bd10      	pop	{r4, pc}

00002644 <AjK::MODSERIAL::~MODSERIAL()>:
    2644:	b5f8      	push	{r3, r4, r5, r6, r7, lr}
    2646:	4604      	mov	r4, r0
    2648:	f890 20f8 	ldrb.w	r2, [r0, #248]	; 0xf8
    264c:	4d14      	ldr	r5, [pc, #80]	; (26a0 <AjK::MODSERIAL::~MODSERIAL()+0x5c>)
    264e:	b253      	sxtb	r3, r2
    2650:	6e40      	ldr	r0, [r0, #100]	; 0x64
    2652:	2101      	movs	r1, #1
    2654:	095b      	lsrs	r3, r3, #5
    2656:	f002 021f 	and.w	r2, r2, #31
    265a:	4e12      	ldr	r6, [pc, #72]	; (26a4 <AjK::MODSERIAL::~MODSERIAL()+0x60>)
    265c:	fa01 f202 	lsl.w	r2, r1, r2
    2660:	f105 0718 	add.w	r7, r5, #24
    2664:	3320      	adds	r3, #32
    2666:	f105 014c 	add.w	r1, r5, #76	; 0x4c
    266a:	6025      	str	r5, [r4, #0]
    266c:	6427      	str	r7, [r4, #64]	; 0x40
    266e:	6461      	str	r1, [r4, #68]	; 0x44
    2670:	f846 2023 	str.w	r2, [r6, r3, lsl #2]
    2674:	b108      	cbz	r0, 267a <AjK::MODSERIAL::~MODSERIAL()+0x36>
    2676:	f7ff fec1 	bl	23fc <__wrap_free>
    267a:	6ea0      	ldr	r0, [r4, #104]	; 0x68
    267c:	b108      	cbz	r0, 2682 <AjK::MODSERIAL::~MODSERIAL()+0x3e>
    267e:	f7ff febd 	bl	23fc <__wrap_free>
    2682:	4b09      	ldr	r3, [pc, #36]	; (26a8 <AjK::MODSERIAL::~MODSERIAL()+0x64>)
    2684:	f104 0040 	add.w	r0, r4, #64	; 0x40
    2688:	f103 0118 	add.w	r1, r3, #24
    268c:	f103 024c 	add.w	r2, r3, #76	; 0x4c
    2690:	6023      	str	r3, [r4, #0]
    2692:	6421      	str	r1, [r4, #64]	; 0x40
    2694:	6462      	str	r2, [r4, #68]	; 0x44
    2696:	f001 fced 	bl	4074 <mbed::Stream::~Stream()>
    269a:	4620      	mov	r0, r4
    269c:	bdf8      	pop	{r3, r4, r5, r6, r7, pc}
    269e:	bf00      	nop
    26a0:	000072ac 	.word	0x000072ac
    26a4:	e000e100 	.word	0xe000e100
    26a8:	00007640 	.word	0x00007640

000026ac <non-virtual thunk to AjK::MODSERIAL::~MODSERIAL()>:
    26ac:	f1a0 0040 	sub.w	r0, r0, #64	; 0x40
    26b0:	f7ff bfc8 	b.w	2644 <AjK::MODSERIAL::~MODSERIAL()>

000026b4 <non-virtual thunk to AjK::MODSERIAL::~MODSERIAL()>:
    26b4:	f1a0 0044 	sub.w	r0, r0, #68	; 0x44
    26b8:	f7ff bfc4 	b.w	2644 <AjK::MODSERIAL::~MODSERIAL()>

000026bc <AjK::MODSERIAL::~MODSERIAL()>:
    26bc:	b510      	push	{r4, lr}
    26be:	4604      	mov	r4, r0
    26c0:	f7ff ffc0 	bl	2644 <AjK::MODSERIAL::~MODSERIAL()>
    26c4:	4620      	mov	r0, r4
    26c6:	f001 fd50 	bl	416a <operator delete(void*)>
    26ca:	4620      	mov	r0, r4
    26cc:	bd10      	pop	{r4, pc}
    26ce:	bf00      	nop

000026d0 <non-virtual thunk to AjK::MODSERIAL::~MODSERIAL()>:
    26d0:	f1a0 0044 	sub.w	r0, r0, #68	; 0x44
    26d4:	f7ff bff2 	b.w	26bc <AjK::MODSERIAL::~MODSERIAL()>

000026d8 <non-virtual thunk to AjK::MODSERIAL::~MODSERIAL()>:
    26d8:	f1a0 0040 	sub.w	r0, r0, #64	; 0x40
    26dc:	f7ff bfee 	b.w	26bc <AjK::MODSERIAL::~MODSERIAL()>

000026e0 <AjK::MODSERIAL::_getc()>:
    26e0:	2101      	movs	r1, #1
    26e2:	f7ff bead 	b.w	2440 <AjK::MODSERIAL::__getc(bool)>
    26e6:	bf00      	nop

000026e8 <non-virtual thunk to AjK::MODSERIAL::_getc()>:
    26e8:	f1a0 0040 	sub.w	r0, r0, #64	; 0x40
    26ec:	e7f8      	b.n	26e0 <AjK::MODSERIAL::_getc()>
    26ee:	bf00      	nop

000026f0 <AjK::MODSERIAL::_putc(int)>:
    26f0:	2201      	movs	r2, #1
    26f2:	f000 b835 	b.w	2760 <AjK::MODSERIAL::__putc(int, bool)>
    26f6:	bf00      	nop

000026f8 <non-virtual thunk to AjK::MODSERIAL::_putc(int)>:
    26f8:	f1a0 0040 	sub.w	r0, r0, #64	; 0x40
    26fc:	e7f8      	b.n	26f0 <AjK::MODSERIAL::_putc(int)>
    26fe:	bf00      	nop

00002700 <AjK::MODSERIAL::MODSERIAL(PinName, PinName, char const*)>:
    2700:	b538      	push	{r3, r4, r5, lr}
    2702:	4604      	mov	r4, r0
    2704:	4615      	mov	r5, r2
    2706:	f001 fc49 	bl	3f9c <mbed::Serial::Serial(PinName, PinName, char const*)>
    270a:	4b11      	ldr	r3, [pc, #68]	; (2750 <AjK::MODSERIAL::MODSERIAL(PinName, PinName, char const*)+0x50>)
    270c:	2100      	movs	r1, #0
    270e:	f103 0018 	add.w	r0, r3, #24
    2712:	460a      	mov	r2, r1
    2714:	65a1      	str	r1, [r4, #88]	; 0x58
    2716:	f103 014c 	add.w	r1, r3, #76	; 0x4c
    271a:	6023      	str	r3, [r4, #0]
    271c:	6461      	str	r1, [r4, #68]	; 0x44
    271e:	6420      	str	r0, [r4, #64]	; 0x40
    2720:	f104 03a8 	add.w	r3, r4, #168	; 0xa8
    2724:	f504 7184 	add.w	r1, r4, #264	; 0x108
    2728:	f843 2c10 	str.w	r2, [r3, #-16]
    272c:	f843 2c0c 	str.w	r2, [r3, #-12]
    2730:	f843 2c08 	str.w	r2, [r3, #-8]
    2734:	f843 2c04 	str.w	r2, [r3, #-4]
    2738:	3310      	adds	r3, #16
    273a:	428b      	cmp	r3, r1
    273c:	d1f4      	bne.n	2728 <AjK::MODSERIAL::MODSERIAL(PinName, PinName, char const*)+0x28>
    273e:	f44f 7280 	mov.w	r2, #256	; 0x100
    2742:	4620      	mov	r0, r4
    2744:	462b      	mov	r3, r5
    2746:	4611      	mov	r1, r2
    2748:	f000 f89e 	bl	2888 <AjK::MODSERIAL::init(int, int, PinName)>
    274c:	4620      	mov	r0, r4
    274e:	bd38      	pop	{r3, r4, r5, pc}
    2750:	000072ac 	.word	0x000072ac

00002754 <AjK::MODSERIAL::rxBufferEmpty()>:
    2754:	f8d0 0084 	ldr.w	r0, [r0, #132]	; 0x84
    2758:	fab0 f080 	clz	r0, r0
    275c:	0940      	lsrs	r0, r0, #5
    275e:	4770      	bx	lr

00002760 <AjK::MODSERIAL::__putc(int, bool)>:
    2760:	6e83      	ldr	r3, [r0, #104]	; 0x68
    2762:	b570      	push	{r4, r5, r6, lr}
    2764:	4604      	mov	r4, r0
    2766:	b113      	cbz	r3, 276e <AjK::MODSERIAL::__putc(int, bool)+0xe>
    2768:	f8d0 3080 	ldr.w	r3, [r0, #128]	; 0x80
    276c:	b93b      	cbnz	r3, 277e <AjK::MODSERIAL::__putc(int, bool)+0x1e>
    276e:	6de2      	ldr	r2, [r4, #92]	; 0x5c
    2770:	7d13      	ldrb	r3, [r2, #20]
    2772:	069e      	lsls	r6, r3, #26
    2774:	d5fc      	bpl.n	2770 <AjK::MODSERIAL::__putc(int, bool)+0x10>
    2776:	b2c9      	uxtb	r1, r1
    2778:	7011      	strb	r1, [r2, #0]
    277a:	2000      	movs	r0, #0
    277c:	bd70      	pop	{r4, r5, r6, pc}
    277e:	6dc3      	ldr	r3, [r0, #92]	; 0x5c
    2780:	7d18      	ldrb	r0, [r3, #20]
    2782:	0685      	lsls	r5, r0, #26
    2784:	d505      	bpl.n	2792 <AjK::MODSERIAL::__putc(int, bool)+0x32>
    2786:	f8d4 0088 	ldr.w	r0, [r4, #136]	; 0x88
    278a:	b910      	cbnz	r0, 2792 <AjK::MODSERIAL::__putc(int, bool)+0x32>
    278c:	b2c9      	uxtb	r1, r1
    278e:	7019      	strb	r1, [r3, #0]
    2790:	bd70      	pop	{r4, r5, r6, pc}
    2792:	460d      	mov	r5, r1
    2794:	b1c2      	cbz	r2, 27c8 <AjK::MODSERIAL::__putc(int, bool)+0x68>
    2796:	685e      	ldr	r6, [r3, #4]
    2798:	685a      	ldr	r2, [r3, #4]
    279a:	f022 0202 	bic.w	r2, r2, #2
    279e:	605a      	str	r2, [r3, #4]
    27a0:	f8d4 2088 	ldr.w	r2, [r4, #136]	; 0x88
    27a4:	f8d4 3080 	ldr.w	r3, [r4, #128]	; 0x80
    27a8:	429a      	cmp	r2, r3
    27aa:	d109      	bne.n	27c0 <AjK::MODSERIAL::__putc(int, bool)+0x60>
    27ac:	2100      	movs	r1, #0
    27ae:	4620      	mov	r0, r4
    27b0:	f000 f8ee 	bl	2990 <AjK::MODSERIAL::isr_tx(bool)>
    27b4:	f8d4 2088 	ldr.w	r2, [r4, #136]	; 0x88
    27b8:	f8d4 3080 	ldr.w	r3, [r4, #128]	; 0x80
    27bc:	429a      	cmp	r2, r3
    27be:	d0f5      	beq.n	27ac <AjK::MODSERIAL::__putc(int, bool)+0x4c>
    27c0:	6de3      	ldr	r3, [r4, #92]	; 0x5c
    27c2:	605e      	str	r6, [r3, #4]
    27c4:	6de3      	ldr	r3, [r4, #92]	; 0x5c
    27c6:	e005      	b.n	27d4 <AjK::MODSERIAL::__putc(int, bool)+0x74>
    27c8:	f8d4 1088 	ldr.w	r1, [r4, #136]	; 0x88
    27cc:	f8d4 2080 	ldr.w	r2, [r4, #128]	; 0x80
    27d0:	4291      	cmp	r1, r2
    27d2:	d020      	beq.n	2816 <AjK::MODSERIAL::__putc(int, bool)+0xb6>
    27d4:	685a      	ldr	r2, [r3, #4]
    27d6:	b2e9      	uxtb	r1, r5
    27d8:	f022 0202 	bic.w	r2, r2, #2
    27dc:	605a      	str	r2, [r3, #4]
    27de:	6f23      	ldr	r3, [r4, #112]	; 0x70
    27e0:	6ea2      	ldr	r2, [r4, #104]	; 0x68
    27e2:	54d1      	strb	r1, [r2, r3]
    27e4:	b672      	cpsid	i
    27e6:	f8d4 3088 	ldr.w	r3, [r4, #136]	; 0x88
    27ea:	3301      	adds	r3, #1
    27ec:	f8c4 3088 	str.w	r3, [r4, #136]	; 0x88
    27f0:	b662      	cpsie	i
    27f2:	6f23      	ldr	r3, [r4, #112]	; 0x70
    27f4:	2000      	movs	r0, #0
    27f6:	3301      	adds	r3, #1
    27f8:	6723      	str	r3, [r4, #112]	; 0x70
    27fa:	6f22      	ldr	r2, [r4, #112]	; 0x70
    27fc:	f8d4 3080 	ldr.w	r3, [r4, #128]	; 0x80
    2800:	429a      	cmp	r2, r3
    2802:	bfa8      	it	ge
    2804:	2300      	movge	r3, #0
    2806:	6de2      	ldr	r2, [r4, #92]	; 0x5c
    2808:	bfa8      	it	ge
    280a:	6723      	strge	r3, [r4, #112]	; 0x70
    280c:	6853      	ldr	r3, [r2, #4]
    280e:	f043 0302 	orr.w	r3, r3, #2
    2812:	6053      	str	r3, [r2, #4]
    2814:	bd70      	pop	{r4, r5, r6, pc}
    2816:	f8d4 30c8 	ldr.w	r3, [r4, #200]	; 0xc8
    281a:	f8c4 5090 	str.w	r5, [r4, #144]	; 0x90
    281e:	f104 0058 	add.w	r0, r4, #88	; 0x58
    2822:	b11b      	cbz	r3, 282c <AjK::MODSERIAL::__putc(int, bool)+0xcc>
    2824:	4798      	blx	r3
    2826:	f04f 30ff 	mov.w	r0, #4294967295
    282a:	bd70      	pop	{r4, r5, r6, pc}
    282c:	f8d4 20cc 	ldr.w	r2, [r4, #204]	; 0xcc
    2830:	b1aa      	cbz	r2, 285e <AjK::MODSERIAL::__putc(int, bool)+0xfe>
    2832:	f8d4 50d0 	ldr.w	r5, [r4, #208]	; 0xd0
    2836:	f8d4 30d4 	ldr.w	r3, [r4, #212]	; 0xd4
    283a:	b175      	cbz	r5, 285a <AjK::MODSERIAL::__putc(int, bool)+0xfa>
    283c:	07d9      	lsls	r1, r3, #31
    283e:	d407      	bmi.n	2850 <AjK::MODSERIAL::__putc(int, bool)+0xf0>
    2840:	eb02 0363 	add.w	r3, r2, r3, asr #1
    2844:	4601      	mov	r1, r0
    2846:	4618      	mov	r0, r3
    2848:	47a8      	blx	r5
    284a:	f04f 30ff 	mov.w	r0, #4294967295
    284e:	bd70      	pop	{r4, r5, r6, pc}
    2850:	105b      	asrs	r3, r3, #1
    2852:	58d1      	ldr	r1, [r2, r3]
    2854:	4413      	add	r3, r2
    2856:	594d      	ldr	r5, [r1, r5]
    2858:	e7f4      	b.n	2844 <AjK::MODSERIAL::__putc(int, bool)+0xe4>
    285a:	07dc      	lsls	r4, r3, #31
    285c:	d4f8      	bmi.n	2850 <AjK::MODSERIAL::__putc(int, bool)+0xf0>
    285e:	f04f 30ff 	mov.w	r0, #4294967295
    2862:	bd70      	pop	{r4, r5, r6, pc}

00002864 <void mbed::FunctionPointerArg1<void, void>::membercaller<AjK::MODSERIAL>(void*, unsigned int*)>:
    2864:	684b      	ldr	r3, [r1, #4]
    2866:	07da      	lsls	r2, r3, #31
    2868:	d505      	bpl.n	2876 <void mbed::FunctionPointerArg1<void, void>::membercaller<AjK::MODSERIAL>(void*, unsigned int*)+0x12>
    286a:	105b      	asrs	r3, r3, #1
    286c:	680a      	ldr	r2, [r1, #0]
    286e:	58c1      	ldr	r1, [r0, r3]
    2870:	4418      	add	r0, r3
    2872:	588a      	ldr	r2, [r1, r2]
    2874:	4710      	bx	r2
    2876:	680a      	ldr	r2, [r1, #0]
    2878:	eb00 0063 	add.w	r0, r0, r3, asr #1
    287c:	4710      	bx	r2
    287e:	bf00      	nop

00002880 <AjK::MODSERIAL::isr_tx()>:
    2880:	2101      	movs	r1, #1
    2882:	f000 b885 	b.w	2990 <AjK::MODSERIAL::isr_tx(bool)>
    2886:	bf00      	nop

00002888 <AjK::MODSERIAL::init(int, int, PinName)>:
    2888:	b5f8      	push	{r3, r4, r5, r6, r7, lr}
    288a:	4604      	mov	r4, r0
    288c:	f890 50f8 	ldrb.w	r5, [r0, #248]	; 0xf8
    2890:	2601      	movs	r6, #1
    2892:	b26b      	sxtb	r3, r5
    2894:	095b      	lsrs	r3, r3, #5
    2896:	f005 051f 	and.w	r5, r5, #31
    289a:	4f38      	ldr	r7, [pc, #224]	; (297c <AjK::MODSERIAL::init(int, int, PinName)+0xf4>)
    289c:	3320      	adds	r3, #32
    289e:	fa06 f505 	lsl.w	r5, r6, r5
    28a2:	f847 5023 	str.w	r5, [r7, r3, lsl #2]
    28a6:	4616      	mov	r6, r2
    28a8:	460d      	mov	r5, r1
    28aa:	f000 f90d 	bl	2ac8 <AjK::MODSERIAL::setBase()>
    28ae:	6de3      	ldr	r3, [r4, #92]	; 0x5c
    28b0:	65a4      	str	r4, [r4, #88]	; 0x58
    28b2:	2b00      	cmp	r3, #0
    28b4:	d05e      	beq.n	2974 <AjK::MODSERIAL::init(int, int, PinName)+0xec>
    28b6:	2e00      	cmp	r6, #0
    28b8:	67e6      	str	r6, [r4, #124]	; 0x7c
    28ba:	dd47      	ble.n	294c <AjK::MODSERIAL::init(int, int, PinName)+0xc4>
    28bc:	6fe0      	ldr	r0, [r4, #124]	; 0x7c
    28be:	f7ff fd91 	bl	23e4 <__wrap_malloc>
    28c2:	2100      	movs	r1, #0
    28c4:	66e1      	str	r1, [r4, #108]	; 0x6c
    28c6:	6660      	str	r0, [r4, #100]	; 0x64
    28c8:	6761      	str	r1, [r4, #116]	; 0x74
    28ca:	f8c4 1084 	str.w	r1, [r4, #132]	; 0x84
    28ce:	f8c4 108c 	str.w	r1, [r4, #140]	; 0x8c
    28d2:	2c00      	cmp	r4, #0
    28d4:	d042      	beq.n	295c <AjK::MODSERIAL::init(int, int, PinName)+0xd4>
    28d6:	4a2a      	ldr	r2, [pc, #168]	; (2980 <AjK::MODSERIAL::init(int, int, PinName)+0xf8>)
    28d8:	4b2a      	ldr	r3, [pc, #168]	; (2984 <AjK::MODSERIAL::init(int, int, PinName)+0xfc>)
    28da:	1d26      	adds	r6, r4, #4
    28dc:	6122      	str	r2, [r4, #16]
    28de:	60e4      	str	r4, [r4, #12]
    28e0:	6161      	str	r1, [r4, #20]
    28e2:	6223      	str	r3, [r4, #32]
    28e4:	4630      	mov	r0, r6
    28e6:	2201      	movs	r2, #1
    28e8:	f000 fe26 	bl	3538 <serial_irq_set>
    28ec:	2d00      	cmp	r5, #0
    28ee:	f8c4 5080 	str.w	r5, [r4, #128]	; 0x80
    28f2:	dd3d      	ble.n	2970 <AjK::MODSERIAL::init(int, int, PinName)+0xe8>
    28f4:	f8d4 0080 	ldr.w	r0, [r4, #128]	; 0x80
    28f8:	f7ff fd74 	bl	23e4 <__wrap_malloc>
    28fc:	4922      	ldr	r1, [pc, #136]	; (2988 <AjK::MODSERIAL::init(int, int, PinName)+0x100>)
    28fe:	2300      	movs	r3, #0
    2900:	6723      	str	r3, [r4, #112]	; 0x70
    2902:	66a0      	str	r0, [r4, #104]	; 0x68
    2904:	67a3      	str	r3, [r4, #120]	; 0x78
    2906:	f8c4 3088 	str.w	r3, [r4, #136]	; 0x88
    290a:	f8c4 3090 	str.w	r3, [r4, #144]	; 0x90
    290e:	b1f9      	cbz	r1, 2950 <AjK::MODSERIAL::init(int, int, PinName)+0xc8>
    2910:	b1f4      	cbz	r4, 2950 <AjK::MODSERIAL::init(int, int, PinName)+0xc8>
    2912:	4d1c      	ldr	r5, [pc, #112]	; (2984 <AjK::MODSERIAL::init(int, int, PinName)+0xfc>)
    2914:	2201      	movs	r2, #1
    2916:	62a1      	str	r1, [r4, #40]	; 0x28
    2918:	6264      	str	r4, [r4, #36]	; 0x24
    291a:	62e3      	str	r3, [r4, #44]	; 0x2c
    291c:	4630      	mov	r0, r6
    291e:	63a5      	str	r5, [r4, #56]	; 0x38
    2920:	4611      	mov	r1, r2
    2922:	f000 fe09 	bl	3538 <serial_irq_set>
    2926:	4620      	mov	r0, r4
    2928:	f000 f8fa 	bl	2b20 <AjK::MODSERIAL::initDevice()>
    292c:	f894 30f8 	ldrb.w	r3, [r4, #248]	; 0xf8
    2930:	2101      	movs	r1, #1
    2932:	b25a      	sxtb	r2, r3
    2934:	f003 031f 	and.w	r3, r3, #31
    2938:	fa01 f303 	lsl.w	r3, r1, r3
    293c:	480f      	ldr	r0, [pc, #60]	; (297c <AjK::MODSERIAL::init(int, int, PinName)+0xf4>)
    293e:	2100      	movs	r1, #0
    2940:	0952      	lsrs	r2, r2, #5
    2942:	f884 1094 	strb.w	r1, [r4, #148]	; 0x94
    2946:	f840 3022 	str.w	r3, [r0, r2, lsl #2]
    294a:	bdf8      	pop	{r3, r4, r5, r6, r7, pc}
    294c:	2000      	movs	r0, #0
    294e:	e7b8      	b.n	28c2 <AjK::MODSERIAL::init(int, int, PinName)+0x3a>
    2950:	4630      	mov	r0, r6
    2952:	2200      	movs	r2, #0
    2954:	2101      	movs	r1, #1
    2956:	f000 fdef 	bl	3538 <serial_irq_set>
    295a:	e7e4      	b.n	2926 <AjK::MODSERIAL::init(int, int, PinName)+0x9e>
    295c:	2604      	movs	r6, #4
    295e:	4630      	mov	r0, r6
    2960:	4622      	mov	r2, r4
    2962:	4621      	mov	r1, r4
    2964:	f000 fde8 	bl	3538 <serial_irq_set>
    2968:	2d00      	cmp	r5, #0
    296a:	f8c4 5080 	str.w	r5, [r4, #128]	; 0x80
    296e:	dcc1      	bgt.n	28f4 <AjK::MODSERIAL::init(int, int, PinName)+0x6c>
    2970:	2000      	movs	r0, #0
    2972:	e7c3      	b.n	28fc <AjK::MODSERIAL::init(int, int, PinName)+0x74>
    2974:	4805      	ldr	r0, [pc, #20]	; (298c <AjK::MODSERIAL::init(int, int, PinName)+0x104>)
    2976:	f000 f911 	bl	2b9c <error>
    297a:	e7d4      	b.n	2926 <AjK::MODSERIAL::init(int, int, PinName)+0x9e>
    297c:	e000e100 	.word	0xe000e100
    2980:	000024c1 	.word	0x000024c1
    2984:	00002865 	.word	0x00002865
    2988:	00002881 	.word	0x00002881
    298c:	00007300 	.word	0x00007300

00002990 <AjK::MODSERIAL::isr_tx(bool)>:
    2990:	6dc3      	ldr	r3, [r0, #92]	; 0x5c
    2992:	e92d 41f0 	stmdb	sp!, {r4, r5, r6, r7, r8, lr}
    2996:	b313      	cbz	r3, 29de <AjK::MODSERIAL::isr_tx(bool)+0x4e>
    2998:	f8d0 3080 	ldr.w	r3, [r0, #128]	; 0x80
    299c:	b1fb      	cbz	r3, 29de <AjK::MODSERIAL::isr_tx(bool)+0x4e>
    299e:	6e83      	ldr	r3, [r0, #104]	; 0x68
    29a0:	b1eb      	cbz	r3, 29de <AjK::MODSERIAL::isr_tx(bool)+0x4e>
    29a2:	460e      	mov	r6, r1
    29a4:	4604      	mov	r4, r0
    29a6:	2700      	movs	r7, #0
    29a8:	f100 0558 	add.w	r5, r0, #88	; 0x58
    29ac:	f8d4 3088 	ldr.w	r3, [r4, #136]	; 0x88
    29b0:	b11b      	cbz	r3, 29ba <AjK::MODSERIAL::isr_tx(bool)+0x2a>
    29b2:	6de2      	ldr	r2, [r4, #92]	; 0x5c
    29b4:	7d13      	ldrb	r3, [r2, #20]
    29b6:	0698      	lsls	r0, r3, #26
    29b8:	d41a      	bmi.n	29f0 <AjK::MODSERIAL::isr_tx(bool)+0x60>
    29ba:	f8d4 3088 	ldr.w	r3, [r4, #136]	; 0x88
    29be:	2b00      	cmp	r3, #0
    29c0:	d133      	bne.n	2a2a <AjK::MODSERIAL::isr_tx(bool)+0x9a>
    29c2:	6de2      	ldr	r2, [r4, #92]	; 0x5c
    29c4:	f104 0058 	add.w	r0, r4, #88	; 0x58
    29c8:	6853      	ldr	r3, [r2, #4]
    29ca:	f023 0302 	bic.w	r3, r3, #2
    29ce:	6053      	str	r3, [r2, #4]
    29d0:	f8d4 30d8 	ldr.w	r3, [r4, #216]	; 0xd8
    29d4:	2b00      	cmp	r3, #0
    29d6:	d04b      	beq.n	2a70 <AjK::MODSERIAL::isr_tx(bool)+0xe0>
    29d8:	e8bd 41f0 	ldmia.w	sp!, {r4, r5, r6, r7, r8, lr}
    29dc:	4718      	bx	r3
    29de:	f8d0 30a8 	ldr.w	r3, [r0, #168]	; 0xa8
    29e2:	f100 0158 	add.w	r1, r0, #88	; 0x58
    29e6:	b313      	cbz	r3, 2a2e <AjK::MODSERIAL::isr_tx(bool)+0x9e>
    29e8:	e8bd 41f0 	ldmia.w	sp!, {r4, r5, r6, r7, r8, lr}
    29ec:	4608      	mov	r0, r1
    29ee:	4718      	bx	r3
    29f0:	6fa3      	ldr	r3, [r4, #120]	; 0x78
    29f2:	6ea1      	ldr	r1, [r4, #104]	; 0x68
    29f4:	5ccb      	ldrb	r3, [r1, r3]
    29f6:	b2db      	uxtb	r3, r3
    29f8:	f884 3060 	strb.w	r3, [r4, #96]	; 0x60
    29fc:	7013      	strb	r3, [r2, #0]
    29fe:	f8d4 3088 	ldr.w	r3, [r4, #136]	; 0x88
    2a02:	3b01      	subs	r3, #1
    2a04:	f8c4 3088 	str.w	r3, [r4, #136]	; 0x88
    2a08:	6fa3      	ldr	r3, [r4, #120]	; 0x78
    2a0a:	3301      	adds	r3, #1
    2a0c:	67a3      	str	r3, [r4, #120]	; 0x78
    2a0e:	6fa2      	ldr	r2, [r4, #120]	; 0x78
    2a10:	f8d4 3080 	ldr.w	r3, [r4, #128]	; 0x80
    2a14:	429a      	cmp	r2, r3
    2a16:	db00      	blt.n	2a1a <AjK::MODSERIAL::isr_tx(bool)+0x8a>
    2a18:	67a7      	str	r7, [r4, #120]	; 0x78
    2a1a:	2e00      	cmp	r6, #0
    2a1c:	d0c6      	beq.n	29ac <AjK::MODSERIAL::isr_tx(bool)+0x1c>
    2a1e:	f8d4 30a8 	ldr.w	r3, [r4, #168]	; 0xa8
    2a22:	b1ab      	cbz	r3, 2a50 <AjK::MODSERIAL::isr_tx(bool)+0xc0>
    2a24:	4628      	mov	r0, r5
    2a26:	4798      	blx	r3
    2a28:	e7c0      	b.n	29ac <AjK::MODSERIAL::isr_tx(bool)+0x1c>
    2a2a:	e8bd 81f0 	ldmia.w	sp!, {r4, r5, r6, r7, r8, pc}
    2a2e:	f8d0 30ac 	ldr.w	r3, [r0, #172]	; 0xac
    2a32:	2b00      	cmp	r3, #0
    2a34:	d0f9      	beq.n	2a2a <AjK::MODSERIAL::isr_tx(bool)+0x9a>
    2a36:	f8d0 20b0 	ldr.w	r2, [r0, #176]	; 0xb0
    2a3a:	f8d0 00b4 	ldr.w	r0, [r0, #180]	; 0xb4
    2a3e:	2a00      	cmp	r2, #0
    2a40:	d03a      	beq.n	2ab8 <AjK::MODSERIAL::isr_tx(bool)+0x128>
    2a42:	07c4      	lsls	r4, r0, #31
    2a44:	d427      	bmi.n	2a96 <AjK::MODSERIAL::isr_tx(bool)+0x106>
    2a46:	eb03 0060 	add.w	r0, r3, r0, asr #1
    2a4a:	e8bd 41f0 	ldmia.w	sp!, {r4, r5, r6, r7, r8, lr}
    2a4e:	4710      	bx	r2
    2a50:	f8d4 00ac 	ldr.w	r0, [r4, #172]	; 0xac
    2a54:	2800      	cmp	r0, #0
    2a56:	d0a9      	beq.n	29ac <AjK::MODSERIAL::isr_tx(bool)+0x1c>
    2a58:	f8d4 20b0 	ldr.w	r2, [r4, #176]	; 0xb0
    2a5c:	f8d4 30b4 	ldr.w	r3, [r4, #180]	; 0xb4
    2a60:	b1f2      	cbz	r2, 2aa0 <AjK::MODSERIAL::isr_tx(bool)+0x110>
    2a62:	07d9      	lsls	r1, r3, #31
    2a64:	d41e      	bmi.n	2aa4 <AjK::MODSERIAL::isr_tx(bool)+0x114>
    2a66:	eb00 0063 	add.w	r0, r0, r3, asr #1
    2a6a:	4629      	mov	r1, r5
    2a6c:	4790      	blx	r2
    2a6e:	e79d      	b.n	29ac <AjK::MODSERIAL::isr_tx(bool)+0x1c>
    2a70:	f8d4 30dc 	ldr.w	r3, [r4, #220]	; 0xdc
    2a74:	2b00      	cmp	r3, #0
    2a76:	d0d8      	beq.n	2a2a <AjK::MODSERIAL::isr_tx(bool)+0x9a>
    2a78:	f8d4 50e0 	ldr.w	r5, [r4, #224]	; 0xe0
    2a7c:	f8d4 20e4 	ldr.w	r2, [r4, #228]	; 0xe4
    2a80:	b1f5      	cbz	r5, 2ac0 <AjK::MODSERIAL::isr_tx(bool)+0x130>
    2a82:	07d1      	lsls	r1, r2, #31
    2a84:	d413      	bmi.n	2aae <AjK::MODSERIAL::isr_tx(bool)+0x11e>
    2a86:	eb03 0362 	add.w	r3, r3, r2, asr #1
    2a8a:	4601      	mov	r1, r0
    2a8c:	4618      	mov	r0, r3
    2a8e:	462b      	mov	r3, r5
    2a90:	e8bd 41f0 	ldmia.w	sp!, {r4, r5, r6, r7, r8, lr}
    2a94:	4718      	bx	r3
    2a96:	1040      	asrs	r0, r0, #1
    2a98:	581c      	ldr	r4, [r3, r0]
    2a9a:	4418      	add	r0, r3
    2a9c:	58a2      	ldr	r2, [r4, r2]
    2a9e:	e7d4      	b.n	2a4a <AjK::MODSERIAL::isr_tx(bool)+0xba>
    2aa0:	07d9      	lsls	r1, r3, #31
    2aa2:	d583      	bpl.n	29ac <AjK::MODSERIAL::isr_tx(bool)+0x1c>
    2aa4:	105b      	asrs	r3, r3, #1
    2aa6:	58c1      	ldr	r1, [r0, r3]
    2aa8:	4418      	add	r0, r3
    2aaa:	588a      	ldr	r2, [r1, r2]
    2aac:	e7dd      	b.n	2a6a <AjK::MODSERIAL::isr_tx(bool)+0xda>
    2aae:	1052      	asrs	r2, r2, #1
    2ab0:	5899      	ldr	r1, [r3, r2]
    2ab2:	4413      	add	r3, r2
    2ab4:	594d      	ldr	r5, [r1, r5]
    2ab6:	e7e8      	b.n	2a8a <AjK::MODSERIAL::isr_tx(bool)+0xfa>
    2ab8:	07c5      	lsls	r5, r0, #31
    2aba:	d4ec      	bmi.n	2a96 <AjK::MODSERIAL::isr_tx(bool)+0x106>
    2abc:	e8bd 81f0 	ldmia.w	sp!, {r4, r5, r6, r7, r8, pc}
    2ac0:	07d4      	lsls	r4, r2, #31
    2ac2:	d4f4      	bmi.n	2aae <AjK::MODSERIAL::isr_tx(bool)+0x11e>
    2ac4:	e8bd 81f0 	ldmia.w	sp!, {r4, r5, r6, r7, r8, pc}

00002ac8 <AjK::MODSERIAL::setBase()>:
    2ac8:	6883      	ldr	r3, [r0, #8]
    2aca:	2b03      	cmp	r3, #3
    2acc:	d81b      	bhi.n	2b06 <AjK::MODSERIAL::setBase()+0x3e>
    2ace:	e8df f003 	tbb	[pc, r3]
    2ad2:	0e14      	.short	0x0e14
    2ad4:	0208      	.short	0x0208
    2ad6:	4a0e      	ldr	r2, [pc, #56]	; (2b10 <AjK::MODSERIAL::setBase()+0x48>)
    2ad8:	2308      	movs	r3, #8
    2ada:	65c2      	str	r2, [r0, #92]	; 0x5c
    2adc:	f880 30f8 	strb.w	r3, [r0, #248]	; 0xf8
    2ae0:	4770      	bx	lr
    2ae2:	4a0c      	ldr	r2, [pc, #48]	; (2b14 <AjK::MODSERIAL::setBase()+0x4c>)
    2ae4:	2307      	movs	r3, #7
    2ae6:	65c2      	str	r2, [r0, #92]	; 0x5c
    2ae8:	f880 30f8 	strb.w	r3, [r0, #248]	; 0xf8
    2aec:	4770      	bx	lr
    2aee:	4a0a      	ldr	r2, [pc, #40]	; (2b18 <AjK::MODSERIAL::setBase()+0x50>)
    2af0:	2306      	movs	r3, #6
    2af2:	65c2      	str	r2, [r0, #92]	; 0x5c
    2af4:	f880 30f8 	strb.w	r3, [r0, #248]	; 0xf8
    2af8:	4770      	bx	lr
    2afa:	4a08      	ldr	r2, [pc, #32]	; (2b1c <AjK::MODSERIAL::setBase()+0x54>)
    2afc:	2305      	movs	r3, #5
    2afe:	65c2      	str	r2, [r0, #92]	; 0x5c
    2b00:	f880 30f8 	strb.w	r3, [r0, #248]	; 0xf8
    2b04:	4770      	bx	lr
    2b06:	2300      	movs	r3, #0
    2b08:	65c3      	str	r3, [r0, #92]	; 0x5c
    2b0a:	f880 30f8 	strb.w	r3, [r0, #248]	; 0xf8
    2b0e:	4770      	bx	lr
    2b10:	4009c000 	.word	0x4009c000
    2b14:	40098000 	.word	0x40098000
    2b18:	40010000 	.word	0x40010000
    2b1c:	4000c000 	.word	0x4000c000

00002b20 <AjK::MODSERIAL::initDevice()>:
    2b20:	6dc3      	ldr	r3, [r0, #92]	; 0x5c
    2b22:	2207      	movs	r2, #7
    2b24:	721a      	strb	r2, [r3, #8]
    2b26:	4770      	bx	lr

00002b28 <mbed_die>:
    2b28:	b500      	push	{lr}
    2b2a:	b099      	sub	sp, #100	; 0x64
    2b2c:	b672      	cpsid	i
    2b2e:	4917      	ldr	r1, [pc, #92]	; (2b8c <mbed_die+0x64>)
    2b30:	4668      	mov	r0, sp
    2b32:	f000 f857 	bl	2be4 <gpio_init_out>
    2b36:	a806      	add	r0, sp, #24
    2b38:	4915      	ldr	r1, [pc, #84]	; (2b90 <mbed_die+0x68>)
    2b3a:	f000 f853 	bl	2be4 <gpio_init_out>
    2b3e:	a80c      	add	r0, sp, #48	; 0x30
    2b40:	4914      	ldr	r1, [pc, #80]	; (2b94 <mbed_die+0x6c>)
    2b42:	f000 f84f 	bl	2be4 <gpio_init_out>
    2b46:	a812      	add	r0, sp, #72	; 0x48
    2b48:	4913      	ldr	r1, [pc, #76]	; (2b98 <mbed_die+0x70>)
    2b4a:	f000 f84b 	bl	2be4 <gpio_init_out>
    2b4e:	9a03      	ldr	r2, [sp, #12]
    2b50:	9901      	ldr	r1, [sp, #4]
    2b52:	9b0a      	ldr	r3, [sp, #40]	; 0x28
    2b54:	6011      	str	r1, [r2, #0]
    2b56:	9907      	ldr	r1, [sp, #28]
    2b58:	9a10      	ldr	r2, [sp, #64]	; 0x40
    2b5a:	6019      	str	r1, [r3, #0]
    2b5c:	990d      	ldr	r1, [sp, #52]	; 0x34
    2b5e:	9b15      	ldr	r3, [sp, #84]	; 0x54
    2b60:	6011      	str	r1, [r2, #0]
    2b62:	9a13      	ldr	r2, [sp, #76]	; 0x4c
    2b64:	2096      	movs	r0, #150	; 0x96
    2b66:	601a      	str	r2, [r3, #0]
    2b68:	f000 f926 	bl	2db8 <wait_ms>
    2b6c:	9a04      	ldr	r2, [sp, #16]
    2b6e:	9901      	ldr	r1, [sp, #4]
    2b70:	9b09      	ldr	r3, [sp, #36]	; 0x24
    2b72:	6011      	str	r1, [r2, #0]
    2b74:	9907      	ldr	r1, [sp, #28]
    2b76:	9a0f      	ldr	r2, [sp, #60]	; 0x3c
    2b78:	6019      	str	r1, [r3, #0]
    2b7a:	990d      	ldr	r1, [sp, #52]	; 0x34
    2b7c:	9b16      	ldr	r3, [sp, #88]	; 0x58
    2b7e:	6011      	str	r1, [r2, #0]
    2b80:	9a13      	ldr	r2, [sp, #76]	; 0x4c
    2b82:	2096      	movs	r0, #150	; 0x96
    2b84:	601a      	str	r2, [r3, #0]
    2b86:	f000 f917 	bl	2db8 <wait_ms>
    2b8a:	e7e0      	b.n	2b4e <mbed_die+0x26>
    2b8c:	2009c032 	.word	0x2009c032
    2b90:	2009c034 	.word	0x2009c034
    2b94:	2009c035 	.word	0x2009c035
    2b98:	2009c037 	.word	0x2009c037

00002b9c <error>:
    2b9c:	b40f      	push	{r0, r1, r2, r3}
    2b9e:	b500      	push	{lr}
    2ba0:	4a06      	ldr	r2, [pc, #24]	; (2bbc <error+0x20>)
    2ba2:	b083      	sub	sp, #12
    2ba4:	ab04      	add	r3, sp, #16
    2ba6:	f853 1b04 	ldr.w	r1, [r3], #4
    2baa:	6810      	ldr	r0, [r2, #0]
    2bac:	461a      	mov	r2, r3
    2bae:	68c0      	ldr	r0, [r0, #12]
    2bb0:	9301      	str	r3, [sp, #4]
    2bb2:	f002 ff97 	bl	5ae4 <vfiprintf>
    2bb6:	2001      	movs	r0, #1
    2bb8:	f002 f9fc 	bl	4fb4 <exit>
    2bbc:	10000150 	.word	0x10000150

00002bc0 <gpio_init_in>:
    2bc0:	b538      	push	{r3, r4, r5, lr}
    2bc2:	460d      	mov	r5, r1
    2bc4:	4604      	mov	r4, r0
    2bc6:	f000 f977 	bl	2eb8 <gpio_init>
    2bca:	3501      	adds	r5, #1
    2bcc:	d009      	beq.n	2be2 <gpio_init_in+0x22>
    2bce:	4620      	mov	r0, r4
    2bd0:	2100      	movs	r1, #0
    2bd2:	f000 f993 	bl	2efc <gpio_dir>
    2bd6:	4620      	mov	r0, r4
    2bd8:	e8bd 4038 	ldmia.w	sp!, {r3, r4, r5, lr}
    2bdc:	2103      	movs	r1, #3
    2bde:	f000 b989 	b.w	2ef4 <gpio_mode>
    2be2:	bd38      	pop	{r3, r4, r5, pc}

00002be4 <gpio_init_out>:
    2be4:	b538      	push	{r3, r4, r5, lr}
    2be6:	460d      	mov	r5, r1
    2be8:	4604      	mov	r4, r0
    2bea:	f000 f965 	bl	2eb8 <gpio_init>
    2bee:	3501      	adds	r5, #1
    2bf0:	d00c      	beq.n	2c0c <gpio_init_out+0x28>
    2bf2:	6923      	ldr	r3, [r4, #16]
    2bf4:	6862      	ldr	r2, [r4, #4]
    2bf6:	4620      	mov	r0, r4
    2bf8:	2101      	movs	r1, #1
    2bfa:	601a      	str	r2, [r3, #0]
    2bfc:	f000 f97e 	bl	2efc <gpio_dir>
    2c00:	4620      	mov	r0, r4
    2c02:	e8bd 4038 	ldmia.w	sp!, {r3, r4, r5, lr}
    2c06:	2102      	movs	r1, #2
    2c08:	f000 b974 	b.w	2ef4 <gpio_mode>
    2c0c:	bd38      	pop	{r3, r4, r5, pc}
    2c0e:	bf00      	nop

00002c10 <gpio_init_out_ex>:
    2c10:	b570      	push	{r4, r5, r6, lr}
    2c12:	460d      	mov	r5, r1
    2c14:	4616      	mov	r6, r2
    2c16:	4604      	mov	r4, r0
    2c18:	f000 f94e 	bl	2eb8 <gpio_init>
    2c1c:	3501      	adds	r5, #1
    2c1e:	d011      	beq.n	2c44 <gpio_init_out_ex+0x34>
    2c20:	b966      	cbnz	r6, 2c3c <gpio_init_out_ex+0x2c>
    2c22:	6923      	ldr	r3, [r4, #16]
    2c24:	6862      	ldr	r2, [r4, #4]
    2c26:	601a      	str	r2, [r3, #0]
    2c28:	4620      	mov	r0, r4
    2c2a:	2101      	movs	r1, #1
    2c2c:	f000 f966 	bl	2efc <gpio_dir>
    2c30:	4620      	mov	r0, r4
    2c32:	e8bd 4070 	ldmia.w	sp!, {r4, r5, r6, lr}
    2c36:	2102      	movs	r1, #2
    2c38:	f000 b95c 	b.w	2ef4 <gpio_mode>
    2c3c:	68e3      	ldr	r3, [r4, #12]
    2c3e:	6862      	ldr	r2, [r4, #4]
    2c40:	601a      	str	r2, [r3, #0]
    2c42:	e7f1      	b.n	2c28 <gpio_init_out_ex+0x18>
    2c44:	bd70      	pop	{r4, r5, r6, pc}
    2c46:	bf00      	nop

00002c48 <mbed_interface_connected>:
    2c48:	f000 b86e 	b.w	2d28 <semihost_connected>

00002c4c <pinmap_pinout>:
    2c4c:	1c43      	adds	r3, r0, #1
    2c4e:	d01c      	beq.n	2c8a <pinmap_pinout+0x3e>
    2c50:	680b      	ldr	r3, [r1, #0]
    2c52:	1c5a      	adds	r2, r3, #1
    2c54:	d01a      	beq.n	2c8c <pinmap_pinout+0x40>
    2c56:	4298      	cmp	r0, r3
    2c58:	b510      	push	{r4, lr}
    2c5a:	4604      	mov	r4, r0
    2c5c:	d102      	bne.n	2c64 <pinmap_pinout+0x18>
    2c5e:	e00a      	b.n	2c76 <pinmap_pinout+0x2a>
    2c60:	429c      	cmp	r4, r3
    2c62:	d008      	beq.n	2c76 <pinmap_pinout+0x2a>
    2c64:	f851 3f0c 	ldr.w	r3, [r1, #12]!
    2c68:	1c5a      	adds	r2, r3, #1
    2c6a:	d1f9      	bne.n	2c60 <pinmap_pinout+0x14>
    2c6c:	4809      	ldr	r0, [pc, #36]	; (2c94 <pinmap_pinout+0x48>)
    2c6e:	e8bd 4010 	ldmia.w	sp!, {r4, lr}
    2c72:	f7ff bf93 	b.w	2b9c <error>
    2c76:	4620      	mov	r0, r4
    2c78:	6889      	ldr	r1, [r1, #8]
    2c7a:	f000 f951 	bl	2f20 <pin_function>
    2c7e:	4620      	mov	r0, r4
    2c80:	e8bd 4010 	ldmia.w	sp!, {r4, lr}
    2c84:	2102      	movs	r1, #2
    2c86:	f000 b967 	b.w	2f58 <pin_mode>
    2c8a:	4770      	bx	lr
    2c8c:	4801      	ldr	r0, [pc, #4]	; (2c94 <pinmap_pinout+0x48>)
    2c8e:	f7ff bf85 	b.w	2b9c <error>
    2c92:	bf00      	nop
    2c94:	00007330 	.word	0x00007330

00002c98 <pinmap_merge>:
    2c98:	4288      	cmp	r0, r1
    2c9a:	d00a      	beq.n	2cb2 <pinmap_merge+0x1a>
    2c9c:	1c42      	adds	r2, r0, #1
    2c9e:	d009      	beq.n	2cb4 <pinmap_merge+0x1c>
    2ca0:	3101      	adds	r1, #1
    2ca2:	d006      	beq.n	2cb2 <pinmap_merge+0x1a>
    2ca4:	b508      	push	{r3, lr}
    2ca6:	4804      	ldr	r0, [pc, #16]	; (2cb8 <pinmap_merge+0x20>)
    2ca8:	f7ff ff78 	bl	2b9c <error>
    2cac:	f04f 30ff 	mov.w	r0, #4294967295
    2cb0:	bd08      	pop	{r3, pc}
    2cb2:	4770      	bx	lr
    2cb4:	4608      	mov	r0, r1
    2cb6:	4770      	bx	lr
    2cb8:	00007344 	.word	0x00007344

00002cbc <pinmap_find_peripheral>:
    2cbc:	680b      	ldr	r3, [r1, #0]
    2cbe:	1c5a      	adds	r2, r3, #1
    2cc0:	d008      	beq.n	2cd4 <pinmap_find_peripheral+0x18>
    2cc2:	4298      	cmp	r0, r3
    2cc4:	d102      	bne.n	2ccc <pinmap_find_peripheral+0x10>
    2cc6:	e007      	b.n	2cd8 <pinmap_find_peripheral+0x1c>
    2cc8:	4283      	cmp	r3, r0
    2cca:	d005      	beq.n	2cd8 <pinmap_find_peripheral+0x1c>
    2ccc:	f851 3f0c 	ldr.w	r3, [r1, #12]!
    2cd0:	1c5a      	adds	r2, r3, #1
    2cd2:	d1f9      	bne.n	2cc8 <pinmap_find_peripheral+0xc>
    2cd4:	4618      	mov	r0, r3
    2cd6:	4770      	bx	lr
    2cd8:	6848      	ldr	r0, [r1, #4]
    2cda:	4770      	bx	lr

00002cdc <pinmap_peripheral>:
    2cdc:	1c42      	adds	r2, r0, #1
    2cde:	d00e      	beq.n	2cfe <pinmap_peripheral+0x22>
    2ce0:	b508      	push	{r3, lr}
    2ce2:	680b      	ldr	r3, [r1, #0]
    2ce4:	1c5a      	adds	r2, r3, #1
    2ce6:	d104      	bne.n	2cf2 <pinmap_peripheral+0x16>
    2ce8:	e00a      	b.n	2d00 <pinmap_peripheral+0x24>
    2cea:	f851 3f0c 	ldr.w	r3, [r1, #12]!
    2cee:	1c5a      	adds	r2, r3, #1
    2cf0:	d006      	beq.n	2d00 <pinmap_peripheral+0x24>
    2cf2:	4298      	cmp	r0, r3
    2cf4:	d1f9      	bne.n	2cea <pinmap_peripheral+0xe>
    2cf6:	6848      	ldr	r0, [r1, #4]
    2cf8:	1c41      	adds	r1, r0, #1
    2cfa:	d001      	beq.n	2d00 <pinmap_peripheral+0x24>
    2cfc:	bd08      	pop	{r3, pc}
    2cfe:	4770      	bx	lr
    2d00:	4802      	ldr	r0, [pc, #8]	; (2d0c <pinmap_peripheral+0x30>)
    2d02:	f7ff ff4b 	bl	2b9c <error>
    2d06:	f04f 30ff 	mov.w	r0, #4294967295
    2d0a:	bd08      	pop	{r3, pc}
    2d0c:	00007358 	.word	0x00007358

00002d10 <semihost_exit>:
    2d10:	b530      	push	{r4, r5, lr}
    2d12:	b085      	sub	sp, #20
    2d14:	2418      	movs	r4, #24
    2d16:	466d      	mov	r5, sp
    2d18:	4620      	mov	r0, r4
    2d1a:	4629      	mov	r1, r5
    2d1c:	beab      	bkpt	0x00ab
    2d1e:	4604      	mov	r4, r0
    2d20:	4620      	mov	r0, r4
    2d22:	b005      	add	sp, #20
    2d24:	bd30      	pop	{r4, r5, pc}
    2d26:	bf00      	nop

00002d28 <semihost_connected>:
    2d28:	4b02      	ldr	r3, [pc, #8]	; (2d34 <semihost_connected+0xc>)
    2d2a:	6818      	ldr	r0, [r3, #0]
    2d2c:	f000 0001 	and.w	r0, r0, #1
    2d30:	4770      	bx	lr
    2d32:	bf00      	nop
    2d34:	e000edf0 	.word	0xe000edf0

00002d38 <ticker_irq_handler>:
    2d38:	6803      	ldr	r3, [r0, #0]
    2d3a:	b570      	push	{r4, r5, r6, lr}
    2d3c:	68db      	ldr	r3, [r3, #12]
    2d3e:	4605      	mov	r5, r0
    2d40:	4798      	blx	r3
    2d42:	686b      	ldr	r3, [r5, #4]
    2d44:	685b      	ldr	r3, [r3, #4]
    2d46:	b183      	cbz	r3, 2d6a <ticker_irq_handler+0x32>
    2d48:	682a      	ldr	r2, [r5, #0]
    2d4a:	681c      	ldr	r4, [r3, #0]
    2d4c:	6853      	ldr	r3, [r2, #4]
    2d4e:	4798      	blx	r3
    2d50:	1a20      	subs	r0, r4, r0
    2d52:	2800      	cmp	r0, #0
    2d54:	686a      	ldr	r2, [r5, #4]
    2d56:	dc0d      	bgt.n	2d74 <ticker_irq_handler+0x3c>
    2d58:	6850      	ldr	r0, [r2, #4]
    2d5a:	6811      	ldr	r1, [r2, #0]
    2d5c:	6883      	ldr	r3, [r0, #8]
    2d5e:	6053      	str	r3, [r2, #4]
    2d60:	2900      	cmp	r1, #0
    2d62:	d0f0      	beq.n	2d46 <ticker_irq_handler+0xe>
    2d64:	6840      	ldr	r0, [r0, #4]
    2d66:	4788      	blx	r1
    2d68:	e7eb      	b.n	2d42 <ticker_irq_handler+0xa>
    2d6a:	682b      	ldr	r3, [r5, #0]
    2d6c:	e8bd 4070 	ldmia.w	sp!, {r4, r5, r6, lr}
    2d70:	689b      	ldr	r3, [r3, #8]
    2d72:	4718      	bx	r3
    2d74:	682b      	ldr	r3, [r5, #0]
    2d76:	6852      	ldr	r2, [r2, #4]
    2d78:	691b      	ldr	r3, [r3, #16]
    2d7a:	6810      	ldr	r0, [r2, #0]
    2d7c:	e8bd 4070 	ldmia.w	sp!, {r4, r5, r6, lr}
    2d80:	4718      	bx	r3
    2d82:	bf00      	nop

00002d84 <ticker_read>:
    2d84:	6803      	ldr	r3, [r0, #0]
    2d86:	685b      	ldr	r3, [r3, #4]
    2d88:	4718      	bx	r3
    2d8a:	bf00      	nop

00002d8c <get_us_ticker_data>:
    2d8c:	4800      	ldr	r0, [pc, #0]	; (2d90 <get_us_ticker_data+0x4>)
    2d8e:	4770      	bx	lr
    2d90:	000073ac 	.word	0x000073ac

00002d94 <us_ticker_irq_handler>:
    2d94:	4801      	ldr	r0, [pc, #4]	; (2d9c <us_ticker_irq_handler+0x8>)
    2d96:	f7ff bfcf 	b.w	2d38 <ticker_irq_handler>
    2d9a:	bf00      	nop
    2d9c:	000073ac 	.word	0x000073ac

00002da0 <wait_us>:
    2da0:	b538      	push	{r3, r4, r5, lr}
    2da2:	4605      	mov	r5, r0
    2da4:	f000 fdd2 	bl	394c <us_ticker_read>
    2da8:	4604      	mov	r4, r0
    2daa:	f000 fdcf 	bl	394c <us_ticker_read>
    2dae:	1b00      	subs	r0, r0, r4
    2db0:	42a8      	cmp	r0, r5
    2db2:	d3fa      	bcc.n	2daa <wait_us+0xa>
    2db4:	bd38      	pop	{r3, r4, r5, pc}
    2db6:	bf00      	nop

00002db8 <wait_ms>:
    2db8:	f44f 737a 	mov.w	r3, #1000	; 0x3e8
    2dbc:	fb03 f000 	mul.w	r0, r3, r0
    2dc0:	f7ff bfee 	b.w	2da0 <wait_us>

00002dc4 <NVIC_SetVector>:
    2dc4:	4b0c      	ldr	r3, [pc, #48]	; (2df8 <NVIC_SetVector+0x34>)
    2dc6:	b430      	push	{r4, r5}
    2dc8:	689d      	ldr	r5, [r3, #8]
    2dca:	689a      	ldr	r2, [r3, #8]
    2dcc:	462b      	mov	r3, r5
    2dce:	f1b2 5f80 	cmp.w	r2, #268435456	; 0x10000000
    2dd2:	d20c      	bcs.n	2dee <NVIC_SetVector+0x2a>
    2dd4:	4a09      	ldr	r2, [pc, #36]	; (2dfc <NVIC_SetVector+0x38>)
    2dd6:	35c4      	adds	r5, #196	; 0xc4
    2dd8:	f853 4b04 	ldr.w	r4, [r3], #4
    2ddc:	42ab      	cmp	r3, r5
    2dde:	f842 4f04 	str.w	r4, [r2, #4]!
    2de2:	d1f9      	bne.n	2dd8 <NVIC_SetVector+0x14>
    2de4:	f04f 5280 	mov.w	r2, #268435456	; 0x10000000
    2de8:	4613      	mov	r3, r2
    2dea:	4c03      	ldr	r4, [pc, #12]	; (2df8 <NVIC_SetVector+0x34>)
    2dec:	60a2      	str	r2, [r4, #8]
    2dee:	3010      	adds	r0, #16
    2df0:	f843 1020 	str.w	r1, [r3, r0, lsl #2]
    2df4:	bc30      	pop	{r4, r5}
    2df6:	4770      	bx	lr
    2df8:	e000ed00 	.word	0xe000ed00
    2dfc:	0ffffffc 	.word	0x0ffffffc

00002e00 <SystemInit>:
    2e00:	4a2b      	ldr	r2, [pc, #172]	; (2eb0 <SystemInit+0xb0>)
    2e02:	2320      	movs	r3, #32
    2e04:	b4f0      	push	{r4, r5, r6, r7}
    2e06:	f8c2 31a0 	str.w	r3, [r2, #416]	; 0x1a0
    2e0a:	f8d2 31a0 	ldr.w	r3, [r2, #416]	; 0x1a0
    2e0e:	0698      	lsls	r0, r3, #26
    2e10:	d445      	bmi.n	2e9e <SystemInit+0x9e>
    2e12:	4b27      	ldr	r3, [pc, #156]	; (2eb0 <SystemInit+0xb0>)
    2e14:	2500      	movs	r5, #0
    2e16:	4619      	mov	r1, r3
    2e18:	2401      	movs	r4, #1
    2e1a:	20aa      	movs	r0, #170	; 0xaa
    2e1c:	2255      	movs	r2, #85	; 0x55
    2e1e:	2702      	movs	r7, #2
    2e20:	260b      	movs	r6, #11
    2e22:	f8c3 7104 	str.w	r7, [r3, #260]	; 0x104
    2e26:	f8c3 51a8 	str.w	r5, [r3, #424]	; 0x1a8
    2e2a:	f8c3 51ac 	str.w	r5, [r3, #428]	; 0x1ac
    2e2e:	f8c3 410c 	str.w	r4, [r3, #268]	; 0x10c
    2e32:	f8c3 6084 	str.w	r6, [r3, #132]	; 0x84
    2e36:	f8c3 008c 	str.w	r0, [r3, #140]	; 0x8c
    2e3a:	f8c3 208c 	str.w	r2, [r3, #140]	; 0x8c
    2e3e:	f8c3 4080 	str.w	r4, [r3, #128]	; 0x80
    2e42:	f8c3 008c 	str.w	r0, [r3, #140]	; 0x8c
    2e46:	f8c3 208c 	str.w	r2, [r3, #140]	; 0x8c
    2e4a:	f8d1 3088 	ldr.w	r3, [r1, #136]	; 0x88
    2e4e:	4a18      	ldr	r2, [pc, #96]	; (2eb0 <SystemInit+0xb0>)
    2e50:	015b      	lsls	r3, r3, #5
    2e52:	d5fa      	bpl.n	2e4a <SystemInit+0x4a>
    2e54:	4611      	mov	r1, r2
    2e56:	2403      	movs	r4, #3
    2e58:	20aa      	movs	r0, #170	; 0xaa
    2e5a:	2355      	movs	r3, #85	; 0x55
    2e5c:	f8c2 4080 	str.w	r4, [r2, #128]	; 0x80
    2e60:	f8c2 008c 	str.w	r0, [r2, #140]	; 0x8c
    2e64:	f8c2 308c 	str.w	r3, [r2, #140]	; 0x8c
    2e68:	f8d1 3088 	ldr.w	r3, [r1, #136]	; 0x88
    2e6c:	4a10      	ldr	r2, [pc, #64]	; (2eb0 <SystemInit+0xb0>)
    2e6e:	f013 7f40 	tst.w	r3, #50331648	; 0x3000000
    2e72:	d0f9      	beq.n	2e68 <SystemInit+0x68>
    2e74:	490f      	ldr	r1, [pc, #60]	; (2eb4 <SystemInit+0xb4>)
    2e76:	2300      	movs	r3, #0
    2e78:	2005      	movs	r0, #5
    2e7a:	f8c2 0108 	str.w	r0, [r2, #264]	; 0x108
    2e7e:	f8c2 10c4 	str.w	r1, [r2, #196]	; 0xc4
    2e82:	f8c2 31c8 	str.w	r3, [r2, #456]	; 0x1c8
    2e86:	6813      	ldr	r3, [r2, #0]
    2e88:	bcf0      	pop	{r4, r5, r6, r7}
    2e8a:	f423 4370 	bic.w	r3, r3, #61440	; 0xf000
    2e8e:	f023 033a 	bic.w	r3, r3, #58	; 0x3a
    2e92:	f443 5340 	orr.w	r3, r3, #12288	; 0x3000
    2e96:	f043 033a 	orr.w	r3, r3, #58	; 0x3a
    2e9a:	6013      	str	r3, [r2, #0]
    2e9c:	4770      	bx	lr
    2e9e:	f8d2 31a0 	ldr.w	r3, [r2, #416]	; 0x1a0
    2ea2:	0659      	lsls	r1, r3, #25
    2ea4:	d4b5      	bmi.n	2e12 <SystemInit+0x12>
    2ea6:	f8d2 31a0 	ldr.w	r3, [r2, #416]	; 0x1a0
    2eaa:	0659      	lsls	r1, r3, #25
    2eac:	d5f7      	bpl.n	2e9e <SystemInit+0x9e>
    2eae:	e7b0      	b.n	2e12 <SystemInit+0x12>
    2eb0:	400fc000 	.word	0x400fc000
    2eb4:	042887de 	.word	0x042887de

00002eb8 <gpio_init>:
    2eb8:	1c4a      	adds	r2, r1, #1
    2eba:	6001      	str	r1, [r0, #0]
    2ebc:	d018      	beq.n	2ef0 <gpio_init+0x38>
    2ebe:	b538      	push	{r3, r4, r5, lr}
    2ec0:	460c      	mov	r4, r1
    2ec2:	4605      	mov	r5, r0
    2ec4:	2100      	movs	r1, #0
    2ec6:	4620      	mov	r0, r4
    2ec8:	f000 f82a 	bl	2f20 <pin_function>
    2ecc:	f024 011f 	bic.w	r1, r4, #31
    2ed0:	f004 021f 	and.w	r2, r4, #31
    2ed4:	2301      	movs	r3, #1
    2ed6:	4093      	lsls	r3, r2
    2ed8:	f101 0418 	add.w	r4, r1, #24
    2edc:	f101 001c 	add.w	r0, r1, #28
    2ee0:	f101 0214 	add.w	r2, r1, #20
    2ee4:	60a9      	str	r1, [r5, #8]
    2ee6:	606b      	str	r3, [r5, #4]
    2ee8:	60ec      	str	r4, [r5, #12]
    2eea:	6128      	str	r0, [r5, #16]
    2eec:	616a      	str	r2, [r5, #20]
    2eee:	bd38      	pop	{r3, r4, r5, pc}
    2ef0:	4770      	bx	lr
    2ef2:	bf00      	nop

00002ef4 <gpio_mode>:
    2ef4:	6800      	ldr	r0, [r0, #0]
    2ef6:	f000 b82f 	b.w	2f58 <pin_mode>
    2efa:	bf00      	nop

00002efc <gpio_dir>:
    2efc:	b141      	cbz	r1, 2f10 <gpio_dir+0x14>
    2efe:	2901      	cmp	r1, #1
    2f00:	d105      	bne.n	2f0e <gpio_dir+0x12>
    2f02:	6882      	ldr	r2, [r0, #8]
    2f04:	6843      	ldr	r3, [r0, #4]
    2f06:	6811      	ldr	r1, [r2, #0]
    2f08:	430b      	orrs	r3, r1
    2f0a:	6013      	str	r3, [r2, #0]
    2f0c:	4770      	bx	lr
    2f0e:	4770      	bx	lr
    2f10:	6882      	ldr	r2, [r0, #8]
    2f12:	6841      	ldr	r1, [r0, #4]
    2f14:	6813      	ldr	r3, [r2, #0]
    2f16:	ea23 0301 	bic.w	r3, r3, r1
    2f1a:	6013      	str	r3, [r2, #0]
    2f1c:	4770      	bx	lr
    2f1e:	bf00      	nop

00002f20 <pin_function>:
    2f20:	f100 4060 	add.w	r0, r0, #3758096384	; 0xe0000000
    2f24:	f5a0 201c 	sub.w	r0, r0, #638976	; 0x9c000
    2f28:	0903      	lsrs	r3, r0, #4
    2f2a:	009b      	lsls	r3, r3, #2
    2f2c:	f103 4380 	add.w	r3, r3, #1073741824	; 0x40000000
    2f30:	f503 3330 	add.w	r3, r3, #180224	; 0x2c000
    2f34:	0040      	lsls	r0, r0, #1
    2f36:	b410      	push	{r4}
    2f38:	f000 001e 	and.w	r0, r0, #30
    2f3c:	681c      	ldr	r4, [r3, #0]
    2f3e:	2203      	movs	r2, #3
    2f40:	4082      	lsls	r2, r0
    2f42:	ea24 0202 	bic.w	r2, r4, r2
    2f46:	601a      	str	r2, [r3, #0]
    2f48:	681a      	ldr	r2, [r3, #0]
    2f4a:	4081      	lsls	r1, r0
    2f4c:	ea41 0002 	orr.w	r0, r1, r2
    2f50:	6018      	str	r0, [r3, #0]
    2f52:	bc10      	pop	{r4}
    2f54:	4770      	bx	lr
    2f56:	bf00      	nop

00002f58 <pin_mode>:
    2f58:	f100 4060 	add.w	r0, r0, #3758096384	; 0xe0000000
    2f5c:	f5a0 201c 	sub.w	r0, r0, #638976	; 0x9c000
    2f60:	0943      	lsrs	r3, r0, #5
    2f62:	009b      	lsls	r3, r3, #2
    2f64:	f103 4380 	add.w	r3, r3, #1073741824	; 0x40000000
    2f68:	f503 3330 	add.w	r3, r3, #180224	; 0x2c000
    2f6c:	b430      	push	{r4, r5}
    2f6e:	f000 021f 	and.w	r2, r0, #31
    2f72:	6e9c      	ldr	r4, [r3, #104]	; 0x68
    2f74:	f3c1 0580 	ubfx	r5, r1, #2, #1
    2f78:	fa05 f202 	lsl.w	r2, r5, r2
    2f7c:	ea24 0402 	bic.w	r4, r4, r2
    2f80:	669c      	str	r4, [r3, #104]	; 0x68
    2f82:	6e9c      	ldr	r4, [r3, #104]	; 0x68
    2f84:	4322      	orrs	r2, r4
    2f86:	669a      	str	r2, [r3, #104]	; 0x68
    2f88:	b99d      	cbnz	r5, 2fb2 <pin_mode+0x5a>
    2f8a:	0903      	lsrs	r3, r0, #4
    2f8c:	009b      	lsls	r3, r3, #2
    2f8e:	f103 4380 	add.w	r3, r3, #1073741824	; 0x40000000
    2f92:	f503 3330 	add.w	r3, r3, #180224	; 0x2c000
    2f96:	0040      	lsls	r0, r0, #1
    2f98:	6c1c      	ldr	r4, [r3, #64]	; 0x40
    2f9a:	f000 001e 	and.w	r0, r0, #30
    2f9e:	2203      	movs	r2, #3
    2fa0:	4082      	lsls	r2, r0
    2fa2:	ea24 0202 	bic.w	r2, r4, r2
    2fa6:	641a      	str	r2, [r3, #64]	; 0x40
    2fa8:	6c1a      	ldr	r2, [r3, #64]	; 0x40
    2faa:	fa01 f000 	lsl.w	r0, r1, r0
    2fae:	4310      	orrs	r0, r2
    2fb0:	6418      	str	r0, [r3, #64]	; 0x40
    2fb2:	bc30      	pop	{r4, r5}
    2fb4:	4770      	bx	lr
    2fb6:	bf00      	nop

00002fb8 <pwmout_init>:
    2fb8:	b5f8      	push	{r3, r4, r5, r6, r7, lr}
    2fba:	460d      	mov	r5, r1
    2fbc:	4604      	mov	r4, r0
    2fbe:	492f      	ldr	r1, [pc, #188]	; (307c <pwmout_init+0xc4>)
    2fc0:	4628      	mov	r0, r5
    2fc2:	f7ff fe8b 	bl	2cdc <pinmap_peripheral>
    2fc6:	f644 6120 	movw	r1, #20000	; 0x4e20
    2fca:	4a2d      	ldr	r2, [pc, #180]	; (3080 <pwmout_init+0xc8>)
    2fcc:	4f2d      	ldr	r7, [pc, #180]	; (3084 <pwmout_init+0xcc>)
    2fce:	f8d2 30c4 	ldr.w	r3, [r2, #196]	; 0xc4
    2fd2:	b2c6      	uxtb	r6, r0
    2fd4:	f857 7026 	ldr.w	r7, [r7, r6, lsl #2]
    2fd8:	f043 0340 	orr.w	r3, r3, #64	; 0x40
    2fdc:	7120      	strb	r0, [r4, #4]
    2fde:	6027      	str	r7, [r4, #0]
    2fe0:	f8c2 30c4 	str.w	r3, [r2, #196]	; 0xc4
    2fe4:	f8d2 01a8 	ldr.w	r0, [r2, #424]	; 0x1a8
    2fe8:	4b27      	ldr	r3, [pc, #156]	; (3088 <pwmout_init+0xd0>)
    2fea:	f420 5040 	bic.w	r0, r0, #12288	; 0x3000
    2fee:	f04f 0e00 	mov.w	lr, #0
    2ff2:	2402      	movs	r4, #2
    2ff4:	f8c2 01a8 	str.w	r0, [r2, #424]	; 0x1a8
    2ff8:	f8c3 e00c 	str.w	lr, [r3, #12]
    2ffc:	615c      	str	r4, [r3, #20]
    2ffe:	6cd8      	ldr	r0, [r3, #76]	; 0x4c
    3000:	f106 0e08 	add.w	lr, r6, #8
    3004:	2201      	movs	r2, #1
    3006:	fa02 f20e 	lsl.w	r2, r2, lr
    300a:	4302      	orrs	r2, r0
    300c:	481f      	ldr	r0, [pc, #124]	; (308c <pwmout_init+0xd4>)
    300e:	64da      	str	r2, [r3, #76]	; 0x4c
    3010:	6802      	ldr	r2, [r0, #0]
    3012:	f8df e080 	ldr.w	lr, [pc, #128]	; 3094 <pwmout_init+0xdc>
    3016:	481e      	ldr	r0, [pc, #120]	; (3090 <pwmout_init+0xd8>)
    3018:	fbae e202 	umull	lr, r2, lr, r2
    301c:	0d12      	lsrs	r2, r2, #20
    301e:	fb01 f102 	mul.w	r1, r1, r2
    3022:	6002      	str	r2, [r0, #0]
    3024:	605c      	str	r4, [r3, #4]
    3026:	6199      	str	r1, [r3, #24]
    3028:	699a      	ldr	r2, [r3, #24]
    302a:	b132      	cbz	r2, 303a <pwmout_init+0x82>
    302c:	683a      	ldr	r2, [r7, #0]
    302e:	699b      	ldr	r3, [r3, #24]
    3030:	fb02 f101 	mul.w	r1, r2, r1
    3034:	fbb1 f1f3 	udiv	r1, r1, r3
    3038:	6039      	str	r1, [r7, #0]
    303a:	4c13      	ldr	r4, [pc, #76]	; (3088 <pwmout_init+0xd0>)
    303c:	2209      	movs	r2, #9
    303e:	6d23      	ldr	r3, [r4, #80]	; 0x50
    3040:	f043 0301 	orr.w	r3, r3, #1
    3044:	6523      	str	r3, [r4, #80]	; 0x50
    3046:	6062      	str	r2, [r4, #4]
    3048:	69a0      	ldr	r0, [r4, #24]
    304a:	f001 fd61 	bl	4b10 <__aeabi_ui2f>
    304e:	2100      	movs	r1, #0
    3050:	f001 fdb6 	bl	4bc0 <__aeabi_fmul>
    3054:	f001 ff7a 	bl	4f4c <__aeabi_f2uiz>
    3058:	69a3      	ldr	r3, [r4, #24]
    305a:	490b      	ldr	r1, [pc, #44]	; (3088 <pwmout_init+0xd0>)
    305c:	4298      	cmp	r0, r3
    305e:	bf08      	it	eq
    3060:	3001      	addeq	r0, #1
    3062:	6038      	str	r0, [r7, #0]
    3064:	6d0b      	ldr	r3, [r1, #80]	; 0x50
    3066:	2201      	movs	r2, #1
    3068:	fa02 f606 	lsl.w	r6, r2, r6
    306c:	431e      	orrs	r6, r3
    306e:	650e      	str	r6, [r1, #80]	; 0x50
    3070:	4628      	mov	r0, r5
    3072:	e8bd 40f8 	ldmia.w	sp!, {r3, r4, r5, r6, r7, lr}
    3076:	4901      	ldr	r1, [pc, #4]	; (307c <pwmout_init+0xc4>)
    3078:	f7ff bde8 	b.w	2c4c <pinmap_pinout>
    307c:	000073b4 	.word	0x000073b4
    3080:	400fc000 	.word	0x400fc000
    3084:	100000d0 	.word	0x100000d0
    3088:	40018000 	.word	0x40018000
    308c:	100000cc 	.word	0x100000cc
    3090:	10000810 	.word	0x10000810
    3094:	431bde83 	.word	0x431bde83

00003098 <pwmout_write>:
    3098:	b570      	push	{r4, r5, r6, lr}
    309a:	460c      	mov	r4, r1
    309c:	4605      	mov	r5, r0
    309e:	2100      	movs	r1, #0
    30a0:	4620      	mov	r0, r4
    30a2:	f001 ff2b 	bl	4efc <__aeabi_fcmplt>
    30a6:	b9f0      	cbnz	r0, 30e6 <pwmout_write+0x4e>
    30a8:	f04f 517e 	mov.w	r1, #1065353216	; 0x3f800000
    30ac:	4620      	mov	r0, r4
    30ae:	f001 ff43 	bl	4f38 <__aeabi_fcmpgt>
    30b2:	b108      	cbz	r0, 30b8 <pwmout_write+0x20>
    30b4:	f04f 547e 	mov.w	r4, #1065353216	; 0x3f800000
    30b8:	4e0c      	ldr	r6, [pc, #48]	; (30ec <pwmout_write+0x54>)
    30ba:	69b0      	ldr	r0, [r6, #24]
    30bc:	f001 fd28 	bl	4b10 <__aeabi_ui2f>
    30c0:	4621      	mov	r1, r4
    30c2:	f001 fd7d 	bl	4bc0 <__aeabi_fmul>
    30c6:	f001 ff41 	bl	4f4c <__aeabi_f2uiz>
    30ca:	69b3      	ldr	r3, [r6, #24]
    30cc:	4907      	ldr	r1, [pc, #28]	; (30ec <pwmout_write+0x54>)
    30ce:	4298      	cmp	r0, r3
    30d0:	682b      	ldr	r3, [r5, #0]
    30d2:	bf08      	it	eq
    30d4:	3001      	addeq	r0, #1
    30d6:	6018      	str	r0, [r3, #0]
    30d8:	7928      	ldrb	r0, [r5, #4]
    30da:	6d0a      	ldr	r2, [r1, #80]	; 0x50
    30dc:	2301      	movs	r3, #1
    30de:	4083      	lsls	r3, r0
    30e0:	4313      	orrs	r3, r2
    30e2:	650b      	str	r3, [r1, #80]	; 0x50
    30e4:	bd70      	pop	{r4, r5, r6, pc}
    30e6:	2400      	movs	r4, #0
    30e8:	e7e6      	b.n	30b8 <pwmout_write+0x20>
    30ea:	bf00      	nop
    30ec:	40018000 	.word	0x40018000

000030f0 <uart2_irq>:
    30f0:	4b15      	ldr	r3, [pc, #84]	; (3148 <uart2_irq+0x58>)
    30f2:	6899      	ldr	r1, [r3, #8]
    30f4:	f3c1 0142 	ubfx	r1, r1, #1, #3
    30f8:	2901      	cmp	r1, #1
    30fa:	d018      	beq.n	312e <uart2_irq+0x3e>
    30fc:	2902      	cmp	r1, #2
    30fe:	d114      	bne.n	312a <uart2_irq+0x3a>
    3100:	4a12      	ldr	r2, [pc, #72]	; (314c <uart2_irq+0x5c>)
    3102:	6f51      	ldr	r1, [r2, #116]	; 0x74
    3104:	3101      	adds	r1, #1
    3106:	d006      	beq.n	3116 <uart2_irq+0x26>
    3108:	f8d2 1080 	ldr.w	r1, [r2, #128]	; 0x80
    310c:	6f90      	ldr	r0, [r2, #120]	; 0x78
    310e:	6008      	str	r0, [r1, #0]
    3110:	f892 10a6 	ldrb.w	r1, [r2, #166]	; 0xa6
    3114:	b189      	cbz	r1, 313a <uart2_irq+0x4a>
    3116:	6f10      	ldr	r0, [r2, #112]	; 0x70
    3118:	4b0c      	ldr	r3, [pc, #48]	; (314c <uart2_irq+0x5c>)
    311a:	b138      	cbz	r0, 312c <uart2_irq+0x3c>
    311c:	f893 30a6 	ldrb.w	r3, [r3, #166]	; 0xa6
    3120:	b123      	cbz	r3, 312c <uart2_irq+0x3c>
    3122:	4b0b      	ldr	r3, [pc, #44]	; (3150 <uart2_irq+0x60>)
    3124:	2100      	movs	r1, #0
    3126:	681b      	ldr	r3, [r3, #0]
    3128:	4718      	bx	r3
    312a:	4770      	bx	lr
    312c:	4770      	bx	lr
    312e:	4b07      	ldr	r3, [pc, #28]	; (314c <uart2_irq+0x5c>)
    3130:	6f18      	ldr	r0, [r3, #112]	; 0x70
    3132:	b138      	cbz	r0, 3144 <uart2_irq+0x54>
    3134:	4b06      	ldr	r3, [pc, #24]	; (3150 <uart2_irq+0x60>)
    3136:	681b      	ldr	r3, [r3, #0]
    3138:	4718      	bx	r3
    313a:	6859      	ldr	r1, [r3, #4]
    313c:	f021 0101 	bic.w	r1, r1, #1
    3140:	6059      	str	r1, [r3, #4]
    3142:	e7e8      	b.n	3116 <uart2_irq+0x26>
    3144:	4770      	bx	lr
    3146:	bf00      	nop
    3148:	40098000 	.word	0x40098000
    314c:	1000081c 	.word	0x1000081c
    3150:	10000818 	.word	0x10000818

00003154 <serial_irq_set_internal>:
    3154:	b5f8      	push	{r3, r4, r5, r6, r7, lr}
    3156:	4c29      	ldr	r4, [pc, #164]	; (31fc <serial_irq_set_internal+0xa8>)
    3158:	6803      	ldr	r3, [r0, #0]
    315a:	42a3      	cmp	r3, r4
    315c:	d047      	beq.n	31ee <serial_irq_set_internal+0x9a>
    315e:	dd3f      	ble.n	31e0 <serial_irq_set_internal+0x8c>
    3160:	4c27      	ldr	r4, [pc, #156]	; (3200 <serial_irq_set_internal+0xac>)
    3162:	42a3      	cmp	r3, r4
    3164:	d029      	beq.n	31ba <serial_irq_set_internal+0x66>
    3166:	f504 4480 	add.w	r4, r4, #16384	; 0x4000
    316a:	42a3      	cmp	r3, r4
    316c:	d142      	bne.n	31f4 <serial_irq_set_internal+0xa0>
    316e:	4d25      	ldr	r5, [pc, #148]	; (3204 <serial_irq_set_internal+0xb0>)
    3170:	2608      	movs	r6, #8
    3172:	bb32      	cbnz	r2, 31c2 <serial_irq_set_internal+0x6e>
    3174:	2901      	cmp	r1, #1
    3176:	d00b      	beq.n	3190 <serial_irq_set_internal+0x3c>
    3178:	6842      	ldr	r2, [r0, #4]
    317a:	4c23      	ldr	r4, [pc, #140]	; (3208 <serial_irq_set_internal+0xb4>)
    317c:	ebc2 02c2 	rsb	r2, r2, r2, lsl #3
    3180:	eb04 02c2 	add.w	r2, r4, r2, lsl #3
    3184:	f892 4036 	ldrb.w	r4, [r2, #54]	; 0x36
    3188:	f892 2035 	ldrb.w	r2, [r2, #53]	; 0x35
    318c:	42d4      	cmn	r4, r2
    318e:	d113      	bne.n	31b8 <serial_irq_set_internal+0x64>
    3190:	fab1 f281 	clz	r2, r1
    3194:	685d      	ldr	r5, [r3, #4]
    3196:	2401      	movs	r4, #1
    3198:	fa04 f101 	lsl.w	r1, r4, r1
    319c:	ea25 0101 	bic.w	r1, r5, r1
    31a0:	6059      	str	r1, [r3, #4]
    31a2:	6803      	ldr	r3, [r0, #0]
    31a4:	0952      	lsrs	r2, r2, #5
    31a6:	685b      	ldr	r3, [r3, #4]
    31a8:	fa04 f202 	lsl.w	r2, r4, r2
    31ac:	421a      	tst	r2, r3
    31ae:	d103      	bne.n	31b8 <serial_irq_set_internal+0x64>
    31b0:	4b16      	ldr	r3, [pc, #88]	; (320c <serial_irq_set_internal+0xb8>)
    31b2:	40b4      	lsls	r4, r6
    31b4:	f8c3 4080 	str.w	r4, [r3, #128]	; 0x80
    31b8:	bdf8      	pop	{r3, r4, r5, r6, r7, pc}
    31ba:	4d15      	ldr	r5, [pc, #84]	; (3210 <serial_irq_set_internal+0xbc>)
    31bc:	2607      	movs	r6, #7
    31be:	2a00      	cmp	r2, #0
    31c0:	d0d8      	beq.n	3174 <serial_irq_set_internal+0x20>
    31c2:	6858      	ldr	r0, [r3, #4]
    31c4:	2701      	movs	r7, #1
    31c6:	fa07 f201 	lsl.w	r2, r7, r1
    31ca:	4302      	orrs	r2, r0
    31cc:	b274      	sxtb	r4, r6
    31ce:	605a      	str	r2, [r3, #4]
    31d0:	4629      	mov	r1, r5
    31d2:	4620      	mov	r0, r4
    31d4:	f7ff fdf6 	bl	2dc4 <NVIC_SetVector>
    31d8:	4b0c      	ldr	r3, [pc, #48]	; (320c <serial_irq_set_internal+0xb8>)
    31da:	40a7      	lsls	r7, r4
    31dc:	601f      	str	r7, [r3, #0]
    31de:	bdf8      	pop	{r3, r4, r5, r6, r7, pc}
    31e0:	f5a4 4480 	sub.w	r4, r4, #16384	; 0x4000
    31e4:	42a3      	cmp	r3, r4
    31e6:	d105      	bne.n	31f4 <serial_irq_set_internal+0xa0>
    31e8:	4d0a      	ldr	r5, [pc, #40]	; (3214 <serial_irq_set_internal+0xc0>)
    31ea:	2605      	movs	r6, #5
    31ec:	e7c1      	b.n	3172 <serial_irq_set_internal+0x1e>
    31ee:	4d0a      	ldr	r5, [pc, #40]	; (3218 <serial_irq_set_internal+0xc4>)
    31f0:	2606      	movs	r6, #6
    31f2:	e7be      	b.n	3172 <serial_irq_set_internal+0x1e>
    31f4:	2500      	movs	r5, #0
    31f6:	462e      	mov	r6, r5
    31f8:	e7bb      	b.n	3172 <serial_irq_set_internal+0x1e>
    31fa:	bf00      	nop
    31fc:	40010000 	.word	0x40010000
    3200:	40098000 	.word	0x40098000
    3204:	0000321d 	.word	0x0000321d
    3208:	1000081c 	.word	0x1000081c
    320c:	e000e100 	.word	0xe000e100
    3210:	000030f1 	.word	0x000030f1
    3214:	00003289 	.word	0x00003289
    3218:	000032e9 	.word	0x000032e9

0000321c <uart3_irq>:
    321c:	4b17      	ldr	r3, [pc, #92]	; (327c <uart3_irq+0x60>)
    321e:	6899      	ldr	r1, [r3, #8]
    3220:	f3c1 0142 	ubfx	r1, r1, #1, #3
    3224:	2901      	cmp	r1, #1
    3226:	d01b      	beq.n	3260 <uart3_irq+0x44>
    3228:	2902      	cmp	r1, #2
    322a:	d117      	bne.n	325c <uart3_irq+0x40>
    322c:	4a14      	ldr	r2, [pc, #80]	; (3280 <uart3_irq+0x64>)
    322e:	f8d2 10ac 	ldr.w	r1, [r2, #172]	; 0xac
    3232:	3101      	adds	r1, #1
    3234:	d007      	beq.n	3246 <uart3_irq+0x2a>
    3236:	f8d2 10b8 	ldr.w	r1, [r2, #184]	; 0xb8
    323a:	f8d2 00b0 	ldr.w	r0, [r2, #176]	; 0xb0
    323e:	6008      	str	r0, [r1, #0]
    3240:	f892 10de 	ldrb.w	r1, [r2, #222]	; 0xde
    3244:	b199      	cbz	r1, 326e <uart3_irq+0x52>
    3246:	f8d2 00a8 	ldr.w	r0, [r2, #168]	; 0xa8
    324a:	4b0d      	ldr	r3, [pc, #52]	; (3280 <uart3_irq+0x64>)
    324c:	b138      	cbz	r0, 325e <uart3_irq+0x42>
    324e:	f893 30de 	ldrb.w	r3, [r3, #222]	; 0xde
    3252:	b123      	cbz	r3, 325e <uart3_irq+0x42>
    3254:	4b0b      	ldr	r3, [pc, #44]	; (3284 <uart3_irq+0x68>)
    3256:	2100      	movs	r1, #0
    3258:	681b      	ldr	r3, [r3, #0]
    325a:	4718      	bx	r3
    325c:	4770      	bx	lr
    325e:	4770      	bx	lr
    3260:	4b07      	ldr	r3, [pc, #28]	; (3280 <uart3_irq+0x64>)
    3262:	f8d3 00a8 	ldr.w	r0, [r3, #168]	; 0xa8
    3266:	b138      	cbz	r0, 3278 <uart3_irq+0x5c>
    3268:	4b06      	ldr	r3, [pc, #24]	; (3284 <uart3_irq+0x68>)
    326a:	681b      	ldr	r3, [r3, #0]
    326c:	4718      	bx	r3
    326e:	6859      	ldr	r1, [r3, #4]
    3270:	f021 0101 	bic.w	r1, r1, #1
    3274:	6059      	str	r1, [r3, #4]
    3276:	e7e6      	b.n	3246 <uart3_irq+0x2a>
    3278:	4770      	bx	lr
    327a:	bf00      	nop
    327c:	4009c000 	.word	0x4009c000
    3280:	1000081c 	.word	0x1000081c
    3284:	10000818 	.word	0x10000818

00003288 <uart0_irq>:
    3288:	4b14      	ldr	r3, [pc, #80]	; (32dc <uart0_irq+0x54>)
    328a:	6899      	ldr	r1, [r3, #8]
    328c:	f3c1 0142 	ubfx	r1, r1, #1, #3
    3290:	2901      	cmp	r1, #1
    3292:	d017      	beq.n	32c4 <uart0_irq+0x3c>
    3294:	2902      	cmp	r1, #2
    3296:	d113      	bne.n	32c0 <uart0_irq+0x38>
    3298:	4a11      	ldr	r2, [pc, #68]	; (32e0 <uart0_irq+0x58>)
    329a:	6851      	ldr	r1, [r2, #4]
    329c:	3101      	adds	r1, #1
    329e:	d005      	beq.n	32ac <uart0_irq+0x24>
    32a0:	6911      	ldr	r1, [r2, #16]
    32a2:	6890      	ldr	r0, [r2, #8]
    32a4:	6008      	str	r0, [r1, #0]
    32a6:	f892 1036 	ldrb.w	r1, [r2, #54]	; 0x36
    32aa:	b189      	cbz	r1, 32d0 <uart0_irq+0x48>
    32ac:	6810      	ldr	r0, [r2, #0]
    32ae:	4b0c      	ldr	r3, [pc, #48]	; (32e0 <uart0_irq+0x58>)
    32b0:	b138      	cbz	r0, 32c2 <uart0_irq+0x3a>
    32b2:	f893 3036 	ldrb.w	r3, [r3, #54]	; 0x36
    32b6:	b123      	cbz	r3, 32c2 <uart0_irq+0x3a>
    32b8:	4b0a      	ldr	r3, [pc, #40]	; (32e4 <uart0_irq+0x5c>)
    32ba:	2100      	movs	r1, #0
    32bc:	681b      	ldr	r3, [r3, #0]
    32be:	4718      	bx	r3
    32c0:	4770      	bx	lr
    32c2:	4770      	bx	lr
    32c4:	4b06      	ldr	r3, [pc, #24]	; (32e0 <uart0_irq+0x58>)
    32c6:	6818      	ldr	r0, [r3, #0]
    32c8:	b138      	cbz	r0, 32da <uart0_irq+0x52>
    32ca:	4b06      	ldr	r3, [pc, #24]	; (32e4 <uart0_irq+0x5c>)
    32cc:	681b      	ldr	r3, [r3, #0]
    32ce:	4718      	bx	r3
    32d0:	6859      	ldr	r1, [r3, #4]
    32d2:	f021 0101 	bic.w	r1, r1, #1
    32d6:	6059      	str	r1, [r3, #4]
    32d8:	e7e8      	b.n	32ac <uart0_irq+0x24>
    32da:	4770      	bx	lr
    32dc:	4000c000 	.word	0x4000c000
    32e0:	1000081c 	.word	0x1000081c
    32e4:	10000818 	.word	0x10000818

000032e8 <uart1_irq>:
    32e8:	4b14      	ldr	r3, [pc, #80]	; (333c <uart1_irq+0x54>)
    32ea:	6899      	ldr	r1, [r3, #8]
    32ec:	f3c1 0142 	ubfx	r1, r1, #1, #3
    32f0:	2901      	cmp	r1, #1
    32f2:	d017      	beq.n	3324 <uart1_irq+0x3c>
    32f4:	2902      	cmp	r1, #2
    32f6:	d113      	bne.n	3320 <uart1_irq+0x38>
    32f8:	4a11      	ldr	r2, [pc, #68]	; (3340 <uart1_irq+0x58>)
    32fa:	6bd1      	ldr	r1, [r2, #60]	; 0x3c
    32fc:	3101      	adds	r1, #1
    32fe:	d005      	beq.n	330c <uart1_irq+0x24>
    3300:	6c91      	ldr	r1, [r2, #72]	; 0x48
    3302:	6c10      	ldr	r0, [r2, #64]	; 0x40
    3304:	6008      	str	r0, [r1, #0]
    3306:	f892 106e 	ldrb.w	r1, [r2, #110]	; 0x6e
    330a:	b189      	cbz	r1, 3330 <uart1_irq+0x48>
    330c:	6b90      	ldr	r0, [r2, #56]	; 0x38
    330e:	4b0c      	ldr	r3, [pc, #48]	; (3340 <uart1_irq+0x58>)
    3310:	b138      	cbz	r0, 3322 <uart1_irq+0x3a>
    3312:	f893 306e 	ldrb.w	r3, [r3, #110]	; 0x6e
    3316:	b123      	cbz	r3, 3322 <uart1_irq+0x3a>
    3318:	4b0a      	ldr	r3, [pc, #40]	; (3344 <uart1_irq+0x5c>)
    331a:	2100      	movs	r1, #0
    331c:	681b      	ldr	r3, [r3, #0]
    331e:	4718      	bx	r3
    3320:	4770      	bx	lr
    3322:	4770      	bx	lr
    3324:	4b06      	ldr	r3, [pc, #24]	; (3340 <uart1_irq+0x58>)
    3326:	6b98      	ldr	r0, [r3, #56]	; 0x38
    3328:	b138      	cbz	r0, 333a <uart1_irq+0x52>
    332a:	4b06      	ldr	r3, [pc, #24]	; (3344 <uart1_irq+0x5c>)
    332c:	681b      	ldr	r3, [r3, #0]
    332e:	4718      	bx	r3
    3330:	6859      	ldr	r1, [r3, #4]
    3332:	f021 0101 	bic.w	r1, r1, #1
    3336:	6059      	str	r1, [r3, #4]
    3338:	e7e8      	b.n	330c <uart1_irq+0x24>
    333a:	4770      	bx	lr
    333c:	40010000 	.word	0x40010000
    3340:	1000081c 	.word	0x1000081c
    3344:	10000818 	.word	0x10000818

00003348 <serial_baud>:
    3348:	e92d 4ff0 	stmdb	sp!, {r4, r5, r6, r7, r8, r9, r10, r11, lr}
    334c:	6802      	ldr	r2, [r0, #0]
    334e:	4b6e      	ldr	r3, [pc, #440]	; (3508 <serial_baud+0x1c0>)
    3350:	b089      	sub	sp, #36	; 0x24
    3352:	429a      	cmp	r2, r3
    3354:	9007      	str	r0, [sp, #28]
    3356:	9206      	str	r2, [sp, #24]
    3358:	f000 80c8 	beq.w	34ec <serial_baud+0x1a4>
    335c:	f340 80b4 	ble.w	34c8 <serial_baud+0x180>
    3360:	4b6a      	ldr	r3, [pc, #424]	; (350c <serial_baud+0x1c4>)
    3362:	9806      	ldr	r0, [sp, #24]
    3364:	4298      	cmp	r0, r3
    3366:	d072      	beq.n	344e <serial_baud+0x106>
    3368:	f503 4380 	add.w	r3, r3, #16384	; 0x4000
    336c:	4298      	cmp	r0, r3
    336e:	f040 809d 	bne.w	34ac <serial_baud+0x164>
    3372:	4b67      	ldr	r3, [pc, #412]	; (3510 <serial_baud+0x1c8>)
    3374:	f8d3 21ac 	ldr.w	r2, [r3, #428]	; 0x1ac
    3378:	f422 2240 	bic.w	r2, r2, #786432	; 0xc0000
    337c:	f8c3 21ac 	str.w	r2, [r3, #428]	; 0x1ac
    3380:	f8d3 21ac 	ldr.w	r2, [r3, #428]	; 0x1ac
    3384:	f442 2280 	orr.w	r2, r2, #262144	; 0x40000
    3388:	f8c3 21ac 	str.w	r2, [r3, #428]	; 0x1ac
    338c:	4a61      	ldr	r2, [pc, #388]	; (3514 <serial_baud+0x1cc>)
    338e:	010b      	lsls	r3, r1, #4
    3390:	6812      	ldr	r2, [r2, #0]
    3392:	fbb2 f0f3 	udiv	r0, r2, r3
    3396:	fb03 2310 	mls	r3, r3, r0, r2
    339a:	9203      	str	r2, [sp, #12]
    339c:	b280      	uxth	r0, r0
    339e:	2b00      	cmp	r3, #0
    33a0:	f000 8090 	beq.w	34c4 <serial_baud+0x17c>
    33a4:	9b03      	ldr	r3, [sp, #12]
    33a6:	f04f 0801 	mov.w	r8, #1
    33aa:	005a      	lsls	r2, r3, #1
    33ac:	009c      	lsls	r4, r3, #2
    33ae:	4694      	mov	r12, r2
    33b0:	46a2      	mov	r10, r4
    33b2:	46c3      	mov	r11, r8
    33b4:	468e      	mov	lr, r1
    33b6:	4699      	mov	r9, r3
    33b8:	2300      	movs	r3, #0
    33ba:	9205      	str	r2, [sp, #20]
    33bc:	9404      	str	r4, [sp, #16]
    33be:	9000      	str	r0, [sp, #0]
    33c0:	9102      	str	r1, [sp, #8]
    33c2:	9301      	str	r3, [sp, #4]
    33c4:	2400      	movs	r4, #0
    33c6:	4625      	mov	r5, r4
    33c8:	9e02      	ldr	r6, [sp, #8]
    33ca:	fa5f f788 	uxtb.w	r7, r8
    33ce:	f1bc 0f00 	cmp.w	r12, #0
    33d2:	bfb5      	itete	lt
    33d4:	fbbc f0f6 	udivlt	r0, r12, r6
    33d8:	fbba f0f6 	udivge	r0, r10, r6
    33dc:	0900      	lsrlt	r0, r0, #4
    33de:	0940      	lsrge	r0, r0, #5
    33e0:	3001      	adds	r0, #1
    33e2:	f3c0 004f 	ubfx	r0, r0, #1, #16
    33e6:	eb08 0204 	add.w	r2, r8, r4
    33ea:	2800      	cmp	r0, #0
    33ec:	d03d      	beq.n	346a <serial_baud+0x122>
    33ee:	b10c      	cbz	r4, 33f4 <serial_baud+0xac>
    33f0:	2801      	cmp	r0, #1
    33f2:	d03b      	beq.n	346c <serial_baud+0x124>
    33f4:	4603      	mov	r3, r0
    33f6:	fb03 f302 	mul.w	r3, r3, r2
    33fa:	00db      	lsls	r3, r3, #3
    33fc:	fbb9 f3f3 	udiv	r3, r9, r3
    3400:	3301      	adds	r3, #1
    3402:	ebc1 0353 	rsb	r3, r1, r3, lsr #1
    3406:	2b00      	cmp	r3, #0
    3408:	bfb8      	it	lt
    340a:	425b      	neglt	r3, r3
    340c:	4573      	cmp	r3, lr
    340e:	da05      	bge.n	341c <serial_baud+0xd4>
    3410:	4299      	cmp	r1, r3
    3412:	d030      	beq.n	3476 <serial_baud+0x12e>
    3414:	469e      	mov	lr, r3
    3416:	46bb      	mov	r11, r7
    3418:	e88d 0021 	stmia.w	sp, {r0, r5}
    341c:	3401      	adds	r4, #1
    341e:	b2e5      	uxtb	r5, r4
    3420:	42af      	cmp	r7, r5
    3422:	440e      	add	r6, r1
    3424:	d8d3      	bhi.n	33ce <serial_baud+0x86>
    3426:	9b03      	ldr	r3, [sp, #12]
    3428:	f108 0801 	add.w	r8, r8, #1
    342c:	4499      	add	r9, r3
    342e:	9b05      	ldr	r3, [sp, #20]
    3430:	f1b8 0f10 	cmp.w	r8, #16
    3434:	449c      	add	r12, r3
    3436:	9b04      	ldr	r3, [sp, #16]
    3438:	449a      	add	r10, r3
    343a:	9b02      	ldr	r3, [sp, #8]
    343c:	440b      	add	r3, r1
    343e:	9302      	str	r3, [sp, #8]
    3440:	d1c0      	bne.n	33c4 <serial_baud+0x7c>
    3442:	9b01      	ldr	r3, [sp, #4]
    3444:	9800      	ldr	r0, [sp, #0]
    3446:	ea43 150b 	orr.w	r5, r3, r11, lsl #4
    344a:	b2ed      	uxtb	r5, r5
    344c:	e016      	b.n	347c <serial_baud+0x134>
    344e:	4b30      	ldr	r3, [pc, #192]	; (3510 <serial_baud+0x1c8>)
    3450:	f8d3 21ac 	ldr.w	r2, [r3, #428]	; 0x1ac
    3454:	f422 3240 	bic.w	r2, r2, #196608	; 0x30000
    3458:	f8c3 21ac 	str.w	r2, [r3, #428]	; 0x1ac
    345c:	f8d3 21ac 	ldr.w	r2, [r3, #428]	; 0x1ac
    3460:	f442 3280 	orr.w	r2, r2, #65536	; 0x10000
    3464:	f8c3 21ac 	str.w	r2, [r3, #428]	; 0x1ac
    3468:	e790      	b.n	338c <serial_baud+0x44>
    346a:	b114      	cbz	r4, 3472 <serial_baud+0x12a>
    346c:	2002      	movs	r0, #2
    346e:	4603      	mov	r3, r0
    3470:	e7c1      	b.n	33f6 <serial_baud+0xae>
    3472:	2001      	movs	r0, #1
    3474:	e7be      	b.n	33f4 <serial_baud+0xac>
    3476:	ea45 1507 	orr.w	r5, r5, r7, lsl #4
    347a:	b2ed      	uxtb	r5, r5
    347c:	9906      	ldr	r1, [sp, #24]
    347e:	f3c0 2207 	ubfx	r2, r0, #8, #8
    3482:	7b0b      	ldrb	r3, [r1, #12]
    3484:	b2c0      	uxtb	r0, r0
    3486:	f043 0380 	orr.w	r3, r3, #128	; 0x80
    348a:	730b      	strb	r3, [r1, #12]
    348c:	9907      	ldr	r1, [sp, #28]
    348e:	680b      	ldr	r3, [r1, #0]
    3490:	711a      	strb	r2, [r3, #4]
    3492:	680b      	ldr	r3, [r1, #0]
    3494:	7018      	strb	r0, [r3, #0]
    3496:	680b      	ldr	r3, [r1, #0]
    3498:	f883 5028 	strb.w	r5, [r3, #40]	; 0x28
    349c:	680a      	ldr	r2, [r1, #0]
    349e:	7b13      	ldrb	r3, [r2, #12]
    34a0:	f003 037f 	and.w	r3, r3, #127	; 0x7f
    34a4:	7313      	strb	r3, [r2, #12]
    34a6:	b009      	add	sp, #36	; 0x24
    34a8:	e8bd 8ff0 	ldmia.w	sp!, {r4, r5, r6, r7, r8, r9, r10, r11, pc}
    34ac:	4a19      	ldr	r2, [pc, #100]	; (3514 <serial_baud+0x1cc>)
    34ae:	010b      	lsls	r3, r1, #4
    34b0:	6812      	ldr	r2, [r2, #0]
    34b2:	fbb2 f0f3 	udiv	r0, r2, r3
    34b6:	fb03 2310 	mls	r3, r3, r0, r2
    34ba:	9203      	str	r2, [sp, #12]
    34bc:	b280      	uxth	r0, r0
    34be:	2b00      	cmp	r3, #0
    34c0:	f47f af70 	bne.w	33a4 <serial_baud+0x5c>
    34c4:	2510      	movs	r5, #16
    34c6:	e7d9      	b.n	347c <serial_baud+0x134>
    34c8:	f5a3 4380 	sub.w	r3, r3, #16384	; 0x4000
    34cc:	429a      	cmp	r2, r3
    34ce:	d1ed      	bne.n	34ac <serial_baud+0x164>
    34d0:	4b0f      	ldr	r3, [pc, #60]	; (3510 <serial_baud+0x1c8>)
    34d2:	f8d3 21a8 	ldr.w	r2, [r3, #424]	; 0x1a8
    34d6:	f022 02c0 	bic.w	r2, r2, #192	; 0xc0
    34da:	f8c3 21a8 	str.w	r2, [r3, #424]	; 0x1a8
    34de:	f8d3 21a8 	ldr.w	r2, [r3, #424]	; 0x1a8
    34e2:	f042 0240 	orr.w	r2, r2, #64	; 0x40
    34e6:	f8c3 21a8 	str.w	r2, [r3, #424]	; 0x1a8
    34ea:	e74f      	b.n	338c <serial_baud+0x44>
    34ec:	4b08      	ldr	r3, [pc, #32]	; (3510 <serial_baud+0x1c8>)
    34ee:	f8d3 21a8 	ldr.w	r2, [r3, #424]	; 0x1a8
    34f2:	f422 7240 	bic.w	r2, r2, #768	; 0x300
    34f6:	f8c3 21a8 	str.w	r2, [r3, #424]	; 0x1a8
    34fa:	f8d3 21a8 	ldr.w	r2, [r3, #424]	; 0x1a8
    34fe:	f442 7280 	orr.w	r2, r2, #256	; 0x100
    3502:	f8c3 21a8 	str.w	r2, [r3, #424]	; 0x1a8
    3506:	e741      	b.n	338c <serial_baud+0x44>
    3508:	40010000 	.word	0x40010000
    350c:	40098000 	.word	0x40098000
    3510:	400fc000 	.word	0x400fc000
    3514:	100000cc 	.word	0x100000cc

00003518 <serial_irq_handler>:
    3518:	6843      	ldr	r3, [r0, #4]
    351a:	b410      	push	{r4}
    351c:	4804      	ldr	r0, [pc, #16]	; (3530 <serial_irq_handler+0x18>)
    351e:	4c05      	ldr	r4, [pc, #20]	; (3534 <serial_irq_handler+0x1c>)
    3520:	ebc3 03c3 	rsb	r3, r3, r3, lsl #3
    3524:	f844 2033 	str.w	r2, [r4, r3, lsl #3]
    3528:	6001      	str	r1, [r0, #0]
    352a:	bc10      	pop	{r4}
    352c:	4770      	bx	lr
    352e:	bf00      	nop
    3530:	10000818 	.word	0x10000818
    3534:	1000081c 	.word	0x1000081c

00003538 <serial_irq_set>:
    3538:	b959      	cbnz	r1, 3552 <serial_irq_set+0x1a>
    353a:	6843      	ldr	r3, [r0, #4]
    353c:	b410      	push	{r4}
    353e:	4c06      	ldr	r4, [pc, #24]	; (3558 <serial_irq_set+0x20>)
    3540:	ebc3 03c3 	rsb	r3, r3, r3, lsl #3
    3544:	eb04 03c3 	add.w	r3, r4, r3, lsl #3
    3548:	f883 2036 	strb.w	r2, [r3, #54]	; 0x36
    354c:	bc10      	pop	{r4}
    354e:	f7ff be01 	b.w	3154 <serial_irq_set_internal>
    3552:	f7ff bdff 	b.w	3154 <serial_irq_set_internal>
    3556:	bf00      	nop
    3558:	1000081c 	.word	0x1000081c

0000355c <serial_getc>:
    355c:	6802      	ldr	r2, [r0, #0]
    355e:	7d13      	ldrb	r3, [r2, #20]
    3560:	07db      	lsls	r3, r3, #31
    3562:	d5fc      	bpl.n	355e <serial_getc+0x2>
    3564:	6843      	ldr	r3, [r0, #4]
    3566:	4909      	ldr	r1, [pc, #36]	; (358c <serial_getc+0x30>)
    3568:	ebc3 03c3 	rsb	r3, r3, r3, lsl #3
    356c:	eb01 03c3 	add.w	r3, r1, r3, lsl #3
    3570:	6859      	ldr	r1, [r3, #4]
    3572:	7810      	ldrb	r0, [r2, #0]
    3574:	3101      	adds	r1, #1
    3576:	b2c0      	uxtb	r0, r0
    3578:	d006      	beq.n	3588 <serial_getc+0x2c>
    357a:	6959      	ldr	r1, [r3, #20]
    357c:	689b      	ldr	r3, [r3, #8]
    357e:	600b      	str	r3, [r1, #0]
    3580:	6853      	ldr	r3, [r2, #4]
    3582:	f043 0301 	orr.w	r3, r3, #1
    3586:	6053      	str	r3, [r2, #4]
    3588:	4770      	bx	lr
    358a:	bf00      	nop
    358c:	1000081c 	.word	0x1000081c

00003590 <serial_writable>:
    3590:	6843      	ldr	r3, [r0, #4]
    3592:	4a15      	ldr	r2, [pc, #84]	; (35e8 <serial_writable+0x58>)
    3594:	ebc3 03c3 	rsb	r3, r3, r3, lsl #3
    3598:	00db      	lsls	r3, r3, #3
    359a:	18d1      	adds	r1, r2, r3
    359c:	b410      	push	{r4}
    359e:	69cc      	ldr	r4, [r1, #28]
    35a0:	3401      	adds	r4, #1
    35a2:	d00f      	beq.n	35c4 <serial_writable+0x34>
    35a4:	460b      	mov	r3, r1
    35a6:	6b0a      	ldr	r2, [r1, #48]	; 0x30
    35a8:	331c      	adds	r3, #28
    35aa:	685b      	ldr	r3, [r3, #4]
    35ac:	6812      	ldr	r2, [r2, #0]
    35ae:	421a      	tst	r2, r3
    35b0:	d105      	bne.n	35be <serial_writable+0x2e>
    35b2:	6803      	ldr	r3, [r0, #0]
    35b4:	bc10      	pop	{r4}
    35b6:	7d18      	ldrb	r0, [r3, #20]
    35b8:	f3c0 1080 	ubfx	r0, r0, #6, #1
    35bc:	4770      	bx	lr
    35be:	2000      	movs	r0, #0
    35c0:	bc10      	pop	{r4}
    35c2:	4770      	bx	lr
    35c4:	6803      	ldr	r3, [r0, #0]
    35c6:	7d1b      	ldrb	r3, [r3, #20]
    35c8:	069b      	lsls	r3, r3, #26
    35ca:	d407      	bmi.n	35dc <serial_writable+0x4c>
    35cc:	f891 0034 	ldrb.w	r0, [r1, #52]	; 0x34
    35d0:	bc10      	pop	{r4}
    35d2:	280f      	cmp	r0, #15
    35d4:	bf8c      	ite	hi
    35d6:	2000      	movhi	r0, #0
    35d8:	2001      	movls	r0, #1
    35da:	4770      	bx	lr
    35dc:	2300      	movs	r3, #0
    35de:	f881 3034 	strb.w	r3, [r1, #52]	; 0x34
    35e2:	2001      	movs	r0, #1
    35e4:	bc10      	pop	{r4}
    35e6:	4770      	bx	lr
    35e8:	1000081c 	.word	0x1000081c

000035ec <serial_putc>:
    35ec:	b538      	push	{r3, r4, r5, lr}
    35ee:	4604      	mov	r4, r0
    35f0:	460d      	mov	r5, r1
    35f2:	4620      	mov	r0, r4
    35f4:	f7ff ffcc 	bl	3590 <serial_writable>
    35f8:	2800      	cmp	r0, #0
    35fa:	d0fa      	beq.n	35f2 <serial_putc+0x6>
    35fc:	6823      	ldr	r3, [r4, #0]
    35fe:	b2ed      	uxtb	r5, r5
    3600:	701d      	strb	r5, [r3, #0]
    3602:	6863      	ldr	r3, [r4, #4]
    3604:	4a05      	ldr	r2, [pc, #20]	; (361c <serial_putc+0x30>)
    3606:	ebc3 03c3 	rsb	r3, r3, r3, lsl #3
    360a:	eb02 03c3 	add.w	r3, r2, r3, lsl #3
    360e:	f893 2034 	ldrb.w	r2, [r3, #52]	; 0x34
    3612:	3201      	adds	r2, #1
    3614:	f883 2034 	strb.w	r2, [r3, #52]	; 0x34
    3618:	bd38      	pop	{r3, r4, r5, pc}
    361a:	bf00      	nop
    361c:	1000081c 	.word	0x1000081c

00003620 <serial_set_flow_control>:
    3620:	e92d 4ff0 	stmdb	sp!, {r4, r5, r6, r7, r8, r9, r10, r11, lr}
    3624:	4605      	mov	r5, r0
    3626:	4844      	ldr	r0, [pc, #272]	; (3738 <serial_set_flow_control+0x118>)
    3628:	682c      	ldr	r4, [r5, #0]
    362a:	b083      	sub	sp, #12
    362c:	4284      	cmp	r4, r0
    362e:	460f      	mov	r7, r1
    3630:	4691      	mov	r9, r2
    3632:	469a      	mov	r10, r3
    3634:	d01d      	beq.n	3672 <serial_set_flow_control+0x52>
    3636:	686e      	ldr	r6, [r5, #4]
    3638:	2400      	movs	r4, #0
    363a:	4632      	mov	r2, r6
    363c:	f8df b104 	ldr.w	r11, [pc, #260]	; 3744 <serial_set_flow_control+0x124>
    3640:	ea4f 08c6 	mov.w	r8, r6, lsl #3
    3644:	ebc2 01c2 	rsb	r1, r2, r2, lsl #3
    3648:	ebc6 0008 	rsb	r0, r6, r8
    364c:	eb0b 00c0 	add.w	r0, r11, r0, lsl #3
    3650:	2200      	movs	r2, #0
    3652:	eb0b 01c1 	add.w	r1, r11, r1, lsl #3
    3656:	f04f 33ff 	mov.w	r3, #4294967295
    365a:	f881 2035 	strb.w	r2, [r1, #53]	; 0x35
    365e:	61c3      	str	r3, [r0, #28]
    3660:	6043      	str	r3, [r0, #4]
    3662:	4611      	mov	r1, r2
    3664:	4628      	mov	r0, r5
    3666:	f7ff fd75 	bl	3154 <serial_irq_set_internal>
    366a:	b94f      	cbnz	r7, 3680 <serial_set_flow_control+0x60>
    366c:	b003      	add	sp, #12
    366e:	e8bd 8ff0 	ldmia.w	sp!, {r4, r5, r6, r7, r8, r9, r10, r11, pc}
    3672:	7c23      	ldrb	r3, [r4, #16]
    3674:	686e      	ldr	r6, [r5, #4]
    3676:	f003 033f 	and.w	r3, r3, #63	; 0x3f
    367a:	7423      	strb	r3, [r4, #16]
    367c:	686a      	ldr	r2, [r5, #4]
    367e:	e7dd      	b.n	363c <serial_set_flow_control+0x1c>
    3680:	492e      	ldr	r1, [pc, #184]	; (373c <serial_set_flow_control+0x11c>)
    3682:	4648      	mov	r0, r9
    3684:	f7ff fb1a 	bl	2cbc <pinmap_find_peripheral>
    3688:	492d      	ldr	r1, [pc, #180]	; (3740 <serial_set_flow_control+0x120>)
    368a:	9001      	str	r0, [sp, #4]
    368c:	4650      	mov	r0, r10
    368e:	f7ff fb15 	bl	2cbc <pinmap_find_peripheral>
    3692:	1eba      	subs	r2, r7, #2
    3694:	2a01      	cmp	r2, #1
    3696:	d930      	bls.n	36fa <serial_set_flow_control+0xda>
    3698:	2f01      	cmp	r7, #1
    369a:	d1e7      	bne.n	366c <serial_set_flow_control+0x4c>
    369c:	f1b9 3fff 	cmp.w	r9, #4294967295
    36a0:	d0e4      	beq.n	366c <serial_set_flow_control+0x4c>
    36a2:	4a25      	ldr	r2, [pc, #148]	; (3738 <serial_set_flow_control+0x118>)
    36a4:	9b01      	ldr	r3, [sp, #4]
    36a6:	6829      	ldr	r1, [r5, #0]
    36a8:	2007      	movs	r0, #7
    36aa:	4293      	cmp	r3, r2
    36ac:	7208      	strb	r0, [r1, #8]
    36ae:	d10b      	bne.n	36c8 <serial_set_flow_control+0xa8>
    36b0:	b154      	cbz	r4, 36c8 <serial_set_flow_control+0xa8>
    36b2:	4648      	mov	r0, r9
    36b4:	7c23      	ldrb	r3, [r4, #16]
    36b6:	4921      	ldr	r1, [pc, #132]	; (373c <serial_set_flow_control+0x11c>)
    36b8:	f043 0340 	orr.w	r3, r3, #64	; 0x40
    36bc:	7423      	strb	r3, [r4, #16]
    36be:	b003      	add	sp, #12
    36c0:	e8bd 4ff0 	ldmia.w	sp!, {r4, r5, r6, r7, r8, r9, r10, r11, lr}
    36c4:	f7ff bac2 	b.w	2c4c <pinmap_pinout>
    36c8:	ebc6 0608 	rsb	r6, r6, r8
    36cc:	eb0b 00c6 	add.w	r0, r11, r6, lsl #3
    36d0:	4649      	mov	r1, r9
    36d2:	3004      	adds	r0, #4
    36d4:	2200      	movs	r2, #0
    36d6:	f7ff fa9b 	bl	2c10 <gpio_init_out_ex>
    36da:	686a      	ldr	r2, [r5, #4]
    36dc:	2401      	movs	r4, #1
    36de:	ebc2 02c2 	rsb	r2, r2, r2, lsl #3
    36e2:	eb0b 03c2 	add.w	r3, r11, r2, lsl #3
    36e6:	4628      	mov	r0, r5
    36e8:	4622      	mov	r2, r4
    36ea:	2100      	movs	r1, #0
    36ec:	f883 4035 	strb.w	r4, [r3, #53]	; 0x35
    36f0:	b003      	add	sp, #12
    36f2:	e8bd 4ff0 	ldmia.w	sp!, {r4, r5, r6, r7, r8, r9, r10, r11, lr}
    36f6:	f7ff bd2d 	b.w	3154 <serial_irq_set_internal>
    36fa:	f1ba 3fff 	cmp.w	r10, #4294967295
    36fe:	d00a      	beq.n	3716 <serial_set_flow_control+0xf6>
    3700:	4a0d      	ldr	r2, [pc, #52]	; (3738 <serial_set_flow_control+0x118>)
    3702:	4290      	cmp	r0, r2
    3704:	d00d      	beq.n	3722 <serial_set_flow_control+0x102>
    3706:	ebc6 0008 	rsb	r0, r6, r8
    370a:	eb0b 00c0 	add.w	r0, r11, r0, lsl #3
    370e:	4651      	mov	r1, r10
    3710:	301c      	adds	r0, #28
    3712:	f7ff fa55 	bl	2bc0 <gpio_init_in>
    3716:	2f03      	cmp	r7, #3
    3718:	d1a8      	bne.n	366c <serial_set_flow_control+0x4c>
    371a:	f1b9 3fff 	cmp.w	r9, #4294967295
    371e:	d1c0      	bne.n	36a2 <serial_set_flow_control+0x82>
    3720:	e7a4      	b.n	366c <serial_set_flow_control+0x4c>
    3722:	2c00      	cmp	r4, #0
    3724:	d0ef      	beq.n	3706 <serial_set_flow_control+0xe6>
    3726:	7c22      	ldrb	r2, [r4, #16]
    3728:	4650      	mov	r0, r10
    372a:	f042 0280 	orr.w	r2, r2, #128	; 0x80
    372e:	7422      	strb	r2, [r4, #16]
    3730:	4903      	ldr	r1, [pc, #12]	; (3740 <serial_set_flow_control+0x120>)
    3732:	f7ff fa8b 	bl	2c4c <pinmap_pinout>
    3736:	e7ee      	b.n	3716 <serial_set_flow_control+0xf6>
    3738:	40010000 	.word	0x40010000
    373c:	00007468 	.word	0x00007468
    3740:	00007564 	.word	0x00007564
    3744:	1000081c 	.word	0x1000081c

00003748 <serial_init>:
    3748:	e92d 41f0 	stmdb	sp!, {r4, r5, r6, r7, r8, lr}
    374c:	460f      	mov	r7, r1
    374e:	4605      	mov	r5, r0
    3750:	4959      	ldr	r1, [pc, #356]	; (38b8 <serial_init+0x170>)
    3752:	4638      	mov	r0, r7
    3754:	4616      	mov	r6, r2
    3756:	f7ff fac1 	bl	2cdc <pinmap_peripheral>
    375a:	4958      	ldr	r1, [pc, #352]	; (38bc <serial_init+0x174>)
    375c:	4604      	mov	r4, r0
    375e:	4630      	mov	r0, r6
    3760:	f7ff fabc 	bl	2cdc <pinmap_peripheral>
    3764:	4601      	mov	r1, r0
    3766:	4620      	mov	r0, r4
    3768:	f7ff fa96 	bl	2c98 <pinmap_merge>
    376c:	4b54      	ldr	r3, [pc, #336]	; (38c0 <serial_init+0x178>)
    376e:	4604      	mov	r4, r0
    3770:	4298      	cmp	r0, r3
    3772:	6028      	str	r0, [r5, #0]
    3774:	d07f      	beq.n	3876 <serial_init+0x12e>
    3776:	d96f      	bls.n	3858 <serial_init+0x110>
    3778:	4b52      	ldr	r3, [pc, #328]	; (38c4 <serial_init+0x17c>)
    377a:	4298      	cmp	r0, r3
    377c:	d04b      	beq.n	3816 <serial_init+0xce>
    377e:	f503 4380 	add.w	r3, r3, #16384	; 0x4000
    3782:	4298      	cmp	r0, r3
    3784:	d106      	bne.n	3794 <serial_init+0x4c>
    3786:	4a50      	ldr	r2, [pc, #320]	; (38c8 <serial_init+0x180>)
    3788:	f8d2 30c4 	ldr.w	r3, [r2, #196]	; 0xc4
    378c:	f043 7300 	orr.w	r3, r3, #33554432	; 0x2000000
    3790:	f8c2 30c4 	str.w	r3, [r2, #196]	; 0xc4
    3794:	2301      	movs	r3, #1
    3796:	7223      	strb	r3, [r4, #8]
    3798:	682b      	ldr	r3, [r5, #0]
    379a:	f04f 0800 	mov.w	r8, #0
    379e:	f8c3 8004 	str.w	r8, [r3, #4]
    37a2:	f44f 5116 	mov.w	r1, #9600	; 0x2580
    37a6:	4628      	mov	r0, r5
    37a8:	f7ff fdce 	bl	3348 <serial_baud>
    37ac:	682b      	ldr	r3, [r5, #0]
    37ae:	2203      	movs	r2, #3
    37b0:	731a      	strb	r2, [r3, #12]
    37b2:	4941      	ldr	r1, [pc, #260]	; (38b8 <serial_init+0x170>)
    37b4:	4638      	mov	r0, r7
    37b6:	f7ff fa49 	bl	2c4c <pinmap_pinout>
    37ba:	4940      	ldr	r1, [pc, #256]	; (38bc <serial_init+0x174>)
    37bc:	4630      	mov	r0, r6
    37be:	f7ff fa45 	bl	2c4c <pinmap_pinout>
    37c2:	1c7a      	adds	r2, r7, #1
    37c4:	d003      	beq.n	37ce <serial_init+0x86>
    37c6:	4641      	mov	r1, r8
    37c8:	4638      	mov	r0, r7
    37ca:	f7ff fbc5 	bl	2f58 <pin_mode>
    37ce:	1c73      	adds	r3, r6, #1
    37d0:	d003      	beq.n	37da <serial_init+0x92>
    37d2:	4630      	mov	r0, r6
    37d4:	2100      	movs	r1, #0
    37d6:	f7ff fbbf 	bl	2f58 <pin_mode>
    37da:	4b39      	ldr	r3, [pc, #228]	; (38c0 <serial_init+0x178>)
    37dc:	429c      	cmp	r4, r3
    37de:	d047      	beq.n	3870 <serial_init+0x128>
    37e0:	d921      	bls.n	3826 <serial_init+0xde>
    37e2:	4b38      	ldr	r3, [pc, #224]	; (38c4 <serial_init+0x17c>)
    37e4:	429c      	cmp	r4, r3
    37e6:	d063      	beq.n	38b0 <serial_init+0x168>
    37e8:	f503 4380 	add.w	r3, r3, #16384	; 0x4000
    37ec:	429c      	cmp	r4, r3
    37ee:	d14a      	bne.n	3886 <serial_init+0x13e>
    37f0:	2303      	movs	r3, #3
    37f2:	606b      	str	r3, [r5, #4]
    37f4:	4c35      	ldr	r4, [pc, #212]	; (38cc <serial_init+0x184>)
    37f6:	ebc3 03c3 	rsb	r3, r3, r3, lsl #3
    37fa:	f04f 36ff 	mov.w	r6, #4294967295
    37fe:	eb04 04c3 	add.w	r4, r4, r3, lsl #3
    3802:	4628      	mov	r0, r5
    3804:	4633      	mov	r3, r6
    3806:	4632      	mov	r2, r6
    3808:	6066      	str	r6, [r4, #4]
    380a:	61e6      	str	r6, [r4, #28]
    380c:	2100      	movs	r1, #0
    380e:	e8bd 41f0 	ldmia.w	sp!, {r4, r5, r6, r7, r8, lr}
    3812:	f7ff bf05 	b.w	3620 <serial_set_flow_control>
    3816:	4a2c      	ldr	r2, [pc, #176]	; (38c8 <serial_init+0x180>)
    3818:	f8d2 30c4 	ldr.w	r3, [r2, #196]	; 0xc4
    381c:	f043 7380 	orr.w	r3, r3, #16777216	; 0x1000000
    3820:	f8c2 30c4 	str.w	r3, [r2, #196]	; 0xc4
    3824:	e7b6      	b.n	3794 <serial_init+0x4c>
    3826:	f5a3 4380 	sub.w	r3, r3, #16384	; 0x4000
    382a:	429c      	cmp	r4, r3
    382c:	d12b      	bne.n	3886 <serial_init+0x13e>
    382e:	4e27      	ldr	r6, [pc, #156]	; (38cc <serial_init+0x184>)
    3830:	f04f 34ff 	mov.w	r4, #4294967295
    3834:	2100      	movs	r1, #0
    3836:	6069      	str	r1, [r5, #4]
    3838:	4623      	mov	r3, r4
    383a:	4622      	mov	r2, r4
    383c:	4628      	mov	r0, r5
    383e:	6074      	str	r4, [r6, #4]
    3840:	61f4      	str	r4, [r6, #28]
    3842:	f7ff feed 	bl	3620 <serial_set_flow_control>
    3846:	4b22      	ldr	r3, [pc, #136]	; (38d0 <serial_init+0x188>)
    3848:	2201      	movs	r2, #1
    384a:	601a      	str	r2, [r3, #0]
    384c:	6828      	ldr	r0, [r5, #0]
    384e:	6869      	ldr	r1, [r5, #4]
    3850:	4b20      	ldr	r3, [pc, #128]	; (38d4 <serial_init+0x18c>)
    3852:	c303      	stmia	r3!, {r0, r1}
    3854:	e8bd 81f0 	ldmia.w	sp!, {r4, r5, r6, r7, r8, pc}
    3858:	f5a3 4380 	sub.w	r3, r3, #16384	; 0x4000
    385c:	4298      	cmp	r0, r3
    385e:	d199      	bne.n	3794 <serial_init+0x4c>
    3860:	4a19      	ldr	r2, [pc, #100]	; (38c8 <serial_init+0x180>)
    3862:	f8d2 30c4 	ldr.w	r3, [r2, #196]	; 0xc4
    3866:	f043 0308 	orr.w	r3, r3, #8
    386a:	f8c2 30c4 	str.w	r3, [r2, #196]	; 0xc4
    386e:	e791      	b.n	3794 <serial_init+0x4c>
    3870:	2301      	movs	r3, #1
    3872:	606b      	str	r3, [r5, #4]
    3874:	e7be      	b.n	37f4 <serial_init+0xac>
    3876:	4a14      	ldr	r2, [pc, #80]	; (38c8 <serial_init+0x180>)
    3878:	f8d2 30c4 	ldr.w	r3, [r2, #196]	; 0xc4
    387c:	f043 0310 	orr.w	r3, r3, #16
    3880:	f8c2 30c4 	str.w	r3, [r2, #196]	; 0xc4
    3884:	e786      	b.n	3794 <serial_init+0x4c>
    3886:	686e      	ldr	r6, [r5, #4]
    3888:	4b10      	ldr	r3, [pc, #64]	; (38cc <serial_init+0x184>)
    388a:	ebc6 06c6 	rsb	r6, r6, r6, lsl #3
    388e:	f04f 37ff 	mov.w	r7, #4294967295
    3892:	eb03 06c6 	add.w	r6, r3, r6, lsl #3
    3896:	463a      	mov	r2, r7
    3898:	463b      	mov	r3, r7
    389a:	2100      	movs	r1, #0
    389c:	4628      	mov	r0, r5
    389e:	6077      	str	r7, [r6, #4]
    38a0:	61f7      	str	r7, [r6, #28]
    38a2:	f7ff febd 	bl	3620 <serial_set_flow_control>
    38a6:	4b0c      	ldr	r3, [pc, #48]	; (38d8 <serial_init+0x190>)
    38a8:	429c      	cmp	r4, r3
    38aa:	d0cc      	beq.n	3846 <serial_init+0xfe>
    38ac:	e8bd 81f0 	ldmia.w	sp!, {r4, r5, r6, r7, r8, pc}
    38b0:	2302      	movs	r3, #2
    38b2:	606b      	str	r3, [r5, #4]
    38b4:	e79e      	b.n	37f4 <serial_init+0xac>
    38b6:	bf00      	nop
    38b8:	000074f8 	.word	0x000074f8
    38bc:	0000748c 	.word	0x0000748c
    38c0:	40010000 	.word	0x40010000
    38c4:	40098000 	.word	0x40098000
    38c8:	400fc000 	.word	0x400fc000
    38cc:	1000081c 	.word	0x1000081c
    38d0:	10000814 	.word	0x10000814
    38d4:	10000a0c 	.word	0x10000a0c
    38d8:	4000c000 	.word	0x4000c000

000038dc <us_ticker_init.part.0>:
    38dc:	b538      	push	{r3, r4, r5, lr}
    38de:	4910      	ldr	r1, [pc, #64]	; (3920 <us_ticker_init.part.0+0x44>)
    38e0:	4b10      	ldr	r3, [pc, #64]	; (3924 <us_ticker_init.part.0+0x48>)
    38e2:	2401      	movs	r4, #1
    38e4:	601c      	str	r4, [r3, #0]
    38e6:	f8d1 30c4 	ldr.w	r3, [r1, #196]	; 0xc4
    38ea:	4a0f      	ldr	r2, [pc, #60]	; (3928 <us_ticker_init.part.0+0x4c>)
    38ec:	f443 0300 	orr.w	r3, r3, #8388608	; 0x800000
    38f0:	480e      	ldr	r0, [pc, #56]	; (392c <us_ticker_init.part.0+0x50>)
    38f2:	2500      	movs	r5, #0
    38f4:	f8c1 30c4 	str.w	r3, [r1, #196]	; 0xc4
    38f8:	6715      	str	r5, [r2, #112]	; 0x70
    38fa:	6803      	ldr	r3, [r0, #0]
    38fc:	480c      	ldr	r0, [pc, #48]	; (3930 <us_ticker_init.part.0+0x54>)
    38fe:	2102      	movs	r1, #2
    3900:	fba0 0303 	umull	r0, r3, r0, r3
    3904:	0d1b      	lsrs	r3, r3, #20
    3906:	3b01      	subs	r3, #1
    3908:	6051      	str	r1, [r2, #4]
    390a:	2004      	movs	r0, #4
    390c:	60d3      	str	r3, [r2, #12]
    390e:	4909      	ldr	r1, [pc, #36]	; (3934 <us_ticker_init.part.0+0x58>)
    3910:	6054      	str	r4, [r2, #4]
    3912:	f7ff fa57 	bl	2dc4 <NVIC_SetVector>
    3916:	4b08      	ldr	r3, [pc, #32]	; (3938 <us_ticker_init.part.0+0x5c>)
    3918:	2210      	movs	r2, #16
    391a:	601a      	str	r2, [r3, #0]
    391c:	bd38      	pop	{r3, r4, r5, pc}
    391e:	bf00      	nop
    3920:	400fc000 	.word	0x400fc000
    3924:	100008fc 	.word	0x100008fc
    3928:	40094000 	.word	0x40094000
    392c:	100000cc 	.word	0x100000cc
    3930:	431bde83 	.word	0x431bde83
    3934:	00002d95 	.word	0x00002d95
    3938:	e000e100 	.word	0xe000e100

0000393c <us_ticker_init>:
    393c:	4b02      	ldr	r3, [pc, #8]	; (3948 <us_ticker_init+0xc>)
    393e:	681b      	ldr	r3, [r3, #0]
    3940:	b103      	cbz	r3, 3944 <us_ticker_init+0x8>
    3942:	4770      	bx	lr
    3944:	f7ff bfca 	b.w	38dc <us_ticker_init.part.0>
    3948:	100008fc 	.word	0x100008fc

0000394c <us_ticker_read>:
    394c:	b508      	push	{r3, lr}
    394e:	4b04      	ldr	r3, [pc, #16]	; (3960 <us_ticker_read+0x14>)
    3950:	681b      	ldr	r3, [r3, #0]
    3952:	b90b      	cbnz	r3, 3958 <us_ticker_read+0xc>
    3954:	f7ff ffc2 	bl	38dc <us_ticker_init.part.0>
    3958:	4b02      	ldr	r3, [pc, #8]	; (3964 <us_ticker_read+0x18>)
    395a:	6898      	ldr	r0, [r3, #8]
    395c:	bd08      	pop	{r3, pc}
    395e:	bf00      	nop
    3960:	100008fc 	.word	0x100008fc
    3964:	40094000 	.word	0x40094000

00003968 <us_ticker_set_interrupt>:
    3968:	4b03      	ldr	r3, [pc, #12]	; (3978 <us_ticker_set_interrupt+0x10>)
    396a:	6198      	str	r0, [r3, #24]
    396c:	695a      	ldr	r2, [r3, #20]
    396e:	f042 0201 	orr.w	r2, r2, #1
    3972:	615a      	str	r2, [r3, #20]
    3974:	4770      	bx	lr
    3976:	bf00      	nop
    3978:	40094000 	.word	0x40094000

0000397c <us_ticker_disable_interrupt>:
    397c:	4a02      	ldr	r2, [pc, #8]	; (3988 <us_ticker_disable_interrupt+0xc>)
    397e:	6953      	ldr	r3, [r2, #20]
    3980:	f023 0301 	bic.w	r3, r3, #1
    3984:	6153      	str	r3, [r2, #20]
    3986:	4770      	bx	lr
    3988:	40094000 	.word	0x40094000

0000398c <us_ticker_clear_interrupt>:
    398c:	4b01      	ldr	r3, [pc, #4]	; (3994 <us_ticker_clear_interrupt+0x8>)
    398e:	2201      	movs	r2, #1
    3990:	601a      	str	r2, [r3, #0]
    3992:	4770      	bx	lr
    3994:	40094000 	.word	0x40094000

00003998 <mbed::FileBase::~FileBase()>:
    3998:	4a09      	ldr	r2, [pc, #36]	; (39c0 <mbed::FileBase::~FileBase()+0x28>)
    399a:	6883      	ldr	r3, [r0, #8]
    399c:	6002      	str	r2, [r0, #0]
    399e:	b153      	cbz	r3, 39b6 <mbed::FileBase::~FileBase()+0x1e>
    39a0:	4b08      	ldr	r3, [pc, #32]	; (39c4 <mbed::FileBase::~FileBase()+0x2c>)
    39a2:	681a      	ldr	r2, [r3, #0]
    39a4:	4290      	cmp	r0, r2
    39a6:	d101      	bne.n	39ac <mbed::FileBase::~FileBase()+0x14>
    39a8:	e006      	b.n	39b8 <mbed::FileBase::~FileBase()+0x20>
    39aa:	461a      	mov	r2, r3
    39ac:	6853      	ldr	r3, [r2, #4]
    39ae:	4298      	cmp	r0, r3
    39b0:	d1fb      	bne.n	39aa <mbed::FileBase::~FileBase()+0x12>
    39b2:	6843      	ldr	r3, [r0, #4]
    39b4:	6053      	str	r3, [r2, #4]
    39b6:	4770      	bx	lr
    39b8:	6842      	ldr	r2, [r0, #4]
    39ba:	601a      	str	r2, [r3, #0]
    39bc:	4770      	bx	lr
    39be:	bf00      	nop
    39c0:	00007590 	.word	0x00007590
    39c4:	10000900 	.word	0x10000900

000039c8 <mbed::FileBase::~FileBase()>:
    39c8:	4a0c      	ldr	r2, [pc, #48]	; (39fc <mbed::FileBase::~FileBase()+0x34>)
    39ca:	6883      	ldr	r3, [r0, #8]
    39cc:	b510      	push	{r4, lr}
    39ce:	4604      	mov	r4, r0
    39d0:	6002      	str	r2, [r0, #0]
    39d2:	b153      	cbz	r3, 39ea <mbed::FileBase::~FileBase()+0x22>
    39d4:	4b0a      	ldr	r3, [pc, #40]	; (3a00 <mbed::FileBase::~FileBase()+0x38>)
    39d6:	681a      	ldr	r2, [r3, #0]
    39d8:	4290      	cmp	r0, r2
    39da:	d101      	bne.n	39e0 <mbed::FileBase::~FileBase()+0x18>
    39dc:	e00a      	b.n	39f4 <mbed::FileBase::~FileBase()+0x2c>
    39de:	461a      	mov	r2, r3
    39e0:	6853      	ldr	r3, [r2, #4]
    39e2:	429c      	cmp	r4, r3
    39e4:	d1fb      	bne.n	39de <mbed::FileBase::~FileBase()+0x16>
    39e6:	6863      	ldr	r3, [r4, #4]
    39e8:	6053      	str	r3, [r2, #4]
    39ea:	4620      	mov	r0, r4
    39ec:	f000 fbbd 	bl	416a <operator delete(void*)>
    39f0:	4620      	mov	r0, r4
    39f2:	bd10      	pop	{r4, pc}
    39f4:	6842      	ldr	r2, [r0, #4]
    39f6:	601a      	str	r2, [r3, #0]
    39f8:	e7f7      	b.n	39ea <mbed::FileBase::~FileBase()+0x22>
    39fa:	bf00      	nop
    39fc:	00007590 	.word	0x00007590
    3a00:	10000900 	.word	0x10000900

00003a04 <mbed::FileBase::FileBase(char const*, mbed::PathType)>:
    3a04:	b410      	push	{r4}
    3a06:	4c06      	ldr	r4, [pc, #24]	; (3a20 <mbed::FileBase::FileBase(char const*, mbed::PathType)+0x1c>)
    3a08:	2300      	movs	r3, #0
    3a0a:	7302      	strb	r2, [r0, #12]
    3a0c:	6081      	str	r1, [r0, #8]
    3a0e:	6004      	str	r4, [r0, #0]
    3a10:	6043      	str	r3, [r0, #4]
    3a12:	b119      	cbz	r1, 3a1c <mbed::FileBase::FileBase(char const*, mbed::PathType)+0x18>
    3a14:	4b03      	ldr	r3, [pc, #12]	; (3a24 <mbed::FileBase::FileBase(char const*, mbed::PathType)+0x20>)
    3a16:	681a      	ldr	r2, [r3, #0]
    3a18:	6018      	str	r0, [r3, #0]
    3a1a:	6042      	str	r2, [r0, #4]
    3a1c:	bc10      	pop	{r4}
    3a1e:	4770      	bx	lr
    3a20:	00007590 	.word	0x00007590
    3a24:	10000900 	.word	0x10000900

00003a28 <mbed::FileBase::lookup(char const*, unsigned int)>:
    3a28:	b5f8      	push	{r3, r4, r5, r6, r7, lr}
    3a2a:	4b0b      	ldr	r3, [pc, #44]	; (3a58 <mbed::FileBase::lookup(char const*, unsigned int)+0x30>)
    3a2c:	681c      	ldr	r4, [r3, #0]
    3a2e:	b18c      	cbz	r4, 3a54 <mbed::FileBase::lookup(char const*, unsigned int)+0x2c>
    3a30:	4607      	mov	r7, r0
    3a32:	460e      	mov	r6, r1
    3a34:	68a5      	ldr	r5, [r4, #8]
    3a36:	b155      	cbz	r5, 3a4e <mbed::FileBase::lookup(char const*, unsigned int)+0x26>
    3a38:	4632      	mov	r2, r6
    3a3a:	4639      	mov	r1, r7
    3a3c:	4628      	mov	r0, r5
    3a3e:	f002 fd1a 	bl	6476 <strncmp>
    3a42:	b920      	cbnz	r0, 3a4e <mbed::FileBase::lookup(char const*, unsigned int)+0x26>
    3a44:	4628      	mov	r0, r5
    3a46:	f002 fd0e 	bl	6466 <strlen>
    3a4a:	4286      	cmp	r6, r0
    3a4c:	d002      	beq.n	3a54 <mbed::FileBase::lookup(char const*, unsigned int)+0x2c>
    3a4e:	6864      	ldr	r4, [r4, #4]
    3a50:	2c00      	cmp	r4, #0
    3a52:	d1ef      	bne.n	3a34 <mbed::FileBase::lookup(char const*, unsigned int)+0xc>
    3a54:	4620      	mov	r0, r4
    3a56:	bdf8      	pop	{r3, r4, r5, r6, r7, pc}
    3a58:	10000900 	.word	0x10000900

00003a5c <mbed::FileBase::getPathType()>:
    3a5c:	7b00      	ldrb	r0, [r0, #12]
    3a5e:	4770      	bx	lr

00003a60 <mbed::FileHandle::flen()>:
    3a60:	6803      	ldr	r3, [r0, #0]
    3a62:	b570      	push	{r4, r5, r6, lr}
    3a64:	2201      	movs	r2, #1
    3a66:	691b      	ldr	r3, [r3, #16]
    3a68:	2100      	movs	r1, #0
    3a6a:	4604      	mov	r4, r0
    3a6c:	4798      	blx	r3
    3a6e:	4606      	mov	r6, r0
    3a70:	3001      	adds	r0, #1
    3a72:	d00e      	beq.n	3a92 <mbed::FileHandle::flen()+0x32>
    3a74:	6823      	ldr	r3, [r4, #0]
    3a76:	2202      	movs	r2, #2
    3a78:	691b      	ldr	r3, [r3, #16]
    3a7a:	2100      	movs	r1, #0
    3a7c:	4620      	mov	r0, r4
    3a7e:	4798      	blx	r3
    3a80:	4605      	mov	r5, r0
    3a82:	6823      	ldr	r3, [r4, #0]
    3a84:	4631      	mov	r1, r6
    3a86:	691b      	ldr	r3, [r3, #16]
    3a88:	4620      	mov	r0, r4
    3a8a:	2200      	movs	r2, #0
    3a8c:	4798      	blx	r3
    3a8e:	4628      	mov	r0, r5
    3a90:	bd70      	pop	{r4, r5, r6, pc}
    3a92:	4630      	mov	r0, r6
    3a94:	bd70      	pop	{r4, r5, r6, pc}
    3a96:	bf00      	nop

00003a98 <mbed::FileLike::FileLike(char const*)>:
    3a98:	b510      	push	{r4, lr}
    3a9a:	4604      	mov	r4, r0
    3a9c:	4b06      	ldr	r3, [pc, #24]	; (3ab8 <mbed::FileLike::FileLike(char const*)+0x20>)
    3a9e:	2200      	movs	r2, #0
    3aa0:	f840 3b04 	str.w	r3, [r0], #4
    3aa4:	f7ff ffae 	bl	3a04 <mbed::FileBase::FileBase(char const*, mbed::PathType)>
    3aa8:	4b04      	ldr	r3, [pc, #16]	; (3abc <mbed::FileLike::FileLike(char const*)+0x24>)
    3aaa:	4620      	mov	r0, r4
    3aac:	f103 0208 	add.w	r2, r3, #8
    3ab0:	3334      	adds	r3, #52	; 0x34
    3ab2:	e884 000c 	stmia.w	r4, {r2, r3}
    3ab6:	bd10      	pop	{r4, pc}
    3ab8:	000075f4 	.word	0x000075f4
    3abc:	00007598 	.word	0x00007598

00003ac0 <mbed::FileLike::~FileLike()>:
    3ac0:	b510      	push	{r4, lr}
    3ac2:	4604      	mov	r4, r0
    3ac4:	4b06      	ldr	r3, [pc, #24]	; (3ae0 <mbed::FileLike::~FileLike()+0x20>)
    3ac6:	f103 0208 	add.w	r2, r3, #8
    3aca:	3334      	adds	r3, #52	; 0x34
    3acc:	6002      	str	r2, [r0, #0]
    3ace:	f840 3f04 	str.w	r3, [r0, #4]!
    3ad2:	f7ff ff61 	bl	3998 <mbed::FileBase::~FileBase()>
    3ad6:	4620      	mov	r0, r4
    3ad8:	f000 f86c 	bl	3bb4 <mbed::FileHandle::~FileHandle()>
    3adc:	4620      	mov	r0, r4
    3ade:	bd10      	pop	{r4, pc}
    3ae0:	00007598 	.word	0x00007598

00003ae4 <mbed::FilePath::FilePath(char const*)>:
    3ae4:	b538      	push	{r3, r4, r5, lr}
    3ae6:	2300      	movs	r3, #0
    3ae8:	6003      	str	r3, [r0, #0]
    3aea:	6043      	str	r3, [r0, #4]
    3aec:	780a      	ldrb	r2, [r1, #0]
    3aee:	4604      	mov	r4, r0
    3af0:	2a2f      	cmp	r2, #47	; 0x2f
    3af2:	d001      	beq.n	3af8 <mbed::FilePath::FilePath(char const*)+0x14>
    3af4:	4620      	mov	r0, r4
    3af6:	bd38      	pop	{r3, r4, r5, pc}
    3af8:	784a      	ldrb	r2, [r1, #1]
    3afa:	2a00      	cmp	r2, #0
    3afc:	d0fa      	beq.n	3af4 <mbed::FilePath::FilePath(char const*)+0x10>
    3afe:	1c48      	adds	r0, r1, #1
    3b00:	6020      	str	r0, [r4, #0]
    3b02:	784d      	ldrb	r5, [r1, #1]
    3b04:	2d2f      	cmp	r5, #47	; 0x2f
    3b06:	d013      	beq.n	3b30 <mbed::FilePath::FilePath(char const*)+0x4c>
    3b08:	b185      	cbz	r5, 3b2c <mbed::FilePath::FilePath(char const*)+0x48>
    3b0a:	4603      	mov	r3, r0
    3b0c:	e000      	b.n	3b10 <mbed::FilePath::FilePath(char const*)+0x2c>
    3b0e:	b16a      	cbz	r2, 3b2c <mbed::FilePath::FilePath(char const*)+0x48>
    3b10:	1a5d      	subs	r5, r3, r1
    3b12:	3301      	adds	r3, #1
    3b14:	6023      	str	r3, [r4, #0]
    3b16:	781a      	ldrb	r2, [r3, #0]
    3b18:	2a2f      	cmp	r2, #47	; 0x2f
    3b1a:	d1f8      	bne.n	3b0e <mbed::FilePath::FilePath(char const*)+0x2a>
    3b1c:	4629      	mov	r1, r5
    3b1e:	3301      	adds	r3, #1
    3b20:	6023      	str	r3, [r4, #0]
    3b22:	f7ff ff81 	bl	3a28 <mbed::FileBase::lookup(char const*, unsigned int)>
    3b26:	6060      	str	r0, [r4, #4]
    3b28:	4620      	mov	r0, r4
    3b2a:	bd38      	pop	{r3, r4, r5, pc}
    3b2c:	4629      	mov	r1, r5
    3b2e:	e7f8      	b.n	3b22 <mbed::FilePath::FilePath(char const*)+0x3e>
    3b30:	4619      	mov	r1, r3
    3b32:	4603      	mov	r3, r0
    3b34:	e7f3      	b.n	3b1e <mbed::FilePath::FilePath(char const*)+0x3a>
    3b36:	bf00      	nop

00003b38 <mbed::FilePath::fileName()>:
    3b38:	6800      	ldr	r0, [r0, #0]
    3b3a:	4770      	bx	lr

00003b3c <mbed::FilePath::fileSystem()>:
    3b3c:	6843      	ldr	r3, [r0, #4]
    3b3e:	b143      	cbz	r3, 3b52 <mbed::FilePath::fileSystem()+0x16>
    3b40:	b510      	push	{r4, lr}
    3b42:	4604      	mov	r4, r0
    3b44:	4618      	mov	r0, r3
    3b46:	f7ff ff89 	bl	3a5c <mbed::FileBase::getPathType()>
    3b4a:	2801      	cmp	r0, #1
    3b4c:	d103      	bne.n	3b56 <mbed::FilePath::fileSystem()+0x1a>
    3b4e:	6860      	ldr	r0, [r4, #4]
    3b50:	bd10      	pop	{r4, pc}
    3b52:	2000      	movs	r0, #0
    3b54:	4770      	bx	lr
    3b56:	2000      	movs	r0, #0
    3b58:	bd10      	pop	{r4, pc}
    3b5a:	bf00      	nop

00003b5c <mbed::FilePath::isFile()>:
    3b5c:	6840      	ldr	r0, [r0, #4]
    3b5e:	b130      	cbz	r0, 3b6e <mbed::FilePath::isFile()+0x12>
    3b60:	b508      	push	{r3, lr}
    3b62:	f7ff ff7b 	bl	3a5c <mbed::FileBase::getPathType()>
    3b66:	fab0 f080 	clz	r0, r0
    3b6a:	0940      	lsrs	r0, r0, #5
    3b6c:	bd08      	pop	{r3, pc}
    3b6e:	4770      	bx	lr

00003b70 <mbed::FilePath::file()>:
    3b70:	6843      	ldr	r3, [r0, #4]
    3b72:	b14b      	cbz	r3, 3b88 <mbed::FilePath::file()+0x18>
    3b74:	b510      	push	{r4, lr}
    3b76:	4604      	mov	r4, r0
    3b78:	4618      	mov	r0, r3
    3b7a:	f7ff ff6f 	bl	3a5c <mbed::FileBase::getPathType()>
    3b7e:	b928      	cbnz	r0, 3b8c <mbed::FilePath::file()+0x1c>
    3b80:	6860      	ldr	r0, [r4, #4]
    3b82:	b118      	cbz	r0, 3b8c <mbed::FilePath::file()+0x1c>
    3b84:	3804      	subs	r0, #4
    3b86:	bd10      	pop	{r4, pc}
    3b88:	2000      	movs	r0, #0
    3b8a:	4770      	bx	lr
    3b8c:	2000      	movs	r0, #0
    3b8e:	bd10      	pop	{r4, pc}

00003b90 <mbed::FilePath::exists()>:
    3b90:	6840      	ldr	r0, [r0, #4]
    3b92:	3000      	adds	r0, #0
    3b94:	bf18      	it	ne
    3b96:	2001      	movne	r0, #1
    3b98:	4770      	bx	lr
    3b9a:	bf00      	nop

00003b9c <init_serial() [clone .part.0]>:
    3b9c:	4a02      	ldr	r2, [pc, #8]	; (3ba8 <init_serial() [clone .part.0]+0xc>)
    3b9e:	4903      	ldr	r1, [pc, #12]	; (3bac <init_serial() [clone .part.0]+0x10>)
    3ba0:	4803      	ldr	r0, [pc, #12]	; (3bb0 <init_serial() [clone .part.0]+0x14>)
    3ba2:	f7ff bdd1 	b.w	3748 <serial_init>
    3ba6:	bf00      	nop
    3ba8:	2009c003 	.word	0x2009c003
    3bac:	2009c002 	.word	0x2009c002
    3bb0:	10000a0c 	.word	0x10000a0c

00003bb4 <mbed::FileHandle::~FileHandle()>:
    3bb4:	4a07      	ldr	r2, [pc, #28]	; (3bd4 <mbed::FileHandle::~FileHandle()+0x20>)
    3bb6:	4b08      	ldr	r3, [pc, #32]	; (3bd8 <mbed::FileHandle::~FileHandle()+0x24>)
    3bb8:	b410      	push	{r4}
    3bba:	6002      	str	r2, [r0, #0]
    3bbc:	f503 7180 	add.w	r1, r3, #256	; 0x100
    3bc0:	2400      	movs	r4, #0
    3bc2:	f853 2f04 	ldr.w	r2, [r3, #4]!
    3bc6:	4290      	cmp	r0, r2
    3bc8:	bf08      	it	eq
    3bca:	601c      	streq	r4, [r3, #0]
    3bcc:	428b      	cmp	r3, r1
    3bce:	d1f8      	bne.n	3bc2 <mbed::FileHandle::~FileHandle()+0xe>
    3bd0:	bc10      	pop	{r4}
    3bd2:	4770      	bx	lr
    3bd4:	000075f4 	.word	0x000075f4
    3bd8:	10000900 	.word	0x10000900

00003bdc <_open>:
    3bdc:	b5f0      	push	{r4, r5, r6, r7, lr}
    3bde:	460e      	mov	r6, r1
    3be0:	b085      	sub	sp, #20
    3be2:	4937      	ldr	r1, [pc, #220]	; (3cc0 <_open+0xe4>)
    3be4:	4605      	mov	r5, r0
    3be6:	f002 fc34 	bl	6452 <strcmp>
    3bea:	b928      	cbnz	r0, 3bf8 <_open+0x1c>
    3bec:	4b35      	ldr	r3, [pc, #212]	; (3cc4 <_open+0xe8>)
    3bee:	681b      	ldr	r3, [r3, #0]
    3bf0:	2b00      	cmp	r3, #0
    3bf2:	d042      	beq.n	3c7a <_open+0x9e>
    3bf4:	b005      	add	sp, #20
    3bf6:	bdf0      	pop	{r4, r5, r6, r7, pc}
    3bf8:	4933      	ldr	r1, [pc, #204]	; (3cc8 <_open+0xec>)
    3bfa:	4628      	mov	r0, r5
    3bfc:	f002 fc29 	bl	6452 <strcmp>
    3c00:	b930      	cbnz	r0, 3c10 <_open+0x34>
    3c02:	4b30      	ldr	r3, [pc, #192]	; (3cc4 <_open+0xe8>)
    3c04:	681b      	ldr	r3, [r3, #0]
    3c06:	2b00      	cmp	r3, #0
    3c08:	d042      	beq.n	3c90 <_open+0xb4>
    3c0a:	2001      	movs	r0, #1
    3c0c:	b005      	add	sp, #20
    3c0e:	bdf0      	pop	{r4, r5, r6, r7, pc}
    3c10:	492e      	ldr	r1, [pc, #184]	; (3ccc <_open+0xf0>)
    3c12:	4628      	mov	r0, r5
    3c14:	f002 fc1d 	bl	6452 <strcmp>
    3c18:	2800      	cmp	r0, #0
    3c1a:	d034      	beq.n	3c86 <_open+0xaa>
    3c1c:	4b2c      	ldr	r3, [pc, #176]	; (3cd0 <_open+0xf4>)
    3c1e:	2400      	movs	r4, #0
    3c20:	e002      	b.n	3c28 <_open+0x4c>
    3c22:	3401      	adds	r4, #1
    3c24:	2c40      	cmp	r4, #64	; 0x40
    3c26:	d03c      	beq.n	3ca2 <_open+0xc6>
    3c28:	f853 2f04 	ldr.w	r2, [r3, #4]!
    3c2c:	2a00      	cmp	r2, #0
    3c2e:	d1f8      	bne.n	3c22 <_open+0x46>
    3c30:	782b      	ldrb	r3, [r5, #0]
    3c32:	2b3a      	cmp	r3, #58	; 0x3a
    3c34:	d03c      	beq.n	3cb0 <_open+0xd4>
    3c36:	4629      	mov	r1, r5
    3c38:	a802      	add	r0, sp, #8
    3c3a:	f7ff ff53 	bl	3ae4 <mbed::FilePath::FilePath(char const*)>
    3c3e:	a802      	add	r0, sp, #8
    3c40:	f7ff ffa6 	bl	3b90 <mbed::FilePath::exists()>
    3c44:	b368      	cbz	r0, 3ca2 <_open+0xc6>
    3c46:	a802      	add	r0, sp, #8
    3c48:	f7ff ff88 	bl	3b5c <mbed::FilePath::isFile()>
    3c4c:	bb20      	cbnz	r0, 3c98 <_open+0xbc>
    3c4e:	a802      	add	r0, sp, #8
    3c50:	f7ff ff74 	bl	3b3c <mbed::FilePath::fileSystem()>
    3c54:	4605      	mov	r5, r0
    3c56:	b320      	cbz	r0, 3ca2 <_open+0xc6>
    3c58:	6803      	ldr	r3, [r0, #0]
    3c5a:	a802      	add	r0, sp, #8
    3c5c:	689f      	ldr	r7, [r3, #8]
    3c5e:	f7ff ff6b 	bl	3b38 <mbed::FilePath::fileName()>
    3c62:	4632      	mov	r2, r6
    3c64:	4601      	mov	r1, r0
    3c66:	4628      	mov	r0, r5
    3c68:	47b8      	blx	r7
    3c6a:	4603      	mov	r3, r0
    3c6c:	b1cb      	cbz	r3, 3ca2 <_open+0xc6>
    3c6e:	4a19      	ldr	r2, [pc, #100]	; (3cd4 <_open+0xf8>)
    3c70:	1ce0      	adds	r0, r4, #3
    3c72:	f842 3024 	str.w	r3, [r2, r4, lsl #2]
    3c76:	b005      	add	sp, #20
    3c78:	bdf0      	pop	{r4, r5, r6, r7, pc}
    3c7a:	9001      	str	r0, [sp, #4]
    3c7c:	f7ff ff8e 	bl	3b9c <init_serial() [clone .part.0]>
    3c80:	9801      	ldr	r0, [sp, #4]
    3c82:	b005      	add	sp, #20
    3c84:	bdf0      	pop	{r4, r5, r6, r7, pc}
    3c86:	4b0f      	ldr	r3, [pc, #60]	; (3cc4 <_open+0xe8>)
    3c88:	681b      	ldr	r3, [r3, #0]
    3c8a:	b16b      	cbz	r3, 3ca8 <_open+0xcc>
    3c8c:	2002      	movs	r0, #2
    3c8e:	e7b1      	b.n	3bf4 <_open+0x18>
    3c90:	f7ff ff84 	bl	3b9c <init_serial() [clone .part.0]>
    3c94:	2001      	movs	r0, #1
    3c96:	e7ad      	b.n	3bf4 <_open+0x18>
    3c98:	a802      	add	r0, sp, #8
    3c9a:	f7ff ff69 	bl	3b70 <mbed::FilePath::file()>
    3c9e:	4603      	mov	r3, r0
    3ca0:	e7e4      	b.n	3c6c <_open+0x90>
    3ca2:	f04f 30ff 	mov.w	r0, #4294967295
    3ca6:	e7a5      	b.n	3bf4 <_open+0x18>
    3ca8:	f7ff ff78 	bl	3b9c <init_serial() [clone .part.0]>
    3cac:	2002      	movs	r0, #2
    3cae:	e7a1      	b.n	3bf4 <_open+0x18>
    3cb0:	4628      	mov	r0, r5
    3cb2:	aa02      	add	r2, sp, #8
    3cb4:	4908      	ldr	r1, [pc, #32]	; (3cd8 <_open+0xfc>)
    3cb6:	f002 fb5d 	bl	6374 <siscanf>
    3cba:	9b02      	ldr	r3, [sp, #8]
    3cbc:	e7d6      	b.n	3c6c <_open+0x90>
    3cbe:	bf00      	nop
    3cc0:	000075d4 	.word	0x000075d4
    3cc4:	10000814 	.word	0x10000814
    3cc8:	000075e4 	.word	0x000075e4
    3ccc:	000075dc 	.word	0x000075dc
    3cd0:	10000900 	.word	0x10000900
    3cd4:	10000904 	.word	0x10000904
    3cd8:	00007618 	.word	0x00007618

00003cdc <_close>:
    3cdc:	2802      	cmp	r0, #2
    3cde:	dd0a      	ble.n	3cf6 <_close+0x1a>
    3ce0:	4a07      	ldr	r2, [pc, #28]	; (3d00 <_close+0x24>)
    3ce2:	1ec3      	subs	r3, r0, #3
    3ce4:	f852 0023 	ldr.w	r0, [r2, r3, lsl #2]
    3ce8:	2100      	movs	r1, #0
    3cea:	f842 1023 	str.w	r1, [r2, r3, lsl #2]
    3cee:	b120      	cbz	r0, 3cfa <_close+0x1e>
    3cf0:	6803      	ldr	r3, [r0, #0]
    3cf2:	685b      	ldr	r3, [r3, #4]
    3cf4:	4718      	bx	r3
    3cf6:	2000      	movs	r0, #0
    3cf8:	4770      	bx	lr
    3cfa:	f04f 30ff 	mov.w	r0, #4294967295
    3cfe:	4770      	bx	lr
    3d00:	10000904 	.word	0x10000904

00003d04 <_write>:
    3d04:	2802      	cmp	r0, #2
    3d06:	dc12      	bgt.n	3d2e <_write+0x2a>
    3d08:	4b0e      	ldr	r3, [pc, #56]	; (3d44 <_write+0x40>)
    3d0a:	b570      	push	{r4, r5, r6, lr}
    3d0c:	681b      	ldr	r3, [r3, #0]
    3d0e:	460c      	mov	r4, r1
    3d10:	4616      	mov	r6, r2
    3d12:	b90b      	cbnz	r3, 3d18 <_write+0x14>
    3d14:	f7ff ff42 	bl	3b9c <init_serial() [clone .part.0]>
    3d18:	19a5      	adds	r5, r4, r6
    3d1a:	b136      	cbz	r6, 3d2a <_write+0x26>
    3d1c:	f814 1b01 	ldrb.w	r1, [r4], #1
    3d20:	4809      	ldr	r0, [pc, #36]	; (3d48 <_write+0x44>)
    3d22:	f7ff fc63 	bl	35ec <serial_putc>
    3d26:	42ac      	cmp	r4, r5
    3d28:	d1f8      	bne.n	3d1c <_write+0x18>
    3d2a:	4630      	mov	r0, r6
    3d2c:	bd70      	pop	{r4, r5, r6, pc}
    3d2e:	4b07      	ldr	r3, [pc, #28]	; (3d4c <_write+0x48>)
    3d30:	3803      	subs	r0, #3
    3d32:	f853 0020 	ldr.w	r0, [r3, r0, lsl #2]
    3d36:	b110      	cbz	r0, 3d3e <_write+0x3a>
    3d38:	6803      	ldr	r3, [r0, #0]
    3d3a:	681b      	ldr	r3, [r3, #0]
    3d3c:	4718      	bx	r3
    3d3e:	f04f 30ff 	mov.w	r0, #4294967295
    3d42:	4770      	bx	lr
    3d44:	10000814 	.word	0x10000814
    3d48:	10000a0c 	.word	0x10000a0c
    3d4c:	10000904 	.word	0x10000904

00003d50 <_read>:
    3d50:	2802      	cmp	r0, #2
    3d52:	dc0d      	bgt.n	3d70 <_read+0x20>
    3d54:	4b0c      	ldr	r3, [pc, #48]	; (3d88 <_read+0x38>)
    3d56:	b510      	push	{r4, lr}
    3d58:	681b      	ldr	r3, [r3, #0]
    3d5a:	460c      	mov	r4, r1
    3d5c:	b90b      	cbnz	r3, 3d62 <_read+0x12>
    3d5e:	f7ff ff1d 	bl	3b9c <init_serial() [clone .part.0]>
    3d62:	480a      	ldr	r0, [pc, #40]	; (3d8c <_read+0x3c>)
    3d64:	f7ff fbfa 	bl	355c <serial_getc>
    3d68:	2301      	movs	r3, #1
    3d6a:	7020      	strb	r0, [r4, #0]
    3d6c:	4618      	mov	r0, r3
    3d6e:	bd10      	pop	{r4, pc}
    3d70:	4b07      	ldr	r3, [pc, #28]	; (3d90 <_read+0x40>)
    3d72:	3803      	subs	r0, #3
    3d74:	f853 0020 	ldr.w	r0, [r3, r0, lsl #2]
    3d78:	b110      	cbz	r0, 3d80 <_read+0x30>
    3d7a:	6803      	ldr	r3, [r0, #0]
    3d7c:	689b      	ldr	r3, [r3, #8]
    3d7e:	4718      	bx	r3
    3d80:	f04f 33ff 	mov.w	r3, #4294967295
    3d84:	4618      	mov	r0, r3
    3d86:	4770      	bx	lr
    3d88:	10000814 	.word	0x10000814
    3d8c:	10000a0c 	.word	0x10000a0c
    3d90:	10000904 	.word	0x10000904

00003d94 <_isatty>:
    3d94:	2802      	cmp	r0, #2
    3d96:	dd07      	ble.n	3da8 <_isatty+0x14>
    3d98:	4b06      	ldr	r3, [pc, #24]	; (3db4 <_isatty+0x20>)
    3d9a:	3803      	subs	r0, #3
    3d9c:	f853 0020 	ldr.w	r0, [r3, r0, lsl #2]
    3da0:	b120      	cbz	r0, 3dac <_isatty+0x18>
    3da2:	6803      	ldr	r3, [r0, #0]
    3da4:	68db      	ldr	r3, [r3, #12]
    3da6:	4718      	bx	r3
    3da8:	2001      	movs	r0, #1
    3daa:	4770      	bx	lr
    3dac:	f04f 30ff 	mov.w	r0, #4294967295
    3db0:	4770      	bx	lr
    3db2:	bf00      	nop
    3db4:	10000904 	.word	0x10000904

00003db8 <_lseek>:
    3db8:	2802      	cmp	r0, #2
    3dba:	dd07      	ble.n	3dcc <_lseek+0x14>
    3dbc:	4b06      	ldr	r3, [pc, #24]	; (3dd8 <_lseek+0x20>)
    3dbe:	3803      	subs	r0, #3
    3dc0:	f853 0020 	ldr.w	r0, [r3, r0, lsl #2]
    3dc4:	b120      	cbz	r0, 3dd0 <_lseek+0x18>
    3dc6:	6803      	ldr	r3, [r0, #0]
    3dc8:	691b      	ldr	r3, [r3, #16]
    3dca:	4718      	bx	r3
    3dcc:	2000      	movs	r0, #0
    3dce:	4770      	bx	lr
    3dd0:	f04f 30ff 	mov.w	r0, #4294967295
    3dd4:	4770      	bx	lr
    3dd6:	bf00      	nop
    3dd8:	10000904 	.word	0x10000904

00003ddc <_fstat>:
    3ddc:	2802      	cmp	r0, #2
    3dde:	b508      	push	{r3, lr}
    3de0:	d804      	bhi.n	3dec <_fstat+0x10>
    3de2:	f44f 5300 	mov.w	r3, #8192	; 0x2000
    3de6:	604b      	str	r3, [r1, #4]
    3de8:	2000      	movs	r0, #0
    3dea:	bd08      	pop	{r3, pc}
    3dec:	f001 f8dc 	bl	4fa8 <__errno>
    3df0:	2309      	movs	r3, #9
    3df2:	6003      	str	r3, [r0, #0]
    3df4:	f04f 30ff 	mov.w	r0, #4294967295
    3df8:	bd08      	pop	{r3, pc}
    3dfa:	bf00      	nop

00003dfc <mbed_main>:
    3dfc:	4770      	bx	lr
    3dfe:	bf00      	nop

00003e00 <mbed_sdk_init>:
    3e00:	4770      	bx	lr
    3e02:	bf00      	nop

00003e04 <__wrap_main>:
    3e04:	b508      	push	{r3, lr}
    3e06:	f7ff fffb 	bl	3e00 <mbed_sdk_init>
    3e0a:	f7ff fff7 	bl	3dfc <mbed_main>
    3e0e:	e8bd 4008 	ldmia.w	sp!, {r3, lr}
    3e12:	f7fc be9f 	b.w	b54 <main>
    3e16:	bf00      	nop

00003e18 <_sbrk>:
    3e18:	4a07      	ldr	r2, [pc, #28]	; (3e38 <_sbrk+0x20>)
    3e1a:	6813      	ldr	r3, [r2, #0]
    3e1c:	1819      	adds	r1, r3, r0
    3e1e:	f3ef 8008 	mrs	r0, MSP
    3e22:	4281      	cmp	r1, r0
    3e24:	d202      	bcs.n	3e2c <_sbrk+0x14>
    3e26:	4618      	mov	r0, r3
    3e28:	6011      	str	r1, [r2, #0]
    3e2a:	4770      	bx	lr
    3e2c:	4b03      	ldr	r3, [pc, #12]	; (3e3c <_sbrk+0x24>)
    3e2e:	220c      	movs	r2, #12
    3e30:	601a      	str	r2, [r3, #0]
    3e32:	f04f 30ff 	mov.w	r0, #4294967295
    3e36:	4770      	bx	lr
    3e38:	100000ec 	.word	0x100000ec
    3e3c:	10000a14 	.word	0x10000a14

00003e40 <_exit>:
    3e40:	4c0b      	ldr	r4, [pc, #44]	; (3e70 <_exit+0x30>)
    3e42:	b508      	push	{r3, lr}
    3e44:	6823      	ldr	r3, [r4, #0]
    3e46:	4605      	mov	r5, r0
    3e48:	6898      	ldr	r0, [r3, #8]
    3e4a:	f001 f9d1 	bl	51f0 <fflush>
    3e4e:	6823      	ldr	r3, [r4, #0]
    3e50:	68d8      	ldr	r0, [r3, #12]
    3e52:	f001 f9cd 	bl	51f0 <fflush>
    3e56:	f7fe fef7 	bl	2c48 <mbed_interface_connected>
    3e5a:	b920      	cbnz	r0, 3e66 <_exit+0x26>
    3e5c:	b905      	cbnz	r5, 3e60 <_exit+0x20>
    3e5e:	e7fe      	b.n	3e5e <_exit+0x1e>
    3e60:	f7fe fe62 	bl	2b28 <mbed_die>
    3e64:	e7fb      	b.n	3e5e <_exit+0x1e>
    3e66:	f7fe ff53 	bl	2d10 <semihost_exit>
    3e6a:	2d00      	cmp	r5, #0
    3e6c:	d0f7      	beq.n	3e5e <_exit+0x1e>
    3e6e:	e7f7      	b.n	3e60 <_exit+0x20>
    3e70:	10000150 	.word	0x10000150

00003e74 <mbed::mbed_set_unbuffered_stream(__sFILE*)>:
    3e74:	2100      	movs	r1, #0
    3e76:	f002 b9c9 	b.w	620c <setbuf>
    3e7a:	bf00      	nop

00003e7c <mbed::SerialBase::_irq_handler(unsigned long, SerialIrq)>:
    3e7c:	1c4a      	adds	r2, r1, #1
    3e7e:	eb02 0242 	add.w	r2, r2, r2, lsl #1
    3e82:	eb00 02c2 	add.w	r2, r0, r2, lsl #3
    3e86:	6893      	ldr	r3, [r2, #8]
    3e88:	b153      	cbz	r3, 3ea0 <mbed::SerialBase::_irq_handler(unsigned long, SerialIrq)+0x24>
    3e8a:	eb01 0141 	add.w	r1, r1, r1, lsl #1
    3e8e:	00c9      	lsls	r1, r1, #3
    3e90:	1842      	adds	r2, r0, r1
    3e92:	68d2      	ldr	r2, [r2, #12]
    3e94:	b11a      	cbz	r2, 3e9e <mbed::SerialBase::_irq_handler(unsigned long, SerialIrq)+0x22>
    3e96:	4401      	add	r1, r0
    3e98:	3110      	adds	r1, #16
    3e9a:	4610      	mov	r0, r2
    3e9c:	4718      	bx	r3
    3e9e:	4770      	bx	lr
    3ea0:	eb01 0341 	add.w	r3, r1, r1, lsl #1
    3ea4:	eb00 01c3 	add.w	r1, r0, r3, lsl #3
    3ea8:	68cb      	ldr	r3, [r1, #12]
    3eaa:	2b00      	cmp	r3, #0
    3eac:	d0f7      	beq.n	3e9e <mbed::SerialBase::_irq_handler(unsigned long, SerialIrq)+0x22>
    3eae:	4718      	bx	r3

00003eb0 <mbed::SerialBase::SerialBase(PinName, PinName)>:
    3eb0:	b570      	push	{r4, r5, r6, lr}
    3eb2:	4604      	mov	r4, r0
    3eb4:	4e0b      	ldr	r6, [pc, #44]	; (3ee4 <mbed::SerialBase::SerialBase(PinName, PinName)+0x34>)
    3eb6:	2300      	movs	r3, #0
    3eb8:	1d25      	adds	r5, r4, #4
    3eba:	f44f 5016 	mov.w	r0, #9600	; 0x2580
    3ebe:	63e0      	str	r0, [r4, #60]	; 0x3c
    3ec0:	6063      	str	r3, [r4, #4]
    3ec2:	4628      	mov	r0, r5
    3ec4:	60a3      	str	r3, [r4, #8]
    3ec6:	60e3      	str	r3, [r4, #12]
    3ec8:	6223      	str	r3, [r4, #32]
    3eca:	6263      	str	r3, [r4, #36]	; 0x24
    3ecc:	63a3      	str	r3, [r4, #56]	; 0x38
    3ece:	6026      	str	r6, [r4, #0]
    3ed0:	f7ff fc3a 	bl	3748 <serial_init>
    3ed4:	4628      	mov	r0, r5
    3ed6:	4622      	mov	r2, r4
    3ed8:	4903      	ldr	r1, [pc, #12]	; (3ee8 <mbed::SerialBase::SerialBase(PinName, PinName)+0x38>)
    3eda:	f7ff fb1d 	bl	3518 <serial_irq_handler>
    3ede:	4620      	mov	r0, r4
    3ee0:	bd70      	pop	{r4, r5, r6, pc}
    3ee2:	bf00      	nop
    3ee4:	00007630 	.word	0x00007630
    3ee8:	00003e7d 	.word	0x00003e7d

00003eec <mbed::SerialBase::baud(int)>:
    3eec:	b538      	push	{r3, r4, r5, lr}
    3eee:	4604      	mov	r4, r0
    3ef0:	460d      	mov	r5, r1
    3ef2:	3004      	adds	r0, #4
    3ef4:	f7ff fa28 	bl	3348 <serial_baud>
    3ef8:	63e5      	str	r5, [r4, #60]	; 0x3c
    3efa:	bd38      	pop	{r3, r4, r5, pc}

00003efc <mbed::SerialBase::_base_getc()>:
    3efc:	3004      	adds	r0, #4
    3efe:	f7ff bb2d 	b.w	355c <serial_getc>
    3f02:	bf00      	nop

00003f04 <mbed::SerialBase::_base_putc(int)>:
    3f04:	b510      	push	{r4, lr}
    3f06:	460c      	mov	r4, r1
    3f08:	3004      	adds	r0, #4
    3f0a:	f7ff fb6f 	bl	35ec <serial_putc>
    3f0e:	4620      	mov	r0, r4
    3f10:	bd10      	pop	{r4, pc}
    3f12:	bf00      	nop

00003f14 <mbed::Serial::_getc()>:
    3f14:	f7ff bff2 	b.w	3efc <mbed::SerialBase::_base_getc()>

00003f18 <non-virtual thunk to mbed::Serial::_getc()>:
    3f18:	f1a0 0040 	sub.w	r0, r0, #64	; 0x40
    3f1c:	f7ff bffa 	b.w	3f14 <mbed::Serial::_getc()>

00003f20 <mbed::Serial::_putc(int)>:
    3f20:	f7ff bff0 	b.w	3f04 <mbed::SerialBase::_base_putc(int)>

00003f24 <non-virtual thunk to mbed::Serial::_putc(int)>:
    3f24:	f1a0 0040 	sub.w	r0, r0, #64	; 0x40
    3f28:	f7ff bffa 	b.w	3f20 <mbed::Serial::_putc(int)>

00003f2c <mbed::Serial::~Serial()>:
    3f2c:	b510      	push	{r4, lr}
    3f2e:	4604      	mov	r4, r0
    3f30:	4b06      	ldr	r3, [pc, #24]	; (3f4c <mbed::Serial::~Serial()+0x20>)
    3f32:	3040      	adds	r0, #64	; 0x40
    3f34:	f103 0108 	add.w	r1, r3, #8
    3f38:	f103 0220 	add.w	r2, r3, #32
    3f3c:	3354      	adds	r3, #84	; 0x54
    3f3e:	6021      	str	r1, [r4, #0]
    3f40:	6422      	str	r2, [r4, #64]	; 0x40
    3f42:	6463      	str	r3, [r4, #68]	; 0x44
    3f44:	f000 f896 	bl	4074 <mbed::Stream::~Stream()>
    3f48:	4620      	mov	r0, r4
    3f4a:	bd10      	pop	{r4, pc}
    3f4c:	00007638 	.word	0x00007638

00003f50 <non-virtual thunk to mbed::Serial::~Serial()>:
    3f50:	f1a0 0040 	sub.w	r0, r0, #64	; 0x40
    3f54:	e7ea      	b.n	3f2c <mbed::Serial::~Serial()>
    3f56:	bf00      	nop

00003f58 <non-virtual thunk to mbed::Serial::~Serial()>:
    3f58:	f1a0 0044 	sub.w	r0, r0, #68	; 0x44
    3f5c:	e7e6      	b.n	3f2c <mbed::Serial::~Serial()>
    3f5e:	bf00      	nop

00003f60 <mbed::Serial::~Serial()>:
    3f60:	b510      	push	{r4, lr}
    3f62:	4604      	mov	r4, r0
    3f64:	4b08      	ldr	r3, [pc, #32]	; (3f88 <mbed::Serial::~Serial()+0x28>)
    3f66:	3040      	adds	r0, #64	; 0x40
    3f68:	f103 0108 	add.w	r1, r3, #8
    3f6c:	f103 0220 	add.w	r2, r3, #32
    3f70:	3354      	adds	r3, #84	; 0x54
    3f72:	6021      	str	r1, [r4, #0]
    3f74:	6422      	str	r2, [r4, #64]	; 0x40
    3f76:	6463      	str	r3, [r4, #68]	; 0x44
    3f78:	f000 f87c 	bl	4074 <mbed::Stream::~Stream()>
    3f7c:	4620      	mov	r0, r4
    3f7e:	f000 f8f4 	bl	416a <operator delete(void*)>
    3f82:	4620      	mov	r0, r4
    3f84:	bd10      	pop	{r4, pc}
    3f86:	bf00      	nop
    3f88:	00007638 	.word	0x00007638

00003f8c <non-virtual thunk to mbed::Serial::~Serial()>:
    3f8c:	f1a0 0040 	sub.w	r0, r0, #64	; 0x40
    3f90:	e7e6      	b.n	3f60 <mbed::Serial::~Serial()>
    3f92:	bf00      	nop

00003f94 <non-virtual thunk to mbed::Serial::~Serial()>:
    3f94:	f1a0 0044 	sub.w	r0, r0, #68	; 0x44
    3f98:	e7e2      	b.n	3f60 <mbed::Serial::~Serial()>
    3f9a:	bf00      	nop

00003f9c <mbed::Serial::Serial(PinName, PinName, char const*)>:
    3f9c:	b538      	push	{r3, r4, r5, lr}
    3f9e:	4604      	mov	r4, r0
    3fa0:	461d      	mov	r5, r3
    3fa2:	f7ff ff85 	bl	3eb0 <mbed::SerialBase::SerialBase(PinName, PinName)>
    3fa6:	4629      	mov	r1, r5
    3fa8:	f104 0040 	add.w	r0, r4, #64	; 0x40
    3fac:	f000 f840 	bl	4030 <mbed::Stream::Stream(char const*)>
    3fb0:	4b05      	ldr	r3, [pc, #20]	; (3fc8 <mbed::Serial::Serial(PinName, PinName, char const*)+0x2c>)
    3fb2:	4620      	mov	r0, r4
    3fb4:	f103 0108 	add.w	r1, r3, #8
    3fb8:	f103 0220 	add.w	r2, r3, #32
    3fbc:	3354      	adds	r3, #84	; 0x54
    3fbe:	6021      	str	r1, [r4, #0]
    3fc0:	6422      	str	r2, [r4, #64]	; 0x40
    3fc2:	6463      	str	r3, [r4, #68]	; 0x44
    3fc4:	bd38      	pop	{r3, r4, r5, pc}
    3fc6:	bf00      	nop
    3fc8:	00007638 	.word	0x00007638

00003fcc <mbed::Stream::write(void const*, unsigned int)>:
    3fcc:	b5f8      	push	{r3, r4, r5, r6, r7, lr}
    3fce:	188e      	adds	r6, r1, r2
    3fd0:	42b1      	cmp	r1, r6
    3fd2:	460f      	mov	r7, r1
    3fd4:	d00e      	beq.n	3ff4 <mbed::Stream::write(void const*, unsigned int)+0x28>
    3fd6:	4605      	mov	r5, r0
    3fd8:	460c      	mov	r4, r1
    3fda:	e001      	b.n	3fe0 <mbed::Stream::write(void const*, unsigned int)+0x14>
    3fdc:	42a6      	cmp	r6, r4
    3fde:	d007      	beq.n	3ff0 <mbed::Stream::write(void const*, unsigned int)+0x24>
    3fe0:	682b      	ldr	r3, [r5, #0]
    3fe2:	f814 1b01 	ldrb.w	r1, [r4], #1
    3fe6:	6a5b      	ldr	r3, [r3, #36]	; 0x24
    3fe8:	4628      	mov	r0, r5
    3fea:	4798      	blx	r3
    3fec:	3001      	adds	r0, #1
    3fee:	d1f5      	bne.n	3fdc <mbed::Stream::write(void const*, unsigned int)+0x10>
    3ff0:	1be0      	subs	r0, r4, r7
    3ff2:	bdf8      	pop	{r3, r4, r5, r6, r7, pc}
    3ff4:	460c      	mov	r4, r1
    3ff6:	e7fb      	b.n	3ff0 <mbed::Stream::write(void const*, unsigned int)+0x24>

00003ff8 <mbed::Stream::read(void*, unsigned int)>:
    3ff8:	b5f8      	push	{r3, r4, r5, r6, r7, lr}
    3ffa:	188e      	adds	r6, r1, r2
    3ffc:	42b1      	cmp	r1, r6
    3ffe:	460f      	mov	r7, r1
    4000:	d00e      	beq.n	4020 <mbed::Stream::read(void*, unsigned int)+0x28>
    4002:	4605      	mov	r5, r0
    4004:	460c      	mov	r4, r1
    4006:	e003      	b.n	4010 <mbed::Stream::read(void*, unsigned int)+0x18>
    4008:	f804 0b01 	strb.w	r0, [r4], #1
    400c:	42a6      	cmp	r6, r4
    400e:	d005      	beq.n	401c <mbed::Stream::read(void*, unsigned int)+0x24>
    4010:	682b      	ldr	r3, [r5, #0]
    4012:	4628      	mov	r0, r5
    4014:	6a9b      	ldr	r3, [r3, #40]	; 0x28
    4016:	4798      	blx	r3
    4018:	1c43      	adds	r3, r0, #1
    401a:	d1f5      	bne.n	4008 <mbed::Stream::read(void*, unsigned int)+0x10>
    401c:	1be0      	subs	r0, r4, r7
    401e:	bdf8      	pop	{r3, r4, r5, r6, r7, pc}
    4020:	460c      	mov	r4, r1
    4022:	e7fb      	b.n	401c <mbed::Stream::read(void*, unsigned int)+0x24>

00004024 <mbed::Stream::lseek(long, int)>:
    4024:	2000      	movs	r0, #0
    4026:	4770      	bx	lr

00004028 <mbed::Stream::close()>:
    4028:	2000      	movs	r0, #0
    402a:	4770      	bx	lr

0000402c <mbed::Stream::flen()>:
    402c:	2000      	movs	r0, #0
    402e:	4770      	bx	lr

00004030 <mbed::Stream::Stream(char const*)>:
    4030:	b510      	push	{r4, lr}
    4032:	4604      	mov	r4, r0
    4034:	b084      	sub	sp, #16
    4036:	f7ff fd2f 	bl	3a98 <mbed::FileLike::FileLike(char const*)>
    403a:	4b0b      	ldr	r3, [pc, #44]	; (4068 <mbed::Stream::Stream(char const*)+0x38>)
    403c:	2200      	movs	r2, #0
    403e:	f103 0108 	add.w	r1, r3, #8
    4042:	333c      	adds	r3, #60	; 0x3c
    4044:	e884 000a 	stmia.w	r4, {r1, r3}
    4048:	6162      	str	r2, [r4, #20]
    404a:	a801      	add	r0, sp, #4
    404c:	4622      	mov	r2, r4
    404e:	4907      	ldr	r1, [pc, #28]	; (406c <mbed::Stream::Stream(char const*)+0x3c>)
    4050:	f002 f96c 	bl	632c <siprintf>
    4054:	4906      	ldr	r1, [pc, #24]	; (4070 <mbed::Stream::Stream(char const*)+0x40>)
    4056:	a801      	add	r0, sp, #4
    4058:	f001 f9ca 	bl	53f0 <fopen>
    405c:	6160      	str	r0, [r4, #20]
    405e:	f7ff ff09 	bl	3e74 <mbed::mbed_set_unbuffered_stream(__sFILE*)>
    4062:	4620      	mov	r0, r4
    4064:	b004      	add	sp, #16
    4066:	bd10      	pop	{r4, pc}
    4068:	00007694 	.word	0x00007694
    406c:	00007618 	.word	0x00007618
    4070:	000076d8 	.word	0x000076d8

00004074 <mbed::Stream::~Stream()>:
    4074:	b510      	push	{r4, lr}
    4076:	4604      	mov	r4, r0
    4078:	4b06      	ldr	r3, [pc, #24]	; (4094 <mbed::Stream::~Stream()+0x20>)
    407a:	6940      	ldr	r0, [r0, #20]
    407c:	f103 0208 	add.w	r2, r3, #8
    4080:	333c      	adds	r3, #60	; 0x3c
    4082:	e884 000c 	stmia.w	r4, {r2, r3}
    4086:	f000 fffb 	bl	5080 <fclose>
    408a:	4620      	mov	r0, r4
    408c:	f7ff fd18 	bl	3ac0 <mbed::FileLike::~FileLike()>
    4090:	4620      	mov	r0, r4
    4092:	bd10      	pop	{r4, pc}
    4094:	00007694 	.word	0x00007694

00004098 <mbed::Stream::putc(int)>:
    4098:	b538      	push	{r3, r4, r5, lr}
    409a:	460d      	mov	r5, r1
    409c:	4604      	mov	r4, r0
    409e:	6940      	ldr	r0, [r0, #20]
    40a0:	f001 f8a6 	bl	51f0 <fflush>
    40a4:	6961      	ldr	r1, [r4, #20]
    40a6:	4628      	mov	r0, r5
    40a8:	e8bd 4038 	ldmia.w	sp!, {r3, r4, r5, lr}
    40ac:	f001 b9cc 	b.w	5448 <fputc>

000040b0 <mbed::Timer::slicetime() [clone .part.0]>:
    40b0:	b510      	push	{r4, lr}
    40b2:	4604      	mov	r4, r0
    40b4:	68c0      	ldr	r0, [r0, #12]
    40b6:	f7fe fe65 	bl	2d84 <ticker_read>
    40ba:	6863      	ldr	r3, [r4, #4]
    40bc:	1ac0      	subs	r0, r0, r3
    40be:	bd10      	pop	{r4, pc}

000040c0 <mbed::Timer::Timer()>:
    40c0:	b538      	push	{r3, r4, r5, lr}
    40c2:	2500      	movs	r5, #0
    40c4:	6005      	str	r5, [r0, #0]
    40c6:	6045      	str	r5, [r0, #4]
    40c8:	6085      	str	r5, [r0, #8]
    40ca:	4604      	mov	r4, r0
    40cc:	f7fe fe5e 	bl	2d8c <get_us_ticker_data>
    40d0:	60e0      	str	r0, [r4, #12]
    40d2:	f7fe fe57 	bl	2d84 <ticker_read>
    40d6:	60a5      	str	r5, [r4, #8]
    40d8:	6060      	str	r0, [r4, #4]
    40da:	4620      	mov	r0, r4
    40dc:	bd38      	pop	{r3, r4, r5, pc}
    40de:	bf00      	nop

000040e0 <mbed::Timer::start()>:
    40e0:	6803      	ldr	r3, [r0, #0]
    40e2:	b103      	cbz	r3, 40e6 <mbed::Timer::start()+0x6>
    40e4:	4770      	bx	lr
    40e6:	b510      	push	{r4, lr}
    40e8:	4604      	mov	r4, r0
    40ea:	68c0      	ldr	r0, [r0, #12]
    40ec:	f7fe fe4a 	bl	2d84 <ticker_read>
    40f0:	2301      	movs	r3, #1
    40f2:	6060      	str	r0, [r4, #4]
    40f4:	6023      	str	r3, [r4, #0]
    40f6:	bd10      	pop	{r4, pc}

000040f8 <mbed::Timer::read_ms()>:
    40f8:	6803      	ldr	r3, [r0, #0]
    40fa:	b510      	push	{r4, lr}
    40fc:	6884      	ldr	r4, [r0, #8]
    40fe:	b113      	cbz	r3, 4106 <mbed::Timer::read_ms()+0xe>
    4100:	f7ff ffd6 	bl	40b0 <mbed::Timer::slicetime() [clone .part.0]>
    4104:	4603      	mov	r3, r0
    4106:	4804      	ldr	r0, [pc, #16]	; (4118 <mbed::Timer::read_ms()+0x20>)
    4108:	4423      	add	r3, r4
    410a:	fb80 2003 	smull	r2, r0, r0, r3
    410e:	17db      	asrs	r3, r3, #31
    4110:	ebc3 10a0 	rsb	r0, r3, r0, asr #6
    4114:	bd10      	pop	{r4, pc}
    4116:	bf00      	nop
    4118:	10624dd3 	.word	0x10624dd3

0000411c <Reset_Handler>:
    411c:	4906      	ldr	r1, [pc, #24]	; (4138 <Reset_Handler+0x1c>)
    411e:	4a07      	ldr	r2, [pc, #28]	; (413c <Reset_Handler+0x20>)
    4120:	4b07      	ldr	r3, [pc, #28]	; (4140 <Reset_Handler+0x24>)
    4122:	429a      	cmp	r2, r3
    4124:	bfbe      	ittt	lt
    4126:	f851 0b04 	ldrlt.w	r0, [r1], #4
    412a:	f842 0b04 	strlt.w	r0, [r2], #4
    412e:	e7f8      	blt.n	4122 <Reset_Handler+0x6>
    4130:	4804      	ldr	r0, [pc, #16]	; (4144 <Reset_Handler+0x28>)
    4132:	4780      	blx	r0
    4134:	4804      	ldr	r0, [pc, #16]	; (4148 <Reset_Handler+0x2c>)
    4136:	4700      	bx	r0
    4138:	000078a4 	.word	0x000078a4
    413c:	100000c8 	.word	0x100000c8
    4140:	10000164 	.word	0x10000164
    4144:	00002e01 	.word	0x00002e01
    4148:	000023b1 	.word	0x000023b1

0000414c <NMI_Handler>:
    414c:	e7fe      	b.n	414c <NMI_Handler>

0000414e <HardFault_Handler>:
    414e:	e7fe      	b.n	414e <HardFault_Handler>

00004150 <MemManage_Handler>:
    4150:	e7fe      	b.n	4150 <MemManage_Handler>

00004152 <BusFault_Handler>:
    4152:	e7fe      	b.n	4152 <BusFault_Handler>

00004154 <UsageFault_Handler>:
    4154:	e7fe      	b.n	4154 <UsageFault_Handler>

00004156 <SVC_Handler>:
    4156:	e7fe      	b.n	4156 <SVC_Handler>

00004158 <DebugMon_Handler>:
    4158:	e7fe      	b.n	4158 <DebugMon_Handler>

0000415a <PendSV_Handler>:
    415a:	e7fe      	b.n	415a <PendSV_Handler>

0000415c <SysTick_Handler>:
    415c:	e7fe      	b.n	415c <SysTick_Handler>

0000415e <ADC_IRQHandler>:
    415e:	e7fe      	b.n	415e <ADC_IRQHandler>

00004160 <__aeabi_atexit>:
    4160:	460b      	mov	r3, r1
    4162:	4601      	mov	r1, r0
    4164:	4618      	mov	r0, r3
    4166:	f000 bf11 	b.w	4f8c <__cxa_atexit>

0000416a <operator delete(void*)>:
    416a:	f7fe b947 	b.w	23fc <__wrap_free>
	...

00004170 <__aeabi_drsub>:
    4170:	f081 4100 	eor.w	r1, r1, #2147483648	; 0x80000000
    4174:	e002      	b.n	417c <__adddf3>
    4176:	bf00      	nop

00004178 <__aeabi_dsub>:
    4178:	f083 4300 	eor.w	r3, r3, #2147483648	; 0x80000000

0000417c <__adddf3>:
    417c:	b530      	push	{r4, r5, lr}
    417e:	ea4f 0441 	mov.w	r4, r1, lsl #1
    4182:	ea4f 0543 	mov.w	r5, r3, lsl #1
    4186:	ea94 0f05 	teq	r4, r5
    418a:	bf08      	it	eq
    418c:	ea90 0f02 	teqeq	r0, r2
    4190:	bf1f      	itttt	ne
    4192:	ea54 0c00 	orrsne.w	r12, r4, r0
    4196:	ea55 0c02 	orrsne.w	r12, r5, r2
    419a:	ea7f 5c64 	mvnsne.w	r12, r4, asr #21
    419e:	ea7f 5c65 	mvnsne.w	r12, r5, asr #21
    41a2:	f000 80e2 	beq.w	436a <__adddf3+0x1ee>
    41a6:	ea4f 5454 	mov.w	r4, r4, lsr #21
    41aa:	ebd4 5555 	rsbs	r5, r4, r5, lsr #21
    41ae:	bfb8      	it	lt
    41b0:	426d      	neglt	r5, r5
    41b2:	dd0c      	ble.n	41ce <__adddf3+0x52>
    41b4:	442c      	add	r4, r5
    41b6:	ea80 0202 	eor.w	r2, r0, r2
    41ba:	ea81 0303 	eor.w	r3, r1, r3
    41be:	ea82 0000 	eor.w	r0, r2, r0
    41c2:	ea83 0101 	eor.w	r1, r3, r1
    41c6:	ea80 0202 	eor.w	r2, r0, r2
    41ca:	ea81 0303 	eor.w	r3, r1, r3
    41ce:	2d36      	cmp	r5, #54	; 0x36
    41d0:	bf88      	it	hi
    41d2:	bd30      	pophi	{r4, r5, pc}
    41d4:	f011 4f00 	tst.w	r1, #2147483648	; 0x80000000
    41d8:	ea4f 3101 	mov.w	r1, r1, lsl #12
    41dc:	f44f 1c80 	mov.w	r12, #1048576	; 0x100000
    41e0:	ea4c 3111 	orr.w	r1, r12, r1, lsr #12
    41e4:	d002      	beq.n	41ec <__adddf3+0x70>
    41e6:	4240      	negs	r0, r0
    41e8:	eb61 0141 	sbc.w	r1, r1, r1, lsl #1
    41ec:	f013 4f00 	tst.w	r3, #2147483648	; 0x80000000
    41f0:	ea4f 3303 	mov.w	r3, r3, lsl #12
    41f4:	ea4c 3313 	orr.w	r3, r12, r3, lsr #12
    41f8:	d002      	beq.n	4200 <__adddf3+0x84>
    41fa:	4252      	negs	r2, r2
    41fc:	eb63 0343 	sbc.w	r3, r3, r3, lsl #1
    4200:	ea94 0f05 	teq	r4, r5
    4204:	f000 80a7 	beq.w	4356 <__adddf3+0x1da>
    4208:	f1a4 0401 	sub.w	r4, r4, #1
    420c:	f1d5 0e20 	rsbs	lr, r5, #32
    4210:	db0d      	blt.n	422e <__adddf3+0xb2>
    4212:	fa02 fc0e 	lsl.w	r12, r2, lr
    4216:	fa22 f205 	lsr.w	r2, r2, r5
    421a:	1880      	adds	r0, r0, r2
    421c:	f141 0100 	adc.w	r1, r1, #0
    4220:	fa03 f20e 	lsl.w	r2, r3, lr
    4224:	1880      	adds	r0, r0, r2
    4226:	fa43 f305 	asr.w	r3, r3, r5
    422a:	4159      	adcs	r1, r3
    422c:	e00e      	b.n	424c <__adddf3+0xd0>
    422e:	f1a5 0520 	sub.w	r5, r5, #32
    4232:	f10e 0e20 	add.w	lr, lr, #32
    4236:	2a01      	cmp	r2, #1
    4238:	fa03 fc0e 	lsl.w	r12, r3, lr
    423c:	bf28      	it	cs
    423e:	f04c 0c02 	orrcs.w	r12, r12, #2
    4242:	fa43 f305 	asr.w	r3, r3, r5
    4246:	18c0      	adds	r0, r0, r3
    4248:	eb51 71e3 	adcs.w	r1, r1, r3, asr #31
    424c:	f001 4500 	and.w	r5, r1, #2147483648	; 0x80000000
    4250:	d507      	bpl.n	4262 <__adddf3+0xe6>
    4252:	f04f 0e00 	mov.w	lr, #0
    4256:	f1dc 0c00 	rsbs	r12, r12, #0
    425a:	eb7e 0000 	sbcs.w	r0, lr, r0
    425e:	eb6e 0101 	sbc.w	r1, lr, r1
    4262:	f5b1 1f80 	cmp.w	r1, #1048576	; 0x100000
    4266:	d31b      	bcc.n	42a0 <__adddf3+0x124>
    4268:	f5b1 1f00 	cmp.w	r1, #2097152	; 0x200000
    426c:	d30c      	bcc.n	4288 <__adddf3+0x10c>
    426e:	0849      	lsrs	r1, r1, #1
    4270:	ea5f 0030 	movs.w	r0, r0, rrx
    4274:	ea4f 0c3c 	mov.w	r12, r12, rrx
    4278:	f104 0401 	add.w	r4, r4, #1
    427c:	ea4f 5244 	mov.w	r2, r4, lsl #21
    4280:	f512 0f80 	cmn.w	r2, #4194304	; 0x400000
    4284:	f080 809a 	bcs.w	43bc <__adddf3+0x240>
    4288:	f1bc 4f00 	cmp.w	r12, #2147483648	; 0x80000000
    428c:	bf08      	it	eq
    428e:	ea5f 0c50 	movseq.w	r12, r0, lsr #1
    4292:	f150 0000 	adcs.w	r0, r0, #0
    4296:	eb41 5104 	adc.w	r1, r1, r4, lsl #20
    429a:	ea41 0105 	orr.w	r1, r1, r5
    429e:	bd30      	pop	{r4, r5, pc}
    42a0:	ea5f 0c4c 	movs.w	r12, r12, lsl #1
    42a4:	4140      	adcs	r0, r0
    42a6:	eb41 0101 	adc.w	r1, r1, r1
    42aa:	f411 1f80 	tst.w	r1, #1048576	; 0x100000
    42ae:	f1a4 0401 	sub.w	r4, r4, #1
    42b2:	d1e9      	bne.n	4288 <__adddf3+0x10c>
    42b4:	f091 0f00 	teq	r1, #0
    42b8:	bf04      	itt	eq
    42ba:	4601      	moveq	r1, r0
    42bc:	2000      	moveq	r0, #0
    42be:	fab1 f381 	clz	r3, r1
    42c2:	bf08      	it	eq
    42c4:	3320      	addeq	r3, #32
    42c6:	f1a3 030b 	sub.w	r3, r3, #11
    42ca:	f1b3 0220 	subs.w	r2, r3, #32
    42ce:	da0c      	bge.n	42ea <__adddf3+0x16e>
    42d0:	320c      	adds	r2, #12
    42d2:	dd08      	ble.n	42e6 <__adddf3+0x16a>
    42d4:	f102 0c14 	add.w	r12, r2, #20
    42d8:	f1c2 020c 	rsb	r2, r2, #12
    42dc:	fa01 f00c 	lsl.w	r0, r1, r12
    42e0:	fa21 f102 	lsr.w	r1, r1, r2
    42e4:	e00c      	b.n	4300 <__adddf3+0x184>
    42e6:	f102 0214 	add.w	r2, r2, #20
    42ea:	bfd8      	it	le
    42ec:	f1c2 0c20 	rsble	r12, r2, #32
    42f0:	fa01 f102 	lsl.w	r1, r1, r2
    42f4:	fa20 fc0c 	lsr.w	r12, r0, r12
    42f8:	bfdc      	itt	le
    42fa:	ea41 010c 	orrle.w	r1, r1, r12
    42fe:	4090      	lslle	r0, r2
    4300:	1ae4      	subs	r4, r4, r3
    4302:	bfa2      	ittt	ge
    4304:	eb01 5104 	addge.w	r1, r1, r4, lsl #20
    4308:	4329      	orrge	r1, r5
    430a:	bd30      	popge	{r4, r5, pc}
    430c:	ea6f 0404 	mvn.w	r4, r4
    4310:	3c1f      	subs	r4, #31
    4312:	da1c      	bge.n	434e <__adddf3+0x1d2>
    4314:	340c      	adds	r4, #12
    4316:	dc0e      	bgt.n	4336 <__adddf3+0x1ba>
    4318:	f104 0414 	add.w	r4, r4, #20
    431c:	f1c4 0220 	rsb	r2, r4, #32
    4320:	fa20 f004 	lsr.w	r0, r0, r4
    4324:	fa01 f302 	lsl.w	r3, r1, r2
    4328:	ea40 0003 	orr.w	r0, r0, r3
    432c:	fa21 f304 	lsr.w	r3, r1, r4
    4330:	ea45 0103 	orr.w	r1, r5, r3
    4334:	bd30      	pop	{r4, r5, pc}
    4336:	f1c4 040c 	rsb	r4, r4, #12
    433a:	f1c4 0220 	rsb	r2, r4, #32
    433e:	fa20 f002 	lsr.w	r0, r0, r2
    4342:	fa01 f304 	lsl.w	r3, r1, r4
    4346:	ea40 0003 	orr.w	r0, r0, r3
    434a:	4629      	mov	r1, r5
    434c:	bd30      	pop	{r4, r5, pc}
    434e:	fa21 f004 	lsr.w	r0, r1, r4
    4352:	4629      	mov	r1, r5
    4354:	bd30      	pop	{r4, r5, pc}
    4356:	f094 0f00 	teq	r4, #0
    435a:	f483 1380 	eor.w	r3, r3, #1048576	; 0x100000
    435e:	bf06      	itte	eq
    4360:	f481 1180 	eoreq.w	r1, r1, #1048576	; 0x100000
    4364:	3401      	addeq	r4, #1
    4366:	3d01      	subne	r5, #1
    4368:	e74e      	b.n	4208 <__adddf3+0x8c>
    436a:	ea7f 5c64 	mvns.w	r12, r4, asr #21
    436e:	bf18      	it	ne
    4370:	ea7f 5c65 	mvnsne.w	r12, r5, asr #21
    4374:	d029      	beq.n	43ca <__adddf3+0x24e>
    4376:	ea94 0f05 	teq	r4, r5
    437a:	bf08      	it	eq
    437c:	ea90 0f02 	teqeq	r0, r2
    4380:	d005      	beq.n	438e <__adddf3+0x212>
    4382:	ea54 0c00 	orrs.w	r12, r4, r0
    4386:	bf04      	itt	eq
    4388:	4619      	moveq	r1, r3
    438a:	4610      	moveq	r0, r2
    438c:	bd30      	pop	{r4, r5, pc}
    438e:	ea91 0f03 	teq	r1, r3
    4392:	bf1e      	ittt	ne
    4394:	2100      	movne	r1, #0
    4396:	2000      	movne	r0, #0
    4398:	bd30      	popne	{r4, r5, pc}
    439a:	ea5f 5c54 	movs.w	r12, r4, lsr #21
    439e:	d105      	bne.n	43ac <__adddf3+0x230>
    43a0:	0040      	lsls	r0, r0, #1
    43a2:	4149      	adcs	r1, r1
    43a4:	bf28      	it	cs
    43a6:	f041 4100 	orrcs.w	r1, r1, #2147483648	; 0x80000000
    43aa:	bd30      	pop	{r4, r5, pc}
    43ac:	f514 0480 	adds.w	r4, r4, #4194304	; 0x400000
    43b0:	bf3c      	itt	cc
    43b2:	f501 1180 	addcc.w	r1, r1, #1048576	; 0x100000
    43b6:	bd30      	popcc	{r4, r5, pc}
    43b8:	f001 4500 	and.w	r5, r1, #2147483648	; 0x80000000
    43bc:	f045 41fe 	orr.w	r1, r5, #2130706432	; 0x7f000000
    43c0:	f441 0170 	orr.w	r1, r1, #15728640	; 0xf00000
    43c4:	f04f 0000 	mov.w	r0, #0
    43c8:	bd30      	pop	{r4, r5, pc}
    43ca:	ea7f 5c64 	mvns.w	r12, r4, asr #21
    43ce:	bf1a      	itte	ne
    43d0:	4619      	movne	r1, r3
    43d2:	4610      	movne	r0, r2
    43d4:	ea7f 5c65 	mvnseq.w	r12, r5, asr #21
    43d8:	bf1c      	itt	ne
    43da:	460b      	movne	r3, r1
    43dc:	4602      	movne	r2, r0
    43de:	ea50 3401 	orrs.w	r4, r0, r1, lsl #12
    43e2:	bf06      	itte	eq
    43e4:	ea52 3503 	orrseq.w	r5, r2, r3, lsl #12
    43e8:	ea91 0f03 	teqeq	r1, r3
    43ec:	f441 2100 	orrne.w	r1, r1, #524288	; 0x80000
    43f0:	bd30      	pop	{r4, r5, pc}
    43f2:	bf00      	nop

000043f4 <__aeabi_ui2d>:
    43f4:	f090 0f00 	teq	r0, #0
    43f8:	bf04      	itt	eq
    43fa:	2100      	moveq	r1, #0
    43fc:	4770      	bxeq	lr
    43fe:	b530      	push	{r4, r5, lr}
    4400:	f44f 6480 	mov.w	r4, #1024	; 0x400
    4404:	f104 0432 	add.w	r4, r4, #50	; 0x32
    4408:	f04f 0500 	mov.w	r5, #0
    440c:	f04f 0100 	mov.w	r1, #0
    4410:	e750      	b.n	42b4 <__adddf3+0x138>
    4412:	bf00      	nop

00004414 <__aeabi_i2d>:
    4414:	f090 0f00 	teq	r0, #0
    4418:	bf04      	itt	eq
    441a:	2100      	moveq	r1, #0
    441c:	4770      	bxeq	lr
    441e:	b530      	push	{r4, r5, lr}
    4420:	f44f 6480 	mov.w	r4, #1024	; 0x400
    4424:	f104 0432 	add.w	r4, r4, #50	; 0x32
    4428:	f010 4500 	ands.w	r5, r0, #2147483648	; 0x80000000
    442c:	bf48      	it	mi
    442e:	4240      	negmi	r0, r0
    4430:	f04f 0100 	mov.w	r1, #0
    4434:	e73e      	b.n	42b4 <__adddf3+0x138>
    4436:	bf00      	nop

00004438 <__aeabi_f2d>:
    4438:	0042      	lsls	r2, r0, #1
    443a:	ea4f 01e2 	mov.w	r1, r2, asr #3
    443e:	ea4f 0131 	mov.w	r1, r1, rrx
    4442:	ea4f 7002 	mov.w	r0, r2, lsl #28
    4446:	bf1f      	itttt	ne
    4448:	f012 437f 	andsne.w	r3, r2, #4278190080	; 0xff000000
    444c:	f093 4f7f 	teqne	r3, #4278190080	; 0xff000000
    4450:	f081 5160 	eorne.w	r1, r1, #939524096	; 0x38000000
    4454:	4770      	bxne	lr
    4456:	f092 0f00 	teq	r2, #0
    445a:	bf14      	ite	ne
    445c:	f093 4f7f 	teqne	r3, #4278190080	; 0xff000000
    4460:	4770      	bxeq	lr
    4462:	b530      	push	{r4, r5, lr}
    4464:	f44f 7460 	mov.w	r4, #896	; 0x380
    4468:	f001 4500 	and.w	r5, r1, #2147483648	; 0x80000000
    446c:	f021 4100 	bic.w	r1, r1, #2147483648	; 0x80000000
    4470:	e720      	b.n	42b4 <__adddf3+0x138>
    4472:	bf00      	nop

00004474 <__aeabi_ul2d>:
    4474:	ea50 0201 	orrs.w	r2, r0, r1
    4478:	bf08      	it	eq
    447a:	4770      	bxeq	lr
    447c:	b530      	push	{r4, r5, lr}
    447e:	f04f 0500 	mov.w	r5, #0
    4482:	e00a      	b.n	449a <__aeabi_l2d+0x16>

00004484 <__aeabi_l2d>:
    4484:	ea50 0201 	orrs.w	r2, r0, r1
    4488:	bf08      	it	eq
    448a:	4770      	bxeq	lr
    448c:	b530      	push	{r4, r5, lr}
    448e:	f011 4500 	ands.w	r5, r1, #2147483648	; 0x80000000
    4492:	d502      	bpl.n	449a <__aeabi_l2d+0x16>
    4494:	4240      	negs	r0, r0
    4496:	eb61 0141 	sbc.w	r1, r1, r1, lsl #1
    449a:	f44f 6480 	mov.w	r4, #1024	; 0x400
    449e:	f104 0432 	add.w	r4, r4, #50	; 0x32
    44a2:	ea5f 5c91 	movs.w	r12, r1, lsr #22
    44a6:	f43f aedc 	beq.w	4262 <__adddf3+0xe6>
    44aa:	f04f 0203 	mov.w	r2, #3
    44ae:	ea5f 0cdc 	movs.w	r12, r12, lsr #3
    44b2:	bf18      	it	ne
    44b4:	3203      	addne	r2, #3
    44b6:	ea5f 0cdc 	movs.w	r12, r12, lsr #3
    44ba:	bf18      	it	ne
    44bc:	3203      	addne	r2, #3
    44be:	eb02 02dc 	add.w	r2, r2, r12, lsr #3
    44c2:	f1c2 0320 	rsb	r3, r2, #32
    44c6:	fa00 fc03 	lsl.w	r12, r0, r3
    44ca:	fa20 f002 	lsr.w	r0, r0, r2
    44ce:	fa01 fe03 	lsl.w	lr, r1, r3
    44d2:	ea40 000e 	orr.w	r0, r0, lr
    44d6:	fa21 f102 	lsr.w	r1, r1, r2
    44da:	4414      	add	r4, r2
    44dc:	e6c1      	b.n	4262 <__adddf3+0xe6>
    44de:	bf00      	nop

000044e0 <__aeabi_dmul>:
    44e0:	b570      	push	{r4, r5, r6, lr}
    44e2:	f04f 0cff 	mov.w	r12, #255	; 0xff
    44e6:	f44c 6ce0 	orr.w	r12, r12, #1792	; 0x700
    44ea:	ea1c 5411 	ands.w	r4, r12, r1, lsr #20
    44ee:	bf1d      	ittte	ne
    44f0:	ea1c 5513 	andsne.w	r5, r12, r3, lsr #20
    44f4:	ea94 0f0c 	teqne	r4, r12
    44f8:	ea95 0f0c 	teqne	r5, r12
    44fc:	f000 f8de 	bleq	46bc <__aeabi_dmul+0x1dc>
    4500:	442c      	add	r4, r5
    4502:	ea81 0603 	eor.w	r6, r1, r3
    4506:	ea21 514c 	bic.w	r1, r1, r12, lsl #21
    450a:	ea23 534c 	bic.w	r3, r3, r12, lsl #21
    450e:	ea50 3501 	orrs.w	r5, r0, r1, lsl #12
    4512:	bf18      	it	ne
    4514:	ea52 3503 	orrsne.w	r5, r2, r3, lsl #12
    4518:	f441 1180 	orr.w	r1, r1, #1048576	; 0x100000
    451c:	f443 1380 	orr.w	r3, r3, #1048576	; 0x100000
    4520:	d038      	beq.n	4594 <__aeabi_dmul+0xb4>
    4522:	fba0 ce02 	umull	r12, lr, r0, r2
    4526:	f04f 0500 	mov.w	r5, #0
    452a:	fbe1 e502 	umlal	lr, r5, r1, r2
    452e:	f006 4200 	and.w	r2, r6, #2147483648	; 0x80000000
    4532:	fbe0 e503 	umlal	lr, r5, r0, r3
    4536:	f04f 0600 	mov.w	r6, #0
    453a:	fbe1 5603 	umlal	r5, r6, r1, r3
    453e:	f09c 0f00 	teq	r12, #0
    4542:	bf18      	it	ne
    4544:	f04e 0e01 	orrne.w	lr, lr, #1
    4548:	f1a4 04ff 	sub.w	r4, r4, #255	; 0xff
    454c:	f5b6 7f00 	cmp.w	r6, #512	; 0x200
    4550:	f564 7440 	sbc.w	r4, r4, #768	; 0x300
    4554:	d204      	bcs.n	4560 <__aeabi_dmul+0x80>
    4556:	ea5f 0e4e 	movs.w	lr, lr, lsl #1
    455a:	416d      	adcs	r5, r5
    455c:	eb46 0606 	adc.w	r6, r6, r6
    4560:	ea42 21c6 	orr.w	r1, r2, r6, lsl #11
    4564:	ea41 5155 	orr.w	r1, r1, r5, lsr #21
    4568:	ea4f 20c5 	mov.w	r0, r5, lsl #11
    456c:	ea40 505e 	orr.w	r0, r0, lr, lsr #21
    4570:	ea4f 2ece 	mov.w	lr, lr, lsl #11
    4574:	f1b4 0cfd 	subs.w	r12, r4, #253	; 0xfd
    4578:	bf88      	it	hi
    457a:	f5bc 6fe0 	cmphi.w	r12, #1792	; 0x700
    457e:	d81e      	bhi.n	45be <__aeabi_dmul+0xde>
    4580:	f1be 4f00 	cmp.w	lr, #2147483648	; 0x80000000
    4584:	bf08      	it	eq
    4586:	ea5f 0e50 	movseq.w	lr, r0, lsr #1
    458a:	f150 0000 	adcs.w	r0, r0, #0
    458e:	eb41 5104 	adc.w	r1, r1, r4, lsl #20
    4592:	bd70      	pop	{r4, r5, r6, pc}
    4594:	f006 4600 	and.w	r6, r6, #2147483648	; 0x80000000
    4598:	ea46 0101 	orr.w	r1, r6, r1
    459c:	ea40 0002 	orr.w	r0, r0, r2
    45a0:	ea81 0103 	eor.w	r1, r1, r3
    45a4:	ebb4 045c 	subs.w	r4, r4, r12, lsr #1
    45a8:	bfc2      	ittt	gt
    45aa:	ebd4 050c 	rsbsgt	r5, r4, r12
    45ae:	ea41 5104 	orrgt.w	r1, r1, r4, lsl #20
    45b2:	bd70      	popgt	{r4, r5, r6, pc}
    45b4:	f441 1180 	orr.w	r1, r1, #1048576	; 0x100000
    45b8:	f04f 0e00 	mov.w	lr, #0
    45bc:	3c01      	subs	r4, #1
    45be:	f300 80ab 	bgt.w	4718 <__aeabi_dmul+0x238>
    45c2:	f114 0f36 	cmn.w	r4, #54	; 0x36
    45c6:	bfde      	ittt	le
    45c8:	2000      	movle	r0, #0
    45ca:	f001 4100 	andle.w	r1, r1, #2147483648	; 0x80000000
    45ce:	bd70      	pople	{r4, r5, r6, pc}
    45d0:	f1c4 0400 	rsb	r4, r4, #0
    45d4:	3c20      	subs	r4, #32
    45d6:	da35      	bge.n	4644 <__aeabi_dmul+0x164>
    45d8:	340c      	adds	r4, #12
    45da:	dc1b      	bgt.n	4614 <__aeabi_dmul+0x134>
    45dc:	f104 0414 	add.w	r4, r4, #20
    45e0:	f1c4 0520 	rsb	r5, r4, #32
    45e4:	fa00 f305 	lsl.w	r3, r0, r5
    45e8:	fa20 f004 	lsr.w	r0, r0, r4
    45ec:	fa01 f205 	lsl.w	r2, r1, r5
    45f0:	ea40 0002 	orr.w	r0, r0, r2
    45f4:	f001 4200 	and.w	r2, r1, #2147483648	; 0x80000000
    45f8:	f021 4100 	bic.w	r1, r1, #2147483648	; 0x80000000
    45fc:	eb10 70d3 	adds.w	r0, r0, r3, lsr #31
    4600:	fa21 f604 	lsr.w	r6, r1, r4
    4604:	eb42 0106 	adc.w	r1, r2, r6
    4608:	ea5e 0e43 	orrs.w	lr, lr, r3, lsl #1
    460c:	bf08      	it	eq
    460e:	ea20 70d3 	biceq.w	r0, r0, r3, lsr #31
    4612:	bd70      	pop	{r4, r5, r6, pc}
    4614:	f1c4 040c 	rsb	r4, r4, #12
    4618:	f1c4 0520 	rsb	r5, r4, #32
    461c:	fa00 f304 	lsl.w	r3, r0, r4
    4620:	fa20 f005 	lsr.w	r0, r0, r5
    4624:	fa01 f204 	lsl.w	r2, r1, r4
    4628:	ea40 0002 	orr.w	r0, r0, r2
    462c:	f001 4100 	and.w	r1, r1, #2147483648	; 0x80000000
    4630:	eb10 70d3 	adds.w	r0, r0, r3, lsr #31
    4634:	f141 0100 	adc.w	r1, r1, #0
    4638:	ea5e 0e43 	orrs.w	lr, lr, r3, lsl #1
    463c:	bf08      	it	eq
    463e:	ea20 70d3 	biceq.w	r0, r0, r3, lsr #31
    4642:	bd70      	pop	{r4, r5, r6, pc}
    4644:	f1c4 0520 	rsb	r5, r4, #32
    4648:	fa00 f205 	lsl.w	r2, r0, r5
    464c:	ea4e 0e02 	orr.w	lr, lr, r2
    4650:	fa20 f304 	lsr.w	r3, r0, r4
    4654:	fa01 f205 	lsl.w	r2, r1, r5
    4658:	ea43 0302 	orr.w	r3, r3, r2
    465c:	fa21 f004 	lsr.w	r0, r1, r4
    4660:	f001 4100 	and.w	r1, r1, #2147483648	; 0x80000000
    4664:	fa21 f204 	lsr.w	r2, r1, r4
    4668:	ea20 0002 	bic.w	r0, r0, r2
    466c:	eb00 70d3 	add.w	r0, r0, r3, lsr #31
    4670:	ea5e 0e43 	orrs.w	lr, lr, r3, lsl #1
    4674:	bf08      	it	eq
    4676:	ea20 70d3 	biceq.w	r0, r0, r3, lsr #31
    467a:	bd70      	pop	{r4, r5, r6, pc}
    467c:	f094 0f00 	teq	r4, #0
    4680:	d10f      	bne.n	46a2 <__aeabi_dmul+0x1c2>
    4682:	f001 4600 	and.w	r6, r1, #2147483648	; 0x80000000
    4686:	0040      	lsls	r0, r0, #1
    4688:	eb41 0101 	adc.w	r1, r1, r1
    468c:	f411 1f80 	tst.w	r1, #1048576	; 0x100000
    4690:	bf08      	it	eq
    4692:	3c01      	subeq	r4, #1
    4694:	d0f7      	beq.n	4686 <__aeabi_dmul+0x1a6>
    4696:	ea41 0106 	orr.w	r1, r1, r6
    469a:	f095 0f00 	teq	r5, #0
    469e:	bf18      	it	ne
    46a0:	4770      	bxne	lr
    46a2:	f003 4600 	and.w	r6, r3, #2147483648	; 0x80000000
    46a6:	0052      	lsls	r2, r2, #1
    46a8:	eb43 0303 	adc.w	r3, r3, r3
    46ac:	f413 1f80 	tst.w	r3, #1048576	; 0x100000
    46b0:	bf08      	it	eq
    46b2:	3d01      	subeq	r5, #1
    46b4:	d0f7      	beq.n	46a6 <__aeabi_dmul+0x1c6>
    46b6:	ea43 0306 	orr.w	r3, r3, r6
    46ba:	4770      	bx	lr
    46bc:	ea94 0f0c 	teq	r4, r12
    46c0:	ea0c 5513 	and.w	r5, r12, r3, lsr #20
    46c4:	bf18      	it	ne
    46c6:	ea95 0f0c 	teqne	r5, r12
    46ca:	d00c      	beq.n	46e6 <__aeabi_dmul+0x206>
    46cc:	ea50 0641 	orrs.w	r6, r0, r1, lsl #1
    46d0:	bf18      	it	ne
    46d2:	ea52 0643 	orrsne.w	r6, r2, r3, lsl #1
    46d6:	d1d1      	bne.n	467c <__aeabi_dmul+0x19c>
    46d8:	ea81 0103 	eor.w	r1, r1, r3
    46dc:	f001 4100 	and.w	r1, r1, #2147483648	; 0x80000000
    46e0:	f04f 0000 	mov.w	r0, #0
    46e4:	bd70      	pop	{r4, r5, r6, pc}
    46e6:	ea50 0641 	orrs.w	r6, r0, r1, lsl #1
    46ea:	bf06      	itte	eq
    46ec:	4610      	moveq	r0, r2
    46ee:	4619      	moveq	r1, r3
    46f0:	ea52 0643 	orrsne.w	r6, r2, r3, lsl #1
    46f4:	d019      	beq.n	472a <__aeabi_dmul+0x24a>
    46f6:	ea94 0f0c 	teq	r4, r12
    46fa:	d102      	bne.n	4702 <__aeabi_dmul+0x222>
    46fc:	ea50 3601 	orrs.w	r6, r0, r1, lsl #12
    4700:	d113      	bne.n	472a <__aeabi_dmul+0x24a>
    4702:	ea95 0f0c 	teq	r5, r12
    4706:	d105      	bne.n	4714 <__aeabi_dmul+0x234>
    4708:	ea52 3603 	orrs.w	r6, r2, r3, lsl #12
    470c:	bf1c      	itt	ne
    470e:	4610      	movne	r0, r2
    4710:	4619      	movne	r1, r3
    4712:	d10a      	bne.n	472a <__aeabi_dmul+0x24a>
    4714:	ea81 0103 	eor.w	r1, r1, r3
    4718:	f001 4100 	and.w	r1, r1, #2147483648	; 0x80000000
    471c:	f041 41fe 	orr.w	r1, r1, #2130706432	; 0x7f000000
    4720:	f441 0170 	orr.w	r1, r1, #15728640	; 0xf00000
    4724:	f04f 0000 	mov.w	r0, #0
    4728:	bd70      	pop	{r4, r5, r6, pc}
    472a:	f041 41fe 	orr.w	r1, r1, #2130706432	; 0x7f000000
    472e:	f441 0178 	orr.w	r1, r1, #16252928	; 0xf80000
    4732:	bd70      	pop	{r4, r5, r6, pc}

00004734 <__aeabi_ddiv>:
    4734:	b570      	push	{r4, r5, r6, lr}
    4736:	f04f 0cff 	mov.w	r12, #255	; 0xff
    473a:	f44c 6ce0 	orr.w	r12, r12, #1792	; 0x700
    473e:	ea1c 5411 	ands.w	r4, r12, r1, lsr #20
    4742:	bf1d      	ittte	ne
    4744:	ea1c 5513 	andsne.w	r5, r12, r3, lsr #20
    4748:	ea94 0f0c 	teqne	r4, r12
    474c:	ea95 0f0c 	teqne	r5, r12
    4750:	f000 f8a7 	bleq	48a2 <__aeabi_ddiv+0x16e>
    4754:	eba4 0405 	sub.w	r4, r4, r5
    4758:	ea81 0e03 	eor.w	lr, r1, r3
    475c:	ea52 3503 	orrs.w	r5, r2, r3, lsl #12
    4760:	ea4f 3101 	mov.w	r1, r1, lsl #12
    4764:	f000 8088 	beq.w	4878 <__aeabi_ddiv+0x144>
    4768:	ea4f 3303 	mov.w	r3, r3, lsl #12
    476c:	f04f 5580 	mov.w	r5, #268435456	; 0x10000000
    4770:	ea45 1313 	orr.w	r3, r5, r3, lsr #4
    4774:	ea43 6312 	orr.w	r3, r3, r2, lsr #24
    4778:	ea4f 2202 	mov.w	r2, r2, lsl #8
    477c:	ea45 1511 	orr.w	r5, r5, r1, lsr #4
    4780:	ea45 6510 	orr.w	r5, r5, r0, lsr #24
    4784:	ea4f 2600 	mov.w	r6, r0, lsl #8
    4788:	f00e 4100 	and.w	r1, lr, #2147483648	; 0x80000000
    478c:	429d      	cmp	r5, r3
    478e:	bf08      	it	eq
    4790:	4296      	cmpeq	r6, r2
    4792:	f144 04fd 	adc.w	r4, r4, #253	; 0xfd
    4796:	f504 7440 	add.w	r4, r4, #768	; 0x300
    479a:	d202      	bcs.n	47a2 <__aeabi_ddiv+0x6e>
    479c:	085b      	lsrs	r3, r3, #1
    479e:	ea4f 0232 	mov.w	r2, r2, rrx
    47a2:	1ab6      	subs	r6, r6, r2
    47a4:	eb65 0503 	sbc.w	r5, r5, r3
    47a8:	085b      	lsrs	r3, r3, #1
    47aa:	ea4f 0232 	mov.w	r2, r2, rrx
    47ae:	f44f 1080 	mov.w	r0, #1048576	; 0x100000
    47b2:	f44f 2c00 	mov.w	r12, #524288	; 0x80000
    47b6:	ebb6 0e02 	subs.w	lr, r6, r2
    47ba:	eb75 0e03 	sbcs.w	lr, r5, r3
    47be:	bf22      	ittt	cs
    47c0:	1ab6      	subcs	r6, r6, r2
    47c2:	4675      	movcs	r5, lr
    47c4:	ea40 000c 	orrcs.w	r0, r0, r12
    47c8:	085b      	lsrs	r3, r3, #1
    47ca:	ea4f 0232 	mov.w	r2, r2, rrx
    47ce:	ebb6 0e02 	subs.w	lr, r6, r2
    47d2:	eb75 0e03 	sbcs.w	lr, r5, r3
    47d6:	bf22      	ittt	cs
    47d8:	1ab6      	subcs	r6, r6, r2
    47da:	4675      	movcs	r5, lr
    47dc:	ea40 005c 	orrcs.w	r0, r0, r12, lsr #1
    47e0:	085b      	lsrs	r3, r3, #1
    47e2:	ea4f 0232 	mov.w	r2, r2, rrx
    47e6:	ebb6 0e02 	subs.w	lr, r6, r2
    47ea:	eb75 0e03 	sbcs.w	lr, r5, r3
    47ee:	bf22      	ittt	cs
    47f0:	1ab6      	subcs	r6, r6, r2
    47f2:	4675      	movcs	r5, lr
    47f4:	ea40 009c 	orrcs.w	r0, r0, r12, lsr #2
    47f8:	085b      	lsrs	r3, r3, #1
    47fa:	ea4f 0232 	mov.w	r2, r2, rrx
    47fe:	ebb6 0e02 	subs.w	lr, r6, r2
    4802:	eb75 0e03 	sbcs.w	lr, r5, r3
    4806:	bf22      	ittt	cs
    4808:	1ab6      	subcs	r6, r6, r2
    480a:	4675      	movcs	r5, lr
    480c:	ea40 00dc 	orrcs.w	r0, r0, r12, lsr #3
    4810:	ea55 0e06 	orrs.w	lr, r5, r6
    4814:	d018      	beq.n	4848 <__aeabi_ddiv+0x114>
    4816:	ea4f 1505 	mov.w	r5, r5, lsl #4
    481a:	ea45 7516 	orr.w	r5, r5, r6, lsr #28
    481e:	ea4f 1606 	mov.w	r6, r6, lsl #4
    4822:	ea4f 03c3 	mov.w	r3, r3, lsl #3
    4826:	ea43 7352 	orr.w	r3, r3, r2, lsr #29
    482a:	ea4f 02c2 	mov.w	r2, r2, lsl #3
    482e:	ea5f 1c1c 	movs.w	r12, r12, lsr #4
    4832:	d1c0      	bne.n	47b6 <__aeabi_ddiv+0x82>
    4834:	f411 1f80 	tst.w	r1, #1048576	; 0x100000
    4838:	d10b      	bne.n	4852 <__aeabi_ddiv+0x11e>
    483a:	ea41 0100 	orr.w	r1, r1, r0
    483e:	f04f 0000 	mov.w	r0, #0
    4842:	f04f 4c00 	mov.w	r12, #2147483648	; 0x80000000
    4846:	e7b6      	b.n	47b6 <__aeabi_ddiv+0x82>
    4848:	f411 1f80 	tst.w	r1, #1048576	; 0x100000
    484c:	bf04      	itt	eq
    484e:	4301      	orreq	r1, r0
    4850:	2000      	moveq	r0, #0
    4852:	f1b4 0cfd 	subs.w	r12, r4, #253	; 0xfd
    4856:	bf88      	it	hi
    4858:	f5bc 6fe0 	cmphi.w	r12, #1792	; 0x700
    485c:	f63f aeaf 	bhi.w	45be <__aeabi_dmul+0xde>
    4860:	ebb5 0c03 	subs.w	r12, r5, r3
    4864:	bf04      	itt	eq
    4866:	ebb6 0c02 	subseq.w	r12, r6, r2
    486a:	ea5f 0c50 	movseq.w	r12, r0, lsr #1
    486e:	f150 0000 	adcs.w	r0, r0, #0
    4872:	eb41 5104 	adc.w	r1, r1, r4, lsl #20
    4876:	bd70      	pop	{r4, r5, r6, pc}
    4878:	f00e 4e00 	and.w	lr, lr, #2147483648	; 0x80000000
    487c:	ea4e 3111 	orr.w	r1, lr, r1, lsr #12
    4880:	eb14 045c 	adds.w	r4, r4, r12, lsr #1
    4884:	bfc2      	ittt	gt
    4886:	ebd4 050c 	rsbsgt	r5, r4, r12
    488a:	ea41 5104 	orrgt.w	r1, r1, r4, lsl #20
    488e:	bd70      	popgt	{r4, r5, r6, pc}
    4890:	f441 1180 	orr.w	r1, r1, #1048576	; 0x100000
    4894:	f04f 0e00 	mov.w	lr, #0
    4898:	3c01      	subs	r4, #1
    489a:	e690      	b.n	45be <__aeabi_dmul+0xde>
    489c:	ea45 0e06 	orr.w	lr, r5, r6
    48a0:	e68d      	b.n	45be <__aeabi_dmul+0xde>
    48a2:	ea0c 5513 	and.w	r5, r12, r3, lsr #20
    48a6:	ea94 0f0c 	teq	r4, r12
    48aa:	bf08      	it	eq
    48ac:	ea95 0f0c 	teqeq	r5, r12
    48b0:	f43f af3b 	beq.w	472a <__aeabi_dmul+0x24a>
    48b4:	ea94 0f0c 	teq	r4, r12
    48b8:	d10a      	bne.n	48d0 <__aeabi_ddiv+0x19c>
    48ba:	ea50 3401 	orrs.w	r4, r0, r1, lsl #12
    48be:	f47f af34 	bne.w	472a <__aeabi_dmul+0x24a>
    48c2:	ea95 0f0c 	teq	r5, r12
    48c6:	f47f af25 	bne.w	4714 <__aeabi_dmul+0x234>
    48ca:	4610      	mov	r0, r2
    48cc:	4619      	mov	r1, r3
    48ce:	e72c      	b.n	472a <__aeabi_dmul+0x24a>
    48d0:	ea95 0f0c 	teq	r5, r12
    48d4:	d106      	bne.n	48e4 <__aeabi_ddiv+0x1b0>
    48d6:	ea52 3503 	orrs.w	r5, r2, r3, lsl #12
    48da:	f43f aefd 	beq.w	46d8 <__aeabi_dmul+0x1f8>
    48de:	4610      	mov	r0, r2
    48e0:	4619      	mov	r1, r3
    48e2:	e722      	b.n	472a <__aeabi_dmul+0x24a>
    48e4:	ea50 0641 	orrs.w	r6, r0, r1, lsl #1
    48e8:	bf18      	it	ne
    48ea:	ea52 0643 	orrsne.w	r6, r2, r3, lsl #1
    48ee:	f47f aec5 	bne.w	467c <__aeabi_dmul+0x19c>
    48f2:	ea50 0441 	orrs.w	r4, r0, r1, lsl #1
    48f6:	f47f af0d 	bne.w	4714 <__aeabi_dmul+0x234>
    48fa:	ea52 0543 	orrs.w	r5, r2, r3, lsl #1
    48fe:	f47f aeeb 	bne.w	46d8 <__aeabi_dmul+0x1f8>
    4902:	e712      	b.n	472a <__aeabi_dmul+0x24a>

00004904 <__aeabi_d2f>:
    4904:	ea4f 0241 	mov.w	r2, r1, lsl #1
    4908:	f1b2 43e0 	subs.w	r3, r2, #1879048192	; 0x70000000
    490c:	bf24      	itt	cs
    490e:	f5b3 1c00 	subscs.w	r12, r3, #2097152	; 0x200000
    4912:	f1dc 5cfe 	rsbscs	r12, r12, #532676608	; 0x1fc00000
    4916:	d90d      	bls.n	4934 <__aeabi_d2f+0x30>
    4918:	f001 4c00 	and.w	r12, r1, #2147483648	; 0x80000000
    491c:	ea4f 02c0 	mov.w	r2, r0, lsl #3
    4920:	ea4c 7050 	orr.w	r0, r12, r0, lsr #29
    4924:	f1b2 4f00 	cmp.w	r2, #2147483648	; 0x80000000
    4928:	eb40 0083 	adc.w	r0, r0, r3, lsl #2
    492c:	bf08      	it	eq
    492e:	f020 0001 	biceq.w	r0, r0, #1
    4932:	4770      	bx	lr
    4934:	f011 4f80 	tst.w	r1, #1073741824	; 0x40000000
    4938:	d121      	bne.n	497e <__aeabi_d2f+0x7a>
    493a:	f113 7238 	adds.w	r2, r3, #48234496	; 0x2e00000
    493e:	bfbc      	itt	lt
    4940:	f001 4000 	andlt.w	r0, r1, #2147483648	; 0x80000000
    4944:	4770      	bxlt	lr
    4946:	f441 1180 	orr.w	r1, r1, #1048576	; 0x100000
    494a:	ea4f 5252 	mov.w	r2, r2, lsr #21
    494e:	f1c2 0218 	rsb	r2, r2, #24
    4952:	f1c2 0c20 	rsb	r12, r2, #32
    4956:	fa10 f30c 	lsls.w	r3, r0, r12
    495a:	fa20 f002 	lsr.w	r0, r0, r2
    495e:	bf18      	it	ne
    4960:	f040 0001 	orrne.w	r0, r0, #1
    4964:	ea4f 23c1 	mov.w	r3, r1, lsl #11
    4968:	ea4f 23d3 	mov.w	r3, r3, lsr #11
    496c:	fa03 fc0c 	lsl.w	r12, r3, r12
    4970:	ea40 000c 	orr.w	r0, r0, r12
    4974:	fa23 f302 	lsr.w	r3, r3, r2
    4978:	ea4f 0343 	mov.w	r3, r3, lsl #1
    497c:	e7cc      	b.n	4918 <__aeabi_d2f+0x14>
    497e:	ea7f 5362 	mvns.w	r3, r2, asr #21
    4982:	d107      	bne.n	4994 <__aeabi_d2f+0x90>
    4984:	ea50 3301 	orrs.w	r3, r0, r1, lsl #12
    4988:	bf1e      	ittt	ne
    498a:	f04f 40fe 	movne.w	r0, #2130706432	; 0x7f000000
    498e:	f440 0040 	orrne.w	r0, r0, #12582912	; 0xc00000
    4992:	4770      	bxne	lr
    4994:	f001 4000 	and.w	r0, r1, #2147483648	; 0x80000000
    4998:	f040 40fe 	orr.w	r0, r0, #2130706432	; 0x7f000000
    499c:	f440 0000 	orr.w	r0, r0, #8388608	; 0x800000
    49a0:	4770      	bx	lr
    49a2:	bf00      	nop

000049a4 <__aeabi_frsub>:
    49a4:	f080 4000 	eor.w	r0, r0, #2147483648	; 0x80000000
    49a8:	e002      	b.n	49b0 <__addsf3>
    49aa:	bf00      	nop

000049ac <__aeabi_fsub>:
    49ac:	f081 4100 	eor.w	r1, r1, #2147483648	; 0x80000000

000049b0 <__addsf3>:
    49b0:	0042      	lsls	r2, r0, #1
    49b2:	bf1f      	itttt	ne
    49b4:	ea5f 0341 	movsne.w	r3, r1, lsl #1
    49b8:	ea92 0f03 	teqne	r2, r3
    49bc:	ea7f 6c22 	mvnsne.w	r12, r2, asr #24
    49c0:	ea7f 6c23 	mvnsne.w	r12, r3, asr #24
    49c4:	d06a      	beq.n	4a9c <__addsf3+0xec>
    49c6:	ea4f 6212 	mov.w	r2, r2, lsr #24
    49ca:	ebd2 6313 	rsbs	r3, r2, r3, lsr #24
    49ce:	bfc1      	itttt	gt
    49d0:	18d2      	addgt	r2, r2, r3
    49d2:	4041      	eorgt	r1, r0
    49d4:	4048      	eorgt	r0, r1
    49d6:	4041      	eorgt	r1, r0
    49d8:	bfb8      	it	lt
    49da:	425b      	neglt	r3, r3
    49dc:	2b19      	cmp	r3, #25
    49de:	bf88      	it	hi
    49e0:	4770      	bxhi	lr
    49e2:	f010 4f00 	tst.w	r0, #2147483648	; 0x80000000
    49e6:	f440 0000 	orr.w	r0, r0, #8388608	; 0x800000
    49ea:	f020 407f 	bic.w	r0, r0, #4278190080	; 0xff000000
    49ee:	bf18      	it	ne
    49f0:	4240      	negne	r0, r0
    49f2:	f011 4f00 	tst.w	r1, #2147483648	; 0x80000000
    49f6:	f441 0100 	orr.w	r1, r1, #8388608	; 0x800000
    49fa:	f021 417f 	bic.w	r1, r1, #4278190080	; 0xff000000
    49fe:	bf18      	it	ne
    4a00:	4249      	negne	r1, r1
    4a02:	ea92 0f03 	teq	r2, r3
    4a06:	d03f      	beq.n	4a88 <__addsf3+0xd8>
    4a08:	f1a2 0201 	sub.w	r2, r2, #1
    4a0c:	fa41 fc03 	asr.w	r12, r1, r3
    4a10:	eb10 000c 	adds.w	r0, r0, r12
    4a14:	f1c3 0320 	rsb	r3, r3, #32
    4a18:	fa01 f103 	lsl.w	r1, r1, r3
    4a1c:	f000 4300 	and.w	r3, r0, #2147483648	; 0x80000000
    4a20:	d502      	bpl.n	4a28 <__addsf3+0x78>
    4a22:	4249      	negs	r1, r1
    4a24:	eb60 0040 	sbc.w	r0, r0, r0, lsl #1
    4a28:	f5b0 0f00 	cmp.w	r0, #8388608	; 0x800000
    4a2c:	d313      	bcc.n	4a56 <__addsf3+0xa6>
    4a2e:	f1b0 7f80 	cmp.w	r0, #16777216	; 0x1000000
    4a32:	d306      	bcc.n	4a42 <__addsf3+0x92>
    4a34:	0840      	lsrs	r0, r0, #1
    4a36:	ea4f 0131 	mov.w	r1, r1, rrx
    4a3a:	f102 0201 	add.w	r2, r2, #1
    4a3e:	2afe      	cmp	r2, #254	; 0xfe
    4a40:	d251      	bcs.n	4ae6 <__addsf3+0x136>
    4a42:	f1b1 4f00 	cmp.w	r1, #2147483648	; 0x80000000
    4a46:	eb40 50c2 	adc.w	r0, r0, r2, lsl #23
    4a4a:	bf08      	it	eq
    4a4c:	f020 0001 	biceq.w	r0, r0, #1
    4a50:	ea40 0003 	orr.w	r0, r0, r3
    4a54:	4770      	bx	lr
    4a56:	0049      	lsls	r1, r1, #1
    4a58:	eb40 0000 	adc.w	r0, r0, r0
    4a5c:	f410 0f00 	tst.w	r0, #8388608	; 0x800000
    4a60:	f1a2 0201 	sub.w	r2, r2, #1
    4a64:	d1ed      	bne.n	4a42 <__addsf3+0x92>
    4a66:	fab0 fc80 	clz	r12, r0
    4a6a:	f1ac 0c08 	sub.w	r12, r12, #8
    4a6e:	ebb2 020c 	subs.w	r2, r2, r12
    4a72:	fa00 f00c 	lsl.w	r0, r0, r12
    4a76:	bfaa      	itet	ge
    4a78:	eb00 50c2 	addge.w	r0, r0, r2, lsl #23
    4a7c:	4252      	neglt	r2, r2
    4a7e:	4318      	orrge	r0, r3
    4a80:	bfbc      	itt	lt
    4a82:	40d0      	lsrlt	r0, r2
    4a84:	4318      	orrlt	r0, r3
    4a86:	4770      	bx	lr
    4a88:	f092 0f00 	teq	r2, #0
    4a8c:	f481 0100 	eor.w	r1, r1, #8388608	; 0x800000
    4a90:	bf06      	itte	eq
    4a92:	f480 0000 	eoreq.w	r0, r0, #8388608	; 0x800000
    4a96:	3201      	addeq	r2, #1
    4a98:	3b01      	subne	r3, #1
    4a9a:	e7b5      	b.n	4a08 <__addsf3+0x58>
    4a9c:	ea4f 0341 	mov.w	r3, r1, lsl #1
    4aa0:	ea7f 6c22 	mvns.w	r12, r2, asr #24
    4aa4:	bf18      	it	ne
    4aa6:	ea7f 6c23 	mvnsne.w	r12, r3, asr #24
    4aaa:	d021      	beq.n	4af0 <__addsf3+0x140>
    4aac:	ea92 0f03 	teq	r2, r3
    4ab0:	d004      	beq.n	4abc <__addsf3+0x10c>
    4ab2:	f092 0f00 	teq	r2, #0
    4ab6:	bf08      	it	eq
    4ab8:	4608      	moveq	r0, r1
    4aba:	4770      	bx	lr
    4abc:	ea90 0f01 	teq	r0, r1
    4ac0:	bf1c      	itt	ne
    4ac2:	2000      	movne	r0, #0
    4ac4:	4770      	bxne	lr
    4ac6:	f012 4f7f 	tst.w	r2, #4278190080	; 0xff000000
    4aca:	d104      	bne.n	4ad6 <__addsf3+0x126>
    4acc:	0040      	lsls	r0, r0, #1
    4ace:	bf28      	it	cs
    4ad0:	f040 4000 	orrcs.w	r0, r0, #2147483648	; 0x80000000
    4ad4:	4770      	bx	lr
    4ad6:	f112 7200 	adds.w	r2, r2, #33554432	; 0x2000000
    4ada:	bf3c      	itt	cc
    4adc:	f500 0000 	addcc.w	r0, r0, #8388608	; 0x800000
    4ae0:	4770      	bxcc	lr
    4ae2:	f000 4300 	and.w	r3, r0, #2147483648	; 0x80000000
    4ae6:	f043 40fe 	orr.w	r0, r3, #2130706432	; 0x7f000000
    4aea:	f440 0000 	orr.w	r0, r0, #8388608	; 0x800000
    4aee:	4770      	bx	lr
    4af0:	ea7f 6222 	mvns.w	r2, r2, asr #24
    4af4:	bf16      	itet	ne
    4af6:	4608      	movne	r0, r1
    4af8:	ea7f 6323 	mvnseq.w	r3, r3, asr #24
    4afc:	4601      	movne	r1, r0
    4afe:	0242      	lsls	r2, r0, #9
    4b00:	bf06      	itte	eq
    4b02:	ea5f 2341 	movseq.w	r3, r1, lsl #9
    4b06:	ea90 0f01 	teqeq	r0, r1
    4b0a:	f440 0080 	orrne.w	r0, r0, #4194304	; 0x400000
    4b0e:	4770      	bx	lr

00004b10 <__aeabi_ui2f>:
    4b10:	f04f 0300 	mov.w	r3, #0
    4b14:	e004      	b.n	4b20 <__aeabi_i2f+0x8>
    4b16:	bf00      	nop

00004b18 <__aeabi_i2f>:
    4b18:	f010 4300 	ands.w	r3, r0, #2147483648	; 0x80000000
    4b1c:	bf48      	it	mi
    4b1e:	4240      	negmi	r0, r0
    4b20:	ea5f 0c00 	movs.w	r12, r0
    4b24:	bf08      	it	eq
    4b26:	4770      	bxeq	lr
    4b28:	f043 4396 	orr.w	r3, r3, #1258291200	; 0x4b000000
    4b2c:	4601      	mov	r1, r0
    4b2e:	f04f 0000 	mov.w	r0, #0
    4b32:	e01c      	b.n	4b6e <__aeabi_l2f+0x2a>

00004b34 <__aeabi_ul2f>:
    4b34:	ea50 0201 	orrs.w	r2, r0, r1
    4b38:	bf08      	it	eq
    4b3a:	4770      	bxeq	lr
    4b3c:	f04f 0300 	mov.w	r3, #0
    4b40:	e00a      	b.n	4b58 <__aeabi_l2f+0x14>
    4b42:	bf00      	nop

00004b44 <__aeabi_l2f>:
    4b44:	ea50 0201 	orrs.w	r2, r0, r1
    4b48:	bf08      	it	eq
    4b4a:	4770      	bxeq	lr
    4b4c:	f011 4300 	ands.w	r3, r1, #2147483648	; 0x80000000
    4b50:	d502      	bpl.n	4b58 <__aeabi_l2f+0x14>
    4b52:	4240      	negs	r0, r0
    4b54:	eb61 0141 	sbc.w	r1, r1, r1, lsl #1
    4b58:	ea5f 0c01 	movs.w	r12, r1
    4b5c:	bf02      	ittt	eq
    4b5e:	4684      	moveq	r12, r0
    4b60:	4601      	moveq	r1, r0
    4b62:	2000      	moveq	r0, #0
    4b64:	f043 43b6 	orr.w	r3, r3, #1526726656	; 0x5b000000
    4b68:	bf08      	it	eq
    4b6a:	f1a3 5380 	subeq.w	r3, r3, #268435456	; 0x10000000
    4b6e:	f5a3 0300 	sub.w	r3, r3, #8388608	; 0x800000
    4b72:	fabc f28c 	clz	r2, r12
    4b76:	3a08      	subs	r2, #8
    4b78:	eba3 53c2 	sub.w	r3, r3, r2, lsl #23
    4b7c:	db10      	blt.n	4ba0 <__aeabi_l2f+0x5c>
    4b7e:	fa01 fc02 	lsl.w	r12, r1, r2
    4b82:	4463      	add	r3, r12
    4b84:	fa00 fc02 	lsl.w	r12, r0, r2
    4b88:	f1c2 0220 	rsb	r2, r2, #32
    4b8c:	f1bc 4f00 	cmp.w	r12, #2147483648	; 0x80000000
    4b90:	fa20 f202 	lsr.w	r2, r0, r2
    4b94:	eb43 0002 	adc.w	r0, r3, r2
    4b98:	bf08      	it	eq
    4b9a:	f020 0001 	biceq.w	r0, r0, #1
    4b9e:	4770      	bx	lr
    4ba0:	f102 0220 	add.w	r2, r2, #32
    4ba4:	fa01 fc02 	lsl.w	r12, r1, r2
    4ba8:	f1c2 0220 	rsb	r2, r2, #32
    4bac:	ea50 004c 	orrs.w	r0, r0, r12, lsl #1
    4bb0:	fa21 f202 	lsr.w	r2, r1, r2
    4bb4:	eb43 0002 	adc.w	r0, r3, r2
    4bb8:	bf08      	it	eq
    4bba:	ea20 70dc 	biceq.w	r0, r0, r12, lsr #31
    4bbe:	4770      	bx	lr

00004bc0 <__aeabi_fmul>:
    4bc0:	f04f 0cff 	mov.w	r12, #255	; 0xff
    4bc4:	ea1c 52d0 	ands.w	r2, r12, r0, lsr #23
    4bc8:	bf1e      	ittt	ne
    4bca:	ea1c 53d1 	andsne.w	r3, r12, r1, lsr #23
    4bce:	ea92 0f0c 	teqne	r2, r12
    4bd2:	ea93 0f0c 	teqne	r3, r12
    4bd6:	d06f      	beq.n	4cb8 <__aeabi_fmul+0xf8>
    4bd8:	441a      	add	r2, r3
    4bda:	ea80 0c01 	eor.w	r12, r0, r1
    4bde:	0240      	lsls	r0, r0, #9
    4be0:	bf18      	it	ne
    4be2:	ea5f 2141 	movsne.w	r1, r1, lsl #9
    4be6:	d01e      	beq.n	4c26 <__aeabi_fmul+0x66>
    4be8:	f04f 6300 	mov.w	r3, #134217728	; 0x8000000
    4bec:	ea43 1050 	orr.w	r0, r3, r0, lsr #5
    4bf0:	ea43 1151 	orr.w	r1, r3, r1, lsr #5
    4bf4:	fba0 3101 	umull	r3, r1, r0, r1
    4bf8:	f00c 4000 	and.w	r0, r12, #2147483648	; 0x80000000
    4bfc:	f5b1 0f00 	cmp.w	r1, #8388608	; 0x800000
    4c00:	bf3e      	ittt	cc
    4c02:	0049      	lslcc	r1, r1, #1
    4c04:	ea41 71d3 	orrcc.w	r1, r1, r3, lsr #31
    4c08:	005b      	lslcc	r3, r3, #1
    4c0a:	ea40 0001 	orr.w	r0, r0, r1
    4c0e:	f162 027f 	sbc.w	r2, r2, #127	; 0x7f
    4c12:	2afd      	cmp	r2, #253	; 0xfd
    4c14:	d81d      	bhi.n	4c52 <__aeabi_fmul+0x92>
    4c16:	f1b3 4f00 	cmp.w	r3, #2147483648	; 0x80000000
    4c1a:	eb40 50c2 	adc.w	r0, r0, r2, lsl #23
    4c1e:	bf08      	it	eq
    4c20:	f020 0001 	biceq.w	r0, r0, #1
    4c24:	4770      	bx	lr
    4c26:	f090 0f00 	teq	r0, #0
    4c2a:	f00c 4c00 	and.w	r12, r12, #2147483648	; 0x80000000
    4c2e:	bf08      	it	eq
    4c30:	0249      	lsleq	r1, r1, #9
    4c32:	ea4c 2050 	orr.w	r0, r12, r0, lsr #9
    4c36:	ea40 2051 	orr.w	r0, r0, r1, lsr #9
    4c3a:	3a7f      	subs	r2, #127	; 0x7f
    4c3c:	bfc2      	ittt	gt
    4c3e:	f1d2 03ff 	rsbsgt	r3, r2, #255	; 0xff
    4c42:	ea40 50c2 	orrgt.w	r0, r0, r2, lsl #23
    4c46:	4770      	bxgt	lr
    4c48:	f440 0000 	orr.w	r0, r0, #8388608	; 0x800000
    4c4c:	f04f 0300 	mov.w	r3, #0
    4c50:	3a01      	subs	r2, #1
    4c52:	dc5d      	bgt.n	4d10 <__aeabi_fmul+0x150>
    4c54:	f112 0f19 	cmn.w	r2, #25
    4c58:	bfdc      	itt	le
    4c5a:	f000 4000 	andle.w	r0, r0, #2147483648	; 0x80000000
    4c5e:	4770      	bxle	lr
    4c60:	f1c2 0200 	rsb	r2, r2, #0
    4c64:	0041      	lsls	r1, r0, #1
    4c66:	fa21 f102 	lsr.w	r1, r1, r2
    4c6a:	f1c2 0220 	rsb	r2, r2, #32
    4c6e:	fa00 fc02 	lsl.w	r12, r0, r2
    4c72:	ea5f 0031 	movs.w	r0, r1, rrx
    4c76:	f140 0000 	adc.w	r0, r0, #0
    4c7a:	ea53 034c 	orrs.w	r3, r3, r12, lsl #1
    4c7e:	bf08      	it	eq
    4c80:	ea20 70dc 	biceq.w	r0, r0, r12, lsr #31
    4c84:	4770      	bx	lr
    4c86:	f092 0f00 	teq	r2, #0
    4c8a:	f000 4c00 	and.w	r12, r0, #2147483648	; 0x80000000
    4c8e:	bf02      	ittt	eq
    4c90:	0040      	lsleq	r0, r0, #1
    4c92:	f410 0f00 	tsteq.w	r0, #8388608	; 0x800000
    4c96:	3a01      	subeq	r2, #1
    4c98:	d0f9      	beq.n	4c8e <__aeabi_fmul+0xce>
    4c9a:	ea40 000c 	orr.w	r0, r0, r12
    4c9e:	f093 0f00 	teq	r3, #0
    4ca2:	f001 4c00 	and.w	r12, r1, #2147483648	; 0x80000000
    4ca6:	bf02      	ittt	eq
    4ca8:	0049      	lsleq	r1, r1, #1
    4caa:	f411 0f00 	tsteq.w	r1, #8388608	; 0x800000
    4cae:	3b01      	subeq	r3, #1
    4cb0:	d0f9      	beq.n	4ca6 <__aeabi_fmul+0xe6>
    4cb2:	ea41 010c 	orr.w	r1, r1, r12
    4cb6:	e78f      	b.n	4bd8 <__aeabi_fmul+0x18>
    4cb8:	ea0c 53d1 	and.w	r3, r12, r1, lsr #23
    4cbc:	ea92 0f0c 	teq	r2, r12
    4cc0:	bf18      	it	ne
    4cc2:	ea93 0f0c 	teqne	r3, r12
    4cc6:	d00a      	beq.n	4cde <__aeabi_fmul+0x11e>
    4cc8:	f030 4c00 	bics.w	r12, r0, #2147483648	; 0x80000000
    4ccc:	bf18      	it	ne
    4cce:	f031 4c00 	bicsne.w	r12, r1, #2147483648	; 0x80000000
    4cd2:	d1d8      	bne.n	4c86 <__aeabi_fmul+0xc6>
    4cd4:	ea80 0001 	eor.w	r0, r0, r1
    4cd8:	f000 4000 	and.w	r0, r0, #2147483648	; 0x80000000
    4cdc:	4770      	bx	lr
    4cde:	f090 0f00 	teq	r0, #0
    4ce2:	bf17      	itett	ne
    4ce4:	f090 4f00 	teqne	r0, #2147483648	; 0x80000000
    4ce8:	4608      	moveq	r0, r1
    4cea:	f091 0f00 	teqne	r1, #0
    4cee:	f091 4f00 	teqne	r1, #2147483648	; 0x80000000
    4cf2:	d014      	beq.n	4d1e <__aeabi_fmul+0x15e>
    4cf4:	ea92 0f0c 	teq	r2, r12
    4cf8:	d101      	bne.n	4cfe <__aeabi_fmul+0x13e>
    4cfa:	0242      	lsls	r2, r0, #9
    4cfc:	d10f      	bne.n	4d1e <__aeabi_fmul+0x15e>
    4cfe:	ea93 0f0c 	teq	r3, r12
    4d02:	d103      	bne.n	4d0c <__aeabi_fmul+0x14c>
    4d04:	024b      	lsls	r3, r1, #9
    4d06:	bf18      	it	ne
    4d08:	4608      	movne	r0, r1
    4d0a:	d108      	bne.n	4d1e <__aeabi_fmul+0x15e>
    4d0c:	ea80 0001 	eor.w	r0, r0, r1
    4d10:	f000 4000 	and.w	r0, r0, #2147483648	; 0x80000000
    4d14:	f040 40fe 	orr.w	r0, r0, #2130706432	; 0x7f000000
    4d18:	f440 0000 	orr.w	r0, r0, #8388608	; 0x800000
    4d1c:	4770      	bx	lr
    4d1e:	f040 40fe 	orr.w	r0, r0, #2130706432	; 0x7f000000
    4d22:	f440 0040 	orr.w	r0, r0, #12582912	; 0xc00000
    4d26:	4770      	bx	lr

00004d28 <__aeabi_fdiv>:
    4d28:	f04f 0cff 	mov.w	r12, #255	; 0xff
    4d2c:	ea1c 52d0 	ands.w	r2, r12, r0, lsr #23
    4d30:	bf1e      	ittt	ne
    4d32:	ea1c 53d1 	andsne.w	r3, r12, r1, lsr #23
    4d36:	ea92 0f0c 	teqne	r2, r12
    4d3a:	ea93 0f0c 	teqne	r3, r12
    4d3e:	d069      	beq.n	4e14 <__aeabi_fdiv+0xec>
    4d40:	eba2 0203 	sub.w	r2, r2, r3
    4d44:	ea80 0c01 	eor.w	r12, r0, r1
    4d48:	0249      	lsls	r1, r1, #9
    4d4a:	ea4f 2040 	mov.w	r0, r0, lsl #9
    4d4e:	d037      	beq.n	4dc0 <__aeabi_fdiv+0x98>
    4d50:	f04f 5380 	mov.w	r3, #268435456	; 0x10000000
    4d54:	ea43 1111 	orr.w	r1, r3, r1, lsr #4
    4d58:	ea43 1310 	orr.w	r3, r3, r0, lsr #4
    4d5c:	f00c 4000 	and.w	r0, r12, #2147483648	; 0x80000000
    4d60:	428b      	cmp	r3, r1
    4d62:	bf38      	it	cc
    4d64:	005b      	lslcc	r3, r3, #1
    4d66:	f142 027d 	adc.w	r2, r2, #125	; 0x7d
    4d6a:	f44f 0c00 	mov.w	r12, #8388608	; 0x800000
    4d6e:	428b      	cmp	r3, r1
    4d70:	bf24      	itt	cs
    4d72:	1a5b      	subcs	r3, r3, r1
    4d74:	ea40 000c 	orrcs.w	r0, r0, r12
    4d78:	ebb3 0f51 	cmp.w	r3, r1, lsr #1
    4d7c:	bf24      	itt	cs
    4d7e:	eba3 0351 	subcs.w	r3, r3, r1, lsr #1
    4d82:	ea40 005c 	orrcs.w	r0, r0, r12, lsr #1
    4d86:	ebb3 0f91 	cmp.w	r3, r1, lsr #2
    4d8a:	bf24      	itt	cs
    4d8c:	eba3 0391 	subcs.w	r3, r3, r1, lsr #2
    4d90:	ea40 009c 	orrcs.w	r0, r0, r12, lsr #2
    4d94:	ebb3 0fd1 	cmp.w	r3, r1, lsr #3
    4d98:	bf24      	itt	cs
    4d9a:	eba3 03d1 	subcs.w	r3, r3, r1, lsr #3
    4d9e:	ea40 00dc 	orrcs.w	r0, r0, r12, lsr #3
    4da2:	011b      	lsls	r3, r3, #4
    4da4:	bf18      	it	ne
    4da6:	ea5f 1c1c 	movsne.w	r12, r12, lsr #4
    4daa:	d1e0      	bne.n	4d6e <__aeabi_fdiv+0x46>
    4dac:	2afd      	cmp	r2, #253	; 0xfd
    4dae:	f63f af50 	bhi.w	4c52 <__aeabi_fmul+0x92>
    4db2:	428b      	cmp	r3, r1
    4db4:	eb40 50c2 	adc.w	r0, r0, r2, lsl #23
    4db8:	bf08      	it	eq
    4dba:	f020 0001 	biceq.w	r0, r0, #1
    4dbe:	4770      	bx	lr
    4dc0:	f00c 4c00 	and.w	r12, r12, #2147483648	; 0x80000000
    4dc4:	ea4c 2050 	orr.w	r0, r12, r0, lsr #9
    4dc8:	327f      	adds	r2, #127	; 0x7f
    4dca:	bfc2      	ittt	gt
    4dcc:	f1d2 03ff 	rsbsgt	r3, r2, #255	; 0xff
    4dd0:	ea40 50c2 	orrgt.w	r0, r0, r2, lsl #23
    4dd4:	4770      	bxgt	lr
    4dd6:	f440 0000 	orr.w	r0, r0, #8388608	; 0x800000
    4dda:	f04f 0300 	mov.w	r3, #0
    4dde:	3a01      	subs	r2, #1
    4de0:	e737      	b.n	4c52 <__aeabi_fmul+0x92>
    4de2:	f092 0f00 	teq	r2, #0
    4de6:	f000 4c00 	and.w	r12, r0, #2147483648	; 0x80000000
    4dea:	bf02      	ittt	eq
    4dec:	0040      	lsleq	r0, r0, #1
    4dee:	f410 0f00 	tsteq.w	r0, #8388608	; 0x800000
    4df2:	3a01      	subeq	r2, #1
    4df4:	d0f9      	beq.n	4dea <__aeabi_fdiv+0xc2>
    4df6:	ea40 000c 	orr.w	r0, r0, r12
    4dfa:	f093 0f00 	teq	r3, #0
    4dfe:	f001 4c00 	and.w	r12, r1, #2147483648	; 0x80000000
    4e02:	bf02      	ittt	eq
    4e04:	0049      	lsleq	r1, r1, #1
    4e06:	f411 0f00 	tsteq.w	r1, #8388608	; 0x800000
    4e0a:	3b01      	subeq	r3, #1
    4e0c:	d0f9      	beq.n	4e02 <__aeabi_fdiv+0xda>
    4e0e:	ea41 010c 	orr.w	r1, r1, r12
    4e12:	e795      	b.n	4d40 <__aeabi_fdiv+0x18>
    4e14:	ea0c 53d1 	and.w	r3, r12, r1, lsr #23
    4e18:	ea92 0f0c 	teq	r2, r12
    4e1c:	d108      	bne.n	4e30 <__aeabi_fdiv+0x108>
    4e1e:	0242      	lsls	r2, r0, #9
    4e20:	f47f af7d 	bne.w	4d1e <__aeabi_fmul+0x15e>
    4e24:	ea93 0f0c 	teq	r3, r12
    4e28:	f47f af70 	bne.w	4d0c <__aeabi_fmul+0x14c>
    4e2c:	4608      	mov	r0, r1
    4e2e:	e776      	b.n	4d1e <__aeabi_fmul+0x15e>
    4e30:	ea93 0f0c 	teq	r3, r12
    4e34:	d104      	bne.n	4e40 <__aeabi_fdiv+0x118>
    4e36:	024b      	lsls	r3, r1, #9
    4e38:	f43f af4c 	beq.w	4cd4 <__aeabi_fmul+0x114>
    4e3c:	4608      	mov	r0, r1
    4e3e:	e76e      	b.n	4d1e <__aeabi_fmul+0x15e>
    4e40:	f030 4c00 	bics.w	r12, r0, #2147483648	; 0x80000000
    4e44:	bf18      	it	ne
    4e46:	f031 4c00 	bicsne.w	r12, r1, #2147483648	; 0x80000000
    4e4a:	d1ca      	bne.n	4de2 <__aeabi_fdiv+0xba>
    4e4c:	f030 4200 	bics.w	r2, r0, #2147483648	; 0x80000000
    4e50:	f47f af5c 	bne.w	4d0c <__aeabi_fmul+0x14c>
    4e54:	f031 4300 	bics.w	r3, r1, #2147483648	; 0x80000000
    4e58:	f47f af3c 	bne.w	4cd4 <__aeabi_fmul+0x114>
    4e5c:	e75f      	b.n	4d1e <__aeabi_fmul+0x15e>
    4e5e:	bf00      	nop

00004e60 <__gesf2>:
    4e60:	f04f 3cff 	mov.w	r12, #4294967295
    4e64:	e006      	b.n	4e74 <__cmpsf2+0x4>
    4e66:	bf00      	nop

00004e68 <__lesf2>:
    4e68:	f04f 0c01 	mov.w	r12, #1
    4e6c:	e002      	b.n	4e74 <__cmpsf2+0x4>
    4e6e:	bf00      	nop

00004e70 <__cmpsf2>:
    4e70:	f04f 0c01 	mov.w	r12, #1
    4e74:	f84d cd04 	str.w	r12, [sp, #-4]!
    4e78:	ea4f 0240 	mov.w	r2, r0, lsl #1
    4e7c:	ea4f 0341 	mov.w	r3, r1, lsl #1
    4e80:	ea7f 6c22 	mvns.w	r12, r2, asr #24
    4e84:	bf18      	it	ne
    4e86:	ea7f 6c23 	mvnsne.w	r12, r3, asr #24
    4e8a:	d011      	beq.n	4eb0 <__cmpsf2+0x40>
    4e8c:	b001      	add	sp, #4
    4e8e:	ea52 0c53 	orrs.w	r12, r2, r3, lsr #1
    4e92:	bf18      	it	ne
    4e94:	ea90 0f01 	teqne	r0, r1
    4e98:	bf58      	it	pl
    4e9a:	ebb2 0003 	subspl.w	r0, r2, r3
    4e9e:	bf88      	it	hi
    4ea0:	17c8      	asrhi	r0, r1, #31
    4ea2:	bf38      	it	cc
    4ea4:	ea6f 70e1 	mvncc.w	r0, r1, asr #31
    4ea8:	bf18      	it	ne
    4eaa:	f040 0001 	orrne.w	r0, r0, #1
    4eae:	4770      	bx	lr
    4eb0:	ea7f 6c22 	mvns.w	r12, r2, asr #24
    4eb4:	d102      	bne.n	4ebc <__cmpsf2+0x4c>
    4eb6:	ea5f 2c40 	movs.w	r12, r0, lsl #9
    4eba:	d105      	bne.n	4ec8 <__cmpsf2+0x58>
    4ebc:	ea7f 6c23 	mvns.w	r12, r3, asr #24
    4ec0:	d1e4      	bne.n	4e8c <__cmpsf2+0x1c>
    4ec2:	ea5f 2c41 	movs.w	r12, r1, lsl #9
    4ec6:	d0e1      	beq.n	4e8c <__cmpsf2+0x1c>
    4ec8:	f85d 0b04 	ldr.w	r0, [sp], #4
    4ecc:	4770      	bx	lr
    4ece:	bf00      	nop

00004ed0 <__aeabi_cfrcmple>:
    4ed0:	4684      	mov	r12, r0
    4ed2:	4608      	mov	r0, r1
    4ed4:	4661      	mov	r1, r12
    4ed6:	e7ff      	b.n	4ed8 <__aeabi_cfcmpeq>

00004ed8 <__aeabi_cfcmpeq>:
    4ed8:	b50f      	push	{r0, r1, r2, r3, lr}
    4eda:	f7ff ffc9 	bl	4e70 <__cmpsf2>
    4ede:	2800      	cmp	r0, #0
    4ee0:	bf48      	it	mi
    4ee2:	f110 0f00 	cmnmi.w	r0, #0
    4ee6:	bd0f      	pop	{r0, r1, r2, r3, pc}

00004ee8 <__aeabi_fcmpeq>:
    4ee8:	f84d ed08 	str.w	lr, [sp, #-8]!
    4eec:	f7ff fff4 	bl	4ed8 <__aeabi_cfcmpeq>
    4ef0:	bf0c      	ite	eq
    4ef2:	2001      	moveq	r0, #1
    4ef4:	2000      	movne	r0, #0
    4ef6:	f85d fb08 	ldr.w	pc, [sp], #8
    4efa:	bf00      	nop

00004efc <__aeabi_fcmplt>:
    4efc:	f84d ed08 	str.w	lr, [sp, #-8]!
    4f00:	f7ff ffea 	bl	4ed8 <__aeabi_cfcmpeq>
    4f04:	bf34      	ite	cc
    4f06:	2001      	movcc	r0, #1
    4f08:	2000      	movcs	r0, #0
    4f0a:	f85d fb08 	ldr.w	pc, [sp], #8
    4f0e:	bf00      	nop

00004f10 <__aeabi_fcmple>:
    4f10:	f84d ed08 	str.w	lr, [sp, #-8]!
    4f14:	f7ff ffe0 	bl	4ed8 <__aeabi_cfcmpeq>
    4f18:	bf94      	ite	ls
    4f1a:	2001      	movls	r0, #1
    4f1c:	2000      	movhi	r0, #0
    4f1e:	f85d fb08 	ldr.w	pc, [sp], #8
    4f22:	bf00      	nop

00004f24 <__aeabi_fcmpge>:
    4f24:	f84d ed08 	str.w	lr, [sp, #-8]!
    4f28:	f7ff ffd2 	bl	4ed0 <__aeabi_cfrcmple>
    4f2c:	bf94      	ite	ls
    4f2e:	2001      	movls	r0, #1
    4f30:	2000      	movhi	r0, #0
    4f32:	f85d fb08 	ldr.w	pc, [sp], #8
    4f36:	bf00      	nop

00004f38 <__aeabi_fcmpgt>:
    4f38:	f84d ed08 	str.w	lr, [sp, #-8]!
    4f3c:	f7ff ffc8 	bl	4ed0 <__aeabi_cfrcmple>
    4f40:	bf34      	ite	cc
    4f42:	2001      	movcc	r0, #1
    4f44:	2000      	movcs	r0, #0
    4f46:	f85d fb08 	ldr.w	pc, [sp], #8
    4f4a:	bf00      	nop

00004f4c <__aeabi_f2uiz>:
    4f4c:	0042      	lsls	r2, r0, #1
    4f4e:	d20e      	bcs.n	4f6e <__aeabi_f2uiz+0x22>
    4f50:	f1b2 4ffe 	cmp.w	r2, #2130706432	; 0x7f000000
    4f54:	d30b      	bcc.n	4f6e <__aeabi_f2uiz+0x22>
    4f56:	f04f 039e 	mov.w	r3, #158	; 0x9e
    4f5a:	ebb3 6212 	subs.w	r2, r3, r2, lsr #24
    4f5e:	d409      	bmi.n	4f74 <__aeabi_f2uiz+0x28>
    4f60:	ea4f 2300 	mov.w	r3, r0, lsl #8
    4f64:	f043 4300 	orr.w	r3, r3, #2147483648	; 0x80000000
    4f68:	fa23 f002 	lsr.w	r0, r3, r2
    4f6c:	4770      	bx	lr
    4f6e:	f04f 0000 	mov.w	r0, #0
    4f72:	4770      	bx	lr
    4f74:	f112 0f61 	cmn.w	r2, #97	; 0x61
    4f78:	d101      	bne.n	4f7e <__aeabi_f2uiz+0x32>
    4f7a:	0242      	lsls	r2, r0, #9
    4f7c:	d102      	bne.n	4f84 <__aeabi_f2uiz+0x38>
    4f7e:	f04f 30ff 	mov.w	r0, #4294967295
    4f82:	4770      	bx	lr
    4f84:	f04f 0000 	mov.w	r0, #0
    4f88:	4770      	bx	lr
    4f8a:	bf00      	nop

00004f8c <__cxa_atexit>:
    4f8c:	b510      	push	{r4, lr}
    4f8e:	4c05      	ldr	r4, [pc, #20]	; (4fa4 <__cxa_atexit+0x18>)
    4f90:	4613      	mov	r3, r2
    4f92:	b12c      	cbz	r4, 4fa0 <__cxa_atexit+0x14>
    4f94:	460a      	mov	r2, r1
    4f96:	4601      	mov	r1, r0
    4f98:	2002      	movs	r0, #2
    4f9a:	f3af 8000 	nop.w
    4f9e:	bd10      	pop	{r4, pc}
    4fa0:	4620      	mov	r0, r4
    4fa2:	bd10      	pop	{r4, pc}
    4fa4:	00000000 	.word	0x00000000

00004fa8 <__errno>:
    4fa8:	4b01      	ldr	r3, [pc, #4]	; (4fb0 <__errno+0x8>)
    4faa:	6818      	ldr	r0, [r3, #0]
    4fac:	4770      	bx	lr
    4fae:	bf00      	nop
    4fb0:	10000150 	.word	0x10000150

00004fb4 <exit>:
    4fb4:	b508      	push	{r3, lr}
    4fb6:	4b07      	ldr	r3, [pc, #28]	; (4fd4 <exit+0x20>)
    4fb8:	4604      	mov	r4, r0
    4fba:	b113      	cbz	r3, 4fc2 <exit+0xe>
    4fbc:	2100      	movs	r1, #0
    4fbe:	f3af 8000 	nop.w
    4fc2:	4b05      	ldr	r3, [pc, #20]	; (4fd8 <exit+0x24>)
    4fc4:	6818      	ldr	r0, [r3, #0]
    4fc6:	6a83      	ldr	r3, [r0, #40]	; 0x28
    4fc8:	b103      	cbz	r3, 4fcc <exit+0x18>
    4fca:	4798      	blx	r3
    4fcc:	4620      	mov	r0, r4
    4fce:	f7fe ff37 	bl	3e40 <_exit>
    4fd2:	bf00      	nop
    4fd4:	00000000 	.word	0x00000000
    4fd8:	00007740 	.word	0x00007740

00004fdc <_fclose_r>:
    4fdc:	b570      	push	{r4, r5, r6, lr}
    4fde:	4605      	mov	r5, r0
    4fe0:	460c      	mov	r4, r1
    4fe2:	b909      	cbnz	r1, 4fe8 <_fclose_r+0xc>
    4fe4:	2000      	movs	r0, #0
    4fe6:	bd70      	pop	{r4, r5, r6, pc}
    4fe8:	b118      	cbz	r0, 4ff2 <_fclose_r+0x16>
    4fea:	6983      	ldr	r3, [r0, #24]
    4fec:	b90b      	cbnz	r3, 4ff2 <_fclose_r+0x16>
    4fee:	f000 f951 	bl	5294 <__sinit>
    4ff2:	4b20      	ldr	r3, [pc, #128]	; (5074 <_fclose_r+0x98>)
    4ff4:	429c      	cmp	r4, r3
    4ff6:	d101      	bne.n	4ffc <_fclose_r+0x20>
    4ff8:	686c      	ldr	r4, [r5, #4]
    4ffa:	e008      	b.n	500e <_fclose_r+0x32>
    4ffc:	4b1e      	ldr	r3, [pc, #120]	; (5078 <_fclose_r+0x9c>)
    4ffe:	429c      	cmp	r4, r3
    5000:	d101      	bne.n	5006 <_fclose_r+0x2a>
    5002:	68ac      	ldr	r4, [r5, #8]
    5004:	e003      	b.n	500e <_fclose_r+0x32>
    5006:	4b1d      	ldr	r3, [pc, #116]	; (507c <_fclose_r+0xa0>)
    5008:	429c      	cmp	r4, r3
    500a:	bf08      	it	eq
    500c:	68ec      	ldreq	r4, [r5, #12]
    500e:	f9b4 300c 	ldrsh.w	r3, [r4, #12]
    5012:	2b00      	cmp	r3, #0
    5014:	d0e6      	beq.n	4fe4 <_fclose_r+0x8>
    5016:	4621      	mov	r1, r4
    5018:	4628      	mov	r0, r5
    501a:	f000 f839 	bl	5090 <__sflush_r>
    501e:	6b23      	ldr	r3, [r4, #48]	; 0x30
    5020:	4606      	mov	r6, r0
    5022:	b133      	cbz	r3, 5032 <_fclose_r+0x56>
    5024:	6a21      	ldr	r1, [r4, #32]
    5026:	4628      	mov	r0, r5
    5028:	4798      	blx	r3
    502a:	2800      	cmp	r0, #0
    502c:	bfb8      	it	lt
    502e:	f04f 36ff 	movlt.w	r6, #4294967295
    5032:	89a3      	ldrh	r3, [r4, #12]
    5034:	061b      	lsls	r3, r3, #24
    5036:	d503      	bpl.n	5040 <_fclose_r+0x64>
    5038:	6921      	ldr	r1, [r4, #16]
    503a:	4628      	mov	r0, r5
    503c:	f000 fb76 	bl	572c <_free_r>
    5040:	6b61      	ldr	r1, [r4, #52]	; 0x34
    5042:	b141      	cbz	r1, 5056 <_fclose_r+0x7a>
    5044:	f104 0344 	add.w	r3, r4, #68	; 0x44
    5048:	4299      	cmp	r1, r3
    504a:	d002      	beq.n	5052 <_fclose_r+0x76>
    504c:	4628      	mov	r0, r5
    504e:	f000 fb6d 	bl	572c <_free_r>
    5052:	2300      	movs	r3, #0
    5054:	6363      	str	r3, [r4, #52]	; 0x34
    5056:	6ca1      	ldr	r1, [r4, #72]	; 0x48
    5058:	b121      	cbz	r1, 5064 <_fclose_r+0x88>
    505a:	4628      	mov	r0, r5
    505c:	f000 fb66 	bl	572c <_free_r>
    5060:	2300      	movs	r3, #0
    5062:	64a3      	str	r3, [r4, #72]	; 0x48
    5064:	f000 f982 	bl	536c <__sfp_lock_acquire>
    5068:	2300      	movs	r3, #0
    506a:	81a3      	strh	r3, [r4, #12]
    506c:	f000 f97f 	bl	536e <__sfp_lock_release>
    5070:	4630      	mov	r0, r6
    5072:	bd70      	pop	{r4, r5, r6, pc}
    5074:	000076dc 	.word	0x000076dc
    5078:	000076fc 	.word	0x000076fc
    507c:	0000771c 	.word	0x0000771c

00005080 <fclose>:
    5080:	4b02      	ldr	r3, [pc, #8]	; (508c <fclose+0xc>)
    5082:	4601      	mov	r1, r0
    5084:	6818      	ldr	r0, [r3, #0]
    5086:	f7ff bfa9 	b.w	4fdc <_fclose_r>
    508a:	bf00      	nop
    508c:	10000150 	.word	0x10000150

00005090 <__sflush_r>:
    5090:	898a      	ldrh	r2, [r1, #12]
    5092:	e92d 41f0 	stmdb	sp!, {r4, r5, r6, r7, r8, lr}
    5096:	4605      	mov	r5, r0
    5098:	0710      	lsls	r0, r2, #28
    509a:	460c      	mov	r4, r1
    509c:	d459      	bmi.n	5152 <__sflush_r+0xc2>
    509e:	684b      	ldr	r3, [r1, #4]
    50a0:	2b00      	cmp	r3, #0
    50a2:	dc02      	bgt.n	50aa <__sflush_r+0x1a>
    50a4:	6c0b      	ldr	r3, [r1, #64]	; 0x40
    50a6:	2b00      	cmp	r3, #0
    50a8:	dd17      	ble.n	50da <__sflush_r+0x4a>
    50aa:	6ae6      	ldr	r6, [r4, #44]	; 0x2c
    50ac:	b1ae      	cbz	r6, 50da <__sflush_r+0x4a>
    50ae:	f402 5280 	and.w	r2, r2, #4096	; 0x1000
    50b2:	2300      	movs	r3, #0
    50b4:	b292      	uxth	r2, r2
    50b6:	682f      	ldr	r7, [r5, #0]
    50b8:	602b      	str	r3, [r5, #0]
    50ba:	b10a      	cbz	r2, 50c0 <__sflush_r+0x30>
    50bc:	6d60      	ldr	r0, [r4, #84]	; 0x54
    50be:	e015      	b.n	50ec <__sflush_r+0x5c>
    50c0:	6a21      	ldr	r1, [r4, #32]
    50c2:	2301      	movs	r3, #1
    50c4:	4628      	mov	r0, r5
    50c6:	47b0      	blx	r6
    50c8:	1c41      	adds	r1, r0, #1
    50ca:	d10f      	bne.n	50ec <__sflush_r+0x5c>
    50cc:	682b      	ldr	r3, [r5, #0]
    50ce:	b16b      	cbz	r3, 50ec <__sflush_r+0x5c>
    50d0:	2b1d      	cmp	r3, #29
    50d2:	d001      	beq.n	50d8 <__sflush_r+0x48>
    50d4:	2b16      	cmp	r3, #22
    50d6:	d103      	bne.n	50e0 <__sflush_r+0x50>
    50d8:	602f      	str	r7, [r5, #0]
    50da:	2000      	movs	r0, #0
    50dc:	e8bd 81f0 	ldmia.w	sp!, {r4, r5, r6, r7, r8, pc}
    50e0:	89a3      	ldrh	r3, [r4, #12]
    50e2:	f043 0340 	orr.w	r3, r3, #64	; 0x40
    50e6:	81a3      	strh	r3, [r4, #12]
    50e8:	e8bd 81f0 	ldmia.w	sp!, {r4, r5, r6, r7, r8, pc}
    50ec:	89a3      	ldrh	r3, [r4, #12]
    50ee:	075a      	lsls	r2, r3, #29
    50f0:	d505      	bpl.n	50fe <__sflush_r+0x6e>
    50f2:	6863      	ldr	r3, [r4, #4]
    50f4:	1ac0      	subs	r0, r0, r3
    50f6:	6b63      	ldr	r3, [r4, #52]	; 0x34
    50f8:	b10b      	cbz	r3, 50fe <__sflush_r+0x6e>
    50fa:	6c23      	ldr	r3, [r4, #64]	; 0x40
    50fc:	1ac0      	subs	r0, r0, r3
    50fe:	2300      	movs	r3, #0
    5100:	4602      	mov	r2, r0
    5102:	6ae6      	ldr	r6, [r4, #44]	; 0x2c
    5104:	6a21      	ldr	r1, [r4, #32]
    5106:	4628      	mov	r0, r5
    5108:	47b0      	blx	r6
    510a:	1c43      	adds	r3, r0, #1
    510c:	89a3      	ldrh	r3, [r4, #12]
    510e:	d106      	bne.n	511e <__sflush_r+0x8e>
    5110:	6829      	ldr	r1, [r5, #0]
    5112:	291d      	cmp	r1, #29
    5114:	d839      	bhi.n	518a <__sflush_r+0xfa>
    5116:	4a20      	ldr	r2, [pc, #128]	; (5198 <__sflush_r+0x108>)
    5118:	40ca      	lsrs	r2, r1
    511a:	07d6      	lsls	r6, r2, #31
    511c:	d535      	bpl.n	518a <__sflush_r+0xfa>
    511e:	2200      	movs	r2, #0
    5120:	6062      	str	r2, [r4, #4]
    5122:	6922      	ldr	r2, [r4, #16]
    5124:	04d9      	lsls	r1, r3, #19
    5126:	6022      	str	r2, [r4, #0]
    5128:	d504      	bpl.n	5134 <__sflush_r+0xa4>
    512a:	1c42      	adds	r2, r0, #1
    512c:	d101      	bne.n	5132 <__sflush_r+0xa2>
    512e:	682b      	ldr	r3, [r5, #0]
    5130:	b903      	cbnz	r3, 5134 <__sflush_r+0xa4>
    5132:	6560      	str	r0, [r4, #84]	; 0x54
    5134:	6b61      	ldr	r1, [r4, #52]	; 0x34
    5136:	602f      	str	r7, [r5, #0]
    5138:	2900      	cmp	r1, #0
    513a:	d0ce      	beq.n	50da <__sflush_r+0x4a>
    513c:	f104 0344 	add.w	r3, r4, #68	; 0x44
    5140:	4299      	cmp	r1, r3
    5142:	d002      	beq.n	514a <__sflush_r+0xba>
    5144:	4628      	mov	r0, r5
    5146:	f000 faf1 	bl	572c <_free_r>
    514a:	2000      	movs	r0, #0
    514c:	6360      	str	r0, [r4, #52]	; 0x34
    514e:	e8bd 81f0 	ldmia.w	sp!, {r4, r5, r6, r7, r8, pc}
    5152:	690f      	ldr	r7, [r1, #16]
    5154:	2f00      	cmp	r7, #0
    5156:	d0c0      	beq.n	50da <__sflush_r+0x4a>
    5158:	0793      	lsls	r3, r2, #30
    515a:	680e      	ldr	r6, [r1, #0]
    515c:	bf0c      	ite	eq
    515e:	694b      	ldreq	r3, [r1, #20]
    5160:	2300      	movne	r3, #0
    5162:	ebc7 0806 	rsb	r8, r7, r6
    5166:	600f      	str	r7, [r1, #0]
    5168:	608b      	str	r3, [r1, #8]
    516a:	e002      	b.n	5172 <__sflush_r+0xe2>
    516c:	4407      	add	r7, r0
    516e:	ebc0 0808 	rsb	r8, r0, r8
    5172:	f1b8 0f00 	cmp.w	r8, #0
    5176:	ddb0      	ble.n	50da <__sflush_r+0x4a>
    5178:	4643      	mov	r3, r8
    517a:	463a      	mov	r2, r7
    517c:	6a21      	ldr	r1, [r4, #32]
    517e:	4628      	mov	r0, r5
    5180:	6aa6      	ldr	r6, [r4, #40]	; 0x28
    5182:	47b0      	blx	r6
    5184:	2800      	cmp	r0, #0
    5186:	dcf1      	bgt.n	516c <__sflush_r+0xdc>
    5188:	89a3      	ldrh	r3, [r4, #12]
    518a:	f043 0340 	orr.w	r3, r3, #64	; 0x40
    518e:	81a3      	strh	r3, [r4, #12]
    5190:	f04f 30ff 	mov.w	r0, #4294967295
    5194:	e8bd 81f0 	ldmia.w	sp!, {r4, r5, r6, r7, r8, pc}
    5198:	20400001 	.word	0x20400001

0000519c <_fflush_r>:
    519c:	b538      	push	{r3, r4, r5, lr}
    519e:	690b      	ldr	r3, [r1, #16]
    51a0:	4605      	mov	r5, r0
    51a2:	460c      	mov	r4, r1
    51a4:	b1db      	cbz	r3, 51de <_fflush_r+0x42>
    51a6:	b118      	cbz	r0, 51b0 <_fflush_r+0x14>
    51a8:	6983      	ldr	r3, [r0, #24]
    51aa:	b90b      	cbnz	r3, 51b0 <_fflush_r+0x14>
    51ac:	f000 f872 	bl	5294 <__sinit>
    51b0:	4b0c      	ldr	r3, [pc, #48]	; (51e4 <_fflush_r+0x48>)
    51b2:	429c      	cmp	r4, r3
    51b4:	d101      	bne.n	51ba <_fflush_r+0x1e>
    51b6:	686c      	ldr	r4, [r5, #4]
    51b8:	e008      	b.n	51cc <_fflush_r+0x30>
    51ba:	4b0b      	ldr	r3, [pc, #44]	; (51e8 <_fflush_r+0x4c>)
    51bc:	429c      	cmp	r4, r3
    51be:	d101      	bne.n	51c4 <_fflush_r+0x28>
    51c0:	68ac      	ldr	r4, [r5, #8]
    51c2:	e003      	b.n	51cc <_fflush_r+0x30>
    51c4:	4b09      	ldr	r3, [pc, #36]	; (51ec <_fflush_r+0x50>)
    51c6:	429c      	cmp	r4, r3
    51c8:	bf08      	it	eq
    51ca:	68ec      	ldreq	r4, [r5, #12]
    51cc:	f9b4 300c 	ldrsh.w	r3, [r4, #12]
    51d0:	b12b      	cbz	r3, 51de <_fflush_r+0x42>
    51d2:	4621      	mov	r1, r4
    51d4:	4628      	mov	r0, r5
    51d6:	e8bd 4038 	ldmia.w	sp!, {r3, r4, r5, lr}
    51da:	f7ff bf59 	b.w	5090 <__sflush_r>
    51de:	2000      	movs	r0, #0
    51e0:	bd38      	pop	{r3, r4, r5, pc}
    51e2:	bf00      	nop
    51e4:	000076dc 	.word	0x000076dc
    51e8:	000076fc 	.word	0x000076fc
    51ec:	0000771c 	.word	0x0000771c

000051f0 <fflush>:
    51f0:	4601      	mov	r1, r0
    51f2:	b920      	cbnz	r0, 51fe <fflush+0xe>
    51f4:	4b04      	ldr	r3, [pc, #16]	; (5208 <fflush+0x18>)
    51f6:	4905      	ldr	r1, [pc, #20]	; (520c <fflush+0x1c>)
    51f8:	6818      	ldr	r0, [r3, #0]
    51fa:	f000 b9bb 	b.w	5574 <_fwalk_reent>
    51fe:	4b04      	ldr	r3, [pc, #16]	; (5210 <fflush+0x20>)
    5200:	6818      	ldr	r0, [r3, #0]
    5202:	f7ff bfcb 	b.w	519c <_fflush_r>
    5206:	bf00      	nop
    5208:	00007740 	.word	0x00007740
    520c:	0000519d 	.word	0x0000519d
    5210:	10000150 	.word	0x10000150

00005214 <_cleanup_r>:
    5214:	4901      	ldr	r1, [pc, #4]	; (521c <_cleanup_r+0x8>)
    5216:	f000 b9ad 	b.w	5574 <_fwalk_reent>
    521a:	bf00      	nop
    521c:	0000519d 	.word	0x0000519d

00005220 <std.isra.0>:
    5220:	b510      	push	{r4, lr}
    5222:	4604      	mov	r4, r0
    5224:	2300      	movs	r3, #0
    5226:	6003      	str	r3, [r0, #0]
    5228:	6043      	str	r3, [r0, #4]
    522a:	6083      	str	r3, [r0, #8]
    522c:	8181      	strh	r1, [r0, #12]
    522e:	6643      	str	r3, [r0, #100]	; 0x64
    5230:	81c2      	strh	r2, [r0, #14]
    5232:	6103      	str	r3, [r0, #16]
    5234:	6143      	str	r3, [r0, #20]
    5236:	6183      	str	r3, [r0, #24]
    5238:	4619      	mov	r1, r3
    523a:	2208      	movs	r2, #8
    523c:	305c      	adds	r0, #92	; 0x5c
    523e:	f000 fa6d 	bl	571c <memset>
    5242:	4b05      	ldr	r3, [pc, #20]	; (5258 <std.isra.0+0x38>)
    5244:	6224      	str	r4, [r4, #32]
    5246:	6263      	str	r3, [r4, #36]	; 0x24
    5248:	4b04      	ldr	r3, [pc, #16]	; (525c <std.isra.0+0x3c>)
    524a:	62a3      	str	r3, [r4, #40]	; 0x28
    524c:	4b04      	ldr	r3, [pc, #16]	; (5260 <std.isra.0+0x40>)
    524e:	62e3      	str	r3, [r4, #44]	; 0x2c
    5250:	4b04      	ldr	r3, [pc, #16]	; (5264 <std.isra.0+0x44>)
    5252:	6323      	str	r3, [r4, #48]	; 0x30
    5254:	bd10      	pop	{r4, pc}
    5256:	bf00      	nop
    5258:	000063c9 	.word	0x000063c9
    525c:	000063ef 	.word	0x000063ef
    5260:	00006427 	.word	0x00006427
    5264:	0000644b 	.word	0x0000644b

00005268 <__sfmoreglue>:
    5268:	b570      	push	{r4, r5, r6, lr}
    526a:	2368      	movs	r3, #104	; 0x68
    526c:	1e4d      	subs	r5, r1, #1
    526e:	435d      	muls	r5, r3
    5270:	460e      	mov	r6, r1
    5272:	f105 0174 	add.w	r1, r5, #116	; 0x74
    5276:	f000 fa9d 	bl	57b4 <_malloc_r>
    527a:	4604      	mov	r4, r0
    527c:	b140      	cbz	r0, 5290 <__sfmoreglue+0x28>
    527e:	2100      	movs	r1, #0
    5280:	e880 0042 	stmia.w	r0, {r1, r6}
    5284:	300c      	adds	r0, #12
    5286:	60a0      	str	r0, [r4, #8]
    5288:	f105 0268 	add.w	r2, r5, #104	; 0x68
    528c:	f000 fa46 	bl	571c <memset>
    5290:	4620      	mov	r0, r4
    5292:	bd70      	pop	{r4, r5, r6, pc}

00005294 <__sinit>:
    5294:	6983      	ldr	r3, [r0, #24]
    5296:	b510      	push	{r4, lr}
    5298:	4604      	mov	r4, r0
    529a:	bb33      	cbnz	r3, 52ea <__sinit+0x56>
    529c:	6483      	str	r3, [r0, #72]	; 0x48
    529e:	64c3      	str	r3, [r0, #76]	; 0x4c
    52a0:	6503      	str	r3, [r0, #80]	; 0x50
    52a2:	4b12      	ldr	r3, [pc, #72]	; (52ec <__sinit+0x58>)
    52a4:	4a12      	ldr	r2, [pc, #72]	; (52f0 <__sinit+0x5c>)
    52a6:	681b      	ldr	r3, [r3, #0]
    52a8:	6282      	str	r2, [r0, #40]	; 0x28
    52aa:	4298      	cmp	r0, r3
    52ac:	bf04      	itt	eq
    52ae:	2301      	moveq	r3, #1
    52b0:	6183      	streq	r3, [r0, #24]
    52b2:	f000 f81f 	bl	52f4 <__sfp>
    52b6:	6060      	str	r0, [r4, #4]
    52b8:	4620      	mov	r0, r4
    52ba:	f000 f81b 	bl	52f4 <__sfp>
    52be:	60a0      	str	r0, [r4, #8]
    52c0:	4620      	mov	r0, r4
    52c2:	f000 f817 	bl	52f4 <__sfp>
    52c6:	2200      	movs	r2, #0
    52c8:	60e0      	str	r0, [r4, #12]
    52ca:	2104      	movs	r1, #4
    52cc:	6860      	ldr	r0, [r4, #4]
    52ce:	f7ff ffa7 	bl	5220 <std.isra.0>
    52d2:	2201      	movs	r2, #1
    52d4:	2109      	movs	r1, #9
    52d6:	68a0      	ldr	r0, [r4, #8]
    52d8:	f7ff ffa2 	bl	5220 <std.isra.0>
    52dc:	2202      	movs	r2, #2
    52de:	2112      	movs	r1, #18
    52e0:	68e0      	ldr	r0, [r4, #12]
    52e2:	f7ff ff9d 	bl	5220 <std.isra.0>
    52e6:	2301      	movs	r3, #1
    52e8:	61a3      	str	r3, [r4, #24]
    52ea:	bd10      	pop	{r4, pc}
    52ec:	00007740 	.word	0x00007740
    52f0:	00005215 	.word	0x00005215

000052f4 <__sfp>:
    52f4:	b5f8      	push	{r3, r4, r5, r6, r7, lr}
    52f6:	4b1c      	ldr	r3, [pc, #112]	; (5368 <__sfp+0x74>)
    52f8:	4607      	mov	r7, r0
    52fa:	681e      	ldr	r6, [r3, #0]
    52fc:	69b3      	ldr	r3, [r6, #24]
    52fe:	b913      	cbnz	r3, 5306 <__sfp+0x12>
    5300:	4630      	mov	r0, r6
    5302:	f7ff ffc7 	bl	5294 <__sinit>
    5306:	3648      	adds	r6, #72	; 0x48
    5308:	68b4      	ldr	r4, [r6, #8]
    530a:	6873      	ldr	r3, [r6, #4]
    530c:	3b01      	subs	r3, #1
    530e:	d404      	bmi.n	531a <__sfp+0x26>
    5310:	f9b4 500c 	ldrsh.w	r5, [r4, #12]
    5314:	b17d      	cbz	r5, 5336 <__sfp+0x42>
    5316:	3468      	adds	r4, #104	; 0x68
    5318:	e7f8      	b.n	530c <__sfp+0x18>
    531a:	6833      	ldr	r3, [r6, #0]
    531c:	b10b      	cbz	r3, 5322 <__sfp+0x2e>
    531e:	6836      	ldr	r6, [r6, #0]
    5320:	e7f2      	b.n	5308 <__sfp+0x14>
    5322:	2104      	movs	r1, #4
    5324:	4638      	mov	r0, r7
    5326:	f7ff ff9f 	bl	5268 <__sfmoreglue>
    532a:	6030      	str	r0, [r6, #0]
    532c:	2800      	cmp	r0, #0
    532e:	d1f6      	bne.n	531e <__sfp+0x2a>
    5330:	230c      	movs	r3, #12
    5332:	603b      	str	r3, [r7, #0]
    5334:	bdf8      	pop	{r3, r4, r5, r6, r7, pc}
    5336:	f64f 73ff 	movw	r3, #65535	; 0xffff
    533a:	81e3      	strh	r3, [r4, #14]
    533c:	2301      	movs	r3, #1
    533e:	81a3      	strh	r3, [r4, #12]
    5340:	6665      	str	r5, [r4, #100]	; 0x64
    5342:	6025      	str	r5, [r4, #0]
    5344:	60a5      	str	r5, [r4, #8]
    5346:	6065      	str	r5, [r4, #4]
    5348:	6125      	str	r5, [r4, #16]
    534a:	6165      	str	r5, [r4, #20]
    534c:	61a5      	str	r5, [r4, #24]
    534e:	2208      	movs	r2, #8
    5350:	4629      	mov	r1, r5
    5352:	f104 005c 	add.w	r0, r4, #92	; 0x5c
    5356:	f000 f9e1 	bl	571c <memset>
    535a:	6365      	str	r5, [r4, #52]	; 0x34
    535c:	63a5      	str	r5, [r4, #56]	; 0x38
    535e:	64a5      	str	r5, [r4, #72]	; 0x48
    5360:	64e5      	str	r5, [r4, #76]	; 0x4c
    5362:	4620      	mov	r0, r4
    5364:	bdf8      	pop	{r3, r4, r5, r6, r7, pc}
    5366:	bf00      	nop
    5368:	00007740 	.word	0x00007740

0000536c <__sfp_lock_acquire>:
    536c:	4770      	bx	lr

0000536e <__sfp_lock_release>:
    536e:	4770      	bx	lr

00005370 <_fopen_r>:
    5370:	b5f7      	push	{r0, r1, r2, r4, r5, r6, r7, lr}
    5372:	460f      	mov	r7, r1
    5374:	4611      	mov	r1, r2
    5376:	aa01      	add	r2, sp, #4
    5378:	4605      	mov	r5, r0
    537a:	f001 fab1 	bl	68e0 <__sflags>
    537e:	4606      	mov	r6, r0
    5380:	b908      	cbnz	r0, 5386 <_fopen_r+0x16>
    5382:	2000      	movs	r0, #0
    5384:	e029      	b.n	53da <_fopen_r+0x6a>
    5386:	4628      	mov	r0, r5
    5388:	f7ff ffb4 	bl	52f4 <__sfp>
    538c:	4604      	mov	r4, r0
    538e:	2800      	cmp	r0, #0
    5390:	d0f7      	beq.n	5382 <_fopen_r+0x12>
    5392:	f44f 73db 	mov.w	r3, #438	; 0x1b6
    5396:	9a01      	ldr	r2, [sp, #4]
    5398:	4639      	mov	r1, r7
    539a:	4628      	mov	r0, r5
    539c:	f000 fea0 	bl	60e0 <_open_r>
    53a0:	2800      	cmp	r0, #0
    53a2:	da06      	bge.n	53b2 <_fopen_r+0x42>
    53a4:	2500      	movs	r5, #0
    53a6:	f7ff ffe1 	bl	536c <__sfp_lock_acquire>
    53aa:	81a5      	strh	r5, [r4, #12]
    53ac:	f7ff ffdf 	bl	536e <__sfp_lock_release>
    53b0:	e7e7      	b.n	5382 <_fopen_r+0x12>
    53b2:	4b0b      	ldr	r3, [pc, #44]	; (53e0 <_fopen_r+0x70>)
    53b4:	81e0      	strh	r0, [r4, #14]
    53b6:	6263      	str	r3, [r4, #36]	; 0x24
    53b8:	4b0a      	ldr	r3, [pc, #40]	; (53e4 <_fopen_r+0x74>)
    53ba:	81a6      	strh	r6, [r4, #12]
    53bc:	62a3      	str	r3, [r4, #40]	; 0x28
    53be:	4b0a      	ldr	r3, [pc, #40]	; (53e8 <_fopen_r+0x78>)
    53c0:	6224      	str	r4, [r4, #32]
    53c2:	62e3      	str	r3, [r4, #44]	; 0x2c
    53c4:	4b09      	ldr	r3, [pc, #36]	; (53ec <_fopen_r+0x7c>)
    53c6:	6323      	str	r3, [r4, #48]	; 0x30
    53c8:	05f3      	lsls	r3, r6, #23
    53ca:	d505      	bpl.n	53d8 <_fopen_r+0x68>
    53cc:	2302      	movs	r3, #2
    53ce:	2200      	movs	r2, #0
    53d0:	4621      	mov	r1, r4
    53d2:	4628      	mov	r0, r5
    53d4:	f000 f840 	bl	5458 <_fseek_r>
    53d8:	4620      	mov	r0, r4
    53da:	b003      	add	sp, #12
    53dc:	bdf0      	pop	{r4, r5, r6, r7, pc}
    53de:	bf00      	nop
    53e0:	000063c9 	.word	0x000063c9
    53e4:	000063ef 	.word	0x000063ef
    53e8:	00006427 	.word	0x00006427
    53ec:	0000644b 	.word	0x0000644b

000053f0 <fopen>:
    53f0:	4b02      	ldr	r3, [pc, #8]	; (53fc <fopen+0xc>)
    53f2:	460a      	mov	r2, r1
    53f4:	4601      	mov	r1, r0
    53f6:	6818      	ldr	r0, [r3, #0]
    53f8:	f7ff bfba 	b.w	5370 <_fopen_r>
    53fc:	10000150 	.word	0x10000150

00005400 <_fputc_r>:
    5400:	b570      	push	{r4, r5, r6, lr}
    5402:	460e      	mov	r6, r1
    5404:	4614      	mov	r4, r2
    5406:	4605      	mov	r5, r0
    5408:	b118      	cbz	r0, 5412 <_fputc_r+0x12>
    540a:	6983      	ldr	r3, [r0, #24]
    540c:	b90b      	cbnz	r3, 5412 <_fputc_r+0x12>
    540e:	f7ff ff41 	bl	5294 <__sinit>
    5412:	4b0a      	ldr	r3, [pc, #40]	; (543c <_fputc_r+0x3c>)
    5414:	429c      	cmp	r4, r3
    5416:	d101      	bne.n	541c <_fputc_r+0x1c>
    5418:	686c      	ldr	r4, [r5, #4]
    541a:	e008      	b.n	542e <_fputc_r+0x2e>
    541c:	4b08      	ldr	r3, [pc, #32]	; (5440 <_fputc_r+0x40>)
    541e:	429c      	cmp	r4, r3
    5420:	d101      	bne.n	5426 <_fputc_r+0x26>
    5422:	68ac      	ldr	r4, [r5, #8]
    5424:	e003      	b.n	542e <_fputc_r+0x2e>
    5426:	4b07      	ldr	r3, [pc, #28]	; (5444 <_fputc_r+0x44>)
    5428:	429c      	cmp	r4, r3
    542a:	bf08      	it	eq
    542c:	68ec      	ldreq	r4, [r5, #12]
    542e:	4622      	mov	r2, r4
    5430:	4631      	mov	r1, r6
    5432:	4628      	mov	r0, r5
    5434:	e8bd 4070 	ldmia.w	sp!, {r4, r5, r6, lr}
    5438:	f000 be64 	b.w	6104 <_putc_r>
    543c:	000076dc 	.word	0x000076dc
    5440:	000076fc 	.word	0x000076fc
    5444:	0000771c 	.word	0x0000771c

00005448 <fputc>:
    5448:	4b02      	ldr	r3, [pc, #8]	; (5454 <fputc+0xc>)
    544a:	460a      	mov	r2, r1
    544c:	4601      	mov	r1, r0
    544e:	6818      	ldr	r0, [r3, #0]
    5450:	f7ff bfd6 	b.w	5400 <_fputc_r>
    5454:	10000150 	.word	0x10000150

00005458 <_fseek_r>:
    5458:	f000 b800 	b.w	545c <_fseeko_r>

0000545c <_fseeko_r>:
    545c:	e92d 43f8 	stmdb	sp!, {r3, r4, r5, r6, r7, r8, r9, lr}
    5460:	460c      	mov	r4, r1
    5462:	4690      	mov	r8, r2
    5464:	461e      	mov	r6, r3
    5466:	4605      	mov	r5, r0
    5468:	b118      	cbz	r0, 5472 <_fseeko_r+0x16>
    546a:	6983      	ldr	r3, [r0, #24]
    546c:	b90b      	cbnz	r3, 5472 <_fseeko_r+0x16>
    546e:	f7ff ff11 	bl	5294 <__sinit>
    5472:	4b3d      	ldr	r3, [pc, #244]	; (5568 <_fseeko_r+0x10c>)
    5474:	429c      	cmp	r4, r3
    5476:	d101      	bne.n	547c <_fseeko_r+0x20>
    5478:	686c      	ldr	r4, [r5, #4]
    547a:	e008      	b.n	548e <_fseeko_r+0x32>
    547c:	4b3b      	ldr	r3, [pc, #236]	; (556c <_fseeko_r+0x110>)
    547e:	429c      	cmp	r4, r3
    5480:	d101      	bne.n	5486 <_fseeko_r+0x2a>
    5482:	68ac      	ldr	r4, [r5, #8]
    5484:	e003      	b.n	548e <_fseeko_r+0x32>
    5486:	4b3a      	ldr	r3, [pc, #232]	; (5570 <_fseeko_r+0x114>)
    5488:	429c      	cmp	r4, r3
    548a:	bf08      	it	eq
    548c:	68ec      	ldreq	r4, [r5, #12]
    548e:	89a3      	ldrh	r3, [r4, #12]
    5490:	f403 7384 	and.w	r3, r3, #264	; 0x108
    5494:	f5b3 7f84 	cmp.w	r3, #264	; 0x108
    5498:	d103      	bne.n	54a2 <_fseeko_r+0x46>
    549a:	4621      	mov	r1, r4
    549c:	4628      	mov	r0, r5
    549e:	f7ff fe7d 	bl	519c <_fflush_r>
    54a2:	6ae7      	ldr	r7, [r4, #44]	; 0x2c
    54a4:	b90f      	cbnz	r7, 54aa <_fseeko_r+0x4e>
    54a6:	231d      	movs	r3, #29
    54a8:	e02b      	b.n	5502 <_fseeko_r+0xa6>
    54aa:	2e01      	cmp	r6, #1
    54ac:	d004      	beq.n	54b8 <_fseeko_r+0x5c>
    54ae:	2e02      	cmp	r6, #2
    54b0:	d02b      	beq.n	550a <_fseeko_r+0xae>
    54b2:	b356      	cbz	r6, 550a <_fseeko_r+0xae>
    54b4:	2316      	movs	r3, #22
    54b6:	e024      	b.n	5502 <_fseeko_r+0xa6>
    54b8:	4621      	mov	r1, r4
    54ba:	4628      	mov	r0, r5
    54bc:	f7ff fe6e 	bl	519c <_fflush_r>
    54c0:	89a2      	ldrh	r2, [r4, #12]
    54c2:	f402 5280 	and.w	r2, r2, #4096	; 0x1000
    54c6:	b292      	uxth	r2, r2
    54c8:	b10a      	cbz	r2, 54ce <_fseeko_r+0x72>
    54ca:	6d60      	ldr	r0, [r4, #84]	; 0x54
    54cc:	e005      	b.n	54da <_fseeko_r+0x7e>
    54ce:	6a21      	ldr	r1, [r4, #32]
    54d0:	4633      	mov	r3, r6
    54d2:	4628      	mov	r0, r5
    54d4:	47b8      	blx	r7
    54d6:	1c41      	adds	r1, r0, #1
    54d8:	d014      	beq.n	5504 <_fseeko_r+0xa8>
    54da:	89a3      	ldrh	r3, [r4, #12]
    54dc:	075a      	lsls	r2, r3, #29
    54de:	d506      	bpl.n	54ee <_fseeko_r+0x92>
    54e0:	6863      	ldr	r3, [r4, #4]
    54e2:	1ac0      	subs	r0, r0, r3
    54e4:	6b63      	ldr	r3, [r4, #52]	; 0x34
    54e6:	b14b      	cbz	r3, 54fc <_fseeko_r+0xa0>
    54e8:	6c23      	ldr	r3, [r4, #64]	; 0x40
    54ea:	1ac0      	subs	r0, r0, r3
    54ec:	e006      	b.n	54fc <_fseeko_r+0xa0>
    54ee:	071b      	lsls	r3, r3, #28
    54f0:	d504      	bpl.n	54fc <_fseeko_r+0xa0>
    54f2:	6823      	ldr	r3, [r4, #0]
    54f4:	b113      	cbz	r3, 54fc <_fseeko_r+0xa0>
    54f6:	6922      	ldr	r2, [r4, #16]
    54f8:	1a9b      	subs	r3, r3, r2
    54fa:	4418      	add	r0, r3
    54fc:	4480      	add	r8, r0
    54fe:	2600      	movs	r6, #0
    5500:	e003      	b.n	550a <_fseeko_r+0xae>
    5502:	602b      	str	r3, [r5, #0]
    5504:	f04f 39ff 	mov.w	r9, #4294967295
    5508:	e02b      	b.n	5562 <_fseeko_r+0x106>
    550a:	6923      	ldr	r3, [r4, #16]
    550c:	b91b      	cbnz	r3, 5516 <_fseeko_r+0xba>
    550e:	4621      	mov	r1, r4
    5510:	4628      	mov	r0, r5
    5512:	f000 f873 	bl	55fc <__smakebuf_r>
    5516:	4621      	mov	r1, r4
    5518:	4628      	mov	r0, r5
    551a:	f7ff fe3f 	bl	519c <_fflush_r>
    551e:	4681      	mov	r9, r0
    5520:	2800      	cmp	r0, #0
    5522:	d1ef      	bne.n	5504 <_fseeko_r+0xa8>
    5524:	4633      	mov	r3, r6
    5526:	4642      	mov	r2, r8
    5528:	6a21      	ldr	r1, [r4, #32]
    552a:	4628      	mov	r0, r5
    552c:	47b8      	blx	r7
    552e:	3001      	adds	r0, #1
    5530:	d0e8      	beq.n	5504 <_fseeko_r+0xa8>
    5532:	6b61      	ldr	r1, [r4, #52]	; 0x34
    5534:	b141      	cbz	r1, 5548 <_fseeko_r+0xec>
    5536:	f104 0344 	add.w	r3, r4, #68	; 0x44
    553a:	4299      	cmp	r1, r3
    553c:	d002      	beq.n	5544 <_fseeko_r+0xe8>
    553e:	4628      	mov	r0, r5
    5540:	f000 f8f4 	bl	572c <_free_r>
    5544:	2300      	movs	r3, #0
    5546:	6363      	str	r3, [r4, #52]	; 0x34
    5548:	6923      	ldr	r3, [r4, #16]
    554a:	2100      	movs	r1, #0
    554c:	6023      	str	r3, [r4, #0]
    554e:	89a3      	ldrh	r3, [r4, #12]
    5550:	6061      	str	r1, [r4, #4]
    5552:	f423 6302 	bic.w	r3, r3, #2080	; 0x820
    5556:	81a3      	strh	r3, [r4, #12]
    5558:	2208      	movs	r2, #8
    555a:	f104 005c 	add.w	r0, r4, #92	; 0x5c
    555e:	f000 f8dd 	bl	571c <memset>
    5562:	4648      	mov	r0, r9
    5564:	e8bd 83f8 	ldmia.w	sp!, {r3, r4, r5, r6, r7, r8, r9, pc}
    5568:	000076dc 	.word	0x000076dc
    556c:	000076fc 	.word	0x000076fc
    5570:	0000771c 	.word	0x0000771c

00005574 <_fwalk_reent>:
    5574:	e92d 43f8 	stmdb	sp!, {r3, r4, r5, r6, r7, r8, r9, lr}
    5578:	4680      	mov	r8, r0
    557a:	4689      	mov	r9, r1
    557c:	f100 0448 	add.w	r4, r0, #72	; 0x48
    5580:	2600      	movs	r6, #0
    5582:	b194      	cbz	r4, 55aa <_fwalk_reent+0x36>
    5584:	68a5      	ldr	r5, [r4, #8]
    5586:	6867      	ldr	r7, [r4, #4]
    5588:	3f01      	subs	r7, #1
    558a:	d40c      	bmi.n	55a6 <_fwalk_reent+0x32>
    558c:	89ab      	ldrh	r3, [r5, #12]
    558e:	2b01      	cmp	r3, #1
    5590:	d907      	bls.n	55a2 <_fwalk_reent+0x2e>
    5592:	f9b5 300e 	ldrsh.w	r3, [r5, #14]
    5596:	3301      	adds	r3, #1
    5598:	d003      	beq.n	55a2 <_fwalk_reent+0x2e>
    559a:	4629      	mov	r1, r5
    559c:	4640      	mov	r0, r8
    559e:	47c8      	blx	r9
    55a0:	4306      	orrs	r6, r0
    55a2:	3568      	adds	r5, #104	; 0x68
    55a4:	e7f0      	b.n	5588 <_fwalk_reent+0x14>
    55a6:	6824      	ldr	r4, [r4, #0]
    55a8:	e7eb      	b.n	5582 <_fwalk_reent+0xe>
    55aa:	4630      	mov	r0, r6
    55ac:	e8bd 83f8 	ldmia.w	sp!, {r3, r4, r5, r6, r7, r8, r9, pc}

000055b0 <__libc_init_array>:
    55b0:	4b0e      	ldr	r3, [pc, #56]	; (55ec <__libc_init_array+0x3c>)
    55b2:	b570      	push	{r4, r5, r6, lr}
    55b4:	461e      	mov	r6, r3
    55b6:	4c0e      	ldr	r4, [pc, #56]	; (55f0 <__libc_init_array+0x40>)
    55b8:	2500      	movs	r5, #0
    55ba:	1ae4      	subs	r4, r4, r3
    55bc:	10a4      	asrs	r4, r4, #2
    55be:	42a5      	cmp	r5, r4
    55c0:	d004      	beq.n	55cc <__libc_init_array+0x1c>
    55c2:	f856 3025 	ldr.w	r3, [r6, r5, lsl #2]
    55c6:	4798      	blx	r3
    55c8:	3501      	adds	r5, #1
    55ca:	e7f8      	b.n	55be <__libc_init_array+0xe>
    55cc:	f001 fd2e 	bl	702c <_init>
    55d0:	4b08      	ldr	r3, [pc, #32]	; (55f4 <__libc_init_array+0x44>)
    55d2:	4c09      	ldr	r4, [pc, #36]	; (55f8 <__libc_init_array+0x48>)
    55d4:	461e      	mov	r6, r3
    55d6:	1ae4      	subs	r4, r4, r3
    55d8:	10a4      	asrs	r4, r4, #2
    55da:	2500      	movs	r5, #0
    55dc:	42a5      	cmp	r5, r4
    55de:	d004      	beq.n	55ea <__libc_init_array+0x3a>
    55e0:	f856 3025 	ldr.w	r3, [r6, r5, lsl #2]
    55e4:	4798      	blx	r3
    55e6:	3501      	adds	r5, #1
    55e8:	e7f8      	b.n	55dc <__libc_init_array+0x2c>
    55ea:	bd70      	pop	{r4, r5, r6, pc}
    55ec:	10000158 	.word	0x10000158
    55f0:	10000158 	.word	0x10000158
    55f4:	10000158 	.word	0x10000158
    55f8:	10000160 	.word	0x10000160

000055fc <__smakebuf_r>:
    55fc:	b5f0      	push	{r4, r5, r6, r7, lr}
    55fe:	898b      	ldrh	r3, [r1, #12]
    5600:	b091      	sub	sp, #68	; 0x44
    5602:	079d      	lsls	r5, r3, #30
    5604:	4606      	mov	r6, r0
    5606:	460c      	mov	r4, r1
    5608:	d425      	bmi.n	5656 <__smakebuf_r+0x5a>
    560a:	f9b1 100e 	ldrsh.w	r1, [r1, #14]
    560e:	2900      	cmp	r1, #0
    5610:	da08      	bge.n	5624 <__smakebuf_r+0x28>
    5612:	89a3      	ldrh	r3, [r4, #12]
    5614:	2500      	movs	r5, #0
    5616:	f013 0f80 	tst.w	r3, #128	; 0x80
    561a:	bf14      	ite	ne
    561c:	2740      	movne	r7, #64	; 0x40
    561e:	f44f 6780 	moveq.w	r7, #1024	; 0x400
    5622:	e00d      	b.n	5640 <__smakebuf_r+0x44>
    5624:	aa01      	add	r2, sp, #4
    5626:	f001 f993 	bl	6950 <_fstat_r>
    562a:	2800      	cmp	r0, #0
    562c:	dbf1      	blt.n	5612 <__smakebuf_r+0x16>
    562e:	9d02      	ldr	r5, [sp, #8]
    5630:	f44f 6780 	mov.w	r7, #1024	; 0x400
    5634:	f405 4570 	and.w	r5, r5, #61440	; 0xf000
    5638:	f5a5 5100 	sub.w	r1, r5, #8192	; 0x2000
    563c:	424d      	negs	r5, r1
    563e:	414d      	adcs	r5, r1
    5640:	4639      	mov	r1, r7
    5642:	4630      	mov	r0, r6
    5644:	f000 f8b6 	bl	57b4 <_malloc_r>
    5648:	b960      	cbnz	r0, 5664 <__smakebuf_r+0x68>
    564a:	89a3      	ldrh	r3, [r4, #12]
    564c:	059a      	lsls	r2, r3, #22
    564e:	d41d      	bmi.n	568c <__smakebuf_r+0x90>
    5650:	f043 0302 	orr.w	r3, r3, #2
    5654:	81a3      	strh	r3, [r4, #12]
    5656:	f104 0347 	add.w	r3, r4, #71	; 0x47
    565a:	6023      	str	r3, [r4, #0]
    565c:	6123      	str	r3, [r4, #16]
    565e:	2301      	movs	r3, #1
    5660:	6163      	str	r3, [r4, #20]
    5662:	e013      	b.n	568c <__smakebuf_r+0x90>
    5664:	4b0a      	ldr	r3, [pc, #40]	; (5690 <__smakebuf_r+0x94>)
    5666:	62b3      	str	r3, [r6, #40]	; 0x28
    5668:	89a3      	ldrh	r3, [r4, #12]
    566a:	6020      	str	r0, [r4, #0]
    566c:	f043 0380 	orr.w	r3, r3, #128	; 0x80
    5670:	81a3      	strh	r3, [r4, #12]
    5672:	6120      	str	r0, [r4, #16]
    5674:	6167      	str	r7, [r4, #20]
    5676:	b14d      	cbz	r5, 568c <__smakebuf_r+0x90>
    5678:	f9b4 100e 	ldrsh.w	r1, [r4, #14]
    567c:	4630      	mov	r0, r6
    567e:	f001 f979 	bl	6974 <_isatty_r>
    5682:	b118      	cbz	r0, 568c <__smakebuf_r+0x90>
    5684:	89a3      	ldrh	r3, [r4, #12]
    5686:	f043 0301 	orr.w	r3, r3, #1
    568a:	81a3      	strh	r3, [r4, #12]
    568c:	b011      	add	sp, #68	; 0x44
    568e:	bdf0      	pop	{r4, r5, r6, r7, pc}
    5690:	00005215 	.word	0x00005215

00005694 <malloc>:
    5694:	4b02      	ldr	r3, [pc, #8]	; (56a0 <malloc+0xc>)
    5696:	4601      	mov	r1, r0
    5698:	6818      	ldr	r0, [r3, #0]
    569a:	f000 b88b 	b.w	57b4 <_malloc_r>
    569e:	bf00      	nop
    56a0:	10000150 	.word	0x10000150

000056a4 <free>:
    56a4:	4b02      	ldr	r3, [pc, #8]	; (56b0 <free+0xc>)
    56a6:	4601      	mov	r1, r0
    56a8:	6818      	ldr	r0, [r3, #0]
    56aa:	f000 b83f 	b.w	572c <_free_r>
    56ae:	bf00      	nop
    56b0:	10000150 	.word	0x10000150

000056b4 <memchr>:
    56b4:	b510      	push	{r4, lr}
    56b6:	b2c9      	uxtb	r1, r1
    56b8:	4402      	add	r2, r0
    56ba:	4290      	cmp	r0, r2
    56bc:	4603      	mov	r3, r0
    56be:	d005      	beq.n	56cc <memchr+0x18>
    56c0:	781c      	ldrb	r4, [r3, #0]
    56c2:	3001      	adds	r0, #1
    56c4:	428c      	cmp	r4, r1
    56c6:	d1f8      	bne.n	56ba <memchr+0x6>
    56c8:	4618      	mov	r0, r3
    56ca:	bd10      	pop	{r4, pc}
    56cc:	2000      	movs	r0, #0
    56ce:	bd10      	pop	{r4, pc}

000056d0 <memcpy>:
    56d0:	b510      	push	{r4, lr}
    56d2:	1e43      	subs	r3, r0, #1
    56d4:	440a      	add	r2, r1
    56d6:	4291      	cmp	r1, r2
    56d8:	d004      	beq.n	56e4 <memcpy+0x14>
    56da:	f811 4b01 	ldrb.w	r4, [r1], #1
    56de:	f803 4f01 	strb.w	r4, [r3, #1]!
    56e2:	e7f8      	b.n	56d6 <memcpy+0x6>
    56e4:	bd10      	pop	{r4, pc}

000056e6 <memmove>:
    56e6:	4288      	cmp	r0, r1
    56e8:	b510      	push	{r4, lr}
    56ea:	eb01 0302 	add.w	r3, r1, r2
    56ee:	d801      	bhi.n	56f4 <memmove+0xe>
    56f0:	1e42      	subs	r2, r0, #1
    56f2:	e00b      	b.n	570c <memmove+0x26>
    56f4:	4298      	cmp	r0, r3
    56f6:	d2fb      	bcs.n	56f0 <memmove+0xa>
    56f8:	1881      	adds	r1, r0, r2
    56fa:	1ad2      	subs	r2, r2, r3
    56fc:	42d3      	cmn	r3, r2
    56fe:	d004      	beq.n	570a <memmove+0x24>
    5700:	f813 4d01 	ldrb.w	r4, [r3, #-1]!
    5704:	f801 4d01 	strb.w	r4, [r1, #-1]!
    5708:	e7f8      	b.n	56fc <memmove+0x16>
    570a:	bd10      	pop	{r4, pc}
    570c:	4299      	cmp	r1, r3
    570e:	d004      	beq.n	571a <memmove+0x34>
    5710:	f811 4b01 	ldrb.w	r4, [r1], #1
    5714:	f802 4f01 	strb.w	r4, [r2, #1]!
    5718:	e7f8      	b.n	570c <memmove+0x26>
    571a:	bd10      	pop	{r4, pc}

0000571c <memset>:
    571c:	4603      	mov	r3, r0
    571e:	4402      	add	r2, r0
    5720:	4293      	cmp	r3, r2
    5722:	d002      	beq.n	572a <memset+0xe>
    5724:	f803 1b01 	strb.w	r1, [r3], #1
    5728:	e7fa      	b.n	5720 <memset+0x4>
    572a:	4770      	bx	lr

0000572c <_free_r>:
    572c:	b530      	push	{r4, r5, lr}
    572e:	2900      	cmp	r1, #0
    5730:	d03c      	beq.n	57ac <_free_r+0x80>
    5732:	f851 2c04 	ldr.w	r2, [r1, #-4]
    5736:	1f0b      	subs	r3, r1, #4
    5738:	491d      	ldr	r1, [pc, #116]	; (57b0 <_free_r+0x84>)
    573a:	2a00      	cmp	r2, #0
    573c:	bfb8      	it	lt
    573e:	189b      	addlt	r3, r3, r2
    5740:	680a      	ldr	r2, [r1, #0]
    5742:	460c      	mov	r4, r1
    5744:	b912      	cbnz	r2, 574c <_free_r+0x20>
    5746:	605a      	str	r2, [r3, #4]
    5748:	600b      	str	r3, [r1, #0]
    574a:	bd30      	pop	{r4, r5, pc}
    574c:	429a      	cmp	r2, r3
    574e:	d90d      	bls.n	576c <_free_r+0x40>
    5750:	6819      	ldr	r1, [r3, #0]
    5752:	1858      	adds	r0, r3, r1
    5754:	4282      	cmp	r2, r0
    5756:	bf01      	itttt	eq
    5758:	6810      	ldreq	r0, [r2, #0]
    575a:	6852      	ldreq	r2, [r2, #4]
    575c:	1809      	addeq	r1, r1, r0
    575e:	6019      	streq	r1, [r3, #0]
    5760:	605a      	str	r2, [r3, #4]
    5762:	6023      	str	r3, [r4, #0]
    5764:	bd30      	pop	{r4, r5, pc}
    5766:	4299      	cmp	r1, r3
    5768:	d803      	bhi.n	5772 <_free_r+0x46>
    576a:	460a      	mov	r2, r1
    576c:	6851      	ldr	r1, [r2, #4]
    576e:	2900      	cmp	r1, #0
    5770:	d1f9      	bne.n	5766 <_free_r+0x3a>
    5772:	6814      	ldr	r4, [r2, #0]
    5774:	1915      	adds	r5, r2, r4
    5776:	429d      	cmp	r5, r3
    5778:	d10a      	bne.n	5790 <_free_r+0x64>
    577a:	681b      	ldr	r3, [r3, #0]
    577c:	4423      	add	r3, r4
    577e:	18d0      	adds	r0, r2, r3
    5780:	4281      	cmp	r1, r0
    5782:	6013      	str	r3, [r2, #0]
    5784:	d112      	bne.n	57ac <_free_r+0x80>
    5786:	6808      	ldr	r0, [r1, #0]
    5788:	4403      	add	r3, r0
    578a:	6013      	str	r3, [r2, #0]
    578c:	684b      	ldr	r3, [r1, #4]
    578e:	e00c      	b.n	57aa <_free_r+0x7e>
    5790:	d902      	bls.n	5798 <_free_r+0x6c>
    5792:	230c      	movs	r3, #12
    5794:	6003      	str	r3, [r0, #0]
    5796:	bd30      	pop	{r4, r5, pc}
    5798:	6818      	ldr	r0, [r3, #0]
    579a:	181c      	adds	r4, r3, r0
    579c:	42a1      	cmp	r1, r4
    579e:	bf01      	itttt	eq
    57a0:	680c      	ldreq	r4, [r1, #0]
    57a2:	6849      	ldreq	r1, [r1, #4]
    57a4:	1900      	addeq	r0, r0, r4
    57a6:	6018      	streq	r0, [r3, #0]
    57a8:	6059      	str	r1, [r3, #4]
    57aa:	6053      	str	r3, [r2, #4]
    57ac:	bd30      	pop	{r4, r5, pc}
    57ae:	bf00      	nop
    57b0:	10000a08 	.word	0x10000a08

000057b4 <_malloc_r>:
    57b4:	b570      	push	{r4, r5, r6, lr}
    57b6:	1ccd      	adds	r5, r1, #3
    57b8:	f025 0503 	bic.w	r5, r5, #3
    57bc:	3508      	adds	r5, #8
    57be:	2d0c      	cmp	r5, #12
    57c0:	bf38      	it	cc
    57c2:	250c      	movcc	r5, #12
    57c4:	2d00      	cmp	r5, #0
    57c6:	4606      	mov	r6, r0
    57c8:	da03      	bge.n	57d2 <_malloc_r+0x1e>
    57ca:	230c      	movs	r3, #12
    57cc:	6033      	str	r3, [r6, #0]
    57ce:	2000      	movs	r0, #0
    57d0:	bd70      	pop	{r4, r5, r6, pc}
    57d2:	42a9      	cmp	r1, r5
    57d4:	d8f9      	bhi.n	57ca <_malloc_r+0x16>
    57d6:	4b1f      	ldr	r3, [pc, #124]	; (5854 <_malloc_r+0xa0>)
    57d8:	681c      	ldr	r4, [r3, #0]
    57da:	461a      	mov	r2, r3
    57dc:	4621      	mov	r1, r4
    57de:	b1a1      	cbz	r1, 580a <_malloc_r+0x56>
    57e0:	680b      	ldr	r3, [r1, #0]
    57e2:	1b5b      	subs	r3, r3, r5
    57e4:	d40e      	bmi.n	5804 <_malloc_r+0x50>
    57e6:	2b0b      	cmp	r3, #11
    57e8:	d903      	bls.n	57f2 <_malloc_r+0x3e>
    57ea:	600b      	str	r3, [r1, #0]
    57ec:	18cc      	adds	r4, r1, r3
    57ee:	50cd      	str	r5, [r1, r3]
    57f0:	e01e      	b.n	5830 <_malloc_r+0x7c>
    57f2:	428c      	cmp	r4, r1
    57f4:	bf0b      	itete	eq
    57f6:	6863      	ldreq	r3, [r4, #4]
    57f8:	684b      	ldrne	r3, [r1, #4]
    57fa:	6013      	streq	r3, [r2, #0]
    57fc:	6063      	strne	r3, [r4, #4]
    57fe:	bf18      	it	ne
    5800:	460c      	movne	r4, r1
    5802:	e015      	b.n	5830 <_malloc_r+0x7c>
    5804:	460c      	mov	r4, r1
    5806:	6849      	ldr	r1, [r1, #4]
    5808:	e7e9      	b.n	57de <_malloc_r+0x2a>
    580a:	4c13      	ldr	r4, [pc, #76]	; (5858 <_malloc_r+0xa4>)
    580c:	6823      	ldr	r3, [r4, #0]
    580e:	b91b      	cbnz	r3, 5818 <_malloc_r+0x64>
    5810:	4630      	mov	r0, r6
    5812:	f000 fcbb 	bl	618c <_sbrk_r>
    5816:	6020      	str	r0, [r4, #0]
    5818:	4629      	mov	r1, r5
    581a:	4630      	mov	r0, r6
    581c:	f000 fcb6 	bl	618c <_sbrk_r>
    5820:	1c43      	adds	r3, r0, #1
    5822:	d0d2      	beq.n	57ca <_malloc_r+0x16>
    5824:	1cc4      	adds	r4, r0, #3
    5826:	f024 0403 	bic.w	r4, r4, #3
    582a:	42a0      	cmp	r0, r4
    582c:	d10a      	bne.n	5844 <_malloc_r+0x90>
    582e:	6025      	str	r5, [r4, #0]
    5830:	f104 000b 	add.w	r0, r4, #11
    5834:	1d23      	adds	r3, r4, #4
    5836:	f020 0007 	bic.w	r0, r0, #7
    583a:	1ac3      	subs	r3, r0, r3
    583c:	d009      	beq.n	5852 <_malloc_r+0x9e>
    583e:	425a      	negs	r2, r3
    5840:	50e2      	str	r2, [r4, r3]
    5842:	bd70      	pop	{r4, r5, r6, pc}
    5844:	1a21      	subs	r1, r4, r0
    5846:	4630      	mov	r0, r6
    5848:	f000 fca0 	bl	618c <_sbrk_r>
    584c:	3001      	adds	r0, #1
    584e:	d1ee      	bne.n	582e <_malloc_r+0x7a>
    5850:	e7bb      	b.n	57ca <_malloc_r+0x16>
    5852:	bd70      	pop	{r4, r5, r6, pc}
    5854:	10000a08 	.word	0x10000a08
    5858:	10000a04 	.word	0x10000a04

0000585c <__sfputc_r>:
    585c:	6893      	ldr	r3, [r2, #8]
    585e:	b410      	push	{r4}
    5860:	3b01      	subs	r3, #1
    5862:	2b00      	cmp	r3, #0
    5864:	6093      	str	r3, [r2, #8]
    5866:	da08      	bge.n	587a <__sfputc_r+0x1e>
    5868:	6994      	ldr	r4, [r2, #24]
    586a:	42a3      	cmp	r3, r4
    586c:	db02      	blt.n	5874 <__sfputc_r+0x18>
    586e:	b2cb      	uxtb	r3, r1
    5870:	2b0a      	cmp	r3, #10
    5872:	d102      	bne.n	587a <__sfputc_r+0x1e>
    5874:	bc10      	pop	{r4}
    5876:	f000 bf51 	b.w	671c <__swbuf_r>
    587a:	6813      	ldr	r3, [r2, #0]
    587c:	1c58      	adds	r0, r3, #1
    587e:	6010      	str	r0, [r2, #0]
    5880:	7019      	strb	r1, [r3, #0]
    5882:	b2c8      	uxtb	r0, r1
    5884:	bc10      	pop	{r4}
    5886:	4770      	bx	lr

00005888 <__sfputs_r>:
    5888:	b5f8      	push	{r3, r4, r5, r6, r7, lr}
    588a:	4606      	mov	r6, r0
    588c:	460f      	mov	r7, r1
    588e:	4614      	mov	r4, r2
    5890:	18d5      	adds	r5, r2, r3
    5892:	42ac      	cmp	r4, r5
    5894:	d008      	beq.n	58a8 <__sfputs_r+0x20>
    5896:	463a      	mov	r2, r7
    5898:	f814 1b01 	ldrb.w	r1, [r4], #1
    589c:	4630      	mov	r0, r6
    589e:	f7ff ffdd 	bl	585c <__sfputc_r>
    58a2:	1c43      	adds	r3, r0, #1
    58a4:	d1f5      	bne.n	5892 <__sfputs_r+0xa>
    58a6:	e000      	b.n	58aa <__sfputs_r+0x22>
    58a8:	2000      	movs	r0, #0
    58aa:	bdf8      	pop	{r3, r4, r5, r6, r7, pc}

000058ac <_vfiprintf_r>:
    58ac:	e92d 4ff0 	stmdb	sp!, {r4, r5, r6, r7, r8, r9, r10, r11, lr}
    58b0:	b09d      	sub	sp, #116	; 0x74
    58b2:	460c      	mov	r4, r1
    58b4:	4617      	mov	r7, r2
    58b6:	9303      	str	r3, [sp, #12]
    58b8:	4606      	mov	r6, r0
    58ba:	b118      	cbz	r0, 58c4 <_vfiprintf_r+0x18>
    58bc:	6983      	ldr	r3, [r0, #24]
    58be:	b90b      	cbnz	r3, 58c4 <_vfiprintf_r+0x18>
    58c0:	f7ff fce8 	bl	5294 <__sinit>
    58c4:	4b7f      	ldr	r3, [pc, #508]	; (5ac4 <_vfiprintf_r+0x218>)
    58c6:	429c      	cmp	r4, r3
    58c8:	d101      	bne.n	58ce <_vfiprintf_r+0x22>
    58ca:	6874      	ldr	r4, [r6, #4]
    58cc:	e008      	b.n	58e0 <_vfiprintf_r+0x34>
    58ce:	4b7e      	ldr	r3, [pc, #504]	; (5ac8 <_vfiprintf_r+0x21c>)
    58d0:	429c      	cmp	r4, r3
    58d2:	d101      	bne.n	58d8 <_vfiprintf_r+0x2c>
    58d4:	68b4      	ldr	r4, [r6, #8]
    58d6:	e003      	b.n	58e0 <_vfiprintf_r+0x34>
    58d8:	4b7c      	ldr	r3, [pc, #496]	; (5acc <_vfiprintf_r+0x220>)
    58da:	429c      	cmp	r4, r3
    58dc:	bf08      	it	eq
    58de:	68f4      	ldreq	r4, [r6, #12]
    58e0:	89a3      	ldrh	r3, [r4, #12]
    58e2:	0718      	lsls	r0, r3, #28
    58e4:	d50c      	bpl.n	5900 <_vfiprintf_r+0x54>
    58e6:	6923      	ldr	r3, [r4, #16]
    58e8:	b153      	cbz	r3, 5900 <_vfiprintf_r+0x54>
    58ea:	2300      	movs	r3, #0
    58ec:	9309      	str	r3, [sp, #36]	; 0x24
    58ee:	2320      	movs	r3, #32
    58f0:	f88d 3029 	strb.w	r3, [sp, #41]	; 0x29
    58f4:	2330      	movs	r3, #48	; 0x30
    58f6:	f88d 302a 	strb.w	r3, [sp, #42]	; 0x2a
    58fa:	f8df b1d4 	ldr.w	r11, [pc, #468]	; 5ad0 <_vfiprintf_r+0x224>
    58fe:	e044      	b.n	598a <_vfiprintf_r+0xde>
    5900:	4621      	mov	r1, r4
    5902:	4630      	mov	r0, r6
    5904:	f000 ff70 	bl	67e8 <__swsetup_r>
    5908:	2800      	cmp	r0, #0
    590a:	d0ee      	beq.n	58ea <_vfiprintf_r+0x3e>
    590c:	f04f 30ff 	mov.w	r0, #4294967295
    5910:	e0d5      	b.n	5abe <_vfiprintf_r+0x212>
    5912:	9a03      	ldr	r2, [sp, #12]
    5914:	1d11      	adds	r1, r2, #4
    5916:	6812      	ldr	r2, [r2, #0]
    5918:	9103      	str	r1, [sp, #12]
    591a:	2a00      	cmp	r2, #0
    591c:	f280 808c 	bge.w	5a38 <_vfiprintf_r+0x18c>
    5920:	4252      	negs	r2, r2
    5922:	f043 0002 	orr.w	r0, r3, #2
    5926:	9207      	str	r2, [sp, #28]
    5928:	9004      	str	r0, [sp, #16]
    592a:	f898 3000 	ldrb.w	r3, [r8]
    592e:	2b2e      	cmp	r3, #46	; 0x2e
    5930:	f000 8084 	beq.w	5a3c <_vfiprintf_r+0x190>
    5934:	2203      	movs	r2, #3
    5936:	f898 1000 	ldrb.w	r1, [r8]
    593a:	4865      	ldr	r0, [pc, #404]	; (5ad0 <_vfiprintf_r+0x224>)
    593c:	f7ff feba 	bl	56b4 <memchr>
    5940:	b148      	cbz	r0, 5956 <_vfiprintf_r+0xaa>
    5942:	2340      	movs	r3, #64	; 0x40
    5944:	ebcb 0000 	rsb	r0, r11, r0
    5948:	fa03 f000 	lsl.w	r0, r3, r0
    594c:	9b04      	ldr	r3, [sp, #16]
    594e:	f108 0801 	add.w	r8, r8, #1
    5952:	4318      	orrs	r0, r3
    5954:	9004      	str	r0, [sp, #16]
    5956:	f898 1000 	ldrb.w	r1, [r8]
    595a:	2206      	movs	r2, #6
    595c:	485d      	ldr	r0, [pc, #372]	; (5ad4 <_vfiprintf_r+0x228>)
    595e:	f108 0701 	add.w	r7, r8, #1
    5962:	f88d 1028 	strb.w	r1, [sp, #40]	; 0x28
    5966:	f7ff fea5 	bl	56b4 <memchr>
    596a:	2800      	cmp	r0, #0
    596c:	f000 8095 	beq.w	5a9a <_vfiprintf_r+0x1ee>
    5970:	4b59      	ldr	r3, [pc, #356]	; (5ad8 <_vfiprintf_r+0x22c>)
    5972:	2b00      	cmp	r3, #0
    5974:	f040 8088 	bne.w	5a88 <_vfiprintf_r+0x1dc>
    5978:	9b03      	ldr	r3, [sp, #12]
    597a:	3307      	adds	r3, #7
    597c:	f023 0307 	bic.w	r3, r3, #7
    5980:	3308      	adds	r3, #8
    5982:	9303      	str	r3, [sp, #12]
    5984:	9b09      	ldr	r3, [sp, #36]	; 0x24
    5986:	4453      	add	r3, r10
    5988:	9309      	str	r3, [sp, #36]	; 0x24
    598a:	46b8      	mov	r8, r7
    598c:	4645      	mov	r5, r8
    598e:	f815 3b01 	ldrb.w	r3, [r5], #1
    5992:	b91b      	cbnz	r3, 599c <_vfiprintf_r+0xf0>
    5994:	ebb8 0907 	subs.w	r9, r8, r7
    5998:	d00f      	beq.n	59ba <_vfiprintf_r+0x10e>
    599a:	e003      	b.n	59a4 <_vfiprintf_r+0xf8>
    599c:	2b25      	cmp	r3, #37	; 0x25
    599e:	d0f9      	beq.n	5994 <_vfiprintf_r+0xe8>
    59a0:	46a8      	mov	r8, r5
    59a2:	e7f3      	b.n	598c <_vfiprintf_r+0xe0>
    59a4:	464b      	mov	r3, r9
    59a6:	463a      	mov	r2, r7
    59a8:	4621      	mov	r1, r4
    59aa:	4630      	mov	r0, r6
    59ac:	f7ff ff6c 	bl	5888 <__sfputs_r>
    59b0:	3001      	adds	r0, #1
    59b2:	d07f      	beq.n	5ab4 <_vfiprintf_r+0x208>
    59b4:	9b09      	ldr	r3, [sp, #36]	; 0x24
    59b6:	444b      	add	r3, r9
    59b8:	9309      	str	r3, [sp, #36]	; 0x24
    59ba:	f898 3000 	ldrb.w	r3, [r8]
    59be:	2b00      	cmp	r3, #0
    59c0:	d078      	beq.n	5ab4 <_vfiprintf_r+0x208>
    59c2:	2300      	movs	r3, #0
    59c4:	f04f 32ff 	mov.w	r2, #4294967295
    59c8:	9304      	str	r3, [sp, #16]
    59ca:	9307      	str	r3, [sp, #28]
    59cc:	9205      	str	r2, [sp, #20]
    59ce:	9306      	str	r3, [sp, #24]
    59d0:	f88d 3053 	strb.w	r3, [sp, #83]	; 0x53
    59d4:	931a      	str	r3, [sp, #104]	; 0x68
    59d6:	2701      	movs	r7, #1
    59d8:	2205      	movs	r2, #5
    59da:	7829      	ldrb	r1, [r5, #0]
    59dc:	483f      	ldr	r0, [pc, #252]	; (5adc <_vfiprintf_r+0x230>)
    59de:	f7ff fe69 	bl	56b4 <memchr>
    59e2:	f105 0801 	add.w	r8, r5, #1
    59e6:	9b04      	ldr	r3, [sp, #16]
    59e8:	b138      	cbz	r0, 59fa <_vfiprintf_r+0x14e>
    59ea:	4a3c      	ldr	r2, [pc, #240]	; (5adc <_vfiprintf_r+0x230>)
    59ec:	4645      	mov	r5, r8
    59ee:	1a80      	subs	r0, r0, r2
    59f0:	fa07 f000 	lsl.w	r0, r7, r0
    59f4:	4318      	orrs	r0, r3
    59f6:	9004      	str	r0, [sp, #16]
    59f8:	e7ee      	b.n	59d8 <_vfiprintf_r+0x12c>
    59fa:	06d9      	lsls	r1, r3, #27
    59fc:	bf44      	itt	mi
    59fe:	2220      	movmi	r2, #32
    5a00:	f88d 2053 	strbmi.w	r2, [sp, #83]	; 0x53
    5a04:	071a      	lsls	r2, r3, #28
    5a06:	bf44      	itt	mi
    5a08:	222b      	movmi	r2, #43	; 0x2b
    5a0a:	f88d 2053 	strbmi.w	r2, [sp, #83]	; 0x53
    5a0e:	782a      	ldrb	r2, [r5, #0]
    5a10:	2a2a      	cmp	r2, #42	; 0x2a
    5a12:	f43f af7e 	beq.w	5912 <_vfiprintf_r+0x66>
    5a16:	9a07      	ldr	r2, [sp, #28]
    5a18:	2100      	movs	r1, #0
    5a1a:	200a      	movs	r0, #10
    5a1c:	46a8      	mov	r8, r5
    5a1e:	f898 3000 	ldrb.w	r3, [r8]
    5a22:	3501      	adds	r5, #1
    5a24:	3b30      	subs	r3, #48	; 0x30
    5a26:	2b09      	cmp	r3, #9
    5a28:	d803      	bhi.n	5a32 <_vfiprintf_r+0x186>
    5a2a:	fb00 3202 	mla	r2, r0, r2, r3
    5a2e:	2101      	movs	r1, #1
    5a30:	e7f4      	b.n	5a1c <_vfiprintf_r+0x170>
    5a32:	2900      	cmp	r1, #0
    5a34:	f43f af79 	beq.w	592a <_vfiprintf_r+0x7e>
    5a38:	9207      	str	r2, [sp, #28]
    5a3a:	e776      	b.n	592a <_vfiprintf_r+0x7e>
    5a3c:	f898 3001 	ldrb.w	r3, [r8, #1]
    5a40:	2b2a      	cmp	r3, #42	; 0x2a
    5a42:	d10b      	bne.n	5a5c <_vfiprintf_r+0x1b0>
    5a44:	9b03      	ldr	r3, [sp, #12]
    5a46:	f108 0802 	add.w	r8, r8, #2
    5a4a:	1d1a      	adds	r2, r3, #4
    5a4c:	681b      	ldr	r3, [r3, #0]
    5a4e:	9203      	str	r2, [sp, #12]
    5a50:	2b00      	cmp	r3, #0
    5a52:	bfb8      	it	lt
    5a54:	f04f 33ff 	movlt.w	r3, #4294967295
    5a58:	9305      	str	r3, [sp, #20]
    5a5a:	e76b      	b.n	5934 <_vfiprintf_r+0x88>
    5a5c:	2300      	movs	r3, #0
    5a5e:	4619      	mov	r1, r3
    5a60:	9305      	str	r3, [sp, #20]
    5a62:	f108 0001 	add.w	r0, r8, #1
    5a66:	250a      	movs	r5, #10
    5a68:	4680      	mov	r8, r0
    5a6a:	f898 2000 	ldrb.w	r2, [r8]
    5a6e:	3001      	adds	r0, #1
    5a70:	3a30      	subs	r2, #48	; 0x30
    5a72:	2a09      	cmp	r2, #9
    5a74:	d803      	bhi.n	5a7e <_vfiprintf_r+0x1d2>
    5a76:	fb05 2101 	mla	r1, r5, r1, r2
    5a7a:	2301      	movs	r3, #1
    5a7c:	e7f4      	b.n	5a68 <_vfiprintf_r+0x1bc>
    5a7e:	2b00      	cmp	r3, #0
    5a80:	f43f af58 	beq.w	5934 <_vfiprintf_r+0x88>
    5a84:	9105      	str	r1, [sp, #20]
    5a86:	e755      	b.n	5934 <_vfiprintf_r+0x88>
    5a88:	ab03      	add	r3, sp, #12
    5a8a:	9300      	str	r3, [sp, #0]
    5a8c:	4622      	mov	r2, r4
    5a8e:	4b14      	ldr	r3, [pc, #80]	; (5ae0 <_vfiprintf_r+0x234>)
    5a90:	a904      	add	r1, sp, #16
    5a92:	4630      	mov	r0, r6
    5a94:	f3af 8000 	nop.w
    5a98:	e007      	b.n	5aaa <_vfiprintf_r+0x1fe>
    5a9a:	ab03      	add	r3, sp, #12
    5a9c:	9300      	str	r3, [sp, #0]
    5a9e:	4622      	mov	r2, r4
    5aa0:	4b0f      	ldr	r3, [pc, #60]	; (5ae0 <_vfiprintf_r+0x234>)
    5aa2:	a904      	add	r1, sp, #16
    5aa4:	4630      	mov	r0, r6
    5aa6:	f000 f89d 	bl	5be4 <_printf_i>
    5aaa:	f1b0 3fff 	cmp.w	r0, #4294967295
    5aae:	4682      	mov	r10, r0
    5ab0:	f47f af68 	bne.w	5984 <_vfiprintf_r+0xd8>
    5ab4:	89a3      	ldrh	r3, [r4, #12]
    5ab6:	065b      	lsls	r3, r3, #25
    5ab8:	f53f af28 	bmi.w	590c <_vfiprintf_r+0x60>
    5abc:	9809      	ldr	r0, [sp, #36]	; 0x24
    5abe:	b01d      	add	sp, #116	; 0x74
    5ac0:	e8bd 8ff0 	ldmia.w	sp!, {r4, r5, r6, r7, r8, r9, r10, r11, pc}
    5ac4:	000076dc 	.word	0x000076dc
    5ac8:	000076fc 	.word	0x000076fc
    5acc:	0000771c 	.word	0x0000771c
    5ad0:	0000774a 	.word	0x0000774a
    5ad4:	0000774e 	.word	0x0000774e
    5ad8:	00000000 	.word	0x00000000
    5adc:	00007744 	.word	0x00007744
    5ae0:	00005889 	.word	0x00005889

00005ae4 <vfiprintf>:
    5ae4:	4613      	mov	r3, r2
    5ae6:	460a      	mov	r2, r1
    5ae8:	4601      	mov	r1, r0
    5aea:	4802      	ldr	r0, [pc, #8]	; (5af4 <vfiprintf+0x10>)
    5aec:	6800      	ldr	r0, [r0, #0]
    5aee:	f7ff bedd 	b.w	58ac <_vfiprintf_r>
    5af2:	bf00      	nop
    5af4:	10000150 	.word	0x10000150

00005af8 <_printf_common>:
    5af8:	e92d 47f0 	stmdb	sp!, {r4, r5, r6, r7, r8, r9, r10, lr}
    5afc:	4691      	mov	r9, r2
    5afe:	461f      	mov	r7, r3
    5b00:	690a      	ldr	r2, [r1, #16]
    5b02:	688b      	ldr	r3, [r1, #8]
    5b04:	4606      	mov	r6, r0
    5b06:	4293      	cmp	r3, r2
    5b08:	bfb8      	it	lt
    5b0a:	4613      	movlt	r3, r2
    5b0c:	f8c9 3000 	str.w	r3, [r9]
    5b10:	f891 2043 	ldrb.w	r2, [r1, #67]	; 0x43
    5b14:	460c      	mov	r4, r1
    5b16:	f8dd 8020 	ldr.w	r8, [sp, #32]
    5b1a:	b112      	cbz	r2, 5b22 <_printf_common+0x2a>
    5b1c:	3301      	adds	r3, #1
    5b1e:	f8c9 3000 	str.w	r3, [r9]
    5b22:	6823      	ldr	r3, [r4, #0]
    5b24:	0699      	lsls	r1, r3, #26
    5b26:	bf42      	ittt	mi
    5b28:	f8d9 3000 	ldrmi.w	r3, [r9]
    5b2c:	3302      	addmi	r3, #2
    5b2e:	f8c9 3000 	strmi.w	r3, [r9]
    5b32:	6825      	ldr	r5, [r4, #0]
    5b34:	f015 0506 	ands.w	r5, r5, #6
    5b38:	d110      	bne.n	5b5c <_printf_common+0x64>
    5b3a:	f104 0a19 	add.w	r10, r4, #25
    5b3e:	e007      	b.n	5b50 <_printf_common+0x58>
    5b40:	2301      	movs	r3, #1
    5b42:	4652      	mov	r2, r10
    5b44:	4639      	mov	r1, r7
    5b46:	4630      	mov	r0, r6
    5b48:	47c0      	blx	r8
    5b4a:	3001      	adds	r0, #1
    5b4c:	d01a      	beq.n	5b84 <_printf_common+0x8c>
    5b4e:	3501      	adds	r5, #1
    5b50:	68e3      	ldr	r3, [r4, #12]
    5b52:	f8d9 2000 	ldr.w	r2, [r9]
    5b56:	1a9b      	subs	r3, r3, r2
    5b58:	429d      	cmp	r5, r3
    5b5a:	dbf1      	blt.n	5b40 <_printf_common+0x48>
    5b5c:	f894 3043 	ldrb.w	r3, [r4, #67]	; 0x43
    5b60:	6822      	ldr	r2, [r4, #0]
    5b62:	3300      	adds	r3, #0
    5b64:	bf18      	it	ne
    5b66:	2301      	movne	r3, #1
    5b68:	0692      	lsls	r2, r2, #26
    5b6a:	d50f      	bpl.n	5b8c <_printf_common+0x94>
    5b6c:	18e1      	adds	r1, r4, r3
    5b6e:	2030      	movs	r0, #48	; 0x30
    5b70:	f881 0043 	strb.w	r0, [r1, #67]	; 0x43
    5b74:	1c5a      	adds	r2, r3, #1
    5b76:	f894 1045 	ldrb.w	r1, [r4, #69]	; 0x45
    5b7a:	4422      	add	r2, r4
    5b7c:	3302      	adds	r3, #2
    5b7e:	f882 1043 	strb.w	r1, [r2, #67]	; 0x43
    5b82:	e003      	b.n	5b8c <_printf_common+0x94>
    5b84:	f04f 30ff 	mov.w	r0, #4294967295
    5b88:	e8bd 87f0 	ldmia.w	sp!, {r4, r5, r6, r7, r8, r9, r10, pc}
    5b8c:	f104 0243 	add.w	r2, r4, #67	; 0x43
    5b90:	4639      	mov	r1, r7
    5b92:	4630      	mov	r0, r6
    5b94:	47c0      	blx	r8
    5b96:	3001      	adds	r0, #1
    5b98:	d0f4      	beq.n	5b84 <_printf_common+0x8c>
    5b9a:	6822      	ldr	r2, [r4, #0]
    5b9c:	f8d9 5000 	ldr.w	r5, [r9]
    5ba0:	68e3      	ldr	r3, [r4, #12]
    5ba2:	f002 0206 	and.w	r2, r2, #6
    5ba6:	2a04      	cmp	r2, #4
    5ba8:	bf08      	it	eq
    5baa:	1b5d      	subeq	r5, r3, r5
    5bac:	6922      	ldr	r2, [r4, #16]
    5bae:	68a3      	ldr	r3, [r4, #8]
    5bb0:	bf0c      	ite	eq
    5bb2:	ea25 75e5 	biceq.w	r5, r5, r5, asr #31
    5bb6:	2500      	movne	r5, #0
    5bb8:	4293      	cmp	r3, r2
    5bba:	bfc4      	itt	gt
    5bbc:	1a9b      	subgt	r3, r3, r2
    5bbe:	18ed      	addgt	r5, r5, r3
    5bc0:	f04f 0900 	mov.w	r9, #0
    5bc4:	341a      	adds	r4, #26
    5bc6:	454d      	cmp	r5, r9
    5bc8:	d009      	beq.n	5bde <_printf_common+0xe6>
    5bca:	2301      	movs	r3, #1
    5bcc:	4622      	mov	r2, r4
    5bce:	4639      	mov	r1, r7
    5bd0:	4630      	mov	r0, r6
    5bd2:	47c0      	blx	r8
    5bd4:	3001      	adds	r0, #1
    5bd6:	d0d5      	beq.n	5b84 <_printf_common+0x8c>
    5bd8:	f109 0901 	add.w	r9, r9, #1
    5bdc:	e7f3      	b.n	5bc6 <_printf_common+0xce>
    5bde:	2000      	movs	r0, #0
    5be0:	e8bd 87f0 	ldmia.w	sp!, {r4, r5, r6, r7, r8, r9, r10, pc}

00005be4 <_printf_i>:
    5be4:	e92d 43f0 	stmdb	sp!, {r4, r5, r6, r7, r8, r9, lr}
    5be8:	4617      	mov	r7, r2
    5bea:	7e0a      	ldrb	r2, [r1, #24]
    5bec:	b085      	sub	sp, #20
    5bee:	2a6e      	cmp	r2, #110	; 0x6e
    5bf0:	4698      	mov	r8, r3
    5bf2:	4606      	mov	r6, r0
    5bf4:	460c      	mov	r4, r1
    5bf6:	9b0c      	ldr	r3, [sp, #48]	; 0x30
    5bf8:	f101 0e43 	add.w	lr, r1, #67	; 0x43
    5bfc:	f000 80ae 	beq.w	5d5c <_printf_i+0x178>
    5c00:	d811      	bhi.n	5c26 <_printf_i+0x42>
    5c02:	2a63      	cmp	r2, #99	; 0x63
    5c04:	d022      	beq.n	5c4c <_printf_i+0x68>
    5c06:	d809      	bhi.n	5c1c <_printf_i+0x38>
    5c08:	2a00      	cmp	r2, #0
    5c0a:	f000 80bb 	beq.w	5d84 <_printf_i+0x1a0>
    5c0e:	2a58      	cmp	r2, #88	; 0x58
    5c10:	f040 80ca 	bne.w	5da8 <_printf_i+0x1c4>
    5c14:	f881 2045 	strb.w	r2, [r1, #69]	; 0x45
    5c18:	4983      	ldr	r1, [pc, #524]	; (5e28 <_printf_i+0x244>)
    5c1a:	e055      	b.n	5cc8 <_printf_i+0xe4>
    5c1c:	2a64      	cmp	r2, #100	; 0x64
    5c1e:	d01e      	beq.n	5c5e <_printf_i+0x7a>
    5c20:	2a69      	cmp	r2, #105	; 0x69
    5c22:	d01c      	beq.n	5c5e <_printf_i+0x7a>
    5c24:	e0c0      	b.n	5da8 <_printf_i+0x1c4>
    5c26:	2a73      	cmp	r2, #115	; 0x73
    5c28:	f000 80b0 	beq.w	5d8c <_printf_i+0x1a8>
    5c2c:	d809      	bhi.n	5c42 <_printf_i+0x5e>
    5c2e:	2a6f      	cmp	r2, #111	; 0x6f
    5c30:	d02e      	beq.n	5c90 <_printf_i+0xac>
    5c32:	2a70      	cmp	r2, #112	; 0x70
    5c34:	f040 80b8 	bne.w	5da8 <_printf_i+0x1c4>
    5c38:	680a      	ldr	r2, [r1, #0]
    5c3a:	f042 0220 	orr.w	r2, r2, #32
    5c3e:	600a      	str	r2, [r1, #0]
    5c40:	e03e      	b.n	5cc0 <_printf_i+0xdc>
    5c42:	2a75      	cmp	r2, #117	; 0x75
    5c44:	d024      	beq.n	5c90 <_printf_i+0xac>
    5c46:	2a78      	cmp	r2, #120	; 0x78
    5c48:	d03a      	beq.n	5cc0 <_printf_i+0xdc>
    5c4a:	e0ad      	b.n	5da8 <_printf_i+0x1c4>
    5c4c:	681a      	ldr	r2, [r3, #0]
    5c4e:	f101 0542 	add.w	r5, r1, #66	; 0x42
    5c52:	1d11      	adds	r1, r2, #4
    5c54:	6019      	str	r1, [r3, #0]
    5c56:	6813      	ldr	r3, [r2, #0]
    5c58:	f884 3042 	strb.w	r3, [r4, #66]	; 0x42
    5c5c:	e0a8      	b.n	5db0 <_printf_i+0x1cc>
    5c5e:	6821      	ldr	r1, [r4, #0]
    5c60:	681a      	ldr	r2, [r3, #0]
    5c62:	f011 0f80 	tst.w	r1, #128	; 0x80
    5c66:	d002      	beq.n	5c6e <_printf_i+0x8a>
    5c68:	1d11      	adds	r1, r2, #4
    5c6a:	6019      	str	r1, [r3, #0]
    5c6c:	e008      	b.n	5c80 <_printf_i+0x9c>
    5c6e:	f011 0f40 	tst.w	r1, #64	; 0x40
    5c72:	f102 0104 	add.w	r1, r2, #4
    5c76:	6019      	str	r1, [r3, #0]
    5c78:	d002      	beq.n	5c80 <_printf_i+0x9c>
    5c7a:	f9b2 3000 	ldrsh.w	r3, [r2]
    5c7e:	e000      	b.n	5c82 <_printf_i+0x9e>
    5c80:	6813      	ldr	r3, [r2, #0]
    5c82:	2b00      	cmp	r3, #0
    5c84:	da3c      	bge.n	5d00 <_printf_i+0x11c>
    5c86:	222d      	movs	r2, #45	; 0x2d
    5c88:	425b      	negs	r3, r3
    5c8a:	f884 2043 	strb.w	r2, [r4, #67]	; 0x43
    5c8e:	e037      	b.n	5d00 <_printf_i+0x11c>
    5c90:	6821      	ldr	r1, [r4, #0]
    5c92:	681a      	ldr	r2, [r3, #0]
    5c94:	f011 0f80 	tst.w	r1, #128	; 0x80
    5c98:	d002      	beq.n	5ca0 <_printf_i+0xbc>
    5c9a:	1d11      	adds	r1, r2, #4
    5c9c:	6019      	str	r1, [r3, #0]
    5c9e:	e007      	b.n	5cb0 <_printf_i+0xcc>
    5ca0:	f011 0f40 	tst.w	r1, #64	; 0x40
    5ca4:	f102 0104 	add.w	r1, r2, #4
    5ca8:	6019      	str	r1, [r3, #0]
    5caa:	d001      	beq.n	5cb0 <_printf_i+0xcc>
    5cac:	8813      	ldrh	r3, [r2, #0]
    5cae:	e000      	b.n	5cb2 <_printf_i+0xce>
    5cb0:	6813      	ldr	r3, [r2, #0]
    5cb2:	7e22      	ldrb	r2, [r4, #24]
    5cb4:	495c      	ldr	r1, [pc, #368]	; (5e28 <_printf_i+0x244>)
    5cb6:	2a6f      	cmp	r2, #111	; 0x6f
    5cb8:	bf14      	ite	ne
    5cba:	220a      	movne	r2, #10
    5cbc:	2208      	moveq	r2, #8
    5cbe:	e01b      	b.n	5cf8 <_printf_i+0x114>
    5cc0:	2278      	movs	r2, #120	; 0x78
    5cc2:	495a      	ldr	r1, [pc, #360]	; (5e2c <_printf_i+0x248>)
    5cc4:	f884 2045 	strb.w	r2, [r4, #69]	; 0x45
    5cc8:	6822      	ldr	r2, [r4, #0]
    5cca:	6818      	ldr	r0, [r3, #0]
    5ccc:	f012 0f80 	tst.w	r2, #128	; 0x80
    5cd0:	f100 0504 	add.w	r5, r0, #4
    5cd4:	601d      	str	r5, [r3, #0]
    5cd6:	d103      	bne.n	5ce0 <_printf_i+0xfc>
    5cd8:	0655      	lsls	r5, r2, #25
    5cda:	d501      	bpl.n	5ce0 <_printf_i+0xfc>
    5cdc:	8803      	ldrh	r3, [r0, #0]
    5cde:	e000      	b.n	5ce2 <_printf_i+0xfe>
    5ce0:	6803      	ldr	r3, [r0, #0]
    5ce2:	07d0      	lsls	r0, r2, #31
    5ce4:	bf44      	itt	mi
    5ce6:	f042 0220 	orrmi.w	r2, r2, #32
    5cea:	6022      	strmi	r2, [r4, #0]
    5cec:	b91b      	cbnz	r3, 5cf6 <_printf_i+0x112>
    5cee:	6822      	ldr	r2, [r4, #0]
    5cf0:	f022 0220 	bic.w	r2, r2, #32
    5cf4:	6022      	str	r2, [r4, #0]
    5cf6:	2210      	movs	r2, #16
    5cf8:	2000      	movs	r0, #0
    5cfa:	f884 0043 	strb.w	r0, [r4, #67]	; 0x43
    5cfe:	e001      	b.n	5d04 <_printf_i+0x120>
    5d00:	4949      	ldr	r1, [pc, #292]	; (5e28 <_printf_i+0x244>)
    5d02:	220a      	movs	r2, #10
    5d04:	6865      	ldr	r5, [r4, #4]
    5d06:	2d00      	cmp	r5, #0
    5d08:	60a5      	str	r5, [r4, #8]
    5d0a:	db08      	blt.n	5d1e <_printf_i+0x13a>
    5d0c:	6820      	ldr	r0, [r4, #0]
    5d0e:	f020 0004 	bic.w	r0, r0, #4
    5d12:	6020      	str	r0, [r4, #0]
    5d14:	b92b      	cbnz	r3, 5d22 <_printf_i+0x13e>
    5d16:	2d00      	cmp	r5, #0
    5d18:	d17d      	bne.n	5e16 <_printf_i+0x232>
    5d1a:	4675      	mov	r5, lr
    5d1c:	e00c      	b.n	5d38 <_printf_i+0x154>
    5d1e:	2b00      	cmp	r3, #0
    5d20:	d079      	beq.n	5e16 <_printf_i+0x232>
    5d22:	4675      	mov	r5, lr
    5d24:	fbb3 f0f2 	udiv	r0, r3, r2
    5d28:	fb02 3310 	mls	r3, r2, r0, r3
    5d2c:	5ccb      	ldrb	r3, [r1, r3]
    5d2e:	f805 3d01 	strb.w	r3, [r5, #-1]!
    5d32:	4603      	mov	r3, r0
    5d34:	2800      	cmp	r0, #0
    5d36:	d1f5      	bne.n	5d24 <_printf_i+0x140>
    5d38:	2a08      	cmp	r2, #8
    5d3a:	d10b      	bne.n	5d54 <_printf_i+0x170>
    5d3c:	6823      	ldr	r3, [r4, #0]
    5d3e:	07da      	lsls	r2, r3, #31
    5d40:	d508      	bpl.n	5d54 <_printf_i+0x170>
    5d42:	6923      	ldr	r3, [r4, #16]
    5d44:	6862      	ldr	r2, [r4, #4]
    5d46:	429a      	cmp	r2, r3
    5d48:	bfde      	ittt	le
    5d4a:	2330      	movle	r3, #48	; 0x30
    5d4c:	f805 3c01 	strble.w	r3, [r5, #-1]
    5d50:	f105 35ff 	addle.w	r5, r5, #4294967295
    5d54:	ebc5 030e 	rsb	r3, r5, lr
    5d58:	6123      	str	r3, [r4, #16]
    5d5a:	e02e      	b.n	5dba <_printf_i+0x1d6>
    5d5c:	6808      	ldr	r0, [r1, #0]
    5d5e:	681a      	ldr	r2, [r3, #0]
    5d60:	f010 0f80 	tst.w	r0, #128	; 0x80
    5d64:	6949      	ldr	r1, [r1, #20]
    5d66:	d003      	beq.n	5d70 <_printf_i+0x18c>
    5d68:	1d10      	adds	r0, r2, #4
    5d6a:	6018      	str	r0, [r3, #0]
    5d6c:	6813      	ldr	r3, [r2, #0]
    5d6e:	e008      	b.n	5d82 <_printf_i+0x19e>
    5d70:	f010 0f40 	tst.w	r0, #64	; 0x40
    5d74:	f102 0004 	add.w	r0, r2, #4
    5d78:	6018      	str	r0, [r3, #0]
    5d7a:	6813      	ldr	r3, [r2, #0]
    5d7c:	d001      	beq.n	5d82 <_printf_i+0x19e>
    5d7e:	8019      	strh	r1, [r3, #0]
    5d80:	e000      	b.n	5d84 <_printf_i+0x1a0>
    5d82:	6019      	str	r1, [r3, #0]
    5d84:	2300      	movs	r3, #0
    5d86:	6123      	str	r3, [r4, #16]
    5d88:	4675      	mov	r5, lr
    5d8a:	e016      	b.n	5dba <_printf_i+0x1d6>
    5d8c:	681a      	ldr	r2, [r3, #0]
    5d8e:	1d11      	adds	r1, r2, #4
    5d90:	6019      	str	r1, [r3, #0]
    5d92:	6815      	ldr	r5, [r2, #0]
    5d94:	2100      	movs	r1, #0
    5d96:	6862      	ldr	r2, [r4, #4]
    5d98:	4628      	mov	r0, r5
    5d9a:	f7ff fc8b 	bl	56b4 <memchr>
    5d9e:	b108      	cbz	r0, 5da4 <_printf_i+0x1c0>
    5da0:	1b40      	subs	r0, r0, r5
    5da2:	6060      	str	r0, [r4, #4]
    5da4:	6863      	ldr	r3, [r4, #4]
    5da6:	e004      	b.n	5db2 <_printf_i+0x1ce>
    5da8:	f104 0542 	add.w	r5, r4, #66	; 0x42
    5dac:	f884 2042 	strb.w	r2, [r4, #66]	; 0x42
    5db0:	2301      	movs	r3, #1
    5db2:	6123      	str	r3, [r4, #16]
    5db4:	2300      	movs	r3, #0
    5db6:	f884 3043 	strb.w	r3, [r4, #67]	; 0x43
    5dba:	f8cd 8000 	str.w	r8, [sp]
    5dbe:	463b      	mov	r3, r7
    5dc0:	aa03      	add	r2, sp, #12
    5dc2:	4621      	mov	r1, r4
    5dc4:	4630      	mov	r0, r6
    5dc6:	f7ff fe97 	bl	5af8 <_printf_common>
    5dca:	3001      	adds	r0, #1
    5dcc:	d102      	bne.n	5dd4 <_printf_i+0x1f0>
    5dce:	f04f 30ff 	mov.w	r0, #4294967295
    5dd2:	e026      	b.n	5e22 <_printf_i+0x23e>
    5dd4:	6923      	ldr	r3, [r4, #16]
    5dd6:	462a      	mov	r2, r5
    5dd8:	4639      	mov	r1, r7
    5dda:	4630      	mov	r0, r6
    5ddc:	47c0      	blx	r8
    5dde:	3001      	adds	r0, #1
    5de0:	d0f5      	beq.n	5dce <_printf_i+0x1ea>
    5de2:	6823      	ldr	r3, [r4, #0]
    5de4:	079b      	lsls	r3, r3, #30
    5de6:	d510      	bpl.n	5e0a <_printf_i+0x226>
    5de8:	2500      	movs	r5, #0
    5dea:	f104 0919 	add.w	r9, r4, #25
    5dee:	e007      	b.n	5e00 <_printf_i+0x21c>
    5df0:	2301      	movs	r3, #1
    5df2:	464a      	mov	r2, r9
    5df4:	4639      	mov	r1, r7
    5df6:	4630      	mov	r0, r6
    5df8:	47c0      	blx	r8
    5dfa:	3001      	adds	r0, #1
    5dfc:	d0e7      	beq.n	5dce <_printf_i+0x1ea>
    5dfe:	3501      	adds	r5, #1
    5e00:	68e3      	ldr	r3, [r4, #12]
    5e02:	9a03      	ldr	r2, [sp, #12]
    5e04:	1a9b      	subs	r3, r3, r2
    5e06:	429d      	cmp	r5, r3
    5e08:	dbf2      	blt.n	5df0 <_printf_i+0x20c>
    5e0a:	68e0      	ldr	r0, [r4, #12]
    5e0c:	9b03      	ldr	r3, [sp, #12]
    5e0e:	4298      	cmp	r0, r3
    5e10:	bfb8      	it	lt
    5e12:	4618      	movlt	r0, r3
    5e14:	e005      	b.n	5e22 <_printf_i+0x23e>
    5e16:	780b      	ldrb	r3, [r1, #0]
    5e18:	f104 0542 	add.w	r5, r4, #66	; 0x42
    5e1c:	f884 3042 	strb.w	r3, [r4, #66]	; 0x42
    5e20:	e78a      	b.n	5d38 <_printf_i+0x154>
    5e22:	b005      	add	sp, #20
    5e24:	e8bd 83f0 	ldmia.w	sp!, {r4, r5, r6, r7, r8, r9, pc}
    5e28:	00007755 	.word	0x00007755
    5e2c:	00007766 	.word	0x00007766

00005e30 <_scanf_chars>:
    5e30:	e92d 43f8 	stmdb	sp!, {r3, r4, r5, r6, r7, r8, r9, lr}
    5e34:	4615      	mov	r5, r2
    5e36:	688a      	ldr	r2, [r1, #8]
    5e38:	4680      	mov	r8, r0
    5e3a:	460c      	mov	r4, r1
    5e3c:	b932      	cbnz	r2, 5e4c <_scanf_chars+0x1c>
    5e3e:	698a      	ldr	r2, [r1, #24]
    5e40:	2a00      	cmp	r2, #0
    5e42:	bf0c      	ite	eq
    5e44:	2201      	moveq	r2, #1
    5e46:	f04f 32ff 	movne.w	r2, #4294967295
    5e4a:	608a      	str	r2, [r1, #8]
    5e4c:	6822      	ldr	r2, [r4, #0]
    5e4e:	f8df 90a8 	ldr.w	r9, [pc, #168]	; 5ef8 <_scanf_chars+0xc8>
    5e52:	06d1      	lsls	r1, r2, #27
    5e54:	bf58      	it	pl
    5e56:	681a      	ldrpl	r2, [r3, #0]
    5e58:	f04f 0600 	mov.w	r6, #0
    5e5c:	bf5e      	ittt	pl
    5e5e:	1d11      	addpl	r1, r2, #4
    5e60:	6019      	strpl	r1, [r3, #0]
    5e62:	6817      	ldrpl	r7, [r2, #0]
    5e64:	69a0      	ldr	r0, [r4, #24]
    5e66:	b9f8      	cbnz	r0, 5ea8 <_scanf_chars+0x78>
    5e68:	6823      	ldr	r3, [r4, #0]
    5e6a:	3601      	adds	r6, #1
    5e6c:	06da      	lsls	r2, r3, #27
    5e6e:	bf5e      	ittt	pl
    5e70:	682b      	ldrpl	r3, [r5, #0]
    5e72:	781b      	ldrbpl	r3, [r3, #0]
    5e74:	703b      	strbpl	r3, [r7, #0]
    5e76:	682a      	ldr	r2, [r5, #0]
    5e78:	686b      	ldr	r3, [r5, #4]
    5e7a:	f102 0201 	add.w	r2, r2, #1
    5e7e:	602a      	str	r2, [r5, #0]
    5e80:	68a2      	ldr	r2, [r4, #8]
    5e82:	f103 33ff 	add.w	r3, r3, #4294967295
    5e86:	f102 32ff 	add.w	r2, r2, #4294967295
    5e8a:	606b      	str	r3, [r5, #4]
    5e8c:	bf58      	it	pl
    5e8e:	3701      	addpl	r7, #1
    5e90:	60a2      	str	r2, [r4, #8]
    5e92:	b1e2      	cbz	r2, 5ece <_scanf_chars+0x9e>
    5e94:	2b00      	cmp	r3, #0
    5e96:	dce5      	bgt.n	5e64 <_scanf_chars+0x34>
    5e98:	f8d4 3180 	ldr.w	r3, [r4, #384]	; 0x180
    5e9c:	4629      	mov	r1, r5
    5e9e:	4640      	mov	r0, r8
    5ea0:	4798      	blx	r3
    5ea2:	2800      	cmp	r0, #0
    5ea4:	d0de      	beq.n	5e64 <_scanf_chars+0x34>
    5ea6:	e012      	b.n	5ece <_scanf_chars+0x9e>
    5ea8:	2801      	cmp	r0, #1
    5eaa:	d106      	bne.n	5eba <_scanf_chars+0x8a>
    5eac:	682b      	ldr	r3, [r5, #0]
    5eae:	781a      	ldrb	r2, [r3, #0]
    5eb0:	6963      	ldr	r3, [r4, #20]
    5eb2:	5c9b      	ldrb	r3, [r3, r2]
    5eb4:	2b00      	cmp	r3, #0
    5eb6:	d1d7      	bne.n	5e68 <_scanf_chars+0x38>
    5eb8:	e019      	b.n	5eee <_scanf_chars+0xbe>
    5eba:	2802      	cmp	r0, #2
    5ebc:	d107      	bne.n	5ece <_scanf_chars+0x9e>
    5ebe:	682b      	ldr	r3, [r5, #0]
    5ec0:	f8d9 2000 	ldr.w	r2, [r9]
    5ec4:	781b      	ldrb	r3, [r3, #0]
    5ec6:	4413      	add	r3, r2
    5ec8:	785b      	ldrb	r3, [r3, #1]
    5eca:	071b      	lsls	r3, r3, #28
    5ecc:	d5cc      	bpl.n	5e68 <_scanf_chars+0x38>
    5ece:	6823      	ldr	r3, [r4, #0]
    5ed0:	f013 0310 	ands.w	r3, r3, #16
    5ed4:	d105      	bne.n	5ee2 <_scanf_chars+0xb2>
    5ed6:	68e2      	ldr	r2, [r4, #12]
    5ed8:	3201      	adds	r2, #1
    5eda:	60e2      	str	r2, [r4, #12]
    5edc:	69a2      	ldr	r2, [r4, #24]
    5ede:	b102      	cbz	r2, 5ee2 <_scanf_chars+0xb2>
    5ee0:	703b      	strb	r3, [r7, #0]
    5ee2:	6923      	ldr	r3, [r4, #16]
    5ee4:	2000      	movs	r0, #0
    5ee6:	441e      	add	r6, r3
    5ee8:	6126      	str	r6, [r4, #16]
    5eea:	e8bd 83f8 	ldmia.w	sp!, {r3, r4, r5, r6, r7, r8, r9, pc}
    5eee:	2e00      	cmp	r6, #0
    5ef0:	d1ed      	bne.n	5ece <_scanf_chars+0x9e>
    5ef2:	e8bd 83f8 	ldmia.w	sp!, {r3, r4, r5, r6, r7, r8, r9, pc}
    5ef6:	bf00      	nop
    5ef8:	10000154 	.word	0x10000154

00005efc <_scanf_i>:
    5efc:	e92d 4ff0 	stmdb	sp!, {r4, r5, r6, r7, r8, r9, r10, r11, lr}
    5f00:	460c      	mov	r4, r1
    5f02:	469a      	mov	r10, r3
    5f04:	4b72      	ldr	r3, [pc, #456]	; (60d0 <_scanf_i+0x1d4>)
    5f06:	b087      	sub	sp, #28
    5f08:	4683      	mov	r11, r0
    5f0a:	4616      	mov	r6, r2
    5f0c:	e893 0007 	ldmia.w	r3, {r0, r1, r2}
    5f10:	ab03      	add	r3, sp, #12
    5f12:	68a7      	ldr	r7, [r4, #8]
    5f14:	e883 0007 	stmia.w	r3, {r0, r1, r2}
    5f18:	4b6e      	ldr	r3, [pc, #440]	; (60d4 <_scanf_i+0x1d8>)
    5f1a:	69a1      	ldr	r1, [r4, #24]
    5f1c:	4a6e      	ldr	r2, [pc, #440]	; (60d8 <_scanf_i+0x1dc>)
    5f1e:	f104 091c 	add.w	r9, r4, #28
    5f22:	2903      	cmp	r1, #3
    5f24:	bf18      	it	ne
    5f26:	461a      	movne	r2, r3
    5f28:	1e7b      	subs	r3, r7, #1
    5f2a:	f5b3 7fae 	cmp.w	r3, #348	; 0x15c
    5f2e:	bf84      	itt	hi
    5f30:	f240 135d 	movwhi	r3, #349	; 0x15d
    5f34:	60a3      	strhi	r3, [r4, #8]
    5f36:	6823      	ldr	r3, [r4, #0]
    5f38:	bf88      	it	hi
    5f3a:	f46f 75ae 	mvnhi.w	r5, #348	; 0x15c
    5f3e:	f443 6350 	orr.w	r3, r3, #3328	; 0xd00
    5f42:	6023      	str	r3, [r4, #0]
    5f44:	464b      	mov	r3, r9
    5f46:	9200      	str	r2, [sp, #0]
    5f48:	bf8c      	ite	hi
    5f4a:	197f      	addhi	r7, r7, r5
    5f4c:	2700      	movls	r7, #0
    5f4e:	f04f 0800 	mov.w	r8, #0
    5f52:	6831      	ldr	r1, [r6, #0]
    5f54:	9301      	str	r3, [sp, #4]
    5f56:	ab03      	add	r3, sp, #12
    5f58:	f853 0028 	ldr.w	r0, [r3, r8, lsl #2]
    5f5c:	2202      	movs	r2, #2
    5f5e:	7809      	ldrb	r1, [r1, #0]
    5f60:	f7ff fba8 	bl	56b4 <memchr>
    5f64:	9b01      	ldr	r3, [sp, #4]
    5f66:	2800      	cmp	r0, #0
    5f68:	d033      	beq.n	5fd2 <_scanf_i+0xd6>
    5f6a:	f1b8 0f01 	cmp.w	r8, #1
    5f6e:	d10b      	bne.n	5f88 <_scanf_i+0x8c>
    5f70:	6862      	ldr	r2, [r4, #4]
    5f72:	b92a      	cbnz	r2, 5f80 <_scanf_i+0x84>
    5f74:	2208      	movs	r2, #8
    5f76:	6062      	str	r2, [r4, #4]
    5f78:	6822      	ldr	r2, [r4, #0]
    5f7a:	f442 7200 	orr.w	r2, r2, #512	; 0x200
    5f7e:	6022      	str	r2, [r4, #0]
    5f80:	6822      	ldr	r2, [r4, #0]
    5f82:	f422 62a0 	bic.w	r2, r2, #1280	; 0x500
    5f86:	e00c      	b.n	5fa2 <_scanf_i+0xa6>
    5f88:	f1b8 0f02 	cmp.w	r8, #2
    5f8c:	d10a      	bne.n	5fa4 <_scanf_i+0xa8>
    5f8e:	6822      	ldr	r2, [r4, #0]
    5f90:	f402 61c0 	and.w	r1, r2, #1536	; 0x600
    5f94:	f5b1 7f00 	cmp.w	r1, #512	; 0x200
    5f98:	d11b      	bne.n	5fd2 <_scanf_i+0xd6>
    5f9a:	2110      	movs	r1, #16
    5f9c:	6061      	str	r1, [r4, #4]
    5f9e:	f442 7280 	orr.w	r2, r2, #256	; 0x100
    5fa2:	6022      	str	r2, [r4, #0]
    5fa4:	68a2      	ldr	r2, [r4, #8]
    5fa6:	1e51      	subs	r1, r2, #1
    5fa8:	60a1      	str	r1, [r4, #8]
    5faa:	b192      	cbz	r2, 5fd2 <_scanf_i+0xd6>
    5fac:	6832      	ldr	r2, [r6, #0]
    5fae:	1c5d      	adds	r5, r3, #1
    5fb0:	1c51      	adds	r1, r2, #1
    5fb2:	6031      	str	r1, [r6, #0]
    5fb4:	7812      	ldrb	r2, [r2, #0]
    5fb6:	701a      	strb	r2, [r3, #0]
    5fb8:	6873      	ldr	r3, [r6, #4]
    5fba:	3b01      	subs	r3, #1
    5fbc:	2b00      	cmp	r3, #0
    5fbe:	6073      	str	r3, [r6, #4]
    5fc0:	dc06      	bgt.n	5fd0 <_scanf_i+0xd4>
    5fc2:	f8d4 3180 	ldr.w	r3, [r4, #384]	; 0x180
    5fc6:	4631      	mov	r1, r6
    5fc8:	4658      	mov	r0, r11
    5fca:	4798      	blx	r3
    5fcc:	2800      	cmp	r0, #0
    5fce:	d141      	bne.n	6054 <_scanf_i+0x158>
    5fd0:	462b      	mov	r3, r5
    5fd2:	f108 0801 	add.w	r8, r8, #1
    5fd6:	f1b8 0f03 	cmp.w	r8, #3
    5fda:	d1ba      	bne.n	5f52 <_scanf_i+0x56>
    5fdc:	6862      	ldr	r2, [r4, #4]
    5fde:	b90a      	cbnz	r2, 5fe4 <_scanf_i+0xe8>
    5fe0:	220a      	movs	r2, #10
    5fe2:	6062      	str	r2, [r4, #4]
    5fe4:	6862      	ldr	r2, [r4, #4]
    5fe6:	493d      	ldr	r1, [pc, #244]	; (60dc <_scanf_i+0x1e0>)
    5fe8:	6960      	ldr	r0, [r4, #20]
    5fea:	1a89      	subs	r1, r1, r2
    5fec:	9301      	str	r3, [sp, #4]
    5fee:	f000 f8dd 	bl	61ac <__sccl>
    5ff2:	9b01      	ldr	r3, [sp, #4]
    5ff4:	f04f 0800 	mov.w	r8, #0
    5ff8:	461d      	mov	r5, r3
    5ffa:	68a3      	ldr	r3, [r4, #8]
    5ffc:	b363      	cbz	r3, 6058 <_scanf_i+0x15c>
    5ffe:	6831      	ldr	r1, [r6, #0]
    6000:	6960      	ldr	r0, [r4, #20]
    6002:	780a      	ldrb	r2, [r1, #0]
    6004:	5c80      	ldrb	r0, [r0, r2]
    6006:	b338      	cbz	r0, 6058 <_scanf_i+0x15c>
    6008:	2a30      	cmp	r2, #48	; 0x30
    600a:	6822      	ldr	r2, [r4, #0]
    600c:	d108      	bne.n	6020 <_scanf_i+0x124>
    600e:	0510      	lsls	r0, r2, #20
    6010:	d506      	bpl.n	6020 <_scanf_i+0x124>
    6012:	f108 0801 	add.w	r8, r8, #1
    6016:	b157      	cbz	r7, 602e <_scanf_i+0x132>
    6018:	3301      	adds	r3, #1
    601a:	3f01      	subs	r7, #1
    601c:	60a3      	str	r3, [r4, #8]
    601e:	e006      	b.n	602e <_scanf_i+0x132>
    6020:	f422 6210 	bic.w	r2, r2, #2304	; 0x900
    6024:	6022      	str	r2, [r4, #0]
    6026:	780b      	ldrb	r3, [r1, #0]
    6028:	3501      	adds	r5, #1
    602a:	f805 3c01 	strb.w	r3, [r5, #-1]
    602e:	6873      	ldr	r3, [r6, #4]
    6030:	3b01      	subs	r3, #1
    6032:	2b00      	cmp	r3, #0
    6034:	6073      	str	r3, [r6, #4]
    6036:	dd03      	ble.n	6040 <_scanf_i+0x144>
    6038:	6833      	ldr	r3, [r6, #0]
    603a:	3301      	adds	r3, #1
    603c:	6033      	str	r3, [r6, #0]
    603e:	e005      	b.n	604c <_scanf_i+0x150>
    6040:	f8d4 3180 	ldr.w	r3, [r4, #384]	; 0x180
    6044:	4631      	mov	r1, r6
    6046:	4658      	mov	r0, r11
    6048:	4798      	blx	r3
    604a:	b928      	cbnz	r0, 6058 <_scanf_i+0x15c>
    604c:	68a3      	ldr	r3, [r4, #8]
    604e:	3b01      	subs	r3, #1
    6050:	60a3      	str	r3, [r4, #8]
    6052:	e7d2      	b.n	5ffa <_scanf_i+0xfe>
    6054:	f04f 0800 	mov.w	r8, #0
    6058:	6823      	ldr	r3, [r4, #0]
    605a:	05d9      	lsls	r1, r3, #23
    605c:	d50c      	bpl.n	6078 <_scanf_i+0x17c>
    605e:	454d      	cmp	r5, r9
    6060:	d908      	bls.n	6074 <_scanf_i+0x178>
    6062:	f815 1c01 	ldrb.w	r1, [r5, #-1]
    6066:	1e6f      	subs	r7, r5, #1
    6068:	f8d4 317c 	ldr.w	r3, [r4, #380]	; 0x17c
    606c:	4632      	mov	r2, r6
    606e:	4658      	mov	r0, r11
    6070:	4798      	blx	r3
    6072:	463d      	mov	r5, r7
    6074:	454d      	cmp	r5, r9
    6076:	d027      	beq.n	60c8 <_scanf_i+0x1cc>
    6078:	6822      	ldr	r2, [r4, #0]
    607a:	f012 0210 	ands.w	r2, r2, #16
    607e:	d11b      	bne.n	60b8 <_scanf_i+0x1bc>
    6080:	702a      	strb	r2, [r5, #0]
    6082:	6863      	ldr	r3, [r4, #4]
    6084:	4649      	mov	r1, r9
    6086:	4658      	mov	r0, r11
    6088:	9e00      	ldr	r6, [sp, #0]
    608a:	47b0      	blx	r6
    608c:	6822      	ldr	r2, [r4, #0]
    608e:	f8da 3000 	ldr.w	r3, [r10]
    6092:	f012 0f20 	tst.w	r2, #32
    6096:	d107      	bne.n	60a8 <_scanf_i+0x1ac>
    6098:	07d2      	lsls	r2, r2, #31
    609a:	d505      	bpl.n	60a8 <_scanf_i+0x1ac>
    609c:	1d1a      	adds	r2, r3, #4
    609e:	f8ca 2000 	str.w	r2, [r10]
    60a2:	681b      	ldr	r3, [r3, #0]
    60a4:	8018      	strh	r0, [r3, #0]
    60a6:	e004      	b.n	60b2 <_scanf_i+0x1b6>
    60a8:	1d1a      	adds	r2, r3, #4
    60aa:	f8ca 2000 	str.w	r2, [r10]
    60ae:	681b      	ldr	r3, [r3, #0]
    60b0:	6018      	str	r0, [r3, #0]
    60b2:	68e3      	ldr	r3, [r4, #12]
    60b4:	3301      	adds	r3, #1
    60b6:	60e3      	str	r3, [r4, #12]
    60b8:	6923      	ldr	r3, [r4, #16]
    60ba:	ebc9 0505 	rsb	r5, r9, r5
    60be:	4445      	add	r5, r8
    60c0:	441d      	add	r5, r3
    60c2:	6125      	str	r5, [r4, #16]
    60c4:	2000      	movs	r0, #0
    60c6:	e000      	b.n	60ca <_scanf_i+0x1ce>
    60c8:	2001      	movs	r0, #1
    60ca:	b007      	add	sp, #28
    60cc:	e8bd 8ff0 	ldmia.w	sp!, {r4, r5, r6, r7, r8, r9, r10, r11, pc}
    60d0:	00007778 	.word	0x00007778
    60d4:	000065ad 	.word	0x000065ad
    60d8:	000064a1 	.word	0x000064a1
    60dc:	00007794 	.word	0x00007794

000060e0 <_open_r>:
    60e0:	b538      	push	{r3, r4, r5, lr}
    60e2:	4c07      	ldr	r4, [pc, #28]	; (6100 <_open_r+0x20>)
    60e4:	4605      	mov	r5, r0
    60e6:	4608      	mov	r0, r1
    60e8:	4611      	mov	r1, r2
    60ea:	2200      	movs	r2, #0
    60ec:	6022      	str	r2, [r4, #0]
    60ee:	461a      	mov	r2, r3
    60f0:	f7fd fd74 	bl	3bdc <_open>
    60f4:	1c43      	adds	r3, r0, #1
    60f6:	d102      	bne.n	60fe <_open_r+0x1e>
    60f8:	6823      	ldr	r3, [r4, #0]
    60fa:	b103      	cbz	r3, 60fe <_open_r+0x1e>
    60fc:	602b      	str	r3, [r5, #0]
    60fe:	bd38      	pop	{r3, r4, r5, pc}
    6100:	10000a14 	.word	0x10000a14

00006104 <_putc_r>:
    6104:	b570      	push	{r4, r5, r6, lr}
    6106:	460e      	mov	r6, r1
    6108:	4614      	mov	r4, r2
    610a:	4605      	mov	r5, r0
    610c:	b118      	cbz	r0, 6116 <_putc_r+0x12>
    610e:	6983      	ldr	r3, [r0, #24]
    6110:	b90b      	cbnz	r3, 6116 <_putc_r+0x12>
    6112:	f7ff f8bf 	bl	5294 <__sinit>
    6116:	4b16      	ldr	r3, [pc, #88]	; (6170 <_putc_r+0x6c>)
    6118:	429c      	cmp	r4, r3
    611a:	d101      	bne.n	6120 <_putc_r+0x1c>
    611c:	686c      	ldr	r4, [r5, #4]
    611e:	e008      	b.n	6132 <_putc_r+0x2e>
    6120:	4b14      	ldr	r3, [pc, #80]	; (6174 <_putc_r+0x70>)
    6122:	429c      	cmp	r4, r3
    6124:	d101      	bne.n	612a <_putc_r+0x26>
    6126:	68ac      	ldr	r4, [r5, #8]
    6128:	e003      	b.n	6132 <_putc_r+0x2e>
    612a:	4b13      	ldr	r3, [pc, #76]	; (6178 <_putc_r+0x74>)
    612c:	429c      	cmp	r4, r3
    612e:	bf08      	it	eq
    6130:	68ec      	ldreq	r4, [r5, #12]
    6132:	68a3      	ldr	r3, [r4, #8]
    6134:	3b01      	subs	r3, #1
    6136:	2b00      	cmp	r3, #0
    6138:	60a3      	str	r3, [r4, #8]
    613a:	da11      	bge.n	6160 <_putc_r+0x5c>
    613c:	69a2      	ldr	r2, [r4, #24]
    613e:	4293      	cmp	r3, r2
    6140:	db07      	blt.n	6152 <_putc_r+0x4e>
    6142:	6823      	ldr	r3, [r4, #0]
    6144:	701e      	strb	r6, [r3, #0]
    6146:	6823      	ldr	r3, [r4, #0]
    6148:	7819      	ldrb	r1, [r3, #0]
    614a:	290a      	cmp	r1, #10
    614c:	d10b      	bne.n	6166 <_putc_r+0x62>
    614e:	4622      	mov	r2, r4
    6150:	e001      	b.n	6156 <_putc_r+0x52>
    6152:	4622      	mov	r2, r4
    6154:	4631      	mov	r1, r6
    6156:	4628      	mov	r0, r5
    6158:	e8bd 4070 	ldmia.w	sp!, {r4, r5, r6, lr}
    615c:	f000 bade 	b.w	671c <__swbuf_r>
    6160:	6823      	ldr	r3, [r4, #0]
    6162:	701e      	strb	r6, [r3, #0]
    6164:	6823      	ldr	r3, [r4, #0]
    6166:	1c5a      	adds	r2, r3, #1
    6168:	6022      	str	r2, [r4, #0]
    616a:	7818      	ldrb	r0, [r3, #0]
    616c:	bd70      	pop	{r4, r5, r6, pc}
    616e:	bf00      	nop
    6170:	000076dc 	.word	0x000076dc
    6174:	000076fc 	.word	0x000076fc
    6178:	0000771c 	.word	0x0000771c

0000617c <realloc>:
    617c:	4b02      	ldr	r3, [pc, #8]	; (6188 <realloc+0xc>)
    617e:	460a      	mov	r2, r1
    6180:	4601      	mov	r1, r0
    6182:	6818      	ldr	r0, [r3, #0]
    6184:	f000 bc18 	b.w	69b8 <_realloc_r>
    6188:	10000150 	.word	0x10000150

0000618c <_sbrk_r>:
    618c:	b538      	push	{r3, r4, r5, lr}
    618e:	4c06      	ldr	r4, [pc, #24]	; (61a8 <_sbrk_r+0x1c>)
    6190:	2300      	movs	r3, #0
    6192:	4605      	mov	r5, r0
    6194:	4608      	mov	r0, r1
    6196:	6023      	str	r3, [r4, #0]
    6198:	f7fd fe3e 	bl	3e18 <_sbrk>
    619c:	1c43      	adds	r3, r0, #1
    619e:	d102      	bne.n	61a6 <_sbrk_r+0x1a>
    61a0:	6823      	ldr	r3, [r4, #0]
    61a2:	b103      	cbz	r3, 61a6 <_sbrk_r+0x1a>
    61a4:	602b      	str	r3, [r5, #0]
    61a6:	bd38      	pop	{r3, r4, r5, pc}
    61a8:	10000a14 	.word	0x10000a14

000061ac <__sccl>:
    61ac:	b570      	push	{r4, r5, r6, lr}
    61ae:	780b      	ldrb	r3, [r1, #0]
    61b0:	1e44      	subs	r4, r0, #1
    61b2:	2b5e      	cmp	r3, #94	; 0x5e
    61b4:	bf13      	iteet	ne
    61b6:	1c4a      	addne	r2, r1, #1
    61b8:	1c8a      	addeq	r2, r1, #2
    61ba:	784b      	ldrbeq	r3, [r1, #1]
    61bc:	2100      	movne	r1, #0
    61be:	bf08      	it	eq
    61c0:	2101      	moveq	r1, #1
    61c2:	f100 05ff 	add.w	r5, r0, #255	; 0xff
    61c6:	f804 1f01 	strb.w	r1, [r4, #1]!
    61ca:	42ac      	cmp	r4, r5
    61cc:	d1fb      	bne.n	61c6 <__sccl+0x1a>
    61ce:	b90b      	cbnz	r3, 61d4 <__sccl+0x28>
    61d0:	1e50      	subs	r0, r2, #1
    61d2:	bd70      	pop	{r4, r5, r6, pc}
    61d4:	f081 0401 	eor.w	r4, r1, #1
    61d8:	4611      	mov	r1, r2
    61da:	54c4      	strb	r4, [r0, r3]
    61dc:	780d      	ldrb	r5, [r1, #0]
    61de:	1c4a      	adds	r2, r1, #1
    61e0:	2d2d      	cmp	r5, #45	; 0x2d
    61e2:	d006      	beq.n	61f2 <__sccl+0x46>
    61e4:	2d5d      	cmp	r5, #93	; 0x5d
    61e6:	d00f      	beq.n	6208 <__sccl+0x5c>
    61e8:	b10d      	cbz	r5, 61ee <__sccl+0x42>
    61ea:	462b      	mov	r3, r5
    61ec:	e7f4      	b.n	61d8 <__sccl+0x2c>
    61ee:	4608      	mov	r0, r1
    61f0:	bd70      	pop	{r4, r5, r6, pc}
    61f2:	784e      	ldrb	r6, [r1, #1]
    61f4:	2e5d      	cmp	r6, #93	; 0x5d
    61f6:	d0f8      	beq.n	61ea <__sccl+0x3e>
    61f8:	42b3      	cmp	r3, r6
    61fa:	dcf6      	bgt.n	61ea <__sccl+0x3e>
    61fc:	3102      	adds	r1, #2
    61fe:	3301      	adds	r3, #1
    6200:	429e      	cmp	r6, r3
    6202:	54c4      	strb	r4, [r0, r3]
    6204:	dcfb      	bgt.n	61fe <__sccl+0x52>
    6206:	e7e9      	b.n	61dc <__sccl+0x30>
    6208:	4610      	mov	r0, r2
    620a:	bd70      	pop	{r4, r5, r6, pc}

0000620c <setbuf>:
    620c:	2900      	cmp	r1, #0
    620e:	f44f 6380 	mov.w	r3, #1024	; 0x400
    6212:	bf0c      	ite	eq
    6214:	2202      	moveq	r2, #2
    6216:	2200      	movne	r2, #0
    6218:	f000 b800 	b.w	621c <setvbuf>

0000621c <setvbuf>:
    621c:	e92d 41f0 	stmdb	sp!, {r4, r5, r6, r7, r8, lr}
    6220:	461d      	mov	r5, r3
    6222:	4b3d      	ldr	r3, [pc, #244]	; (6318 <setvbuf+0xfc>)
    6224:	4604      	mov	r4, r0
    6226:	681e      	ldr	r6, [r3, #0]
    6228:	460f      	mov	r7, r1
    622a:	4690      	mov	r8, r2
    622c:	b126      	cbz	r6, 6238 <setvbuf+0x1c>
    622e:	69b3      	ldr	r3, [r6, #24]
    6230:	b913      	cbnz	r3, 6238 <setvbuf+0x1c>
    6232:	4630      	mov	r0, r6
    6234:	f7ff f82e 	bl	5294 <__sinit>
    6238:	4b38      	ldr	r3, [pc, #224]	; (631c <setvbuf+0x100>)
    623a:	429c      	cmp	r4, r3
    623c:	d101      	bne.n	6242 <setvbuf+0x26>
    623e:	6874      	ldr	r4, [r6, #4]
    6240:	e008      	b.n	6254 <setvbuf+0x38>
    6242:	4b37      	ldr	r3, [pc, #220]	; (6320 <setvbuf+0x104>)
    6244:	429c      	cmp	r4, r3
    6246:	d101      	bne.n	624c <setvbuf+0x30>
    6248:	68b4      	ldr	r4, [r6, #8]
    624a:	e003      	b.n	6254 <setvbuf+0x38>
    624c:	4b35      	ldr	r3, [pc, #212]	; (6324 <setvbuf+0x108>)
    624e:	429c      	cmp	r4, r3
    6250:	bf08      	it	eq
    6252:	68f4      	ldreq	r4, [r6, #12]
    6254:	f1b8 0f02 	cmp.w	r8, #2
    6258:	d859      	bhi.n	630e <setvbuf+0xf2>
    625a:	2d00      	cmp	r5, #0
    625c:	db57      	blt.n	630e <setvbuf+0xf2>
    625e:	4621      	mov	r1, r4
    6260:	4630      	mov	r0, r6
    6262:	f7fe ff9b 	bl	519c <_fflush_r>
    6266:	2300      	movs	r3, #0
    6268:	6063      	str	r3, [r4, #4]
    626a:	61a3      	str	r3, [r4, #24]
    626c:	89a3      	ldrh	r3, [r4, #12]
    626e:	061b      	lsls	r3, r3, #24
    6270:	d503      	bpl.n	627a <setvbuf+0x5e>
    6272:	6921      	ldr	r1, [r4, #16]
    6274:	4630      	mov	r0, r6
    6276:	f7ff fa59 	bl	572c <_free_r>
    627a:	89a3      	ldrh	r3, [r4, #12]
    627c:	f1b8 0f02 	cmp.w	r8, #2
    6280:	f023 0383 	bic.w	r3, r3, #131	; 0x83
    6284:	81a3      	strh	r3, [r4, #12]
    6286:	d012      	beq.n	62ae <setvbuf+0x92>
    6288:	bb37      	cbnz	r7, 62d8 <setvbuf+0xbc>
    628a:	2d00      	cmp	r5, #0
    628c:	bf08      	it	eq
    628e:	f44f 6580 	moveq.w	r5, #1024	; 0x400
    6292:	4628      	mov	r0, r5
    6294:	f7fc f8a6 	bl	23e4 <__wrap_malloc>
    6298:	4607      	mov	r7, r0
    629a:	b9c8      	cbnz	r0, 62d0 <setvbuf+0xb4>
    629c:	f44f 6080 	mov.w	r0, #1024	; 0x400
    62a0:	f7fc f8a0 	bl	23e4 <__wrap_malloc>
    62a4:	4607      	mov	r7, r0
    62a6:	b988      	cbnz	r0, 62cc <setvbuf+0xb0>
    62a8:	f04f 30ff 	mov.w	r0, #4294967295
    62ac:	e000      	b.n	62b0 <setvbuf+0x94>
    62ae:	2000      	movs	r0, #0
    62b0:	89a3      	ldrh	r3, [r4, #12]
    62b2:	f043 0302 	orr.w	r3, r3, #2
    62b6:	81a3      	strh	r3, [r4, #12]
    62b8:	2300      	movs	r3, #0
    62ba:	60a3      	str	r3, [r4, #8]
    62bc:	f104 0347 	add.w	r3, r4, #71	; 0x47
    62c0:	6023      	str	r3, [r4, #0]
    62c2:	6123      	str	r3, [r4, #16]
    62c4:	2301      	movs	r3, #1
    62c6:	6163      	str	r3, [r4, #20]
    62c8:	e8bd 81f0 	ldmia.w	sp!, {r4, r5, r6, r7, r8, pc}
    62cc:	f44f 6580 	mov.w	r5, #1024	; 0x400
    62d0:	89a3      	ldrh	r3, [r4, #12]
    62d2:	f043 0380 	orr.w	r3, r3, #128	; 0x80
    62d6:	81a3      	strh	r3, [r4, #12]
    62d8:	f1b8 0f01 	cmp.w	r8, #1
    62dc:	d105      	bne.n	62ea <setvbuf+0xce>
    62de:	89a3      	ldrh	r3, [r4, #12]
    62e0:	f043 0301 	orr.w	r3, r3, #1
    62e4:	81a3      	strh	r3, [r4, #12]
    62e6:	426b      	negs	r3, r5
    62e8:	61a3      	str	r3, [r4, #24]
    62ea:	4b0f      	ldr	r3, [pc, #60]	; (6328 <setvbuf+0x10c>)
    62ec:	62b3      	str	r3, [r6, #40]	; 0x28
    62ee:	89a3      	ldrh	r3, [r4, #12]
    62f0:	6027      	str	r7, [r4, #0]
    62f2:	f003 0008 	and.w	r0, r3, #8
    62f6:	b280      	uxth	r0, r0
    62f8:	6127      	str	r7, [r4, #16]
    62fa:	6165      	str	r5, [r4, #20]
    62fc:	b148      	cbz	r0, 6312 <setvbuf+0xf6>
    62fe:	f013 0f03 	tst.w	r3, #3
    6302:	bf18      	it	ne
    6304:	2500      	movne	r5, #0
    6306:	60a5      	str	r5, [r4, #8]
    6308:	2000      	movs	r0, #0
    630a:	e8bd 81f0 	ldmia.w	sp!, {r4, r5, r6, r7, r8, pc}
    630e:	f04f 30ff 	mov.w	r0, #4294967295
    6312:	e8bd 81f0 	ldmia.w	sp!, {r4, r5, r6, r7, r8, pc}
    6316:	bf00      	nop
    6318:	10000150 	.word	0x10000150
    631c:	000076dc 	.word	0x000076dc
    6320:	000076fc 	.word	0x000076fc
    6324:	0000771c 	.word	0x0000771c
    6328:	00005215 	.word	0x00005215

0000632c <siprintf>:
    632c:	b40e      	push	{r1, r2, r3}
    632e:	b500      	push	{lr}
    6330:	f44f 7102 	mov.w	r1, #520	; 0x208
    6334:	b09c      	sub	sp, #112	; 0x70
    6336:	f8ad 1014 	strh.w	r1, [sp, #20]
    633a:	f06f 4100 	mvn.w	r1, #2147483648	; 0x80000000
    633e:	9104      	str	r1, [sp, #16]
    6340:	9107      	str	r1, [sp, #28]
    6342:	f64f 71ff 	movw	r1, #65535	; 0xffff
    6346:	ab1d      	add	r3, sp, #116	; 0x74
    6348:	9002      	str	r0, [sp, #8]
    634a:	9006      	str	r0, [sp, #24]
    634c:	4808      	ldr	r0, [pc, #32]	; (6370 <siprintf+0x44>)
    634e:	f853 2b04 	ldr.w	r2, [r3], #4
    6352:	f8ad 1016 	strh.w	r1, [sp, #22]
    6356:	6800      	ldr	r0, [r0, #0]
    6358:	a902      	add	r1, sp, #8
    635a:	9301      	str	r3, [sp, #4]
    635c:	f000 fbac 	bl	6ab8 <_svfiprintf_r>
    6360:	9b02      	ldr	r3, [sp, #8]
    6362:	2200      	movs	r2, #0
    6364:	701a      	strb	r2, [r3, #0]
    6366:	b01c      	add	sp, #112	; 0x70
    6368:	f85d eb04 	ldr.w	lr, [sp], #4
    636c:	b003      	add	sp, #12
    636e:	4770      	bx	lr
    6370:	10000150 	.word	0x10000150

00006374 <siscanf>:
    6374:	b40e      	push	{r1, r2, r3}
    6376:	b530      	push	{r4, r5, lr}
    6378:	b09c      	sub	sp, #112	; 0x70
    637a:	ac1f      	add	r4, sp, #124	; 0x7c
    637c:	f44f 7201 	mov.w	r2, #516	; 0x204
    6380:	f854 5b04 	ldr.w	r5, [r4], #4
    6384:	f8ad 2014 	strh.w	r2, [sp, #20]
    6388:	9002      	str	r0, [sp, #8]
    638a:	9006      	str	r0, [sp, #24]
    638c:	f000 f86b 	bl	6466 <strlen>
    6390:	4b0b      	ldr	r3, [pc, #44]	; (63c0 <siscanf+0x4c>)
    6392:	9003      	str	r0, [sp, #12]
    6394:	930b      	str	r3, [sp, #44]	; 0x2c
    6396:	2300      	movs	r3, #0
    6398:	930f      	str	r3, [sp, #60]	; 0x3c
    639a:	9314      	str	r3, [sp, #80]	; 0x50
    639c:	f64f 73ff 	movw	r3, #65535	; 0xffff
    63a0:	9007      	str	r0, [sp, #28]
    63a2:	4808      	ldr	r0, [pc, #32]	; (63c4 <siscanf+0x50>)
    63a4:	f8ad 3016 	strh.w	r3, [sp, #22]
    63a8:	462a      	mov	r2, r5
    63aa:	4623      	mov	r3, r4
    63ac:	a902      	add	r1, sp, #8
    63ae:	6800      	ldr	r0, [r0, #0]
    63b0:	9401      	str	r4, [sp, #4]
    63b2:	f000 fcd1 	bl	6d58 <__ssvfiscanf_r>
    63b6:	b01c      	add	sp, #112	; 0x70
    63b8:	e8bd 4030 	ldmia.w	sp!, {r4, r5, lr}
    63bc:	b003      	add	sp, #12
    63be:	4770      	bx	lr
    63c0:	000063eb 	.word	0x000063eb
    63c4:	10000150 	.word	0x10000150

000063c8 <__sread>:
    63c8:	b510      	push	{r4, lr}
    63ca:	460c      	mov	r4, r1
    63cc:	f9b1 100e 	ldrsh.w	r1, [r1, #14]
    63d0:	f000 fe10 	bl	6ff4 <_read_r>
    63d4:	2800      	cmp	r0, #0
    63d6:	bfab      	itete	ge
    63d8:	6d63      	ldrge	r3, [r4, #84]	; 0x54
    63da:	89a3      	ldrhlt	r3, [r4, #12]
    63dc:	181b      	addge	r3, r3, r0
    63de:	f423 5380 	biclt.w	r3, r3, #4096	; 0x1000
    63e2:	bfac      	ite	ge
    63e4:	6563      	strge	r3, [r4, #84]	; 0x54
    63e6:	81a3      	strhlt	r3, [r4, #12]
    63e8:	bd10      	pop	{r4, pc}

000063ea <__seofread>:
    63ea:	2000      	movs	r0, #0
    63ec:	4770      	bx	lr

000063ee <__swrite>:
    63ee:	e92d 41f0 	stmdb	sp!, {r4, r5, r6, r7, r8, lr}
    63f2:	461f      	mov	r7, r3
    63f4:	898b      	ldrh	r3, [r1, #12]
    63f6:	4605      	mov	r5, r0
    63f8:	05db      	lsls	r3, r3, #23
    63fa:	460c      	mov	r4, r1
    63fc:	4616      	mov	r6, r2
    63fe:	d505      	bpl.n	640c <__swrite+0x1e>
    6400:	2302      	movs	r3, #2
    6402:	2200      	movs	r2, #0
    6404:	f9b1 100e 	ldrsh.w	r1, [r1, #14]
    6408:	f000 fac4 	bl	6994 <_lseek_r>
    640c:	89a3      	ldrh	r3, [r4, #12]
    640e:	4632      	mov	r2, r6
    6410:	f423 5380 	bic.w	r3, r3, #4096	; 0x1000
    6414:	81a3      	strh	r3, [r4, #12]
    6416:	f9b4 100e 	ldrsh.w	r1, [r4, #14]
    641a:	463b      	mov	r3, r7
    641c:	4628      	mov	r0, r5
    641e:	e8bd 41f0 	ldmia.w	sp!, {r4, r5, r6, r7, r8, lr}
    6422:	f000 b9cf 	b.w	67c4 <_write_r>

00006426 <__sseek>:
    6426:	b510      	push	{r4, lr}
    6428:	460c      	mov	r4, r1
    642a:	f9b1 100e 	ldrsh.w	r1, [r1, #14]
    642e:	f000 fab1 	bl	6994 <_lseek_r>
    6432:	1c43      	adds	r3, r0, #1
    6434:	89a3      	ldrh	r3, [r4, #12]
    6436:	bf15      	itete	ne
    6438:	6560      	strne	r0, [r4, #84]	; 0x54
    643a:	f423 5380 	biceq.w	r3, r3, #4096	; 0x1000
    643e:	f443 5380 	orrne.w	r3, r3, #4096	; 0x1000
    6442:	81a3      	strheq	r3, [r4, #12]
    6444:	bf18      	it	ne
    6446:	81a3      	strhne	r3, [r4, #12]
    6448:	bd10      	pop	{r4, pc}

0000644a <__sclose>:
    644a:	f9b1 100e 	ldrsh.w	r1, [r1, #14]
    644e:	f000 ba37 	b.w	68c0 <_close_r>

00006452 <strcmp>:
    6452:	f810 2b01 	ldrb.w	r2, [r0], #1
    6456:	f811 3b01 	ldrb.w	r3, [r1], #1
    645a:	2a01      	cmp	r2, #1
    645c:	bf28      	it	cs
    645e:	429a      	cmpcs	r2, r3
    6460:	d0f7      	beq.n	6452 <strcmp>
    6462:	1ad0      	subs	r0, r2, r3
    6464:	4770      	bx	lr

00006466 <strlen>:
    6466:	4603      	mov	r3, r0
    6468:	f813 2b01 	ldrb.w	r2, [r3], #1
    646c:	2a00      	cmp	r2, #0
    646e:	d1fb      	bne.n	6468 <strlen+0x2>
    6470:	1a18      	subs	r0, r3, r0
    6472:	3801      	subs	r0, #1
    6474:	4770      	bx	lr

00006476 <strncmp>:
    6476:	b530      	push	{r4, r5, lr}
    6478:	b182      	cbz	r2, 649c <strncmp+0x26>
    647a:	1e45      	subs	r5, r0, #1
    647c:	3901      	subs	r1, #1
    647e:	f815 3f01 	ldrb.w	r3, [r5, #1]!
    6482:	f811 4f01 	ldrb.w	r4, [r1, #1]!
    6486:	42a3      	cmp	r3, r4
    6488:	d106      	bne.n	6498 <strncmp+0x22>
    648a:	43ec      	mvns	r4, r5
    648c:	4414      	add	r4, r2
    648e:	42e0      	cmn	r0, r4
    6490:	d001      	beq.n	6496 <strncmp+0x20>
    6492:	2b00      	cmp	r3, #0
    6494:	d1f3      	bne.n	647e <strncmp+0x8>
    6496:	461c      	mov	r4, r3
    6498:	1b18      	subs	r0, r3, r4
    649a:	bd30      	pop	{r4, r5, pc}
    649c:	4610      	mov	r0, r2
    649e:	bd30      	pop	{r4, r5, pc}

000064a0 <_strtol_r>:
    64a0:	e92d 47f0 	stmdb	sp!, {r4, r5, r6, r7, r8, r9, r10, lr}
    64a4:	460f      	mov	r7, r1
    64a6:	4680      	mov	r8, r0
    64a8:	483f      	ldr	r0, [pc, #252]	; (65a8 <_strtol_r+0x108>)
    64aa:	f8d0 9000 	ldr.w	r9, [r0]
    64ae:	463d      	mov	r5, r7
    64b0:	f815 4b01 	ldrb.w	r4, [r5], #1
    64b4:	eb09 0004 	add.w	r0, r9, r4
    64b8:	7840      	ldrb	r0, [r0, #1]
    64ba:	f000 0008 	and.w	r0, r0, #8
    64be:	f000 06ff 	and.w	r6, r0, #255	; 0xff
    64c2:	b108      	cbz	r0, 64c8 <_strtol_r+0x28>
    64c4:	462f      	mov	r7, r5
    64c6:	e7f2      	b.n	64ae <_strtol_r+0xe>
    64c8:	2c2d      	cmp	r4, #45	; 0x2d
    64ca:	d103      	bne.n	64d4 <_strtol_r+0x34>
    64cc:	1cbd      	adds	r5, r7, #2
    64ce:	787c      	ldrb	r4, [r7, #1]
    64d0:	2601      	movs	r6, #1
    64d2:	e003      	b.n	64dc <_strtol_r+0x3c>
    64d4:	2c2b      	cmp	r4, #43	; 0x2b
    64d6:	bf04      	itt	eq
    64d8:	787c      	ldrbeq	r4, [r7, #1]
    64da:	1cbd      	addeq	r5, r7, #2
    64dc:	b113      	cbz	r3, 64e4 <_strtol_r+0x44>
    64de:	2b10      	cmp	r3, #16
    64e0:	d10a      	bne.n	64f8 <_strtol_r+0x58>
    64e2:	e05b      	b.n	659c <_strtol_r+0xfc>
    64e4:	2c30      	cmp	r4, #48	; 0x30
    64e6:	d157      	bne.n	6598 <_strtol_r+0xf8>
    64e8:	7828      	ldrb	r0, [r5, #0]
    64ea:	f000 00df 	and.w	r0, r0, #223	; 0xdf
    64ee:	2858      	cmp	r0, #88	; 0x58
    64f0:	d14d      	bne.n	658e <_strtol_r+0xee>
    64f2:	786c      	ldrb	r4, [r5, #1]
    64f4:	2310      	movs	r3, #16
    64f6:	3502      	adds	r5, #2
    64f8:	2e00      	cmp	r6, #0
    64fa:	bf14      	ite	ne
    64fc:	f04f 4c00 	movne.w	r12, #2147483648	; 0x80000000
    6500:	f06f 4c00 	mvneq.w	r12, #2147483648	; 0x80000000
    6504:	fbbc faf3 	udiv	r10, r12, r3
    6508:	2700      	movs	r7, #0
    650a:	4638      	mov	r0, r7
    650c:	fb03 cc1a 	mls	r12, r3, r10, r12
    6510:	eb09 0e04 	add.w	lr, r9, r4
    6514:	f89e e001 	ldrb.w	lr, [lr, #1]
    6518:	f01e 0f04 	tst.w	lr, #4
    651c:	d001      	beq.n	6522 <_strtol_r+0x82>
    651e:	3c30      	subs	r4, #48	; 0x30
    6520:	e00b      	b.n	653a <_strtol_r+0x9a>
    6522:	f01e 0e03 	ands.w	lr, lr, #3
    6526:	d01b      	beq.n	6560 <_strtol_r+0xc0>
    6528:	f1be 0f01 	cmp.w	lr, #1
    652c:	bf0c      	ite	eq
    652e:	f04f 0e37 	moveq.w	lr, #55	; 0x37
    6532:	f04f 0e57 	movne.w	lr, #87	; 0x57
    6536:	ebce 0404 	rsb	r4, lr, r4
    653a:	42a3      	cmp	r3, r4
    653c:	dd10      	ble.n	6560 <_strtol_r+0xc0>
    653e:	f1b7 3fff 	cmp.w	r7, #4294967295
    6542:	d00a      	beq.n	655a <_strtol_r+0xba>
    6544:	4550      	cmp	r0, r10
    6546:	d806      	bhi.n	6556 <_strtol_r+0xb6>
    6548:	d101      	bne.n	654e <_strtol_r+0xae>
    654a:	4564      	cmp	r4, r12
    654c:	dc03      	bgt.n	6556 <_strtol_r+0xb6>
    654e:	fb03 4000 	mla	r0, r3, r0, r4
    6552:	2701      	movs	r7, #1
    6554:	e001      	b.n	655a <_strtol_r+0xba>
    6556:	f04f 37ff 	mov.w	r7, #4294967295
    655a:	f815 4b01 	ldrb.w	r4, [r5], #1
    655e:	e7d7      	b.n	6510 <_strtol_r+0x70>
    6560:	1c7b      	adds	r3, r7, #1
    6562:	d10c      	bne.n	657e <_strtol_r+0xde>
    6564:	2e00      	cmp	r6, #0
    6566:	f04f 0322 	mov.w	r3, #34	; 0x22
    656a:	bf14      	ite	ne
    656c:	f04f 4000 	movne.w	r0, #2147483648	; 0x80000000
    6570:	f06f 4000 	mvneq.w	r0, #2147483648	; 0x80000000
    6574:	f8c8 3000 	str.w	r3, [r8]
    6578:	b92a      	cbnz	r2, 6586 <_strtol_r+0xe6>
    657a:	e8bd 87f0 	ldmia.w	sp!, {r4, r5, r6, r7, r8, r9, r10, pc}
    657e:	b106      	cbz	r6, 6582 <_strtol_r+0xe2>
    6580:	4240      	negs	r0, r0
    6582:	b172      	cbz	r2, 65a2 <_strtol_r+0x102>
    6584:	b107      	cbz	r7, 6588 <_strtol_r+0xe8>
    6586:	1e69      	subs	r1, r5, #1
    6588:	6011      	str	r1, [r2, #0]
    658a:	e8bd 87f0 	ldmia.w	sp!, {r4, r5, r6, r7, r8, r9, r10, pc}
    658e:	2430      	movs	r4, #48	; 0x30
    6590:	2b00      	cmp	r3, #0
    6592:	d1b1      	bne.n	64f8 <_strtol_r+0x58>
    6594:	2308      	movs	r3, #8
    6596:	e7af      	b.n	64f8 <_strtol_r+0x58>
    6598:	230a      	movs	r3, #10
    659a:	e7ad      	b.n	64f8 <_strtol_r+0x58>
    659c:	2c30      	cmp	r4, #48	; 0x30
    659e:	d0a3      	beq.n	64e8 <_strtol_r+0x48>
    65a0:	e7aa      	b.n	64f8 <_strtol_r+0x58>
    65a2:	e8bd 87f0 	ldmia.w	sp!, {r4, r5, r6, r7, r8, r9, r10, pc}
    65a6:	bf00      	nop
    65a8:	10000154 	.word	0x10000154

000065ac <_strtoul_r>:
    65ac:	e92d 47f0 	stmdb	sp!, {r4, r5, r6, r7, r8, r9, r10, lr}
    65b0:	460e      	mov	r6, r1
    65b2:	4680      	mov	r8, r0
    65b4:	483b      	ldr	r0, [pc, #236]	; (66a4 <_strtoul_r+0xf8>)
    65b6:	f8d0 9000 	ldr.w	r9, [r0]
    65ba:	4635      	mov	r5, r6
    65bc:	f815 4b01 	ldrb.w	r4, [r5], #1
    65c0:	eb09 0004 	add.w	r0, r9, r4
    65c4:	7840      	ldrb	r0, [r0, #1]
    65c6:	f000 0008 	and.w	r0, r0, #8
    65ca:	f000 07ff 	and.w	r7, r0, #255	; 0xff
    65ce:	b108      	cbz	r0, 65d4 <_strtoul_r+0x28>
    65d0:	462e      	mov	r6, r5
    65d2:	e7f2      	b.n	65ba <_strtoul_r+0xe>
    65d4:	2c2d      	cmp	r4, #45	; 0x2d
    65d6:	d103      	bne.n	65e0 <_strtoul_r+0x34>
    65d8:	1cb5      	adds	r5, r6, #2
    65da:	7874      	ldrb	r4, [r6, #1]
    65dc:	2701      	movs	r7, #1
    65de:	e003      	b.n	65e8 <_strtoul_r+0x3c>
    65e0:	2c2b      	cmp	r4, #43	; 0x2b
    65e2:	bf04      	itt	eq
    65e4:	7874      	ldrbeq	r4, [r6, #1]
    65e6:	1cb5      	addeq	r5, r6, #2
    65e8:	b113      	cbz	r3, 65f0 <_strtoul_r+0x44>
    65ea:	2b10      	cmp	r3, #16
    65ec:	d10a      	bne.n	6604 <_strtoul_r+0x58>
    65ee:	e053      	b.n	6698 <_strtoul_r+0xec>
    65f0:	2c30      	cmp	r4, #48	; 0x30
    65f2:	d14f      	bne.n	6694 <_strtoul_r+0xe8>
    65f4:	7828      	ldrb	r0, [r5, #0]
    65f6:	f000 00df 	and.w	r0, r0, #223	; 0xdf
    65fa:	2858      	cmp	r0, #88	; 0x58
    65fc:	d145      	bne.n	668a <_strtoul_r+0xde>
    65fe:	786c      	ldrb	r4, [r5, #1]
    6600:	2310      	movs	r3, #16
    6602:	3502      	adds	r5, #2
    6604:	f04f 3cff 	mov.w	r12, #4294967295
    6608:	fbbc fcf3 	udiv	r12, r12, r3
    660c:	fb03 fa0c 	mul.w	r10, r3, r12
    6610:	2600      	movs	r6, #0
    6612:	ea6f 0a0a 	mvn.w	r10, r10
    6616:	4630      	mov	r0, r6
    6618:	eb09 0e04 	add.w	lr, r9, r4
    661c:	f89e e001 	ldrb.w	lr, [lr, #1]
    6620:	f01e 0f04 	tst.w	lr, #4
    6624:	d001      	beq.n	662a <_strtoul_r+0x7e>
    6626:	3c30      	subs	r4, #48	; 0x30
    6628:	e00b      	b.n	6642 <_strtoul_r+0x96>
    662a:	f01e 0e03 	ands.w	lr, lr, #3
    662e:	d01a      	beq.n	6666 <_strtoul_r+0xba>
    6630:	f1be 0f01 	cmp.w	lr, #1
    6634:	bf0c      	ite	eq
    6636:	f04f 0e37 	moveq.w	lr, #55	; 0x37
    663a:	f04f 0e57 	movne.w	lr, #87	; 0x57
    663e:	ebce 0404 	rsb	r4, lr, r4
    6642:	42a3      	cmp	r3, r4
    6644:	dd0f      	ble.n	6666 <_strtoul_r+0xba>
    6646:	2e00      	cmp	r6, #0
    6648:	db08      	blt.n	665c <_strtoul_r+0xb0>
    664a:	4560      	cmp	r0, r12
    664c:	d806      	bhi.n	665c <_strtoul_r+0xb0>
    664e:	d101      	bne.n	6654 <_strtoul_r+0xa8>
    6650:	4554      	cmp	r4, r10
    6652:	dc03      	bgt.n	665c <_strtoul_r+0xb0>
    6654:	fb03 4000 	mla	r0, r3, r0, r4
    6658:	2601      	movs	r6, #1
    665a:	e001      	b.n	6660 <_strtoul_r+0xb4>
    665c:	f04f 36ff 	mov.w	r6, #4294967295
    6660:	f815 4b01 	ldrb.w	r4, [r5], #1
    6664:	e7d8      	b.n	6618 <_strtoul_r+0x6c>
    6666:	2e00      	cmp	r6, #0
    6668:	da07      	bge.n	667a <_strtoul_r+0xce>
    666a:	2322      	movs	r3, #34	; 0x22
    666c:	f8c8 3000 	str.w	r3, [r8]
    6670:	f04f 30ff 	mov.w	r0, #4294967295
    6674:	b92a      	cbnz	r2, 6682 <_strtoul_r+0xd6>
    6676:	e8bd 87f0 	ldmia.w	sp!, {r4, r5, r6, r7, r8, r9, r10, pc}
    667a:	b107      	cbz	r7, 667e <_strtoul_r+0xd2>
    667c:	4240      	negs	r0, r0
    667e:	b172      	cbz	r2, 669e <_strtoul_r+0xf2>
    6680:	b106      	cbz	r6, 6684 <_strtoul_r+0xd8>
    6682:	1e69      	subs	r1, r5, #1
    6684:	6011      	str	r1, [r2, #0]
    6686:	e8bd 87f0 	ldmia.w	sp!, {r4, r5, r6, r7, r8, r9, r10, pc}
    668a:	2430      	movs	r4, #48	; 0x30
    668c:	2b00      	cmp	r3, #0
    668e:	d1b9      	bne.n	6604 <_strtoul_r+0x58>
    6690:	2308      	movs	r3, #8
    6692:	e7b7      	b.n	6604 <_strtoul_r+0x58>
    6694:	230a      	movs	r3, #10
    6696:	e7b5      	b.n	6604 <_strtoul_r+0x58>
    6698:	2c30      	cmp	r4, #48	; 0x30
    669a:	d0ab      	beq.n	65f4 <_strtoul_r+0x48>
    669c:	e7b2      	b.n	6604 <_strtoul_r+0x58>
    669e:	e8bd 87f0 	ldmia.w	sp!, {r4, r5, r6, r7, r8, r9, r10, pc}
    66a2:	bf00      	nop
    66a4:	10000154 	.word	0x10000154

000066a8 <__submore>:
    66a8:	e92d 41f0 	stmdb	sp!, {r4, r5, r6, r7, r8, lr}
    66ac:	460c      	mov	r4, r1
    66ae:	6b49      	ldr	r1, [r1, #52]	; 0x34
    66b0:	f104 0344 	add.w	r3, r4, #68	; 0x44
    66b4:	4299      	cmp	r1, r3
    66b6:	d11a      	bne.n	66ee <__submore+0x46>
    66b8:	f44f 6180 	mov.w	r1, #1024	; 0x400
    66bc:	f7ff f87a 	bl	57b4 <_malloc_r>
    66c0:	b918      	cbnz	r0, 66ca <__submore+0x22>
    66c2:	f04f 30ff 	mov.w	r0, #4294967295
    66c6:	e8bd 81f0 	ldmia.w	sp!, {r4, r5, r6, r7, r8, pc}
    66ca:	f44f 6380 	mov.w	r3, #1024	; 0x400
    66ce:	63a3      	str	r3, [r4, #56]	; 0x38
    66d0:	f894 3046 	ldrb.w	r3, [r4, #70]	; 0x46
    66d4:	6360      	str	r0, [r4, #52]	; 0x34
    66d6:	f880 33ff 	strb.w	r3, [r0, #1023]	; 0x3ff
    66da:	f894 3045 	ldrb.w	r3, [r4, #69]	; 0x45
    66de:	f200 30fd 	addw	r0, r0, #1021	; 0x3fd
    66e2:	7043      	strb	r3, [r0, #1]
    66e4:	f894 3044 	ldrb.w	r3, [r4, #68]	; 0x44
    66e8:	7003      	strb	r3, [r0, #0]
    66ea:	6020      	str	r0, [r4, #0]
    66ec:	e012      	b.n	6714 <__submore+0x6c>
    66ee:	6ba6      	ldr	r6, [r4, #56]	; 0x38
    66f0:	0077      	lsls	r7, r6, #1
    66f2:	463a      	mov	r2, r7
    66f4:	f000 f960 	bl	69b8 <_realloc_r>
    66f8:	4605      	mov	r5, r0
    66fa:	2800      	cmp	r0, #0
    66fc:	d0e1      	beq.n	66c2 <__submore+0x1a>
    66fe:	eb00 0806 	add.w	r8, r0, r6
    6702:	4601      	mov	r1, r0
    6704:	4632      	mov	r2, r6
    6706:	4640      	mov	r0, r8
    6708:	f7fe ffe2 	bl	56d0 <memcpy>
    670c:	f8c4 8000 	str.w	r8, [r4]
    6710:	6365      	str	r5, [r4, #52]	; 0x34
    6712:	63a7      	str	r7, [r4, #56]	; 0x38
    6714:	2000      	movs	r0, #0
    6716:	e8bd 81f0 	ldmia.w	sp!, {r4, r5, r6, r7, r8, pc}
	...

0000671c <__swbuf_r>:
    671c:	b5f8      	push	{r3, r4, r5, r6, r7, lr}
    671e:	460f      	mov	r7, r1
    6720:	4614      	mov	r4, r2
    6722:	4606      	mov	r6, r0
    6724:	b118      	cbz	r0, 672e <__swbuf_r+0x12>
    6726:	6983      	ldr	r3, [r0, #24]
    6728:	b90b      	cbnz	r3, 672e <__swbuf_r+0x12>
    672a:	f7fe fdb3 	bl	5294 <__sinit>
    672e:	4b22      	ldr	r3, [pc, #136]	; (67b8 <__swbuf_r+0x9c>)
    6730:	429c      	cmp	r4, r3
    6732:	d101      	bne.n	6738 <__swbuf_r+0x1c>
    6734:	6874      	ldr	r4, [r6, #4]
    6736:	e008      	b.n	674a <__swbuf_r+0x2e>
    6738:	4b20      	ldr	r3, [pc, #128]	; (67bc <__swbuf_r+0xa0>)
    673a:	429c      	cmp	r4, r3
    673c:	d101      	bne.n	6742 <__swbuf_r+0x26>
    673e:	68b4      	ldr	r4, [r6, #8]
    6740:	e003      	b.n	674a <__swbuf_r+0x2e>
    6742:	4b1f      	ldr	r3, [pc, #124]	; (67c0 <__swbuf_r+0xa4>)
    6744:	429c      	cmp	r4, r3
    6746:	bf08      	it	eq
    6748:	68f4      	ldreq	r4, [r6, #12]
    674a:	69a3      	ldr	r3, [r4, #24]
    674c:	60a3      	str	r3, [r4, #8]
    674e:	89a3      	ldrh	r3, [r4, #12]
    6750:	071a      	lsls	r2, r3, #28
    6752:	d509      	bpl.n	6768 <__swbuf_r+0x4c>
    6754:	6923      	ldr	r3, [r4, #16]
    6756:	b13b      	cbz	r3, 6768 <__swbuf_r+0x4c>
    6758:	6823      	ldr	r3, [r4, #0]
    675a:	6920      	ldr	r0, [r4, #16]
    675c:	b2fd      	uxtb	r5, r7
    675e:	1a18      	subs	r0, r3, r0
    6760:	6963      	ldr	r3, [r4, #20]
    6762:	4298      	cmp	r0, r3
    6764:	db0f      	blt.n	6786 <__swbuf_r+0x6a>
    6766:	e008      	b.n	677a <__swbuf_r+0x5e>
    6768:	4621      	mov	r1, r4
    676a:	4630      	mov	r0, r6
    676c:	f000 f83c 	bl	67e8 <__swsetup_r>
    6770:	2800      	cmp	r0, #0
    6772:	d0f1      	beq.n	6758 <__swbuf_r+0x3c>
    6774:	f04f 30ff 	mov.w	r0, #4294967295
    6778:	bdf8      	pop	{r3, r4, r5, r6, r7, pc}
    677a:	4621      	mov	r1, r4
    677c:	4630      	mov	r0, r6
    677e:	f7fe fd0d 	bl	519c <_fflush_r>
    6782:	2800      	cmp	r0, #0
    6784:	d1f6      	bne.n	6774 <__swbuf_r+0x58>
    6786:	68a3      	ldr	r3, [r4, #8]
    6788:	3b01      	subs	r3, #1
    678a:	60a3      	str	r3, [r4, #8]
    678c:	6823      	ldr	r3, [r4, #0]
    678e:	1c5a      	adds	r2, r3, #1
    6790:	6022      	str	r2, [r4, #0]
    6792:	701f      	strb	r7, [r3, #0]
    6794:	6962      	ldr	r2, [r4, #20]
    6796:	1c43      	adds	r3, r0, #1
    6798:	4293      	cmp	r3, r2
    679a:	d004      	beq.n	67a6 <__swbuf_r+0x8a>
    679c:	89a3      	ldrh	r3, [r4, #12]
    679e:	07db      	lsls	r3, r3, #31
    67a0:	d507      	bpl.n	67b2 <__swbuf_r+0x96>
    67a2:	2d0a      	cmp	r5, #10
    67a4:	d105      	bne.n	67b2 <__swbuf_r+0x96>
    67a6:	4621      	mov	r1, r4
    67a8:	4630      	mov	r0, r6
    67aa:	f7fe fcf7 	bl	519c <_fflush_r>
    67ae:	2800      	cmp	r0, #0
    67b0:	d1e0      	bne.n	6774 <__swbuf_r+0x58>
    67b2:	4628      	mov	r0, r5
    67b4:	bdf8      	pop	{r3, r4, r5, r6, r7, pc}
    67b6:	bf00      	nop
    67b8:	000076dc 	.word	0x000076dc
    67bc:	000076fc 	.word	0x000076fc
    67c0:	0000771c 	.word	0x0000771c

000067c4 <_write_r>:
    67c4:	b538      	push	{r3, r4, r5, lr}
    67c6:	4c07      	ldr	r4, [pc, #28]	; (67e4 <_write_r+0x20>)
    67c8:	4605      	mov	r5, r0
    67ca:	4608      	mov	r0, r1
    67cc:	4611      	mov	r1, r2
    67ce:	2200      	movs	r2, #0
    67d0:	6022      	str	r2, [r4, #0]
    67d2:	461a      	mov	r2, r3
    67d4:	f7fd fa96 	bl	3d04 <_write>
    67d8:	1c43      	adds	r3, r0, #1
    67da:	d102      	bne.n	67e2 <_write_r+0x1e>
    67dc:	6823      	ldr	r3, [r4, #0]
    67de:	b103      	cbz	r3, 67e2 <_write_r+0x1e>
    67e0:	602b      	str	r3, [r5, #0]
    67e2:	bd38      	pop	{r3, r4, r5, pc}
    67e4:	10000a14 	.word	0x10000a14

000067e8 <__swsetup_r>:
    67e8:	4b31      	ldr	r3, [pc, #196]	; (68b0 <__swsetup_r+0xc8>)
    67ea:	b570      	push	{r4, r5, r6, lr}
    67ec:	681d      	ldr	r5, [r3, #0]
    67ee:	4606      	mov	r6, r0
    67f0:	460c      	mov	r4, r1
    67f2:	b125      	cbz	r5, 67fe <__swsetup_r+0x16>
    67f4:	69ab      	ldr	r3, [r5, #24]
    67f6:	b913      	cbnz	r3, 67fe <__swsetup_r+0x16>
    67f8:	4628      	mov	r0, r5
    67fa:	f7fe fd4b 	bl	5294 <__sinit>
    67fe:	4b2d      	ldr	r3, [pc, #180]	; (68b4 <__swsetup_r+0xcc>)
    6800:	429c      	cmp	r4, r3
    6802:	d101      	bne.n	6808 <__swsetup_r+0x20>
    6804:	686c      	ldr	r4, [r5, #4]
    6806:	e008      	b.n	681a <__swsetup_r+0x32>
    6808:	4b2b      	ldr	r3, [pc, #172]	; (68b8 <__swsetup_r+0xd0>)
    680a:	429c      	cmp	r4, r3
    680c:	d101      	bne.n	6812 <__swsetup_r+0x2a>
    680e:	68ac      	ldr	r4, [r5, #8]
    6810:	e003      	b.n	681a <__swsetup_r+0x32>
    6812:	4b2a      	ldr	r3, [pc, #168]	; (68bc <__swsetup_r+0xd4>)
    6814:	429c      	cmp	r4, r3
    6816:	bf08      	it	eq
    6818:	68ec      	ldreq	r4, [r5, #12]
    681a:	89a3      	ldrh	r3, [r4, #12]
    681c:	b29a      	uxth	r2, r3
    681e:	0711      	lsls	r1, r2, #28
    6820:	d41d      	bmi.n	685e <__swsetup_r+0x76>
    6822:	06d5      	lsls	r5, r2, #27
    6824:	d402      	bmi.n	682c <__swsetup_r+0x44>
    6826:	2209      	movs	r2, #9
    6828:	6032      	str	r2, [r6, #0]
    682a:	e038      	b.n	689e <__swsetup_r+0xb6>
    682c:	0750      	lsls	r0, r2, #29
    682e:	d512      	bpl.n	6856 <__swsetup_r+0x6e>
    6830:	6b61      	ldr	r1, [r4, #52]	; 0x34
    6832:	b141      	cbz	r1, 6846 <__swsetup_r+0x5e>
    6834:	f104 0344 	add.w	r3, r4, #68	; 0x44
    6838:	4299      	cmp	r1, r3
    683a:	d002      	beq.n	6842 <__swsetup_r+0x5a>
    683c:	4630      	mov	r0, r6
    683e:	f7fe ff75 	bl	572c <_free_r>
    6842:	2300      	movs	r3, #0
    6844:	6363      	str	r3, [r4, #52]	; 0x34
    6846:	89a3      	ldrh	r3, [r4, #12]
    6848:	f023 0324 	bic.w	r3, r3, #36	; 0x24
    684c:	81a3      	strh	r3, [r4, #12]
    684e:	2300      	movs	r3, #0
    6850:	6063      	str	r3, [r4, #4]
    6852:	6923      	ldr	r3, [r4, #16]
    6854:	6023      	str	r3, [r4, #0]
    6856:	89a3      	ldrh	r3, [r4, #12]
    6858:	f043 0308 	orr.w	r3, r3, #8
    685c:	81a3      	strh	r3, [r4, #12]
    685e:	6923      	ldr	r3, [r4, #16]
    6860:	b94b      	cbnz	r3, 6876 <__swsetup_r+0x8e>
    6862:	89a3      	ldrh	r3, [r4, #12]
    6864:	f403 7320 	and.w	r3, r3, #640	; 0x280
    6868:	f5b3 7f00 	cmp.w	r3, #512	; 0x200
    686c:	d003      	beq.n	6876 <__swsetup_r+0x8e>
    686e:	4621      	mov	r1, r4
    6870:	4630      	mov	r0, r6
    6872:	f7fe fec3 	bl	55fc <__smakebuf_r>
    6876:	89a3      	ldrh	r3, [r4, #12]
    6878:	f013 0201 	ands.w	r2, r3, #1
    687c:	d005      	beq.n	688a <__swsetup_r+0xa2>
    687e:	2200      	movs	r2, #0
    6880:	60a2      	str	r2, [r4, #8]
    6882:	6962      	ldr	r2, [r4, #20]
    6884:	4252      	negs	r2, r2
    6886:	61a2      	str	r2, [r4, #24]
    6888:	e003      	b.n	6892 <__swsetup_r+0xaa>
    688a:	0799      	lsls	r1, r3, #30
    688c:	bf58      	it	pl
    688e:	6962      	ldrpl	r2, [r4, #20]
    6890:	60a2      	str	r2, [r4, #8]
    6892:	6922      	ldr	r2, [r4, #16]
    6894:	b94a      	cbnz	r2, 68aa <__swsetup_r+0xc2>
    6896:	f003 0080 	and.w	r0, r3, #128	; 0x80
    689a:	b280      	uxth	r0, r0
    689c:	b130      	cbz	r0, 68ac <__swsetup_r+0xc4>
    689e:	f043 0340 	orr.w	r3, r3, #64	; 0x40
    68a2:	81a3      	strh	r3, [r4, #12]
    68a4:	f04f 30ff 	mov.w	r0, #4294967295
    68a8:	bd70      	pop	{r4, r5, r6, pc}
    68aa:	2000      	movs	r0, #0
    68ac:	bd70      	pop	{r4, r5, r6, pc}
    68ae:	bf00      	nop
    68b0:	10000150 	.word	0x10000150
    68b4:	000076dc 	.word	0x000076dc
    68b8:	000076fc 	.word	0x000076fc
    68bc:	0000771c 	.word	0x0000771c

000068c0 <_close_r>:
    68c0:	b538      	push	{r3, r4, r5, lr}
    68c2:	4c06      	ldr	r4, [pc, #24]	; (68dc <_close_r+0x1c>)
    68c4:	2300      	movs	r3, #0
    68c6:	4605      	mov	r5, r0
    68c8:	4608      	mov	r0, r1
    68ca:	6023      	str	r3, [r4, #0]
    68cc:	f7fd fa06 	bl	3cdc <_close>
    68d0:	1c43      	adds	r3, r0, #1
    68d2:	d102      	bne.n	68da <_close_r+0x1a>
    68d4:	6823      	ldr	r3, [r4, #0]
    68d6:	b103      	cbz	r3, 68da <_close_r+0x1a>
    68d8:	602b      	str	r3, [r5, #0]
    68da:	bd38      	pop	{r3, r4, r5, pc}
    68dc:	10000a14 	.word	0x10000a14

000068e0 <__sflags>:
    68e0:	780b      	ldrb	r3, [r1, #0]
    68e2:	b530      	push	{r4, r5, lr}
    68e4:	2b72      	cmp	r3, #114	; 0x72
    68e6:	d00e      	beq.n	6906 <__sflags+0x26>
    68e8:	2b77      	cmp	r3, #119	; 0x77
    68ea:	d007      	beq.n	68fc <__sflags+0x1c>
    68ec:	2b61      	cmp	r3, #97	; 0x61
    68ee:	d10e      	bne.n	690e <__sflags+0x2e>
    68f0:	f44f 7402 	mov.w	r4, #520	; 0x208
    68f4:	2301      	movs	r3, #1
    68f6:	f44f 7084 	mov.w	r0, #264	; 0x108
    68fa:	e01a      	b.n	6932 <__sflags+0x52>
    68fc:	f44f 64c0 	mov.w	r4, #1536	; 0x600
    6900:	2301      	movs	r3, #1
    6902:	2008      	movs	r0, #8
    6904:	e015      	b.n	6932 <__sflags+0x52>
    6906:	2400      	movs	r4, #0
    6908:	4623      	mov	r3, r4
    690a:	2004      	movs	r0, #4
    690c:	e011      	b.n	6932 <__sflags+0x52>
    690e:	2316      	movs	r3, #22
    6910:	6003      	str	r3, [r0, #0]
    6912:	2000      	movs	r0, #0
    6914:	bd30      	pop	{r4, r5, pc}
    6916:	2d62      	cmp	r5, #98	; 0x62
    6918:	d010      	beq.n	693c <__sflags+0x5c>
    691a:	2d78      	cmp	r5, #120	; 0x78
    691c:	d011      	beq.n	6942 <__sflags+0x62>
    691e:	2d2b      	cmp	r5, #43	; 0x2b
    6920:	d107      	bne.n	6932 <__sflags+0x52>
    6922:	f020 001c 	bic.w	r0, r0, #28
    6926:	f023 0303 	bic.w	r3, r3, #3
    692a:	f040 0010 	orr.w	r0, r0, #16
    692e:	f043 0302 	orr.w	r3, r3, #2
    6932:	f811 5f01 	ldrb.w	r5, [r1, #1]!
    6936:	2d00      	cmp	r5, #0
    6938:	d1ed      	bne.n	6916 <__sflags+0x36>
    693a:	e005      	b.n	6948 <__sflags+0x68>
    693c:	f443 3380 	orr.w	r3, r3, #65536	; 0x10000
    6940:	e7f7      	b.n	6932 <__sflags+0x52>
    6942:	f443 6300 	orr.w	r3, r3, #2048	; 0x800
    6946:	e7f4      	b.n	6932 <__sflags+0x52>
    6948:	4323      	orrs	r3, r4
    694a:	6013      	str	r3, [r2, #0]
    694c:	bd30      	pop	{r4, r5, pc}
	...

00006950 <_fstat_r>:
    6950:	b538      	push	{r3, r4, r5, lr}
    6952:	4c07      	ldr	r4, [pc, #28]	; (6970 <_fstat_r+0x20>)
    6954:	2300      	movs	r3, #0
    6956:	4605      	mov	r5, r0
    6958:	4608      	mov	r0, r1
    695a:	4611      	mov	r1, r2
    695c:	6023      	str	r3, [r4, #0]
    695e:	f7fd fa3d 	bl	3ddc <_fstat>
    6962:	1c43      	adds	r3, r0, #1
    6964:	d102      	bne.n	696c <_fstat_r+0x1c>
    6966:	6823      	ldr	r3, [r4, #0]
    6968:	b103      	cbz	r3, 696c <_fstat_r+0x1c>
    696a:	602b      	str	r3, [r5, #0]
    696c:	bd38      	pop	{r3, r4, r5, pc}
    696e:	bf00      	nop
    6970:	10000a14 	.word	0x10000a14

00006974 <_isatty_r>:
    6974:	b538      	push	{r3, r4, r5, lr}
    6976:	4c06      	ldr	r4, [pc, #24]	; (6990 <_isatty_r+0x1c>)
    6978:	2300      	movs	r3, #0
    697a:	4605      	mov	r5, r0
    697c:	4608      	mov	r0, r1
    697e:	6023      	str	r3, [r4, #0]
    6980:	f7fb fd2a 	bl	23d8 <__wrap__isatty>
    6984:	1c43      	adds	r3, r0, #1
    6986:	d102      	bne.n	698e <_isatty_r+0x1a>
    6988:	6823      	ldr	r3, [r4, #0]
    698a:	b103      	cbz	r3, 698e <_isatty_r+0x1a>
    698c:	602b      	str	r3, [r5, #0]
    698e:	bd38      	pop	{r3, r4, r5, pc}
    6990:	10000a14 	.word	0x10000a14

00006994 <_lseek_r>:
    6994:	b538      	push	{r3, r4, r5, lr}
    6996:	4c07      	ldr	r4, [pc, #28]	; (69b4 <_lseek_r+0x20>)
    6998:	4605      	mov	r5, r0
    699a:	4608      	mov	r0, r1
    699c:	4611      	mov	r1, r2
    699e:	2200      	movs	r2, #0
    69a0:	6022      	str	r2, [r4, #0]
    69a2:	461a      	mov	r2, r3
    69a4:	f7fd fa08 	bl	3db8 <_lseek>
    69a8:	1c43      	adds	r3, r0, #1
    69aa:	d102      	bne.n	69b2 <_lseek_r+0x1e>
    69ac:	6823      	ldr	r3, [r4, #0]
    69ae:	b103      	cbz	r3, 69b2 <_lseek_r+0x1e>
    69b0:	602b      	str	r3, [r5, #0]
    69b2:	bd38      	pop	{r3, r4, r5, pc}
    69b4:	10000a14 	.word	0x10000a14

000069b8 <_realloc_r>:
    69b8:	b5f8      	push	{r3, r4, r5, r6, r7, lr}
    69ba:	4607      	mov	r7, r0
    69bc:	4615      	mov	r5, r2
    69be:	460e      	mov	r6, r1
    69c0:	b921      	cbnz	r1, 69cc <_realloc_r+0x14>
    69c2:	4611      	mov	r1, r2
    69c4:	e8bd 40f8 	ldmia.w	sp!, {r3, r4, r5, r6, r7, lr}
    69c8:	f7fe bef4 	b.w	57b4 <_malloc_r>
    69cc:	b91a      	cbnz	r2, 69d6 <_realloc_r+0x1e>
    69ce:	f7fe fead 	bl	572c <_free_r>
    69d2:	4628      	mov	r0, r5
    69d4:	bdf8      	pop	{r3, r4, r5, r6, r7, pc}
    69d6:	f000 fb1f 	bl	7018 <_malloc_usable_size_r>
    69da:	4285      	cmp	r5, r0
    69dc:	d90e      	bls.n	69fc <_realloc_r+0x44>
    69de:	4629      	mov	r1, r5
    69e0:	4638      	mov	r0, r7
    69e2:	f7fe fee7 	bl	57b4 <_malloc_r>
    69e6:	4604      	mov	r4, r0
    69e8:	b150      	cbz	r0, 6a00 <_realloc_r+0x48>
    69ea:	4631      	mov	r1, r6
    69ec:	462a      	mov	r2, r5
    69ee:	f7fe fe6f 	bl	56d0 <memcpy>
    69f2:	4631      	mov	r1, r6
    69f4:	4638      	mov	r0, r7
    69f6:	f7fe fe99 	bl	572c <_free_r>
    69fa:	e001      	b.n	6a00 <_realloc_r+0x48>
    69fc:	4630      	mov	r0, r6
    69fe:	bdf8      	pop	{r3, r4, r5, r6, r7, pc}
    6a00:	4620      	mov	r0, r4
    6a02:	bdf8      	pop	{r3, r4, r5, r6, r7, pc}

00006a04 <__ssputs_r>:
    6a04:	e92d 47f0 	stmdb	sp!, {r4, r5, r6, r7, r8, r9, r10, lr}
    6a08:	688e      	ldr	r6, [r1, #8]
    6a0a:	4682      	mov	r10, r0
    6a0c:	429e      	cmp	r6, r3
    6a0e:	460c      	mov	r4, r1
    6a10:	4691      	mov	r9, r2
    6a12:	4698      	mov	r8, r3
    6a14:	d83e      	bhi.n	6a94 <__ssputs_r+0x90>
    6a16:	898a      	ldrh	r2, [r1, #12]
    6a18:	f412 6f90 	tst.w	r2, #1152	; 0x480
    6a1c:	d03a      	beq.n	6a94 <__ssputs_r+0x90>
    6a1e:	6825      	ldr	r5, [r4, #0]
    6a20:	6909      	ldr	r1, [r1, #16]
    6a22:	2302      	movs	r3, #2
    6a24:	1a6f      	subs	r7, r5, r1
    6a26:	6965      	ldr	r5, [r4, #20]
    6a28:	eb05 0545 	add.w	r5, r5, r5, lsl #1
    6a2c:	fb95 f5f3 	sdiv	r5, r5, r3
    6a30:	1c7b      	adds	r3, r7, #1
    6a32:	4443      	add	r3, r8
    6a34:	429d      	cmp	r5, r3
    6a36:	bf38      	it	cc
    6a38:	461d      	movcc	r5, r3
    6a3a:	0553      	lsls	r3, r2, #21
    6a3c:	d50f      	bpl.n	6a5e <__ssputs_r+0x5a>
    6a3e:	4629      	mov	r1, r5
    6a40:	f7fe feb8 	bl	57b4 <_malloc_r>
    6a44:	4606      	mov	r6, r0
    6a46:	b198      	cbz	r0, 6a70 <__ssputs_r+0x6c>
    6a48:	463a      	mov	r2, r7
    6a4a:	6921      	ldr	r1, [r4, #16]
    6a4c:	f7fe fe40 	bl	56d0 <memcpy>
    6a50:	89a3      	ldrh	r3, [r4, #12]
    6a52:	f423 6390 	bic.w	r3, r3, #1152	; 0x480
    6a56:	f043 0380 	orr.w	r3, r3, #128	; 0x80
    6a5a:	81a3      	strh	r3, [r4, #12]
    6a5c:	e013      	b.n	6a86 <__ssputs_r+0x82>
    6a5e:	462a      	mov	r2, r5
    6a60:	f7ff ffaa 	bl	69b8 <_realloc_r>
    6a64:	4606      	mov	r6, r0
    6a66:	b970      	cbnz	r0, 6a86 <__ssputs_r+0x82>
    6a68:	6921      	ldr	r1, [r4, #16]
    6a6a:	4650      	mov	r0, r10
    6a6c:	f7fe fe5e 	bl	572c <_free_r>
    6a70:	230c      	movs	r3, #12
    6a72:	f8ca 3000 	str.w	r3, [r10]
    6a76:	89a3      	ldrh	r3, [r4, #12]
    6a78:	f04f 30ff 	mov.w	r0, #4294967295
    6a7c:	f043 0340 	orr.w	r3, r3, #64	; 0x40
    6a80:	81a3      	strh	r3, [r4, #12]
    6a82:	e8bd 87f0 	ldmia.w	sp!, {r4, r5, r6, r7, r8, r9, r10, pc}
    6a86:	6126      	str	r6, [r4, #16]
    6a88:	443e      	add	r6, r7
    6a8a:	6026      	str	r6, [r4, #0]
    6a8c:	4646      	mov	r6, r8
    6a8e:	6165      	str	r5, [r4, #20]
    6a90:	1bed      	subs	r5, r5, r7
    6a92:	60a5      	str	r5, [r4, #8]
    6a94:	4546      	cmp	r6, r8
    6a96:	bf28      	it	cs
    6a98:	4646      	movcs	r6, r8
    6a9a:	4649      	mov	r1, r9
    6a9c:	4632      	mov	r2, r6
    6a9e:	6820      	ldr	r0, [r4, #0]
    6aa0:	f7fe fe21 	bl	56e6 <memmove>
    6aa4:	68a3      	ldr	r3, [r4, #8]
    6aa6:	2000      	movs	r0, #0
    6aa8:	1b9b      	subs	r3, r3, r6
    6aaa:	60a3      	str	r3, [r4, #8]
    6aac:	6823      	ldr	r3, [r4, #0]
    6aae:	441e      	add	r6, r3
    6ab0:	6026      	str	r6, [r4, #0]
    6ab2:	e8bd 87f0 	ldmia.w	sp!, {r4, r5, r6, r7, r8, r9, r10, pc}
	...

00006ab8 <_svfiprintf_r>:
    6ab8:	e92d 4ff0 	stmdb	sp!, {r4, r5, r6, r7, r8, r9, r10, r11, lr}
    6abc:	b09d      	sub	sp, #116	; 0x74
    6abe:	9303      	str	r3, [sp, #12]
    6ac0:	898b      	ldrh	r3, [r1, #12]
    6ac2:	4680      	mov	r8, r0
    6ac4:	061c      	lsls	r4, r3, #24
    6ac6:	460d      	mov	r5, r1
    6ac8:	4616      	mov	r6, r2
    6aca:	d50d      	bpl.n	6ae8 <_svfiprintf_r+0x30>
    6acc:	690b      	ldr	r3, [r1, #16]
    6ace:	b95b      	cbnz	r3, 6ae8 <_svfiprintf_r+0x30>
    6ad0:	2140      	movs	r1, #64	; 0x40
    6ad2:	f7fe fe6f 	bl	57b4 <_malloc_r>
    6ad6:	6028      	str	r0, [r5, #0]
    6ad8:	6128      	str	r0, [r5, #16]
    6ada:	b918      	cbnz	r0, 6ae4 <_svfiprintf_r+0x2c>
    6adc:	230c      	movs	r3, #12
    6ade:	f8c8 3000 	str.w	r3, [r8]
    6ae2:	e0cd      	b.n	6c80 <_svfiprintf_r+0x1c8>
    6ae4:	2340      	movs	r3, #64	; 0x40
    6ae6:	616b      	str	r3, [r5, #20]
    6ae8:	2300      	movs	r3, #0
    6aea:	9309      	str	r3, [sp, #36]	; 0x24
    6aec:	2320      	movs	r3, #32
    6aee:	f88d 3029 	strb.w	r3, [sp, #41]	; 0x29
    6af2:	f8df b19c 	ldr.w	r11, [pc, #412]	; 6c90 <_svfiprintf_r+0x1d8>
    6af6:	2330      	movs	r3, #48	; 0x30
    6af8:	f88d 302a 	strb.w	r3, [sp, #42]	; 0x2a
    6afc:	4637      	mov	r7, r6
    6afe:	463c      	mov	r4, r7
    6b00:	f814 3b01 	ldrb.w	r3, [r4], #1
    6b04:	b91b      	cbnz	r3, 6b0e <_svfiprintf_r+0x56>
    6b06:	ebb7 0906 	subs.w	r9, r7, r6
    6b0a:	d010      	beq.n	6b2e <_svfiprintf_r+0x76>
    6b0c:	e003      	b.n	6b16 <_svfiprintf_r+0x5e>
    6b0e:	2b25      	cmp	r3, #37	; 0x25
    6b10:	d0f9      	beq.n	6b06 <_svfiprintf_r+0x4e>
    6b12:	4627      	mov	r7, r4
    6b14:	e7f3      	b.n	6afe <_svfiprintf_r+0x46>
    6b16:	464b      	mov	r3, r9
    6b18:	4632      	mov	r2, r6
    6b1a:	4629      	mov	r1, r5
    6b1c:	4640      	mov	r0, r8
    6b1e:	f7ff ff71 	bl	6a04 <__ssputs_r>
    6b22:	3001      	adds	r0, #1
    6b24:	f000 80a7 	beq.w	6c76 <_svfiprintf_r+0x1be>
    6b28:	9b09      	ldr	r3, [sp, #36]	; 0x24
    6b2a:	444b      	add	r3, r9
    6b2c:	9309      	str	r3, [sp, #36]	; 0x24
    6b2e:	783b      	ldrb	r3, [r7, #0]
    6b30:	2b00      	cmp	r3, #0
    6b32:	f000 80a0 	beq.w	6c76 <_svfiprintf_r+0x1be>
    6b36:	2300      	movs	r3, #0
    6b38:	f04f 32ff 	mov.w	r2, #4294967295
    6b3c:	9304      	str	r3, [sp, #16]
    6b3e:	9307      	str	r3, [sp, #28]
    6b40:	9205      	str	r2, [sp, #20]
    6b42:	9306      	str	r3, [sp, #24]
    6b44:	f88d 3053 	strb.w	r3, [sp, #83]	; 0x53
    6b48:	931a      	str	r3, [sp, #104]	; 0x68
    6b4a:	2601      	movs	r6, #1
    6b4c:	2205      	movs	r2, #5
    6b4e:	7821      	ldrb	r1, [r4, #0]
    6b50:	484e      	ldr	r0, [pc, #312]	; (6c8c <_svfiprintf_r+0x1d4>)
    6b52:	f7fe fdaf 	bl	56b4 <memchr>
    6b56:	1c67      	adds	r7, r4, #1
    6b58:	9b04      	ldr	r3, [sp, #16]
    6b5a:	b138      	cbz	r0, 6b6c <_svfiprintf_r+0xb4>
    6b5c:	4a4b      	ldr	r2, [pc, #300]	; (6c8c <_svfiprintf_r+0x1d4>)
    6b5e:	463c      	mov	r4, r7
    6b60:	1a80      	subs	r0, r0, r2
    6b62:	fa06 f000 	lsl.w	r0, r6, r0
    6b66:	4318      	orrs	r0, r3
    6b68:	9004      	str	r0, [sp, #16]
    6b6a:	e7ef      	b.n	6b4c <_svfiprintf_r+0x94>
    6b6c:	06d9      	lsls	r1, r3, #27
    6b6e:	bf44      	itt	mi
    6b70:	2220      	movmi	r2, #32
    6b72:	f88d 2053 	strbmi.w	r2, [sp, #83]	; 0x53
    6b76:	071a      	lsls	r2, r3, #28
    6b78:	bf44      	itt	mi
    6b7a:	222b      	movmi	r2, #43	; 0x2b
    6b7c:	f88d 2053 	strbmi.w	r2, [sp, #83]	; 0x53
    6b80:	7822      	ldrb	r2, [r4, #0]
    6b82:	2a2a      	cmp	r2, #42	; 0x2a
    6b84:	d003      	beq.n	6b8e <_svfiprintf_r+0xd6>
    6b86:	9a07      	ldr	r2, [sp, #28]
    6b88:	2100      	movs	r1, #0
    6b8a:	200a      	movs	r0, #10
    6b8c:	e00b      	b.n	6ba6 <_svfiprintf_r+0xee>
    6b8e:	9a03      	ldr	r2, [sp, #12]
    6b90:	1d11      	adds	r1, r2, #4
    6b92:	6812      	ldr	r2, [r2, #0]
    6b94:	9103      	str	r1, [sp, #12]
    6b96:	2a00      	cmp	r2, #0
    6b98:	da10      	bge.n	6bbc <_svfiprintf_r+0x104>
    6b9a:	4252      	negs	r2, r2
    6b9c:	f043 0002 	orr.w	r0, r3, #2
    6ba0:	9207      	str	r2, [sp, #28]
    6ba2:	9004      	str	r0, [sp, #16]
    6ba4:	e00b      	b.n	6bbe <_svfiprintf_r+0x106>
    6ba6:	4627      	mov	r7, r4
    6ba8:	783b      	ldrb	r3, [r7, #0]
    6baa:	3401      	adds	r4, #1
    6bac:	3b30      	subs	r3, #48	; 0x30
    6bae:	2b09      	cmp	r3, #9
    6bb0:	d803      	bhi.n	6bba <_svfiprintf_r+0x102>
    6bb2:	fb00 3202 	mla	r2, r0, r2, r3
    6bb6:	2101      	movs	r1, #1
    6bb8:	e7f5      	b.n	6ba6 <_svfiprintf_r+0xee>
    6bba:	b101      	cbz	r1, 6bbe <_svfiprintf_r+0x106>
    6bbc:	9207      	str	r2, [sp, #28]
    6bbe:	783b      	ldrb	r3, [r7, #0]
    6bc0:	2b2e      	cmp	r3, #46	; 0x2e
    6bc2:	d11e      	bne.n	6c02 <_svfiprintf_r+0x14a>
    6bc4:	787b      	ldrb	r3, [r7, #1]
    6bc6:	2b2a      	cmp	r3, #42	; 0x2a
    6bc8:	d10a      	bne.n	6be0 <_svfiprintf_r+0x128>
    6bca:	9b03      	ldr	r3, [sp, #12]
    6bcc:	3702      	adds	r7, #2
    6bce:	1d1a      	adds	r2, r3, #4
    6bd0:	681b      	ldr	r3, [r3, #0]
    6bd2:	9203      	str	r2, [sp, #12]
    6bd4:	2b00      	cmp	r3, #0
    6bd6:	bfb8      	it	lt
    6bd8:	f04f 33ff 	movlt.w	r3, #4294967295
    6bdc:	9305      	str	r3, [sp, #20]
    6bde:	e010      	b.n	6c02 <_svfiprintf_r+0x14a>
    6be0:	2300      	movs	r3, #0
    6be2:	4619      	mov	r1, r3
    6be4:	9305      	str	r3, [sp, #20]
    6be6:	1c78      	adds	r0, r7, #1
    6be8:	240a      	movs	r4, #10
    6bea:	4607      	mov	r7, r0
    6bec:	783a      	ldrb	r2, [r7, #0]
    6bee:	3001      	adds	r0, #1
    6bf0:	3a30      	subs	r2, #48	; 0x30
    6bf2:	2a09      	cmp	r2, #9
    6bf4:	d803      	bhi.n	6bfe <_svfiprintf_r+0x146>
    6bf6:	fb04 2101 	mla	r1, r4, r1, r2
    6bfa:	2301      	movs	r3, #1
    6bfc:	e7f5      	b.n	6bea <_svfiprintf_r+0x132>
    6bfe:	b103      	cbz	r3, 6c02 <_svfiprintf_r+0x14a>
    6c00:	9105      	str	r1, [sp, #20]
    6c02:	2203      	movs	r2, #3
    6c04:	7839      	ldrb	r1, [r7, #0]
    6c06:	4822      	ldr	r0, [pc, #136]	; (6c90 <_svfiprintf_r+0x1d8>)
    6c08:	f7fe fd54 	bl	56b4 <memchr>
    6c0c:	b140      	cbz	r0, 6c20 <_svfiprintf_r+0x168>
    6c0e:	2340      	movs	r3, #64	; 0x40
    6c10:	ebcb 0000 	rsb	r0, r11, r0
    6c14:	fa03 f000 	lsl.w	r0, r3, r0
    6c18:	9b04      	ldr	r3, [sp, #16]
    6c1a:	3701      	adds	r7, #1
    6c1c:	4318      	orrs	r0, r3
    6c1e:	9004      	str	r0, [sp, #16]
    6c20:	7839      	ldrb	r1, [r7, #0]
    6c22:	2206      	movs	r2, #6
    6c24:	481b      	ldr	r0, [pc, #108]	; (6c94 <_svfiprintf_r+0x1dc>)
    6c26:	1c7e      	adds	r6, r7, #1
    6c28:	f88d 1028 	strb.w	r1, [sp, #40]	; 0x28
    6c2c:	f7fe fd42 	bl	56b4 <memchr>
    6c30:	b188      	cbz	r0, 6c56 <_svfiprintf_r+0x19e>
    6c32:	4b19      	ldr	r3, [pc, #100]	; (6c98 <_svfiprintf_r+0x1e0>)
    6c34:	b933      	cbnz	r3, 6c44 <_svfiprintf_r+0x18c>
    6c36:	9b03      	ldr	r3, [sp, #12]
    6c38:	3307      	adds	r3, #7
    6c3a:	f023 0307 	bic.w	r3, r3, #7
    6c3e:	3308      	adds	r3, #8
    6c40:	9303      	str	r3, [sp, #12]
    6c42:	e014      	b.n	6c6e <_svfiprintf_r+0x1b6>
    6c44:	ab03      	add	r3, sp, #12
    6c46:	9300      	str	r3, [sp, #0]
    6c48:	462a      	mov	r2, r5
    6c4a:	4b14      	ldr	r3, [pc, #80]	; (6c9c <_svfiprintf_r+0x1e4>)
    6c4c:	a904      	add	r1, sp, #16
    6c4e:	4640      	mov	r0, r8
    6c50:	f3af 8000 	nop.w
    6c54:	e007      	b.n	6c66 <_svfiprintf_r+0x1ae>
    6c56:	ab03      	add	r3, sp, #12
    6c58:	9300      	str	r3, [sp, #0]
    6c5a:	462a      	mov	r2, r5
    6c5c:	4b0f      	ldr	r3, [pc, #60]	; (6c9c <_svfiprintf_r+0x1e4>)
    6c5e:	a904      	add	r1, sp, #16
    6c60:	4640      	mov	r0, r8
    6c62:	f7fe ffbf 	bl	5be4 <_printf_i>
    6c66:	f1b0 3fff 	cmp.w	r0, #4294967295
    6c6a:	4682      	mov	r10, r0
    6c6c:	d003      	beq.n	6c76 <_svfiprintf_r+0x1be>
    6c6e:	9b09      	ldr	r3, [sp, #36]	; 0x24
    6c70:	4453      	add	r3, r10
    6c72:	9309      	str	r3, [sp, #36]	; 0x24
    6c74:	e742      	b.n	6afc <_svfiprintf_r+0x44>
    6c76:	89ab      	ldrh	r3, [r5, #12]
    6c78:	065b      	lsls	r3, r3, #25
    6c7a:	d401      	bmi.n	6c80 <_svfiprintf_r+0x1c8>
    6c7c:	9809      	ldr	r0, [sp, #36]	; 0x24
    6c7e:	e001      	b.n	6c84 <_svfiprintf_r+0x1cc>
    6c80:	f04f 30ff 	mov.w	r0, #4294967295
    6c84:	b01d      	add	sp, #116	; 0x74
    6c86:	e8bd 8ff0 	ldmia.w	sp!, {r4, r5, r6, r7, r8, r9, r10, r11, pc}
    6c8a:	bf00      	nop
    6c8c:	00007744 	.word	0x00007744
    6c90:	0000774a 	.word	0x0000774a
    6c94:	0000774e 	.word	0x0000774e
    6c98:	00000000 	.word	0x00000000
    6c9c:	00006a05 	.word	0x00006a05

00006ca0 <_sungetc_r>:
    6ca0:	1c4b      	adds	r3, r1, #1
    6ca2:	b570      	push	{r4, r5, r6, lr}
    6ca4:	460e      	mov	r6, r1
    6ca6:	4614      	mov	r4, r2
    6ca8:	d102      	bne.n	6cb0 <_sungetc_r+0x10>
    6caa:	f04f 30ff 	mov.w	r0, #4294967295
    6cae:	bd70      	pop	{r4, r5, r6, pc}
    6cb0:	8993      	ldrh	r3, [r2, #12]
    6cb2:	b2cd      	uxtb	r5, r1
    6cb4:	f023 0320 	bic.w	r3, r3, #32
    6cb8:	8193      	strh	r3, [r2, #12]
    6cba:	6b53      	ldr	r3, [r2, #52]	; 0x34
    6cbc:	6852      	ldr	r2, [r2, #4]
    6cbe:	b183      	cbz	r3, 6ce2 <_sungetc_r+0x42>
    6cc0:	6ba3      	ldr	r3, [r4, #56]	; 0x38
    6cc2:	429a      	cmp	r2, r3
    6cc4:	da07      	bge.n	6cd6 <_sungetc_r+0x36>
    6cc6:	6823      	ldr	r3, [r4, #0]
    6cc8:	1e5a      	subs	r2, r3, #1
    6cca:	6022      	str	r2, [r4, #0]
    6ccc:	f803 6c01 	strb.w	r6, [r3, #-1]
    6cd0:	6863      	ldr	r3, [r4, #4]
    6cd2:	3301      	adds	r3, #1
    6cd4:	e01f      	b.n	6d16 <_sungetc_r+0x76>
    6cd6:	4621      	mov	r1, r4
    6cd8:	f7ff fce6 	bl	66a8 <__submore>
    6cdc:	2800      	cmp	r0, #0
    6cde:	d0f2      	beq.n	6cc6 <_sungetc_r+0x26>
    6ce0:	e7e3      	b.n	6caa <_sungetc_r+0xa>
    6ce2:	6921      	ldr	r1, [r4, #16]
    6ce4:	6823      	ldr	r3, [r4, #0]
    6ce6:	b151      	cbz	r1, 6cfe <_sungetc_r+0x5e>
    6ce8:	4299      	cmp	r1, r3
    6cea:	d208      	bcs.n	6cfe <_sungetc_r+0x5e>
    6cec:	f813 1c01 	ldrb.w	r1, [r3, #-1]
    6cf0:	428d      	cmp	r5, r1
    6cf2:	d104      	bne.n	6cfe <_sungetc_r+0x5e>
    6cf4:	3b01      	subs	r3, #1
    6cf6:	3201      	adds	r2, #1
    6cf8:	6023      	str	r3, [r4, #0]
    6cfa:	6062      	str	r2, [r4, #4]
    6cfc:	e00c      	b.n	6d18 <_sungetc_r+0x78>
    6cfe:	63e3      	str	r3, [r4, #60]	; 0x3c
    6d00:	f104 0344 	add.w	r3, r4, #68	; 0x44
    6d04:	6363      	str	r3, [r4, #52]	; 0x34
    6d06:	2303      	movs	r3, #3
    6d08:	63a3      	str	r3, [r4, #56]	; 0x38
    6d0a:	4623      	mov	r3, r4
    6d0c:	6422      	str	r2, [r4, #64]	; 0x40
    6d0e:	f803 6f46 	strb.w	r6, [r3, #70]!
    6d12:	6023      	str	r3, [r4, #0]
    6d14:	2301      	movs	r3, #1
    6d16:	6063      	str	r3, [r4, #4]
    6d18:	4628      	mov	r0, r5
    6d1a:	bd70      	pop	{r4, r5, r6, pc}

00006d1c <__ssrefill_r>:
    6d1c:	b510      	push	{r4, lr}
    6d1e:	460c      	mov	r4, r1
    6d20:	6b49      	ldr	r1, [r1, #52]	; 0x34
    6d22:	b169      	cbz	r1, 6d40 <__ssrefill_r+0x24>
    6d24:	f104 0344 	add.w	r3, r4, #68	; 0x44
    6d28:	4299      	cmp	r1, r3
    6d2a:	d001      	beq.n	6d30 <__ssrefill_r+0x14>
    6d2c:	f7fe fcfe 	bl	572c <_free_r>
    6d30:	6c23      	ldr	r3, [r4, #64]	; 0x40
    6d32:	2000      	movs	r0, #0
    6d34:	6360      	str	r0, [r4, #52]	; 0x34
    6d36:	6063      	str	r3, [r4, #4]
    6d38:	b113      	cbz	r3, 6d40 <__ssrefill_r+0x24>
    6d3a:	6be3      	ldr	r3, [r4, #60]	; 0x3c
    6d3c:	6023      	str	r3, [r4, #0]
    6d3e:	bd10      	pop	{r4, pc}
    6d40:	6923      	ldr	r3, [r4, #16]
    6d42:	f04f 30ff 	mov.w	r0, #4294967295
    6d46:	6023      	str	r3, [r4, #0]
    6d48:	2300      	movs	r3, #0
    6d4a:	6063      	str	r3, [r4, #4]
    6d4c:	89a3      	ldrh	r3, [r4, #12]
    6d4e:	f043 0320 	orr.w	r3, r3, #32
    6d52:	81a3      	strh	r3, [r4, #12]
    6d54:	bd10      	pop	{r4, pc}
	...

00006d58 <__ssvfiscanf_r>:
    6d58:	e92d 4ff0 	stmdb	sp!, {r4, r5, r6, r7, r8, r9, r10, r11, lr}
    6d5c:	f8df 9290 	ldr.w	r9, [pc, #656]	; 6ff0 <__ssvfiscanf_r+0x298>
    6d60:	4607      	mov	r7, r0
    6d62:	460c      	mov	r4, r1
    6d64:	46ca      	mov	r10, r9
    6d66:	f5ad 7d25 	sub.w	sp, sp, #660	; 0x294
    6d6a:	9301      	str	r3, [sp, #4]
    6d6c:	2300      	movs	r3, #0
    6d6e:	9346      	str	r3, [sp, #280]	; 0x118
    6d70:	9347      	str	r3, [sp, #284]	; 0x11c
    6d72:	4b9b      	ldr	r3, [pc, #620]	; (6fe0 <__ssvfiscanf_r+0x288>)
    6d74:	f10d 080c 	add.w	r8, sp, #12
    6d78:	93a2      	str	r3, [sp, #648]	; 0x288
    6d7a:	4b9a      	ldr	r3, [pc, #616]	; (6fe4 <__ssvfiscanf_r+0x28c>)
    6d7c:	f8df b268 	ldr.w	r11, [pc, #616]	; 6fe8 <__ssvfiscanf_r+0x290>
    6d80:	f8cd 8120 	str.w	r8, [sp, #288]	; 0x120
    6d84:	93a3      	str	r3, [sp, #652]	; 0x28c
    6d86:	7815      	ldrb	r5, [r2, #0]
    6d88:	2d00      	cmp	r5, #0
    6d8a:	f000 8120 	beq.w	6fce <__ssvfiscanf_r+0x276>
    6d8e:	f8d9 3000 	ldr.w	r3, [r9]
    6d92:	442b      	add	r3, r5
    6d94:	785b      	ldrb	r3, [r3, #1]
    6d96:	f003 0308 	and.w	r3, r3, #8
    6d9a:	f003 01ff 	and.w	r1, r3, #255	; 0xff
    6d9e:	b1f3      	cbz	r3, 6dde <__ssvfiscanf_r+0x86>
    6da0:	6863      	ldr	r3, [r4, #4]
    6da2:	2b00      	cmp	r3, #0
    6da4:	dd10      	ble.n	6dc8 <__ssvfiscanf_r+0x70>
    6da6:	6823      	ldr	r3, [r4, #0]
    6da8:	f8da 0000 	ldr.w	r0, [r10]
    6dac:	7819      	ldrb	r1, [r3, #0]
    6dae:	4401      	add	r1, r0
    6db0:	7849      	ldrb	r1, [r1, #1]
    6db2:	070d      	lsls	r5, r1, #28
    6db4:	d510      	bpl.n	6dd8 <__ssvfiscanf_r+0x80>
    6db6:	9947      	ldr	r1, [sp, #284]	; 0x11c
    6db8:	3301      	adds	r3, #1
    6dba:	3101      	adds	r1, #1
    6dbc:	9147      	str	r1, [sp, #284]	; 0x11c
    6dbe:	6861      	ldr	r1, [r4, #4]
    6dc0:	6023      	str	r3, [r4, #0]
    6dc2:	3901      	subs	r1, #1
    6dc4:	6061      	str	r1, [r4, #4]
    6dc6:	e7eb      	b.n	6da0 <__ssvfiscanf_r+0x48>
    6dc8:	9ba3      	ldr	r3, [sp, #652]	; 0x28c
    6dca:	4621      	mov	r1, r4
    6dcc:	4638      	mov	r0, r7
    6dce:	9200      	str	r2, [sp, #0]
    6dd0:	4798      	blx	r3
    6dd2:	9a00      	ldr	r2, [sp, #0]
    6dd4:	2800      	cmp	r0, #0
    6dd6:	d0e6      	beq.n	6da6 <__ssvfiscanf_r+0x4e>
    6dd8:	1c56      	adds	r6, r2, #1
    6dda:	4632      	mov	r2, r6
    6ddc:	e7d3      	b.n	6d86 <__ssvfiscanf_r+0x2e>
    6dde:	2d25      	cmp	r5, #37	; 0x25
    6de0:	f102 0601 	add.w	r6, r2, #1
    6de4:	d14b      	bne.n	6e7e <__ssvfiscanf_r+0x126>
    6de6:	9143      	str	r1, [sp, #268]	; 0x10c
    6de8:	9145      	str	r1, [sp, #276]	; 0x114
    6dea:	7853      	ldrb	r3, [r2, #1]
    6dec:	2b2a      	cmp	r3, #42	; 0x2a
    6dee:	bf02      	ittt	eq
    6df0:	2310      	moveq	r3, #16
    6df2:	1c96      	addeq	r6, r2, #2
    6df4:	9343      	streq	r3, [sp, #268]	; 0x10c
    6df6:	220a      	movs	r2, #10
    6df8:	7831      	ldrb	r1, [r6, #0]
    6dfa:	4635      	mov	r5, r6
    6dfc:	f1a1 0330 	sub.w	r3, r1, #48	; 0x30
    6e00:	2b09      	cmp	r3, #9
    6e02:	f106 0601 	add.w	r6, r6, #1
    6e06:	d805      	bhi.n	6e14 <__ssvfiscanf_r+0xbc>
    6e08:	9b45      	ldr	r3, [sp, #276]	; 0x114
    6e0a:	fb02 1303 	mla	r3, r2, r3, r1
    6e0e:	3b30      	subs	r3, #48	; 0x30
    6e10:	9345      	str	r3, [sp, #276]	; 0x114
    6e12:	e7f1      	b.n	6df8 <__ssvfiscanf_r+0xa0>
    6e14:	2203      	movs	r2, #3
    6e16:	4874      	ldr	r0, [pc, #464]	; (6fe8 <__ssvfiscanf_r+0x290>)
    6e18:	f7fe fc4c 	bl	56b4 <memchr>
    6e1c:	b140      	cbz	r0, 6e30 <__ssvfiscanf_r+0xd8>
    6e1e:	4635      	mov	r5, r6
    6e20:	2301      	movs	r3, #1
    6e22:	ebcb 0000 	rsb	r0, r11, r0
    6e26:	fa03 f000 	lsl.w	r0, r3, r0
    6e2a:	9b43      	ldr	r3, [sp, #268]	; 0x10c
    6e2c:	4303      	orrs	r3, r0
    6e2e:	9343      	str	r3, [sp, #268]	; 0x10c
    6e30:	1c6e      	adds	r6, r5, #1
    6e32:	782d      	ldrb	r5, [r5, #0]
    6e34:	2d67      	cmp	r5, #103	; 0x67
    6e36:	d80f      	bhi.n	6e58 <__ssvfiscanf_r+0x100>
    6e38:	2d65      	cmp	r5, #101	; 0x65
    6e3a:	d278      	bcs.n	6f2e <__ssvfiscanf_r+0x1d6>
    6e3c:	2d5b      	cmp	r5, #91	; 0x5b
    6e3e:	d054      	beq.n	6eea <__ssvfiscanf_r+0x192>
    6e40:	d805      	bhi.n	6e4e <__ssvfiscanf_r+0xf6>
    6e42:	2d00      	cmp	r5, #0
    6e44:	f000 80c5 	beq.w	6fd2 <__ssvfiscanf_r+0x27a>
    6e48:	2d25      	cmp	r5, #37	; 0x25
    6e4a:	d018      	beq.n	6e7e <__ssvfiscanf_r+0x126>
    6e4c:	e071      	b.n	6f32 <__ssvfiscanf_r+0x1da>
    6e4e:	2d63      	cmp	r5, #99	; 0x63
    6e50:	d057      	beq.n	6f02 <__ssvfiscanf_r+0x1aa>
    6e52:	2d64      	cmp	r5, #100	; 0x64
    6e54:	d03f      	beq.n	6ed6 <__ssvfiscanf_r+0x17e>
    6e56:	e06c      	b.n	6f32 <__ssvfiscanf_r+0x1da>
    6e58:	2d70      	cmp	r5, #112	; 0x70
    6e5a:	d032      	beq.n	6ec2 <__ssvfiscanf_r+0x16a>
    6e5c:	d807      	bhi.n	6e6e <__ssvfiscanf_r+0x116>
    6e5e:	2d6e      	cmp	r5, #110	; 0x6e
    6e60:	d055      	beq.n	6f0e <__ssvfiscanf_r+0x1b6>
    6e62:	d83a      	bhi.n	6eda <__ssvfiscanf_r+0x182>
    6e64:	2d69      	cmp	r5, #105	; 0x69
    6e66:	d164      	bne.n	6f32 <__ssvfiscanf_r+0x1da>
    6e68:	2300      	movs	r3, #0
    6e6a:	9344      	str	r3, [sp, #272]	; 0x110
    6e6c:	e03b      	b.n	6ee6 <__ssvfiscanf_r+0x18e>
    6e6e:	2d75      	cmp	r5, #117	; 0x75
    6e70:	d031      	beq.n	6ed6 <__ssvfiscanf_r+0x17e>
    6e72:	2d78      	cmp	r5, #120	; 0x78
    6e74:	d029      	beq.n	6eca <__ssvfiscanf_r+0x172>
    6e76:	2d73      	cmp	r5, #115	; 0x73
    6e78:	d15b      	bne.n	6f32 <__ssvfiscanf_r+0x1da>
    6e7a:	2302      	movs	r3, #2
    6e7c:	e03f      	b.n	6efe <__ssvfiscanf_r+0x1a6>
    6e7e:	6863      	ldr	r3, [r4, #4]
    6e80:	2b00      	cmp	r3, #0
    6e82:	dd0d      	ble.n	6ea0 <__ssvfiscanf_r+0x148>
    6e84:	6823      	ldr	r3, [r4, #0]
    6e86:	781a      	ldrb	r2, [r3, #0]
    6e88:	4295      	cmp	r5, r2
    6e8a:	f040 80a0 	bne.w	6fce <__ssvfiscanf_r+0x276>
    6e8e:	3301      	adds	r3, #1
    6e90:	6862      	ldr	r2, [r4, #4]
    6e92:	6023      	str	r3, [r4, #0]
    6e94:	9b47      	ldr	r3, [sp, #284]	; 0x11c
    6e96:	3a01      	subs	r2, #1
    6e98:	3301      	adds	r3, #1
    6e9a:	6062      	str	r2, [r4, #4]
    6e9c:	9347      	str	r3, [sp, #284]	; 0x11c
    6e9e:	e79c      	b.n	6dda <__ssvfiscanf_r+0x82>
    6ea0:	9ba3      	ldr	r3, [sp, #652]	; 0x28c
    6ea2:	4621      	mov	r1, r4
    6ea4:	4638      	mov	r0, r7
    6ea6:	4798      	blx	r3
    6ea8:	2800      	cmp	r0, #0
    6eaa:	d0eb      	beq.n	6e84 <__ssvfiscanf_r+0x12c>
    6eac:	9846      	ldr	r0, [sp, #280]	; 0x118
    6eae:	2800      	cmp	r0, #0
    6eb0:	f000 808f 	beq.w	6fd2 <__ssvfiscanf_r+0x27a>
    6eb4:	89a3      	ldrh	r3, [r4, #12]
    6eb6:	f013 0f40 	tst.w	r3, #64	; 0x40
    6eba:	bf18      	it	ne
    6ebc:	f04f 30ff 	movne.w	r0, #4294967295
    6ec0:	e089      	b.n	6fd6 <__ssvfiscanf_r+0x27e>
    6ec2:	9b43      	ldr	r3, [sp, #268]	; 0x10c
    6ec4:	f043 0320 	orr.w	r3, r3, #32
    6ec8:	9343      	str	r3, [sp, #268]	; 0x10c
    6eca:	9b43      	ldr	r3, [sp, #268]	; 0x10c
    6ecc:	f443 7300 	orr.w	r3, r3, #512	; 0x200
    6ed0:	9343      	str	r3, [sp, #268]	; 0x10c
    6ed2:	2310      	movs	r3, #16
    6ed4:	e002      	b.n	6edc <__ssvfiscanf_r+0x184>
    6ed6:	230a      	movs	r3, #10
    6ed8:	e000      	b.n	6edc <__ssvfiscanf_r+0x184>
    6eda:	2308      	movs	r3, #8
    6edc:	2d6e      	cmp	r5, #110	; 0x6e
    6ede:	9344      	str	r3, [sp, #272]	; 0x110
    6ee0:	dd01      	ble.n	6ee6 <__ssvfiscanf_r+0x18e>
    6ee2:	2304      	movs	r3, #4
    6ee4:	e00b      	b.n	6efe <__ssvfiscanf_r+0x1a6>
    6ee6:	2303      	movs	r3, #3
    6ee8:	e009      	b.n	6efe <__ssvfiscanf_r+0x1a6>
    6eea:	4631      	mov	r1, r6
    6eec:	4640      	mov	r0, r8
    6eee:	f7ff f95d 	bl	61ac <__sccl>
    6ef2:	4606      	mov	r6, r0
    6ef4:	9b43      	ldr	r3, [sp, #268]	; 0x10c
    6ef6:	f043 0340 	orr.w	r3, r3, #64	; 0x40
    6efa:	9343      	str	r3, [sp, #268]	; 0x10c
    6efc:	2301      	movs	r3, #1
    6efe:	9349      	str	r3, [sp, #292]	; 0x124
    6f00:	e01b      	b.n	6f3a <__ssvfiscanf_r+0x1e2>
    6f02:	9b43      	ldr	r3, [sp, #268]	; 0x10c
    6f04:	f043 0340 	orr.w	r3, r3, #64	; 0x40
    6f08:	9343      	str	r3, [sp, #268]	; 0x10c
    6f0a:	2300      	movs	r3, #0
    6f0c:	e7f7      	b.n	6efe <__ssvfiscanf_r+0x1a6>
    6f0e:	9a43      	ldr	r2, [sp, #268]	; 0x10c
    6f10:	06d0      	lsls	r0, r2, #27
    6f12:	f53f af62 	bmi.w	6dda <__ssvfiscanf_r+0x82>
    6f16:	f012 0f01 	tst.w	r2, #1
    6f1a:	9a01      	ldr	r2, [sp, #4]
    6f1c:	9b47      	ldr	r3, [sp, #284]	; 0x11c
    6f1e:	f102 0104 	add.w	r1, r2, #4
    6f22:	9101      	str	r1, [sp, #4]
    6f24:	6812      	ldr	r2, [r2, #0]
    6f26:	bf14      	ite	ne
    6f28:	8013      	strhne	r3, [r2, #0]
    6f2a:	6013      	streq	r3, [r2, #0]
    6f2c:	e755      	b.n	6dda <__ssvfiscanf_r+0x82>
    6f2e:	2305      	movs	r3, #5
    6f30:	e7e5      	b.n	6efe <__ssvfiscanf_r+0x1a6>
    6f32:	2303      	movs	r3, #3
    6f34:	9349      	str	r3, [sp, #292]	; 0x124
    6f36:	230a      	movs	r3, #10
    6f38:	9344      	str	r3, [sp, #272]	; 0x110
    6f3a:	6863      	ldr	r3, [r4, #4]
    6f3c:	2b00      	cmp	r3, #0
    6f3e:	dd03      	ble.n	6f48 <__ssvfiscanf_r+0x1f0>
    6f40:	9b43      	ldr	r3, [sp, #268]	; 0x10c
    6f42:	0659      	lsls	r1, r3, #25
    6f44:	d511      	bpl.n	6f6a <__ssvfiscanf_r+0x212>
    6f46:	e018      	b.n	6f7a <__ssvfiscanf_r+0x222>
    6f48:	9ba3      	ldr	r3, [sp, #652]	; 0x28c
    6f4a:	4621      	mov	r1, r4
    6f4c:	4638      	mov	r0, r7
    6f4e:	4798      	blx	r3
    6f50:	2800      	cmp	r0, #0
    6f52:	d0f5      	beq.n	6f40 <__ssvfiscanf_r+0x1e8>
    6f54:	e7aa      	b.n	6eac <__ssvfiscanf_r+0x154>
    6f56:	9a47      	ldr	r2, [sp, #284]	; 0x11c
    6f58:	3201      	adds	r2, #1
    6f5a:	9247      	str	r2, [sp, #284]	; 0x11c
    6f5c:	6862      	ldr	r2, [r4, #4]
    6f5e:	3a01      	subs	r2, #1
    6f60:	2a00      	cmp	r2, #0
    6f62:	6062      	str	r2, [r4, #4]
    6f64:	dd13      	ble.n	6f8e <__ssvfiscanf_r+0x236>
    6f66:	3301      	adds	r3, #1
    6f68:	6023      	str	r3, [r4, #0]
    6f6a:	6823      	ldr	r3, [r4, #0]
    6f6c:	f8da 1000 	ldr.w	r1, [r10]
    6f70:	781a      	ldrb	r2, [r3, #0]
    6f72:	440a      	add	r2, r1
    6f74:	7852      	ldrb	r2, [r2, #1]
    6f76:	0712      	lsls	r2, r2, #28
    6f78:	d4ed      	bmi.n	6f56 <__ssvfiscanf_r+0x1fe>
    6f7a:	9b49      	ldr	r3, [sp, #292]	; 0x124
    6f7c:	2b02      	cmp	r3, #2
    6f7e:	dc0d      	bgt.n	6f9c <__ssvfiscanf_r+0x244>
    6f80:	ab01      	add	r3, sp, #4
    6f82:	4622      	mov	r2, r4
    6f84:	a943      	add	r1, sp, #268	; 0x10c
    6f86:	4638      	mov	r0, r7
    6f88:	f7fe ff52 	bl	5e30 <_scanf_chars>
    6f8c:	e019      	b.n	6fc2 <__ssvfiscanf_r+0x26a>
    6f8e:	9ba3      	ldr	r3, [sp, #652]	; 0x28c
    6f90:	4621      	mov	r1, r4
    6f92:	4638      	mov	r0, r7
    6f94:	4798      	blx	r3
    6f96:	2800      	cmp	r0, #0
    6f98:	d0e7      	beq.n	6f6a <__ssvfiscanf_r+0x212>
    6f9a:	e787      	b.n	6eac <__ssvfiscanf_r+0x154>
    6f9c:	2b04      	cmp	r3, #4
    6f9e:	dc06      	bgt.n	6fae <__ssvfiscanf_r+0x256>
    6fa0:	ab01      	add	r3, sp, #4
    6fa2:	4622      	mov	r2, r4
    6fa4:	a943      	add	r1, sp, #268	; 0x10c
    6fa6:	4638      	mov	r0, r7
    6fa8:	f7fe ffa8 	bl	5efc <_scanf_i>
    6fac:	e009      	b.n	6fc2 <__ssvfiscanf_r+0x26a>
    6fae:	4b0f      	ldr	r3, [pc, #60]	; (6fec <__ssvfiscanf_r+0x294>)
    6fb0:	2b00      	cmp	r3, #0
    6fb2:	f43f af12 	beq.w	6dda <__ssvfiscanf_r+0x82>
    6fb6:	ab01      	add	r3, sp, #4
    6fb8:	4622      	mov	r2, r4
    6fba:	a943      	add	r1, sp, #268	; 0x10c
    6fbc:	4638      	mov	r0, r7
    6fbe:	f3af 8000 	nop.w
    6fc2:	2801      	cmp	r0, #1
    6fc4:	d003      	beq.n	6fce <__ssvfiscanf_r+0x276>
    6fc6:	2802      	cmp	r0, #2
    6fc8:	f47f af07 	bne.w	6dda <__ssvfiscanf_r+0x82>
    6fcc:	e76e      	b.n	6eac <__ssvfiscanf_r+0x154>
    6fce:	9846      	ldr	r0, [sp, #280]	; 0x118
    6fd0:	e001      	b.n	6fd6 <__ssvfiscanf_r+0x27e>
    6fd2:	f04f 30ff 	mov.w	r0, #4294967295
    6fd6:	f50d 7d25 	add.w	sp, sp, #660	; 0x294
    6fda:	e8bd 8ff0 	ldmia.w	sp!, {r4, r5, r6, r7, r8, r9, r10, r11, pc}
    6fde:	bf00      	nop
    6fe0:	00006ca1 	.word	0x00006ca1
    6fe4:	00006d1d 	.word	0x00006d1d
    6fe8:	0000774a 	.word	0x0000774a
    6fec:	00000000 	.word	0x00000000
    6ff0:	10000154 	.word	0x10000154

00006ff4 <_read_r>:
    6ff4:	b538      	push	{r3, r4, r5, lr}
    6ff6:	4c07      	ldr	r4, [pc, #28]	; (7014 <_read_r+0x20>)
    6ff8:	4605      	mov	r5, r0
    6ffa:	4608      	mov	r0, r1
    6ffc:	4611      	mov	r1, r2
    6ffe:	2200      	movs	r2, #0
    7000:	6022      	str	r2, [r4, #0]
    7002:	461a      	mov	r2, r3
    7004:	f7fc fea4 	bl	3d50 <_read>
    7008:	1c43      	adds	r3, r0, #1
    700a:	d102      	bne.n	7012 <_read_r+0x1e>
    700c:	6823      	ldr	r3, [r4, #0]
    700e:	b103      	cbz	r3, 7012 <_read_r+0x1e>
    7010:	602b      	str	r3, [r5, #0]
    7012:	bd38      	pop	{r3, r4, r5, pc}
    7014:	10000a14 	.word	0x10000a14

00007018 <_malloc_usable_size_r>:
    7018:	f851 0c04 	ldr.w	r0, [r1, #-4]
    701c:	2800      	cmp	r0, #0
    701e:	bfbe      	ittt	lt
    7020:	1809      	addlt	r1, r1, r0
    7022:	f851 3c04 	ldrlt.w	r3, [r1, #-4]
    7026:	18c0      	addlt	r0, r0, r3
    7028:	3804      	subs	r0, #4
    702a:	4770      	bx	lr

0000702c <_init>:
    702c:	b5f8      	push	{r3, r4, r5, r6, r7, lr}
    702e:	bf00      	nop
    7030:	bcf8      	pop	{r3, r4, r5, r6, r7}
    7032:	bc08      	pop	{r3}
    7034:	469e      	mov	lr, r3
    7036:	4770      	bx	lr

00007038 <_fini>:
    7038:	b5f8      	push	{r3, r4, r5, r6, r7, lr}
    703a:	bf00      	nop
    703c:	bcf8      	pop	{r3, r4, r5, r6, r7}
    703e:	bc08      	pop	{r3}
    7040:	469e      	mov	lr, r3
    7042:	4770      	bx	lr

00007044 <vtable for std_msgs::Time>:
	...
    704c:	0171 0000 019d 0000 01e1 0000 01e9 0000     q...............

0000705c <vtable for rosserial_msgs::TopicInfo>:
	...
    7064:	0625 0000 03d9 0000 01f1 0000 01f9 0000     %...............

00007074 <vtable for rosserial_msgs::Log>:
	...
    707c:	05f5 0000 039d 0000 0201 0000 0209 0000     ................

0000708c <vtable for rosserial_msgs::RequestParamResponse>:
	...
    7094:	04f9 0000 06b5 0000 0211 0000 0219 0000     ................

000070a4 <vtable for std_msgs::Header>:
	...
    70ac:	0495 0000 030d 0000 0221 0000 0229 0000     ........!...)...

000070bc <vtable for fish_msgs::joystick_in>:
	...
    70c4:	0809 0000 0935 0000 0231 0000 0239 0000     ....5...1...9...

000070d4 <vtable for ros::NodeHandle_<MbedHardware, 25, 25, 512, 512>>:
	...
    70dc:	09d5 0000 1bcd 0000 0255 0000               ........U...

000070e8 <vtable for ros::Subscriber<fish_msgs::joystick_in>>:
	...
    70f0:	0881 0000 0241 0000 0245 0000 024d 0000     ....A...E...M...
    7100:	7473 5f64 736d 7367 542f 6d69 0065 0000     std_msgs/Time...
    7110:	6463 3137 3636 3763 6334 3535 6332 3133     cd7166c74c552c31
    7120:	6631 6362 3263 6566 6135 6237 3263 3938     1fbcc2fe5a7bc289
    7130:	0000 0000 6f72 7373 7265 6169 5f6c 736d     ....rosserial_ms
    7140:	7367 542f 706f 6369 6e49 6f66 0000 0000     gs/TopicInfo....
    7150:	6130 3564 6631 3838 6366 3434 3938 6632     0ad51f88fc44892f
    7160:	6338 3031 3836 3034 3737 3436 3036 3530     8c10684077646005
    7170:	0000 0000 6f72 7373 7265 6169 5f6c 736d     ....rosserial_ms
    7180:	7367 4c2f 676f 0000 3131 6261 3764 3133     gs/Log..11abd731
    7190:	3263 3935 3333 3632 6331 3664 3831 6233     c25933261cd6183b
    71a0:	3164 6432 3236 3539 0000 0000 6639 6530     d12d6295....9f0e
    71b0:	3839 6462 3661 3935 3138 3839 6436 6664     98bda65981986ddf
    71c0:	3335 6661 3761 3461 6530 3934 0000 0000     53afa7a40e49....
    71d0:	7473 5f64 736d 7367 482f 6165 6564 0072     std_msgs/Header.
    71e0:	3132 3637 6564 6163 6365 6362 3765 6138     2176decaecbce78a
    71f0:	6362 6233 3639 6665 3430 6639 6261 6465     bc3b96ef049fabed
    7200:	0000 0000 6966 6873 6d5f 6773 2f73 6f6a     ....fish_msgs/jo
    7210:	7379 6974 6b63 695f 006e 0000 3134 3932     ystick_in...4129
    7220:	3061 3163 3038 3566 3137 3439 6130 6230     a0c180f571940a0b
    7230:	3762 3363 6531 3435 3230 3461 0000 0000     b7c31e5402a4....
    7240:	654d 7373 6761 2065 7266 6d6f 6420 7665     Message from dev
    7250:	6369 2065 7264 706f 6570 3a64 6d20 7365     ice dropped: mes
    7260:	6173 6567 6c20 7261 6567 2072 6874 6e61     sage larger than
    7270:	6220 6675 6566 2e72 0000 0000 6f74 735f      buffer.....to_s
    7280:	7265 6169 006c 0000                         erial...

00007288 <rosserial_msgs::REQUESTPARAM>:
    7288:	6f72 7373 7265 6169 5f6c 736d 7367 522f     rosserial_msgs/R
    7298:	7165 6575 7473 6150 6172 006d               equestParam.

000072a4 <vtable for AjK::MODSERIAL>:
	...
    72ac:	2645 0000 26bd 0000 26e1 0000 26f1 0000     E&...&...&...&..
    72bc:	ffc0 ffff 0000 0000 3fcd 0000 4029 0000     .........?..)@..
    72cc:	3ff9 0000 4029 0000 4025 0000 4029 0000     .?..)@..%@..)@..
    72dc:	402d 0000 26ad 0000 26d9 0000 26f9 0000     -@...&...&...&..
    72ec:	26e9 0000 ffbc ffff 0000 0000 26b5 0000     .&...........&..
    72fc:	26d1 0000 4f4d 5344 5245 4149 204c 756d     .&..MODSERIAL mu
    730c:	7473 6820 7661 2065 2061 6564 6966 656e     st have a define
    731c:	2064 4155 5452 7420 206f 7566 636e 6974     d UART to functi
    732c:	6e6f 002e 6f63 6c75 2064 6f6e 2074 6970     on..could not pi
    733c:	6f6e 7475 0000 0000 6970 6d6e 7061 6d20     nout....pinmap m
    734c:	7369 6d2d 7461 6863 0000 0000 6970 6d6e     is-match....pinm
    735c:	7061 6e20 746f 6620 756f 646e 6620 726f     ap not found for
    736c:	7020 7265 7069 6568 6172 006c 6970 6d6e      peripheral.pinm
    737c:	7061 6e20 746f 6620 756f 646e 6620 726f     ap not found for
    738c:	6620 6e75 7463 6f69 006e 0000                function...

00007398 <us_interface>:
    7398:	393d 0000 394d 0000 397d 0000 398d 0000     =9..M9..}9...9..
    73a8:	3969 0000                                   i9..

000073ac <us_data>:
    73ac:	7398 0000 0808 1000                         .s......

000073b4 <PinMap_PWM>:
    73b4:	c032 2009 0001 0000 0002 0000 c034 2009     2.. ........4.. 
    73c4:	0002 0000 0002 0000 c035 2009 0003 0000     ........5.. ....
    73d4:	0002 0000 c037 2009 0004 0000 0002 0000     ....7.. ........
    73e4:	c038 2009 0005 0000 0002 0000 c03a 2009     8.. ........:.. 
    73f4:	0006 0000 0002 0000 c040 2009 0001 0000     ........@.. ....
    7404:	0001 0000 c041 2009 0002 0000 0001 0000     ....A.. ........
    7414:	c042 2009 0003 0000 0001 0000 c043 2009     B.. ........C.. 
    7424:	0004 0000 0001 0000 c044 2009 0005 0000     ........D.. ....
    7434:	0001 0000 c045 2009 0006 0000 0001 0000     ....E.. ........
    7444:	c079 2009 0002 0000 0003 0000 c07a 2009     y.. ........z.. 
    7454:	0003 0000 0003 0000 ffff ffff ffff ffff     ................
    7464:	0000 0000                                   ....

00007468 <PinMap_UART_RTS>:
    7468:	c016 2009 0000 4001 0001 0000 c047 2009     ... ...@....G.. 
    7478:	0000 4001 0002 0000 ffff ffff ffff ffff     ...@............
    7488:	0000 0000                                   ....

0000748c <PinMap_UART_RX>:
    748c:	c001 2009 c000 4009 0002 0000 c003 2009     ... ...@....... 
    749c:	c000 4000 0001 0000 c00b 2009 8000 4009     ...@....... ...@
    74ac:	0001 0000 c010 2009 0000 4001 0001 0000     ....... ...@....
    74bc:	c01a 2009 c000 4009 0003 0000 c041 2009     ... ...@....A.. 
    74cc:	0000 4001 0002 0000 c049 2009 8000 4009     ...@....I.. ...@
    74dc:	0002 0000 c09d 2009 c000 4009 0003 0000     ....... ...@....
    74ec:	ffff ffff ffff ffff 0000 0000               ............

000074f8 <PinMap_UART_TX>:
    74f8:	c000 2009 c000 4009 0002 0000 c002 2009     ... ...@....... 
    7508:	c000 4000 0001 0000 c00a 2009 8000 4009     ...@....... ...@
    7518:	0001 0000 c00f 2009 0000 4001 0001 0000     ....... ...@....
    7528:	c019 2009 c000 4009 0003 0000 c040 2009     ... ...@....@.. 
    7538:	0000 4001 0002 0000 c048 2009 8000 4009     ...@....H.. ...@
    7548:	0002 0000 c09c 2009 c000 4009 0003 0000     ....... ...@....
    7558:	ffff ffff ffff ffff 0000 0000               ............

00007564 <PinMap_UART_CTS>:
    7564:	c011 2009 0000 4001 0001 0000 c042 2009     ... ...@....B.. 
    7574:	0000 4001 0002 0000 ffff ffff ffff ffff     ...@............
    7584:	0000 0000                                   ....

00007588 <vtable for mbed::FileBase>:
	...
    7590:	3999 0000 39c9 0000                         .9...9..

00007598 <vtable for mbed::FileLike>:
	...
    75a0:	2411 0000 2411 0000 2411 0000 2411 0000     .$...$...$...$..
    75b0:	2411 0000 2411 0000 3a61 0000 0000 0000     .$...$..a:......
    75c0:	0000 0000 fffc ffff 0000 0000 0000 0000     ................
    75d0:	0000 0000                                   ....

000075d4 <__stdin_name>:
    75d4:	732f 6474 6e69 0000                         /stdin..

000075dc <__stderr_name>:
    75dc:	732f 6474 7265 0072                         /stderr.

000075e4 <__stdout_name>:
    75e4:	732f 6474 756f 0074                         /stdout.

000075ec <vtable for mbed::FileHandle>:
	...
    75f4:	2411 0000 2411 0000 2411 0000 2411 0000     .$...$...$...$..
    7604:	2411 0000 2411 0000 3a61 0000 0000 0000     .$...$..a:......
    7614:	0000 0000 253a 0070 7845 6563 7470 6f69     ....:%p.Exceptio
    7624:	006e 0000                                   n...

00007628 <vtable for mbed::SerialBase>:
	...
    7630:	2635 0000 2639 0000                         5&..9&..

00007638 <vtable for mbed::Serial>:
	...
    7640:	3f2d 0000 3f61 0000 3f15 0000 3f21 0000     -?..a?...?..!?..
    7650:	ffc0 ffff 0000 0000 3fcd 0000 4029 0000     .........?..)@..
    7660:	3ff9 0000 4029 0000 4025 0000 4029 0000     .?..)@..%@..)@..
    7670:	402d 0000 3f51 0000 3f8d 0000 3f25 0000     -@..Q?...?..%?..
    7680:	3f19 0000 ffbc ffff 0000 0000 3f59 0000     .?..........Y?..
    7690:	3f95 0000                                   .?..

00007694 <vtable for mbed::Stream>:
	...
    769c:	3fcd 0000 4029 0000 3ff9 0000 4029 0000     .?..)@...?..)@..
    76ac:	4025 0000 4029 0000 402d 0000 0000 0000     %@..)@..-@......
    76bc:	0000 0000 2411 0000 2411 0000 fffc ffff     .....$...$......
	...
    76d8:	2b77 0000                                   w+..

000076dc <__sf_fake_stdin>:
	...

000076fc <__sf_fake_stdout>:
	...

0000771c <__sf_fake_stderr>:
	...
    773c:	0043 0000                                   C...

00007740 <_global_impure_ptr>:
    7740:	00f0 1000 2d23 2b30 0020 6c68 004c 6665     ....#-0+ .hlL.ef
    7750:	4567 4746 3000 3231 3433 3635 3837 4139     gEFG.0123456789A
    7760:	4342 4544 0046 3130 3332 3534 3736 3938     BCDEF.0123456789
    7770:	6261 6463 6665 0000 7796 0000 7799 0000     abcdef...w...w..
    7780:	779c 0000 2d41 6146 662d 3938 3130 3332     .w..A-Fa-f890123
    7790:	3534 3736 005d 2d2b 3000 0030 5878 0000          4567].+-.00.xX.

0000779f <_ctype_>:
    779f:	2000 2020 2020 2020 2020 2828 2828 2028     .         ((((( 
    77af:	2020 2020 2020 2020 2020 2020 2020 2020                     
    77bf:	8820 1010 1010 1010 1010 1010 1010 1010      ...............
    77cf:	0410 0404 0404 0404 0404 1004 1010 1010     ................
    77df:	1010 4141 4141 4141 0101 0101 0101 0101     ..AAAAAA........
    77ef:	0101 0101 0101 0101 0101 0101 1010 1010     ................
    77ff:	1010 4242 4242 4242 0202 0202 0202 0202     ..BBBBBB........
    780f:	0202 0202 0202 0202 0202 0202 1010 1010     ................
    781f:	0020 0000 0000 0000 0000 0000 0000 0000      ...............
	...

000078a0 <__EH_FRAME_BEGIN__>:
    78a0:	0000 0000                                   ....
