
LPC1768/rosserial_test.elf:     file format elf32-littlearm
architecture: arm, flags 0x00000112:
EXEC_P, HAS_SYMS, D_PAGED
start address 0x0000411d


Disassembly of section .text:

00000000 <__isr_vector>:
       0:	10008000 	.word	0x10008000
       4:	0000411d 	.word	0x0000411d
       8:	0000414d 	.word	0x0000414d
       c:	0000414f 	.word	0x0000414f
      10:	00004151 	.word	0x00004151
      14:	00004153 	.word	0x00004153
      18:	00004155 	.word	0x00004155
	...
      2c:	00004157 	.word	0x00004157
      30:	00004159 	.word	0x00004159
      34:	00000000 	.word	0x00000000
      38:	0000415b 	.word	0x0000415b
      3c:	0000415d 	.word	0x0000415d
      40:	0000415f 	.word	0x0000415f
      44:	0000415f 	.word	0x0000415f
      48:	0000415f 	.word	0x0000415f
      4c:	0000415f 	.word	0x0000415f
      50:	0000415f 	.word	0x0000415f
      54:	0000415f 	.word	0x0000415f
      58:	0000415f 	.word	0x0000415f
      5c:	0000415f 	.word	0x0000415f
      60:	0000415f 	.word	0x0000415f
      64:	0000415f 	.word	0x0000415f
      68:	0000415f 	.word	0x0000415f
      6c:	0000415f 	.word	0x0000415f
      70:	0000415f 	.word	0x0000415f
      74:	0000415f 	.word	0x0000415f
      78:	0000415f 	.word	0x0000415f
      7c:	0000415f 	.word	0x0000415f
      80:	0000415f 	.word	0x0000415f
      84:	0000415f 	.word	0x0000415f
      88:	0000415f 	.word	0x0000415f
      8c:	0000415f 	.word	0x0000415f
      90:	0000415f 	.word	0x0000415f
      94:	0000415f 	.word	0x0000415f
      98:	0000415f 	.word	0x0000415f
      9c:	0000415f 	.word	0x0000415f
      a0:	0000415f 	.word	0x0000415f
      a4:	0000415f 	.word	0x0000415f
      a8:	0000415f 	.word	0x0000415f
      ac:	0000415f 	.word	0x0000415f
      b0:	0000415f 	.word	0x0000415f
      b4:	0000415f 	.word	0x0000415f
      b8:	0000415f 	.word	0x0000415f
      bc:	0000415f 	.word	0x0000415f
      c0:	0000415f 	.word	0x0000415f
      c4:	0000415f 	.word	0x0000415f
      c8:	0000415f 	.word	0x0000415f

000000cc <deregister_tm_clones>:
      cc:	4b04      	ldr	r3, [pc, #16]	; (e0 <deregister_tm_clones+0x14>)
      ce:	4805      	ldr	r0, [pc, #20]	; (e4 <deregister_tm_clones+0x18>)
      d0:	1a1b      	subs	r3, r3, r0
      d2:	2b06      	cmp	r3, #6
      d4:	d902      	bls.n	dc <deregister_tm_clones+0x10>
      d6:	4b04      	ldr	r3, [pc, #16]	; (e8 <deregister_tm_clones+0x1c>)
      d8:	b103      	cbz	r3, dc <deregister_tm_clones+0x10>
      da:	4718      	bx	r3
      dc:	4770      	bx	lr
      de:	bf00      	nop
      e0:	10000167 	.word	0x10000167
      e4:	10000164 	.word	0x10000164
      e8:	00000000 	.word	0x00000000

000000ec <register_tm_clones>:
      ec:	4905      	ldr	r1, [pc, #20]	; (104 <register_tm_clones+0x18>)
      ee:	4806      	ldr	r0, [pc, #24]	; (108 <register_tm_clones+0x1c>)
      f0:	1a09      	subs	r1, r1, r0
      f2:	1089      	asrs	r1, r1, #2
      f4:	eb01 71d1 	add.w	r1, r1, r1, lsr #31
      f8:	1049      	asrs	r1, r1, #1
      fa:	d002      	beq.n	102 <register_tm_clones+0x16>
      fc:	4b03      	ldr	r3, [pc, #12]	; (10c <register_tm_clones+0x20>)
      fe:	b103      	cbz	r3, 102 <register_tm_clones+0x16>
     100:	4718      	bx	r3
     102:	4770      	bx	lr
     104:	10000164 	.word	0x10000164
     108:	10000164 	.word	0x10000164
     10c:	00000000 	.word	0x00000000

00000110 <__do_global_dtors_aux>:
     110:	b510      	push	{r4, lr}
     112:	4c06      	ldr	r4, [pc, #24]	; (12c <__do_global_dtors_aux+0x1c>)
     114:	7823      	ldrb	r3, [r4, #0]
     116:	b943      	cbnz	r3, 12a <__do_global_dtors_aux+0x1a>
     118:	f7ff ffd8 	bl	cc <deregister_tm_clones>
     11c:	4b04      	ldr	r3, [pc, #16]	; (130 <__do_global_dtors_aux+0x20>)
     11e:	b113      	cbz	r3, 126 <__do_global_dtors_aux+0x16>
     120:	4804      	ldr	r0, [pc, #16]	; (134 <__do_global_dtors_aux+0x24>)
     122:	f3af 8000 	nop.w
     126:	2301      	movs	r3, #1
     128:	7023      	strb	r3, [r4, #0]
     12a:	bd10      	pop	{r4, pc}
     12c:	10000164 	.word	0x10000164
     130:	00000000 	.word	0x00000000
     134:	000078a0 	.word	0x000078a0

00000138 <frame_dummy>:
     138:	b508      	push	{r3, lr}
     13a:	4b08      	ldr	r3, [pc, #32]	; (15c <frame_dummy+0x24>)
     13c:	b11b      	cbz	r3, 146 <frame_dummy+0xe>
     13e:	4908      	ldr	r1, [pc, #32]	; (160 <frame_dummy+0x28>)
     140:	4808      	ldr	r0, [pc, #32]	; (164 <frame_dummy+0x2c>)
     142:	f3af 8000 	nop.w
     146:	4808      	ldr	r0, [pc, #32]	; (168 <frame_dummy+0x30>)
     148:	6803      	ldr	r3, [r0, #0]
     14a:	b913      	cbnz	r3, 152 <frame_dummy+0x1a>
     14c:	e8bd 4008 	ldmia.w	sp!, {r3, lr}
     150:	e7cc      	b.n	ec <register_tm_clones>
     152:	4b06      	ldr	r3, [pc, #24]	; (16c <frame_dummy+0x34>)
     154:	2b00      	cmp	r3, #0
     156:	d0f9      	beq.n	14c <frame_dummy+0x14>
     158:	4798      	blx	r3
     15a:	e7f7      	b.n	14c <frame_dummy+0x14>
     15c:	00000000 	.word	0x00000000
     160:	10000168 	.word	0x10000168
     164:	000078a0 	.word	0x000078a0
     168:	10000164 	.word	0x10000164
     16c:	00000000 	.word	0x00000000

00000170 <std_msgs::Time::serialize(unsigned char*) const>:
     170:	4603      	mov	r3, r0
     172:	6842      	ldr	r2, [r0, #4]
     174:	2008      	movs	r0, #8
     176:	700a      	strb	r2, [r1, #0]
     178:	685a      	ldr	r2, [r3, #4]
     17a:	40c2      	lsrs	r2, r0
     17c:	704a      	strb	r2, [r1, #1]
     17e:	88da      	ldrh	r2, [r3, #6]
     180:	708a      	strb	r2, [r1, #2]
     182:	79da      	ldrb	r2, [r3, #7]
     184:	70ca      	strb	r2, [r1, #3]
     186:	689a      	ldr	r2, [r3, #8]
     188:	710a      	strb	r2, [r1, #4]
     18a:	689a      	ldr	r2, [r3, #8]
     18c:	40c2      	lsrs	r2, r0
     18e:	714a      	strb	r2, [r1, #5]
     190:	895a      	ldrh	r2, [r3, #10]
     192:	718a      	strb	r2, [r1, #6]
     194:	7adb      	ldrb	r3, [r3, #11]
     196:	71cb      	strb	r3, [r1, #7]
     198:	4770      	bx	lr
     19a:	bf00      	nop

0000019c <std_msgs::Time::deserialize(unsigned char*)>:
     19c:	4602      	mov	r2, r0
     19e:	b410      	push	{r4}
     1a0:	780b      	ldrb	r3, [r1, #0]
     1a2:	2008      	movs	r0, #8
     1a4:	6053      	str	r3, [r2, #4]
     1a6:	784c      	ldrb	r4, [r1, #1]
     1a8:	ea43 2304 	orr.w	r3, r3, r4, lsl #8
     1ac:	6053      	str	r3, [r2, #4]
     1ae:	788c      	ldrb	r4, [r1, #2]
     1b0:	ea43 4304 	orr.w	r3, r3, r4, lsl #16
     1b4:	6053      	str	r3, [r2, #4]
     1b6:	78cc      	ldrb	r4, [r1, #3]
     1b8:	ea43 6304 	orr.w	r3, r3, r4, lsl #24
     1bc:	6053      	str	r3, [r2, #4]
     1be:	790b      	ldrb	r3, [r1, #4]
     1c0:	6093      	str	r3, [r2, #8]
     1c2:	794c      	ldrb	r4, [r1, #5]
     1c4:	ea43 2304 	orr.w	r3, r3, r4, lsl #8
     1c8:	6093      	str	r3, [r2, #8]
     1ca:	798c      	ldrb	r4, [r1, #6]
     1cc:	ea43 4304 	orr.w	r3, r3, r4, lsl #16
     1d0:	6093      	str	r3, [r2, #8]
     1d2:	79c9      	ldrb	r1, [r1, #7]
     1d4:	bc10      	pop	{r4}
     1d6:	ea43 6301 	orr.w	r3, r3, r1, lsl #24
     1da:	6093      	str	r3, [r2, #8]
     1dc:	4770      	bx	lr
     1de:	bf00      	nop

000001e0 <std_msgs::Time::getType()>:
     1e0:	4800      	ldr	r0, [pc, #0]	; (1e4 <std_msgs::Time::getType()+0x4>)
     1e2:	4770      	bx	lr
     1e4:	00007100 	.word	0x00007100

000001e8 <std_msgs::Time::getMD5()>:
     1e8:	4800      	ldr	r0, [pc, #0]	; (1ec <std_msgs::Time::getMD5()+0x4>)
     1ea:	4770      	bx	lr
     1ec:	00007110 	.word	0x00007110

000001f0 <rosserial_msgs::TopicInfo::getType()>:
     1f0:	4800      	ldr	r0, [pc, #0]	; (1f4 <rosserial_msgs::TopicInfo::getType()+0x4>)
     1f2:	4770      	bx	lr
     1f4:	00007134 	.word	0x00007134

000001f8 <rosserial_msgs::TopicInfo::getMD5()>:
     1f8:	4800      	ldr	r0, [pc, #0]	; (1fc <rosserial_msgs::TopicInfo::getMD5()+0x4>)
     1fa:	4770      	bx	lr
     1fc:	00007150 	.word	0x00007150

00000200 <rosserial_msgs::Log::getType()>:
     200:	4800      	ldr	r0, [pc, #0]	; (204 <rosserial_msgs::Log::getType()+0x4>)
     202:	4770      	bx	lr
     204:	00007174 	.word	0x00007174

00000208 <rosserial_msgs::Log::getMD5()>:
     208:	4800      	ldr	r0, [pc, #0]	; (20c <rosserial_msgs::Log::getMD5()+0x4>)
     20a:	4770      	bx	lr
     20c:	00007188 	.word	0x00007188

00000210 <rosserial_msgs::RequestParamResponse::getType()>:
     210:	4800      	ldr	r0, [pc, #0]	; (214 <rosserial_msgs::RequestParamResponse::getType()+0x4>)
     212:	4770      	bx	lr
     214:	00007288 	.word	0x00007288

00000218 <rosserial_msgs::RequestParamResponse::getMD5()>:
     218:	4800      	ldr	r0, [pc, #0]	; (21c <rosserial_msgs::RequestParamResponse::getMD5()+0x4>)
     21a:	4770      	bx	lr
     21c:	000071ac 	.word	0x000071ac

00000220 <std_msgs::Header::getType()>:
     220:	4800      	ldr	r0, [pc, #0]	; (224 <std_msgs::Header::getType()+0x4>)
     222:	4770      	bx	lr
     224:	000071d0 	.word	0x000071d0

00000228 <std_msgs::Header::getMD5()>:
     228:	4800      	ldr	r0, [pc, #0]	; (22c <std_msgs::Header::getMD5()+0x4>)
     22a:	4770      	bx	lr
     22c:	000071e0 	.word	0x000071e0

00000230 <fish_msgs::joystick_in::getType()>:
     230:	4800      	ldr	r0, [pc, #0]	; (234 <fish_msgs::joystick_in::getType()+0x4>)
     232:	4770      	bx	lr
     234:	00007204 	.word	0x00007204

00000238 <fish_msgs::joystick_in::getMD5()>:
     238:	4800      	ldr	r0, [pc, #0]	; (23c <fish_msgs::joystick_in::getMD5()+0x4>)
     23a:	4770      	bx	lr
     23c:	0000721c 	.word	0x0000721c

00000240 <ros::Subscriber<fish_msgs::joystick_in>::getEndpointType()>:
     240:	6ac0      	ldr	r0, [r0, #44]	; 0x2c
     242:	4770      	bx	lr

00000244 <ros::Subscriber<fish_msgs::joystick_in>::getMsgType()>:
     244:	4800      	ldr	r0, [pc, #0]	; (248 <ros::Subscriber<fish_msgs::joystick_in>::getMsgType()+0x4>)
     246:	4770      	bx	lr
     248:	00007204 	.word	0x00007204

0000024c <ros::Subscriber<fish_msgs::joystick_in>::getMsgMD5()>:
     24c:	4800      	ldr	r0, [pc, #0]	; (250 <ros::Subscriber<fish_msgs::joystick_in>::getMsgMD5()+0x4>)
     24e:	4770      	bx	lr
     250:	0000721c 	.word	0x0000721c

00000254 <ros::NodeHandle_<MbedHardware, 25, 25, 512, 512>::connected()>:
     254:	f890 05fc 	ldrb.w	r0, [r0, #1532]	; 0x5fc
     258:	4770      	bx	lr
     25a:	bf00      	nop

0000025c <setLEDs(fish_msgs::joystick_in const&)>:
     25c:	b510      	push	{r4, lr}
     25e:	4604      	mov	r4, r0
     260:	f990 001b 	ldrsb.w	r0, [r0, #27]
     264:	f004 f8d6 	bl	4414 <__aeabi_i2d>
     268:	2200      	movs	r2, #0
     26a:	4b22      	ldr	r3, [pc, #136]	; (2f4 <setLEDs(fish_msgs::joystick_in const&)+0x98>)
     26c:	f003 ff86 	bl	417c <__adddf3>
     270:	2200      	movs	r2, #0
     272:	4b21      	ldr	r3, [pc, #132]	; (2f8 <setLEDs(fish_msgs::joystick_in const&)+0x9c>)
     274:	f004 f934 	bl	44e0 <__aeabi_dmul>
     278:	f004 fb44 	bl	4904 <__aeabi_d2f>
     27c:	4601      	mov	r1, r0
     27e:	481f      	ldr	r0, [pc, #124]	; (2fc <setLEDs(fish_msgs::joystick_in const&)+0xa0>)
     280:	f002 ff0a 	bl	3098 <pwmout_write>
     284:	f994 001a 	ldrsb.w	r0, [r4, #26]
     288:	f004 f8c4 	bl	4414 <__aeabi_i2d>
     28c:	2200      	movs	r2, #0
     28e:	4b19      	ldr	r3, [pc, #100]	; (2f4 <setLEDs(fish_msgs::joystick_in const&)+0x98>)
     290:	f003 ff74 	bl	417c <__adddf3>
     294:	2200      	movs	r2, #0
     296:	4b18      	ldr	r3, [pc, #96]	; (2f8 <setLEDs(fish_msgs::joystick_in const&)+0x9c>)
     298:	f004 f922 	bl	44e0 <__aeabi_dmul>
     29c:	f004 fb32 	bl	4904 <__aeabi_d2f>
     2a0:	4601      	mov	r1, r0
     2a2:	4817      	ldr	r0, [pc, #92]	; (300 <setLEDs(fish_msgs::joystick_in const&)+0xa4>)
     2a4:	f002 fef8 	bl	3098 <pwmout_write>
     2a8:	f994 0019 	ldrsb.w	r0, [r4, #25]
     2ac:	f004 f8b2 	bl	4414 <__aeabi_i2d>
     2b0:	2200      	movs	r2, #0
     2b2:	4b10      	ldr	r3, [pc, #64]	; (2f4 <setLEDs(fish_msgs::joystick_in const&)+0x98>)
     2b4:	f003 ff62 	bl	417c <__adddf3>
     2b8:	2200      	movs	r2, #0
     2ba:	4b0f      	ldr	r3, [pc, #60]	; (2f8 <setLEDs(fish_msgs::joystick_in const&)+0x9c>)
     2bc:	f004 f910 	bl	44e0 <__aeabi_dmul>
     2c0:	f004 fb20 	bl	4904 <__aeabi_d2f>
     2c4:	4601      	mov	r1, r0
     2c6:	480f      	ldr	r0, [pc, #60]	; (304 <setLEDs(fish_msgs::joystick_in const&)+0xa8>)
     2c8:	f002 fee6 	bl	3098 <pwmout_write>
     2cc:	f994 0018 	ldrsb.w	r0, [r4, #24]
     2d0:	f004 f8a0 	bl	4414 <__aeabi_i2d>
     2d4:	2200      	movs	r2, #0
     2d6:	4b07      	ldr	r3, [pc, #28]	; (2f4 <setLEDs(fish_msgs::joystick_in const&)+0x98>)
     2d8:	f003 ff50 	bl	417c <__adddf3>
     2dc:	2200      	movs	r2, #0
     2de:	4b06      	ldr	r3, [pc, #24]	; (2f8 <setLEDs(fish_msgs::joystick_in const&)+0x9c>)
     2e0:	f004 f8fe 	bl	44e0 <__aeabi_dmul>
     2e4:	f004 fb0e 	bl	4904 <__aeabi_d2f>
     2e8:	e8bd 4010 	ldmia.w	sp!, {r4, lr}
     2ec:	4601      	mov	r1, r0
     2ee:	4806      	ldr	r0, [pc, #24]	; (308 <setLEDs(fish_msgs::joystick_in const&)+0xac>)
     2f0:	f002 bed2 	b.w	3098 <pwmout_write>
     2f4:	40600000 	.word	0x40600000
     2f8:	3f700000 	.word	0x3f700000
     2fc:	100001b8 	.word	0x100001b8
     300:	100007f8 	.word	0x100007f8
     304:	10000180 	.word	0x10000180
     308:	10000800 	.word	0x10000800

0000030c <std_msgs::Header::deserialize(unsigned char*)>:
     30c:	b4f0      	push	{r4, r5, r6, r7}
     30e:	780b      	ldrb	r3, [r1, #0]
     310:	4604      	mov	r4, r0
     312:	6043      	str	r3, [r0, #4]
     314:	784a      	ldrb	r2, [r1, #1]
     316:	b082      	sub	sp, #8
     318:	ea43 2302 	orr.w	r3, r3, r2, lsl #8
     31c:	6043      	str	r3, [r0, #4]
     31e:	788a      	ldrb	r2, [r1, #2]
     320:	f101 070f 	add.w	r7, r1, #15
     324:	ea43 4302 	orr.w	r3, r3, r2, lsl #16
     328:	6043      	str	r3, [r0, #4]
     32a:	78ca      	ldrb	r2, [r1, #3]
     32c:	ea43 6302 	orr.w	r3, r3, r2, lsl #24
     330:	6043      	str	r3, [r0, #4]
     332:	790b      	ldrb	r3, [r1, #4]
     334:	6083      	str	r3, [r0, #8]
     336:	794a      	ldrb	r2, [r1, #5]
     338:	ea43 2302 	orr.w	r3, r3, r2, lsl #8
     33c:	6083      	str	r3, [r0, #8]
     33e:	798a      	ldrb	r2, [r1, #6]
     340:	ea43 4302 	orr.w	r3, r3, r2, lsl #16
     344:	6083      	str	r3, [r0, #8]
     346:	79ca      	ldrb	r2, [r1, #7]
     348:	ea43 6302 	orr.w	r3, r3, r2, lsl #24
     34c:	6083      	str	r3, [r0, #8]
     34e:	7a0b      	ldrb	r3, [r1, #8]
     350:	60c3      	str	r3, [r0, #12]
     352:	7a4a      	ldrb	r2, [r1, #9]
     354:	ea43 2302 	orr.w	r3, r3, r2, lsl #8
     358:	60c3      	str	r3, [r0, #12]
     35a:	7a8a      	ldrb	r2, [r1, #10]
     35c:	ea43 4302 	orr.w	r3, r3, r2, lsl #16
     360:	60c3      	str	r3, [r0, #12]
     362:	7aca      	ldrb	r2, [r1, #11]
     364:	ea43 6302 	orr.w	r3, r3, r2, lsl #24
     368:	60c3      	str	r3, [r0, #12]
     36a:	68c8      	ldr	r0, [r1, #12]
     36c:	9001      	str	r0, [sp, #4]
     36e:	9e01      	ldr	r6, [sp, #4]
     370:	f106 0010 	add.w	r0, r6, #16
     374:	2810      	cmp	r0, #16
     376:	d909      	bls.n	38c <std_msgs::Header::deserialize(unsigned char*)+0x80>
     378:	463b      	mov	r3, r7
     37a:	f106 050f 	add.w	r5, r6, #15
     37e:	440d      	add	r5, r1
     380:	f813 2f01 	ldrb.w	r2, [r3, #1]!
     384:	42ab      	cmp	r3, r5
     386:	f803 2c01 	strb.w	r2, [r3, #-1]
     38a:	d1f9      	bne.n	380 <std_msgs::Header::deserialize(unsigned char*)+0x74>
     38c:	4431      	add	r1, r6
     38e:	2300      	movs	r3, #0
     390:	73cb      	strb	r3, [r1, #15]
     392:	6127      	str	r7, [r4, #16]
     394:	b002      	add	sp, #8
     396:	bcf0      	pop	{r4, r5, r6, r7}
     398:	4770      	bx	lr
     39a:	bf00      	nop

0000039c <rosserial_msgs::Log::deserialize(unsigned char*)>:
     39c:	460b      	mov	r3, r1
     39e:	b4f0      	push	{r4, r5, r6, r7}
     3a0:	f813 2b01 	ldrb.w	r2, [r3], #1
     3a4:	4606      	mov	r6, r0
     3a6:	7102      	strb	r2, [r0, #4]
     3a8:	6818      	ldr	r0, [r3, #0]
     3aa:	b082      	sub	sp, #8
     3ac:	9001      	str	r0, [sp, #4]
     3ae:	9d01      	ldr	r5, [sp, #4]
     3b0:	1d0f      	adds	r7, r1, #4
     3b2:	1d68      	adds	r0, r5, #5
     3b4:	2805      	cmp	r0, #5
     3b6:	d908      	bls.n	3ca <rosserial_msgs::Log::deserialize(unsigned char*)+0x2e>
     3b8:	463b      	mov	r3, r7
     3ba:	1d2c      	adds	r4, r5, #4
     3bc:	440c      	add	r4, r1
     3be:	f813 2f01 	ldrb.w	r2, [r3, #1]!
     3c2:	42a3      	cmp	r3, r4
     3c4:	f803 2c01 	strb.w	r2, [r3, #-1]
     3c8:	d1f9      	bne.n	3be <rosserial_msgs::Log::deserialize(unsigned char*)+0x22>
     3ca:	440d      	add	r5, r1
     3cc:	2300      	movs	r3, #0
     3ce:	712b      	strb	r3, [r5, #4]
     3d0:	60b7      	str	r7, [r6, #8]
     3d2:	b002      	add	sp, #8
     3d4:	bcf0      	pop	{r4, r5, r6, r7}
     3d6:	4770      	bx	lr

000003d8 <rosserial_msgs::TopicInfo::deserialize(unsigned char*)>:
     3d8:	b4f0      	push	{r4, r5, r6, r7}
     3da:	780b      	ldrb	r3, [r1, #0]
     3dc:	4605      	mov	r5, r0
     3de:	8083      	strh	r3, [r0, #4]
     3e0:	784a      	ldrb	r2, [r1, #1]
     3e2:	b084      	sub	sp, #16
     3e4:	ea43 2302 	orr.w	r3, r3, r2, lsl #8
     3e8:	8083      	strh	r3, [r0, #4]
     3ea:	f8d1 0002 	ldr.w	r0, [r1, #2]
     3ee:	1d4f      	adds	r7, r1, #5
     3f0:	9001      	str	r0, [sp, #4]
     3f2:	9a01      	ldr	r2, [sp, #4]
     3f4:	1d96      	adds	r6, r2, #6
     3f6:	2e06      	cmp	r6, #6
     3f8:	d908      	bls.n	40c <rosserial_msgs::TopicInfo::deserialize(unsigned char*)+0x34>
     3fa:	463b      	mov	r3, r7
     3fc:	1d54      	adds	r4, r2, #5
     3fe:	440c      	add	r4, r1
     400:	f813 0f01 	ldrb.w	r0, [r3, #1]!
     404:	429c      	cmp	r4, r3
     406:	f803 0c01 	strb.w	r0, [r3, #-1]
     40a:	d1f9      	bne.n	400 <rosserial_msgs::TopicInfo::deserialize(unsigned char*)+0x28>
     40c:	188b      	adds	r3, r1, r2
     40e:	2000      	movs	r0, #0
     410:	7158      	strb	r0, [r3, #5]
     412:	60af      	str	r7, [r5, #8]
     414:	5988      	ldr	r0, [r1, r6]
     416:	3604      	adds	r6, #4
     418:	9002      	str	r0, [sp, #8]
     41a:	9b02      	ldr	r3, [sp, #8]
     41c:	4433      	add	r3, r6
     41e:	429e      	cmp	r6, r3
     420:	d209      	bcs.n	436 <rosserial_msgs::TopicInfo::deserialize(unsigned char*)+0x5e>
     422:	4630      	mov	r0, r6
     424:	3209      	adds	r2, #9
     426:	440a      	add	r2, r1
     428:	f812 4f01 	ldrb.w	r4, [r2, #1]!
     42c:	3001      	adds	r0, #1
     42e:	4298      	cmp	r0, r3
     430:	f802 4c01 	strb.w	r4, [r2, #-1]
     434:	d3f8      	bcc.n	428 <rosserial_msgs::TopicInfo::deserialize(unsigned char*)+0x50>
     436:	3e01      	subs	r6, #1
     438:	440e      	add	r6, r1
     43a:	18ca      	adds	r2, r1, r3
     43c:	2000      	movs	r0, #0
     43e:	f802 0c01 	strb.w	r0, [r2, #-1]
     442:	60ee      	str	r6, [r5, #12]
     444:	6810      	ldr	r0, [r2, #0]
     446:	1d1e      	adds	r6, r3, #4
     448:	9003      	str	r0, [sp, #12]
     44a:	9803      	ldr	r0, [sp, #12]
     44c:	4430      	add	r0, r6
     44e:	4286      	cmp	r6, r0
     450:	d209      	bcs.n	466 <rosserial_msgs::TopicInfo::deserialize(unsigned char*)+0x8e>
     452:	4632      	mov	r2, r6
     454:	3303      	adds	r3, #3
     456:	440b      	add	r3, r1
     458:	f813 4f01 	ldrb.w	r4, [r3, #1]!
     45c:	3201      	adds	r2, #1
     45e:	4282      	cmp	r2, r0
     460:	f803 4c01 	strb.w	r4, [r3, #-1]
     464:	d3f8      	bcc.n	458 <rosserial_msgs::TopicInfo::deserialize(unsigned char*)+0x80>
     466:	3e01      	subs	r6, #1
     468:	180c      	adds	r4, r1, r0
     46a:	440e      	add	r6, r1
     46c:	2300      	movs	r3, #0
     46e:	f804 3c01 	strb.w	r3, [r4, #-1]
     472:	612e      	str	r6, [r5, #16]
     474:	78a3      	ldrb	r3, [r4, #2]
     476:	7866      	ldrb	r6, [r4, #1]
     478:	5c0a      	ldrb	r2, [r1, r0]
     47a:	041b      	lsls	r3, r3, #16
     47c:	78e1      	ldrb	r1, [r4, #3]
     47e:	ea43 2306 	orr.w	r3, r3, r6, lsl #8
     482:	4313      	orrs	r3, r2
     484:	ea43 6301 	orr.w	r3, r3, r1, lsl #24
     488:	3004      	adds	r0, #4
     48a:	616b      	str	r3, [r5, #20]
     48c:	b004      	add	sp, #16
     48e:	bcf0      	pop	{r4, r5, r6, r7}
     490:	4770      	bx	lr
     492:	bf00      	nop

00000494 <std_msgs::Header::serialize(unsigned char*) const>:
     494:	6843      	ldr	r3, [r0, #4]
     496:	b570      	push	{r4, r5, r6, lr}
     498:	700b      	strb	r3, [r1, #0]
     49a:	6843      	ldr	r3, [r0, #4]
     49c:	b082      	sub	sp, #8
     49e:	0a1b      	lsrs	r3, r3, #8
     4a0:	704b      	strb	r3, [r1, #1]
     4a2:	88c3      	ldrh	r3, [r0, #6]
     4a4:	4605      	mov	r5, r0
     4a6:	708b      	strb	r3, [r1, #2]
     4a8:	79c3      	ldrb	r3, [r0, #7]
     4aa:	460c      	mov	r4, r1
     4ac:	70cb      	strb	r3, [r1, #3]
     4ae:	6883      	ldr	r3, [r0, #8]
     4b0:	710b      	strb	r3, [r1, #4]
     4b2:	6883      	ldr	r3, [r0, #8]
     4b4:	0a1b      	lsrs	r3, r3, #8
     4b6:	714b      	strb	r3, [r1, #5]
     4b8:	8943      	ldrh	r3, [r0, #10]
     4ba:	718b      	strb	r3, [r1, #6]
     4bc:	7ac3      	ldrb	r3, [r0, #11]
     4be:	71cb      	strb	r3, [r1, #7]
     4c0:	68c3      	ldr	r3, [r0, #12]
     4c2:	720b      	strb	r3, [r1, #8]
     4c4:	68c3      	ldr	r3, [r0, #12]
     4c6:	0a1b      	lsrs	r3, r3, #8
     4c8:	724b      	strb	r3, [r1, #9]
     4ca:	89c3      	ldrh	r3, [r0, #14]
     4cc:	728b      	strb	r3, [r1, #10]
     4ce:	7bc3      	ldrb	r3, [r0, #15]
     4d0:	72cb      	strb	r3, [r1, #11]
     4d2:	6900      	ldr	r0, [r0, #16]
     4d4:	f005 ffc7 	bl	6466 <strlen>
     4d8:	4606      	mov	r6, r0
     4da:	ab02      	add	r3, sp, #8
     4dc:	f843 0d04 	str.w	r0, [r3, #-4]!
     4e0:	6818      	ldr	r0, [r3, #0]
     4e2:	4632      	mov	r2, r6
     4e4:	60e0      	str	r0, [r4, #12]
     4e6:	6929      	ldr	r1, [r5, #16]
     4e8:	f104 0010 	add.w	r0, r4, #16
     4ec:	f005 f8f0 	bl	56d0 <memcpy>
     4f0:	f106 0010 	add.w	r0, r6, #16
     4f4:	b002      	add	sp, #8
     4f6:	bd70      	pop	{r4, r5, r6, pc}

000004f8 <rosserial_msgs::RequestParamResponse::serialize(unsigned char*) const>:
     4f8:	e92d 43f0 	stmdb	sp!, {r4, r5, r6, r7, r8, r9, lr}
     4fc:	7903      	ldrb	r3, [r0, #4]
     4fe:	2400      	movs	r4, #0
     500:	700b      	strb	r3, [r1, #0]
     502:	704c      	strb	r4, [r1, #1]
     504:	708c      	strb	r4, [r1, #2]
     506:	70cc      	strb	r4, [r1, #3]
     508:	7903      	ldrb	r3, [r0, #4]
     50a:	b083      	sub	sp, #12
     50c:	2b00      	cmp	r3, #0
     50e:	d068      	beq.n	5e2 <rosserial_msgs::RequestParamResponse::serialize(unsigned char*) const+0xea>
     510:	460b      	mov	r3, r1
     512:	2504      	movs	r5, #4
     514:	68c2      	ldr	r2, [r0, #12]
     516:	1c66      	adds	r6, r4, #1
     518:	f852 2024 	ldr.w	r2, [r2, r4, lsl #2]
     51c:	b2f4      	uxtb	r4, r6
     51e:	ea4f 2e12 	mov.w	lr, r2, lsr #8
     522:	0c17      	lsrs	r7, r2, #16
     524:	0e16      	lsrs	r6, r2, #24
     526:	711a      	strb	r2, [r3, #4]
     528:	f883 e005 	strb.w	lr, [r3, #5]
     52c:	719f      	strb	r7, [r3, #6]
     52e:	71de      	strb	r6, [r3, #7]
     530:	7902      	ldrb	r2, [r0, #4]
     532:	3504      	adds	r5, #4
     534:	42a2      	cmp	r2, r4
     536:	f103 0304 	add.w	r3, r3, #4
     53a:	d8eb      	bhi.n	514 <rosserial_msgs::RequestParamResponse::serialize(unsigned char*) const+0x1c>
     53c:	462b      	mov	r3, r5
     53e:	1d2a      	adds	r2, r5, #4
     540:	4615      	mov	r5, r2
     542:	f103 0c01 	add.w	r12, r3, #1
     546:	f103 0e02 	add.w	lr, r3, #2
     54a:	1cdf      	adds	r7, r3, #3
     54c:	7c06      	ldrb	r6, [r0, #16]
     54e:	2400      	movs	r4, #0
     550:	54ce      	strb	r6, [r1, r3]
     552:	f801 400c 	strb.w	r4, [r1, r12]
     556:	f801 400e 	strb.w	r4, [r1, lr]
     55a:	55cc      	strb	r4, [r1, r7]
     55c:	7c03      	ldrb	r3, [r0, #16]
     55e:	b1ab      	cbz	r3, 58c <rosserial_msgs::RequestParamResponse::serialize(unsigned char*) const+0x94>
     560:	194b      	adds	r3, r1, r5
     562:	6982      	ldr	r2, [r0, #24]
     564:	1c66      	adds	r6, r4, #1
     566:	f852 2024 	ldr.w	r2, [r2, r4, lsl #2]
     56a:	b2f4      	uxtb	r4, r6
     56c:	ea4f 2e12 	mov.w	lr, r2, lsr #8
     570:	0c17      	lsrs	r7, r2, #16
     572:	0e16      	lsrs	r6, r2, #24
     574:	554a      	strb	r2, [r1, r5]
     576:	f883 e001 	strb.w	lr, [r3, #1]
     57a:	709f      	strb	r7, [r3, #2]
     57c:	70de      	strb	r6, [r3, #3]
     57e:	7c02      	ldrb	r2, [r0, #16]
     580:	3504      	adds	r5, #4
     582:	42a2      	cmp	r2, r4
     584:	f103 0304 	add.w	r3, r3, #4
     588:	d8eb      	bhi.n	562 <rosserial_msgs::RequestParamResponse::serialize(unsigned char*) const+0x6a>
     58a:	462a      	mov	r2, r5
     58c:	7f06      	ldrb	r6, [r0, #28]
     58e:	194b      	adds	r3, r1, r5
     590:	2400      	movs	r4, #0
     592:	548e      	strb	r6, [r1, r2]
     594:	705c      	strb	r4, [r3, #1]
     596:	709c      	strb	r4, [r3, #2]
     598:	70dc      	strb	r4, [r3, #3]
     59a:	7f03      	ldrb	r3, [r0, #28]
     59c:	1d2e      	adds	r6, r5, #4
     59e:	b1e3      	cbz	r3, 5da <rosserial_msgs::RequestParamResponse::serialize(unsigned char*) const+0xe2>
     5a0:	4688      	mov	r8, r1
     5a2:	4607      	mov	r7, r0
     5a4:	6a7b      	ldr	r3, [r7, #36]	; 0x24
     5a6:	f106 0904 	add.w	r9, r6, #4
     5aa:	f853 0024 	ldr.w	r0, [r3, r4, lsl #2]
     5ae:	f005 ff5a 	bl	6466 <strlen>
     5b2:	4605      	mov	r5, r0
     5b4:	9001      	str	r0, [sp, #4]
     5b6:	9801      	ldr	r0, [sp, #4]
     5b8:	462a      	mov	r2, r5
     5ba:	f848 0006 	str.w	r0, [r8, r6]
     5be:	6a7b      	ldr	r3, [r7, #36]	; 0x24
     5c0:	eb08 0009 	add.w	r0, r8, r9
     5c4:	f853 1024 	ldr.w	r1, [r3, r4, lsl #2]
     5c8:	f005 f882 	bl	56d0 <memcpy>
     5cc:	3401      	adds	r4, #1
     5ce:	7f3b      	ldrb	r3, [r7, #28]
     5d0:	b2e4      	uxtb	r4, r4
     5d2:	42a3      	cmp	r3, r4
     5d4:	eb05 0609 	add.w	r6, r5, r9
     5d8:	d8e4      	bhi.n	5a4 <rosserial_msgs::RequestParamResponse::serialize(unsigned char*) const+0xac>
     5da:	4630      	mov	r0, r6
     5dc:	b003      	add	sp, #12
     5de:	e8bd 83f0 	ldmia.w	sp!, {r4, r5, r6, r7, r8, r9, pc}
     5e2:	2208      	movs	r2, #8
     5e4:	4615      	mov	r5, r2
     5e6:	2707      	movs	r7, #7
     5e8:	f04f 0e06 	mov.w	lr, #6
     5ec:	f04f 0c05 	mov.w	r12, #5
     5f0:	2304      	movs	r3, #4
     5f2:	e7ab      	b.n	54c <rosserial_msgs::RequestParamResponse::serialize(unsigned char*) const+0x54>

000005f4 <rosserial_msgs::Log::serialize(unsigned char*) const>:
     5f4:	b570      	push	{r4, r5, r6, lr}
     5f6:	7903      	ldrb	r3, [r0, #4]
     5f8:	b082      	sub	sp, #8
     5fa:	700b      	strb	r3, [r1, #0]
     5fc:	4606      	mov	r6, r0
     5fe:	6880      	ldr	r0, [r0, #8]
     600:	460d      	mov	r5, r1
     602:	f005 ff30 	bl	6466 <strlen>
     606:	4604      	mov	r4, r0
     608:	ab02      	add	r3, sp, #8
     60a:	f843 0d04 	str.w	r0, [r3, #-4]!
     60e:	6818      	ldr	r0, [r3, #0]
     610:	4622      	mov	r2, r4
     612:	f8c5 0001 	str.w	r0, [r5, #1]
     616:	68b1      	ldr	r1, [r6, #8]
     618:	1d68      	adds	r0, r5, #5
     61a:	f005 f859 	bl	56d0 <memcpy>
     61e:	1d60      	adds	r0, r4, #5
     620:	b002      	add	sp, #8
     622:	bd70      	pop	{r4, r5, r6, pc}

00000624 <rosserial_msgs::TopicInfo::serialize(unsigned char*) const>:
     624:	8883      	ldrh	r3, [r0, #4]
     626:	e92d 41f0 	stmdb	sp!, {r4, r5, r6, r7, r8, lr}
     62a:	700b      	strb	r3, [r1, #0]
     62c:	8883      	ldrh	r3, [r0, #4]
     62e:	b084      	sub	sp, #16
     630:	0a1b      	lsrs	r3, r3, #8
     632:	704b      	strb	r3, [r1, #1]
     634:	4606      	mov	r6, r0
     636:	6880      	ldr	r0, [r0, #8]
     638:	460d      	mov	r5, r1
     63a:	f005 ff14 	bl	6466 <strlen>
     63e:	4604      	mov	r4, r0
     640:	ab04      	add	r3, sp, #16
     642:	f843 0d0c 	str.w	r0, [r3, #-12]!
     646:	6818      	ldr	r0, [r3, #0]
     648:	4622      	mov	r2, r4
     64a:	f8c5 0002 	str.w	r0, [r5, #2]
     64e:	68b1      	ldr	r1, [r6, #8]
     650:	1da8      	adds	r0, r5, #6
     652:	f005 f83d 	bl	56d0 <memcpy>
     656:	68f0      	ldr	r0, [r6, #12]
     658:	f005 ff05 	bl	6466 <strlen>
     65c:	4680      	mov	r8, r0
     65e:	ab04      	add	r3, sp, #16
     660:	f843 0d08 	str.w	r0, [r3, #-8]!
     664:	6818      	ldr	r0, [r3, #0]
     666:	1da3      	adds	r3, r4, #6
     668:	50e8      	str	r0, [r5, r3]
     66a:	340a      	adds	r4, #10
     66c:	68f1      	ldr	r1, [r6, #12]
     66e:	4642      	mov	r2, r8
     670:	1928      	adds	r0, r5, r4
     672:	f005 f82d 	bl	56d0 <memcpy>
     676:	6930      	ldr	r0, [r6, #16]
     678:	f005 fef5 	bl	6466 <strlen>
     67c:	4607      	mov	r7, r0
     67e:	ab04      	add	r3, sp, #16
     680:	f843 0d04 	str.w	r0, [r3, #-4]!
     684:	6818      	ldr	r0, [r3, #0]
     686:	4444      	add	r4, r8
     688:	5128      	str	r0, [r5, r4]
     68a:	3404      	adds	r4, #4
     68c:	6931      	ldr	r1, [r6, #16]
     68e:	1928      	adds	r0, r5, r4
     690:	463a      	mov	r2, r7
     692:	f005 f81d 	bl	56d0 <memcpy>
     696:	6973      	ldr	r3, [r6, #20]
     698:	1938      	adds	r0, r7, r4
     69a:	182a      	adds	r2, r5, r0
     69c:	542b      	strb	r3, [r5, r0]
     69e:	0a1e      	lsrs	r6, r3, #8
     6a0:	0c1c      	lsrs	r4, r3, #16
     6a2:	0e19      	lsrs	r1, r3, #24
     6a4:	3004      	adds	r0, #4
     6a6:	7056      	strb	r6, [r2, #1]
     6a8:	7094      	strb	r4, [r2, #2]
     6aa:	70d1      	strb	r1, [r2, #3]
     6ac:	b004      	add	sp, #16
     6ae:	e8bd 81f0 	ldmia.w	sp!, {r4, r5, r6, r7, r8, pc}
     6b2:	bf00      	nop

000006b4 <rosserial_msgs::RequestParamResponse::deserialize(unsigned char*)>:
     6b4:	e92d 41f0 	stmdb	sp!, {r4, r5, r6, r7, r8, lr}
     6b8:	7903      	ldrb	r3, [r0, #4]
     6ba:	780c      	ldrb	r4, [r1, #0]
     6bc:	b082      	sub	sp, #8
     6be:	42a3      	cmp	r3, r4
     6c0:	4605      	mov	r5, r0
     6c2:	460e      	mov	r6, r1
     6c4:	f0c0 8082 	bcc.w	7cc <rosserial_msgs::RequestParamResponse::deserialize(unsigned char*)+0x118>
     6c8:	712c      	strb	r4, [r5, #4]
     6ca:	2c00      	cmp	r4, #0
     6cc:	f000 8087 	beq.w	7de <rosserial_msgs::RequestParamResponse::deserialize(unsigned char*)+0x12a>
     6d0:	4633      	mov	r3, r6
     6d2:	f105 0708 	add.w	r7, r5, #8
     6d6:	2000      	movs	r0, #0
     6d8:	2404      	movs	r4, #4
     6da:	799a      	ldrb	r2, [r3, #6]
     6dc:	f893 e005 	ldrb.w	lr, [r3, #5]
     6e0:	7919      	ldrb	r1, [r3, #4]
     6e2:	0412      	lsls	r2, r2, #16
     6e4:	ea42 220e 	orr.w	r2, r2, lr, lsl #8
     6e8:	f893 e007 	ldrb.w	lr, [r3, #7]
     6ec:	430a      	orrs	r2, r1
     6ee:	ea42 620e 	orr.w	r2, r2, lr, lsl #24
     6f2:	60aa      	str	r2, [r5, #8]
     6f4:	f8d7 e000 	ldr.w	lr, [r7]
     6f8:	68ea      	ldr	r2, [r5, #12]
     6fa:	1c41      	adds	r1, r0, #1
     6fc:	f842 e020 	str.w	lr, [r2, r0, lsl #2]
     700:	792a      	ldrb	r2, [r5, #4]
     702:	b2c8      	uxtb	r0, r1
     704:	4282      	cmp	r2, r0
     706:	f104 0404 	add.w	r4, r4, #4
     70a:	f103 0304 	add.w	r3, r3, #4
     70e:	d8e4      	bhi.n	6da <rosserial_msgs::RequestParamResponse::deserialize(unsigned char*)+0x26>
     710:	4623      	mov	r3, r4
     712:	f816 8003 	ldrb.w	r8, [r6, r3]
     716:	7c2b      	ldrb	r3, [r5, #16]
     718:	1d27      	adds	r7, r4, #4
     71a:	4543      	cmp	r3, r8
     71c:	463c      	mov	r4, r7
     71e:	d366      	bcc.n	7ee <rosserial_msgs::RequestParamResponse::deserialize(unsigned char*)+0x13a>
     720:	f885 8010 	strb.w	r8, [r5, #16]
     724:	f1b8 0f00 	cmp.w	r8, #0
     728:	d01f      	beq.n	76a <rosserial_msgs::RequestParamResponse::deserialize(unsigned char*)+0xb6>
     72a:	f105 0714 	add.w	r7, r5, #20
     72e:	1933      	adds	r3, r6, r4
     730:	2000      	movs	r0, #0
     732:	789a      	ldrb	r2, [r3, #2]
     734:	f893 e001 	ldrb.w	lr, [r3, #1]
     738:	7819      	ldrb	r1, [r3, #0]
     73a:	0412      	lsls	r2, r2, #16
     73c:	ea42 220e 	orr.w	r2, r2, lr, lsl #8
     740:	f893 e003 	ldrb.w	lr, [r3, #3]
     744:	430a      	orrs	r2, r1
     746:	ea42 620e 	orr.w	r2, r2, lr, lsl #24
     74a:	616a      	str	r2, [r5, #20]
     74c:	f8d7 e000 	ldr.w	lr, [r7]
     750:	69aa      	ldr	r2, [r5, #24]
     752:	1c41      	adds	r1, r0, #1
     754:	f842 e020 	str.w	lr, [r2, r0, lsl #2]
     758:	7c2a      	ldrb	r2, [r5, #16]
     75a:	b2c8      	uxtb	r0, r1
     75c:	4282      	cmp	r2, r0
     75e:	f104 0404 	add.w	r4, r4, #4
     762:	f103 0304 	add.w	r3, r3, #4
     766:	d8e4      	bhi.n	732 <rosserial_msgs::RequestParamResponse::deserialize(unsigned char*)+0x7e>
     768:	4627      	mov	r7, r4
     76a:	5df7      	ldrb	r7, [r6, r7]
     76c:	7f2b      	ldrb	r3, [r5, #28]
     76e:	42bb      	cmp	r3, r7
     770:	d344      	bcc.n	7fc <rosserial_msgs::RequestParamResponse::deserialize(unsigned char*)+0x148>
     772:	1d23      	adds	r3, r4, #4
     774:	772f      	strb	r7, [r5, #28]
     776:	b32f      	cbz	r7, 7c4 <rosserial_msgs::RequestParamResponse::deserialize(unsigned char*)+0x110>
     778:	2700      	movs	r7, #0
     77a:	46bc      	mov	r12, r7
     77c:	f105 0e20 	add.w	lr, r5, #32
     780:	58f0      	ldr	r0, [r6, r3]
     782:	1d1c      	adds	r4, r3, #4
     784:	9001      	str	r0, [sp, #4]
     786:	9801      	ldr	r0, [sp, #4]
     788:	4420      	add	r0, r4
     78a:	4284      	cmp	r4, r0
     78c:	d209      	bcs.n	7a2 <rosserial_msgs::RequestParamResponse::deserialize(unsigned char*)+0xee>
     78e:	4622      	mov	r2, r4
     790:	3303      	adds	r3, #3
     792:	4433      	add	r3, r6
     794:	f813 1f01 	ldrb.w	r1, [r3, #1]!
     798:	3201      	adds	r2, #1
     79a:	4282      	cmp	r2, r0
     79c:	f803 1c01 	strb.w	r1, [r3, #-1]
     7a0:	d3f8      	bcc.n	794 <rosserial_msgs::RequestParamResponse::deserialize(unsigned char*)+0xe0>
     7a2:	3c01      	subs	r4, #1
     7a4:	1833      	adds	r3, r6, r0
     7a6:	4434      	add	r4, r6
     7a8:	f803 cc01 	strb.w	r12, [r3, #-1]
     7ac:	622c      	str	r4, [r5, #32]
     7ae:	6a6a      	ldr	r2, [r5, #36]	; 0x24
     7b0:	f8de 1000 	ldr.w	r1, [lr]
     7b4:	1c7b      	adds	r3, r7, #1
     7b6:	f842 1027 	str.w	r1, [r2, r7, lsl #2]
     7ba:	7f2a      	ldrb	r2, [r5, #28]
     7bc:	b2df      	uxtb	r7, r3
     7be:	42ba      	cmp	r2, r7
     7c0:	4603      	mov	r3, r0
     7c2:	d8dd      	bhi.n	780 <rosserial_msgs::RequestParamResponse::deserialize(unsigned char*)+0xcc>
     7c4:	4618      	mov	r0, r3
     7c6:	b002      	add	sp, #8
     7c8:	e8bd 81f0 	ldmia.w	sp!, {r4, r5, r6, r7, r8, pc}
     7cc:	00a1      	lsls	r1, r4, #2
     7ce:	68c0      	ldr	r0, [r0, #12]
     7d0:	f001 fe0e 	bl	23f0 <__wrap_realloc>
     7d4:	712c      	strb	r4, [r5, #4]
     7d6:	60e8      	str	r0, [r5, #12]
     7d8:	2c00      	cmp	r4, #0
     7da:	f47f af79 	bne.w	6d0 <rosserial_msgs::RequestParamResponse::deserialize(unsigned char*)+0x1c>
     7de:	2304      	movs	r3, #4
     7e0:	f816 8003 	ldrb.w	r8, [r6, r3]
     7e4:	7c2b      	ldrb	r3, [r5, #16]
     7e6:	2708      	movs	r7, #8
     7e8:	4543      	cmp	r3, r8
     7ea:	463c      	mov	r4, r7
     7ec:	d298      	bcs.n	720 <rosserial_msgs::RequestParamResponse::deserialize(unsigned char*)+0x6c>
     7ee:	ea4f 0188 	mov.w	r1, r8, lsl #2
     7f2:	69a8      	ldr	r0, [r5, #24]
     7f4:	f001 fdfc 	bl	23f0 <__wrap_realloc>
     7f8:	61a8      	str	r0, [r5, #24]
     7fa:	e791      	b.n	720 <rosserial_msgs::RequestParamResponse::deserialize(unsigned char*)+0x6c>
     7fc:	00b9      	lsls	r1, r7, #2
     7fe:	6a68      	ldr	r0, [r5, #36]	; 0x24
     800:	f001 fdf6 	bl	23f0 <__wrap_realloc>
     804:	6268      	str	r0, [r5, #36]	; 0x24
     806:	e7b4      	b.n	772 <rosserial_msgs::RequestParamResponse::deserialize(unsigned char*)+0xbe>

00000808 <fish_msgs::joystick_in::serialize(unsigned char*) const>:
     808:	6883      	ldr	r3, [r0, #8]
     80a:	b570      	push	{r4, r5, r6, lr}
     80c:	700b      	strb	r3, [r1, #0]
     80e:	6883      	ldr	r3, [r0, #8]
     810:	4605      	mov	r5, r0
     812:	0a1b      	lsrs	r3, r3, #8
     814:	704b      	strb	r3, [r1, #1]
     816:	8943      	ldrh	r3, [r0, #10]
     818:	b082      	sub	sp, #8
     81a:	708b      	strb	r3, [r1, #2]
     81c:	7ac3      	ldrb	r3, [r0, #11]
     81e:	460c      	mov	r4, r1
     820:	70cb      	strb	r3, [r1, #3]
     822:	68c3      	ldr	r3, [r0, #12]
     824:	710b      	strb	r3, [r1, #4]
     826:	68c3      	ldr	r3, [r0, #12]
     828:	0a1b      	lsrs	r3, r3, #8
     82a:	714b      	strb	r3, [r1, #5]
     82c:	89c3      	ldrh	r3, [r0, #14]
     82e:	718b      	strb	r3, [r1, #6]
     830:	7bc3      	ldrb	r3, [r0, #15]
     832:	71cb      	strb	r3, [r1, #7]
     834:	6903      	ldr	r3, [r0, #16]
     836:	720b      	strb	r3, [r1, #8]
     838:	6903      	ldr	r3, [r0, #16]
     83a:	0a1b      	lsrs	r3, r3, #8
     83c:	724b      	strb	r3, [r1, #9]
     83e:	8a43      	ldrh	r3, [r0, #18]
     840:	728b      	strb	r3, [r1, #10]
     842:	7cc3      	ldrb	r3, [r0, #19]
     844:	72cb      	strb	r3, [r1, #11]
     846:	6940      	ldr	r0, [r0, #20]
     848:	f005 fe0d 	bl	6466 <strlen>
     84c:	4606      	mov	r6, r0
     84e:	ab02      	add	r3, sp, #8
     850:	f843 0d04 	str.w	r0, [r3, #-4]!
     854:	6818      	ldr	r0, [r3, #0]
     856:	4632      	mov	r2, r6
     858:	60e0      	str	r0, [r4, #12]
     85a:	6969      	ldr	r1, [r5, #20]
     85c:	f104 0010 	add.w	r0, r4, #16
     860:	f004 ff36 	bl	56d0 <memcpy>
     864:	7e2b      	ldrb	r3, [r5, #24]
     866:	4434      	add	r4, r6
     868:	7423      	strb	r3, [r4, #16]
     86a:	7e6b      	ldrb	r3, [r5, #25]
     86c:	f106 0014 	add.w	r0, r6, #20
     870:	7463      	strb	r3, [r4, #17]
     872:	7eab      	ldrb	r3, [r5, #26]
     874:	74a3      	strb	r3, [r4, #18]
     876:	7eeb      	ldrb	r3, [r5, #27]
     878:	74e3      	strb	r3, [r4, #19]
     87a:	b002      	add	sp, #8
     87c:	bd70      	pop	{r4, r5, r6, pc}
     87e:	bf00      	nop

00000880 <ros::Subscriber<fish_msgs::joystick_in>::callback(unsigned char*)>:
     880:	b5f0      	push	{r4, r5, r6, r7, lr}
     882:	780b      	ldrb	r3, [r1, #0]
     884:	4604      	mov	r4, r0
     886:	6143      	str	r3, [r0, #20]
     888:	784a      	ldrb	r2, [r1, #1]
     88a:	f100 050c 	add.w	r5, r0, #12
     88e:	ea43 2302 	orr.w	r3, r3, r2, lsl #8
     892:	6143      	str	r3, [r0, #20]
     894:	788a      	ldrb	r2, [r1, #2]
     896:	b083      	sub	sp, #12
     898:	ea43 4302 	orr.w	r3, r3, r2, lsl #16
     89c:	6143      	str	r3, [r0, #20]
     89e:	78ca      	ldrb	r2, [r1, #3]
     8a0:	f101 0e0f 	add.w	lr, r1, #15
     8a4:	ea43 6302 	orr.w	r3, r3, r2, lsl #24
     8a8:	6143      	str	r3, [r0, #20]
     8aa:	790b      	ldrb	r3, [r1, #4]
     8ac:	6183      	str	r3, [r0, #24]
     8ae:	794a      	ldrb	r2, [r1, #5]
     8b0:	ea43 2302 	orr.w	r3, r3, r2, lsl #8
     8b4:	6183      	str	r3, [r0, #24]
     8b6:	798a      	ldrb	r2, [r1, #6]
     8b8:	ea43 4302 	orr.w	r3, r3, r2, lsl #16
     8bc:	6183      	str	r3, [r0, #24]
     8be:	79ca      	ldrb	r2, [r1, #7]
     8c0:	ea43 6302 	orr.w	r3, r3, r2, lsl #24
     8c4:	6183      	str	r3, [r0, #24]
     8c6:	7a0b      	ldrb	r3, [r1, #8]
     8c8:	61c3      	str	r3, [r0, #28]
     8ca:	7a4a      	ldrb	r2, [r1, #9]
     8cc:	ea43 2302 	orr.w	r3, r3, r2, lsl #8
     8d0:	61c3      	str	r3, [r0, #28]
     8d2:	7a8a      	ldrb	r2, [r1, #10]
     8d4:	ea43 4302 	orr.w	r3, r3, r2, lsl #16
     8d8:	61c3      	str	r3, [r0, #28]
     8da:	7aca      	ldrb	r2, [r1, #11]
     8dc:	ea43 6302 	orr.w	r3, r3, r2, lsl #24
     8e0:	61c3      	str	r3, [r0, #28]
     8e2:	68c8      	ldr	r0, [r1, #12]
     8e4:	9001      	str	r0, [sp, #4]
     8e6:	9e01      	ldr	r6, [sp, #4]
     8e8:	f106 0710 	add.w	r7, r6, #16
     8ec:	2f10      	cmp	r7, #16
     8ee:	d909      	bls.n	904 <ros::Subscriber<fish_msgs::joystick_in>::callback(unsigned char*)+0x84>
     8f0:	4673      	mov	r3, lr
     8f2:	f106 000f 	add.w	r0, r6, #15
     8f6:	4408      	add	r0, r1
     8f8:	f813 2f01 	ldrb.w	r2, [r3, #1]!
     8fc:	4283      	cmp	r3, r0
     8fe:	f803 2c01 	strb.w	r2, [r3, #-1]
     902:	d1f9      	bne.n	8f8 <ros::Subscriber<fish_msgs::joystick_in>::callback(unsigned char*)+0x78>
     904:	4628      	mov	r0, r5
     906:	198b      	adds	r3, r1, r6
     908:	2200      	movs	r2, #0
     90a:	73da      	strb	r2, [r3, #15]
     90c:	f8c4 e020 	str.w	lr, [r4, #32]
     910:	5dca      	ldrb	r2, [r1, r7]
     912:	f884 2024 	strb.w	r2, [r4, #36]	; 0x24
     916:	7c59      	ldrb	r1, [r3, #17]
     918:	6aa2      	ldr	r2, [r4, #40]	; 0x28
     91a:	f884 1025 	strb.w	r1, [r4, #37]	; 0x25
     91e:	7c99      	ldrb	r1, [r3, #18]
     920:	f884 1026 	strb.w	r1, [r4, #38]	; 0x26
     924:	7cdb      	ldrb	r3, [r3, #19]
     926:	f884 3027 	strb.w	r3, [r4, #39]	; 0x27
     92a:	b003      	add	sp, #12
     92c:	e8bd 40f0 	ldmia.w	sp!, {r4, r5, r6, r7, lr}
     930:	4710      	bx	r2
     932:	bf00      	nop

00000934 <fish_msgs::joystick_in::deserialize(unsigned char*)>:
     934:	780b      	ldrb	r3, [r1, #0]
     936:	b4f0      	push	{r4, r5, r6, r7}
     938:	6083      	str	r3, [r0, #8]
     93a:	784a      	ldrb	r2, [r1, #1]
     93c:	4604      	mov	r4, r0
     93e:	ea43 2302 	orr.w	r3, r3, r2, lsl #8
     942:	6083      	str	r3, [r0, #8]
     944:	788a      	ldrb	r2, [r1, #2]
     946:	b082      	sub	sp, #8
     948:	ea43 4302 	orr.w	r3, r3, r2, lsl #16
     94c:	6083      	str	r3, [r0, #8]
     94e:	78ca      	ldrb	r2, [r1, #3]
     950:	f101 070f 	add.w	r7, r1, #15
     954:	ea43 6302 	orr.w	r3, r3, r2, lsl #24
     958:	6083      	str	r3, [r0, #8]
     95a:	790b      	ldrb	r3, [r1, #4]
     95c:	60c3      	str	r3, [r0, #12]
     95e:	794a      	ldrb	r2, [r1, #5]
     960:	ea43 2302 	orr.w	r3, r3, r2, lsl #8
     964:	60c3      	str	r3, [r0, #12]
     966:	798a      	ldrb	r2, [r1, #6]
     968:	ea43 4302 	orr.w	r3, r3, r2, lsl #16
     96c:	60c3      	str	r3, [r0, #12]
     96e:	79ca      	ldrb	r2, [r1, #7]
     970:	ea43 6302 	orr.w	r3, r3, r2, lsl #24
     974:	60c3      	str	r3, [r0, #12]
     976:	7a0b      	ldrb	r3, [r1, #8]
     978:	6103      	str	r3, [r0, #16]
     97a:	7a4a      	ldrb	r2, [r1, #9]
     97c:	ea43 2302 	orr.w	r3, r3, r2, lsl #8
     980:	6103      	str	r3, [r0, #16]
     982:	7a8a      	ldrb	r2, [r1, #10]
     984:	ea43 4302 	orr.w	r3, r3, r2, lsl #16
     988:	6103      	str	r3, [r0, #16]
     98a:	7aca      	ldrb	r2, [r1, #11]
     98c:	ea43 6302 	orr.w	r3, r3, r2, lsl #24
     990:	6103      	str	r3, [r0, #16]
     992:	68c8      	ldr	r0, [r1, #12]
     994:	9001      	str	r0, [sp, #4]
     996:	9801      	ldr	r0, [sp, #4]
     998:	f100 0610 	add.w	r6, r0, #16
     99c:	2e10      	cmp	r6, #16
     99e:	d909      	bls.n	9b4 <fish_msgs::joystick_in::deserialize(unsigned char*)+0x80>
     9a0:	463b      	mov	r3, r7
     9a2:	f100 050f 	add.w	r5, r0, #15
     9a6:	440d      	add	r5, r1
     9a8:	f813 2f01 	ldrb.w	r2, [r3, #1]!
     9ac:	42ab      	cmp	r3, r5
     9ae:	f803 2c01 	strb.w	r2, [r3, #-1]
     9b2:	d1f9      	bne.n	9a8 <fish_msgs::joystick_in::deserialize(unsigned char*)+0x74>
     9b4:	180b      	adds	r3, r1, r0
     9b6:	2200      	movs	r2, #0
     9b8:	73da      	strb	r2, [r3, #15]
     9ba:	6167      	str	r7, [r4, #20]
     9bc:	5d8a      	ldrb	r2, [r1, r6]
     9be:	3014      	adds	r0, #20
     9c0:	7622      	strb	r2, [r4, #24]
     9c2:	7c5a      	ldrb	r2, [r3, #17]
     9c4:	7662      	strb	r2, [r4, #25]
     9c6:	7c9a      	ldrb	r2, [r3, #18]
     9c8:	76a2      	strb	r2, [r4, #26]
     9ca:	7cdb      	ldrb	r3, [r3, #19]
     9cc:	76e3      	strb	r3, [r4, #27]
     9ce:	b002      	add	sp, #8
     9d0:	bcf0      	pop	{r4, r5, r6, r7}
     9d2:	4770      	bx	lr

000009d4 <ros::NodeHandle_<MbedHardware, 25, 25, 512, 512>::publish(int, ros::Msg const*)>:
     9d4:	e92d 41f0 	stmdb	sp!, {r4, r5, r6, r7, r8, lr}
     9d8:	2963      	cmp	r1, #99	; 0x63
     9da:	b084      	sub	sp, #16
     9dc:	dd03      	ble.n	9e6 <ros::NodeHandle_<MbedHardware, 25, 25, 512, 512>::publish(int, ros::Msg const*)+0x12>
     9de:	f890 55fc 	ldrb.w	r5, [r0, #1532]	; 0x5fc
     9e2:	2d00      	cmp	r5, #0
     9e4:	d04a      	beq.n	a7c <ros::NodeHandle_<MbedHardware, 25, 25, 512, 512>::publish(int, ros::Msg const*)+0xa8>
     9e6:	4606      	mov	r6, r0
     9e8:	6813      	ldr	r3, [r2, #0]
     9ea:	4688      	mov	r8, r1
     9ec:	4610      	mov	r0, r2
     9ee:	681b      	ldr	r3, [r3, #0]
     9f0:	f206 3127 	addw	r1, r6, #807	; 0x327
     9f4:	4798      	blx	r3
     9f6:	b2c4      	uxtb	r4, r0
     9f8:	f3c0 2107 	ubfx	r1, r0, #8, #8
     9fc:	1862      	adds	r2, r4, r1
     9fe:	43d2      	mvns	r2, r2
     a00:	b280      	uxth	r0, r0
     a02:	f886 4322 	strb.w	r4, [r6, #802]	; 0x322
     a06:	24ff      	movs	r4, #255	; 0xff
     a08:	f206 3725 	addw	r7, r6, #805	; 0x325
     a0c:	f200 3526 	addw	r5, r0, #806	; 0x326
     a10:	f886 2324 	strb.w	r2, [r6, #804]	; 0x324
     a14:	f886 4320 	strb.w	r4, [r6, #800]	; 0x320
     a18:	22fe      	movs	r2, #254	; 0xfe
     a1a:	fa5f f488 	uxtb.w	r4, r8
     a1e:	f348 2807 	sbfx	r8, r8, #8, #8
     a22:	f886 2321 	strb.w	r2, [r6, #801]	; 0x321
     a26:	463b      	mov	r3, r7
     a28:	f886 1323 	strb.w	r1, [r6, #803]	; 0x323
     a2c:	4435      	add	r5, r6
     a2e:	f886 4325 	strb.w	r4, [r6, #805]	; 0x325
     a32:	f886 8326 	strb.w	r8, [r6, #806]	; 0x326
     a36:	2200      	movs	r2, #0
     a38:	e001      	b.n	a3e <ros::NodeHandle_<MbedHardware, 25, 25, 512, 512>::publish(int, ros::Msg const*)+0x6a>
     a3a:	f813 4f01 	ldrb.w	r4, [r3, #1]!
     a3e:	42ab      	cmp	r3, r5
     a40:	4422      	add	r2, r4
     a42:	d1fa      	bne.n	a3a <ros::NodeHandle_<MbedHardware, 25, 25, 512, 512>::publish(int, ros::Msg const*)+0x66>
     a44:	43d2      	mvns	r2, r2
     a46:	1dc3      	adds	r3, r0, #7
     a48:	f100 0508 	add.w	r5, r0, #8
     a4c:	b29b      	uxth	r3, r3
     a4e:	b2ad      	uxth	r5, r5
     a50:	4433      	add	r3, r6
     a52:	f5b5 7f00 	cmp.w	r5, #512	; 0x200
     a56:	f883 2320 	strb.w	r2, [r3, #800]	; 0x320
     a5a:	d813      	bhi.n	a84 <ros::NodeHandle_<MbedHardware, 25, 25, 512, 512>::publish(int, ros::Msg const*)+0xb0>
     a5c:	f506 7748 	add.w	r7, r6, #800	; 0x320
     a60:	b165      	cbz	r5, a7c <ros::NodeHandle_<MbedHardware, 25, 25, 512, 512>::publish(int, ros::Msg const*)+0xa8>
     a62:	1e6b      	subs	r3, r5, #1
     a64:	441f      	add	r7, r3
     a66:	f106 0844 	add.w	r8, r6, #68	; 0x44
     a6a:	f206 341f 	addw	r4, r6, #799	; 0x31f
     a6e:	f814 1f01 	ldrb.w	r1, [r4, #1]!
     a72:	4640      	mov	r0, r8
     a74:	f003 fb10 	bl	4098 <mbed::Stream::putc(int)>
     a78:	42a7      	cmp	r7, r4
     a7a:	d1f8      	bne.n	a6e <ros::NodeHandle_<MbedHardware, 25, 25, 512, 512>::publish(int, ros::Msg const*)+0x9a>
     a7c:	4628      	mov	r0, r5
     a7e:	b004      	add	sp, #16
     a80:	e8bd 81f0 	ldmia.w	sp!, {r4, r5, r6, r7, r8, pc}
     a84:	4930      	ldr	r1, [pc, #192]	; (b48 <ros::NodeHandle_<MbedHardware, 25, 25, 512, 512>::publish(int, ros::Msg const*)+0x174>)
     a86:	4c31      	ldr	r4, [pc, #196]	; (b4c <ros::NodeHandle_<MbedHardware, 25, 25, 512, 512>::publish(int, ros::Msg const*)+0x178>)
     a88:	2203      	movs	r2, #3
     a8a:	6833      	ldr	r3, [r6, #0]
     a8c:	9101      	str	r1, [sp, #4]
     a8e:	9403      	str	r4, [sp, #12]
     a90:	f88d 2008 	strb.w	r2, [sp, #8]
     a94:	681b      	ldr	r3, [r3, #0]
     a96:	492e      	ldr	r1, [pc, #184]	; (b50 <ros::NodeHandle_<MbedHardware, 25, 25, 512, 512>::publish(int, ros::Msg const*)+0x17c>)
     a98:	428b      	cmp	r3, r1
     a9a:	d14d      	bne.n	b38 <ros::NodeHandle_<MbedHardware, 25, 25, 512, 512>::publish(int, ros::Msg const*)+0x164>
     a9c:	ab04      	add	r3, sp, #16
     a9e:	2138      	movs	r1, #56	; 0x38
     aa0:	f843 1d10 	str.w	r1, [r3, #-16]!
     aa4:	6818      	ldr	r0, [r3, #0]
     aa6:	f886 2327 	strb.w	r2, [r6, #807]	; 0x327
     aaa:	f8c6 0328 	str.w	r0, [r6, #808]	; 0x328
     aae:	f104 0c30 	add.w	r12, r4, #48	; 0x30
     ab2:	f506 754b 	add.w	r5, r6, #812	; 0x32c
     ab6:	46a6      	mov	lr, r4
     ab8:	e8be 000f 	ldmia.w	lr!, {r0, r1, r2, r3}
     abc:	45e6      	cmp	lr, r12
     abe:	6028      	str	r0, [r5, #0]
     ac0:	6069      	str	r1, [r5, #4]
     ac2:	60aa      	str	r2, [r5, #8]
     ac4:	60eb      	str	r3, [r5, #12]
     ac6:	f104 0410 	add.w	r4, r4, #16
     aca:	f105 0510 	add.w	r5, r5, #16
     ace:	d1f2      	bne.n	ab6 <ros::NodeHandle_<MbedHardware, 25, 25, 512, 512>::publish(int, ros::Msg const*)+0xe2>
     ad0:	cc03      	ldmia	r4!, {r0, r1}
     ad2:	f04f 0e00 	mov.w	lr, #0
     ad6:	6028      	str	r0, [r5, #0]
     ad8:	6069      	str	r1, [r5, #4]
     ada:	f04f 0c07 	mov.w	r12, #7
     ade:	21c2      	movs	r1, #194	; 0xc2
     ae0:	25ff      	movs	r5, #255	; 0xff
     ae2:	24fe      	movs	r4, #254	; 0xfe
     ae4:	203d      	movs	r0, #61	; 0x3d
     ae6:	f886 1324 	strb.w	r1, [r6, #804]	; 0x324
     aea:	4673      	mov	r3, lr
     aec:	4662      	mov	r2, r12
     aee:	f886 e323 	strb.w	lr, [r6, #803]	; 0x323
     af2:	f886 e326 	strb.w	lr, [r6, #806]	; 0x326
     af6:	f886 c325 	strb.w	r12, [r6, #805]	; 0x325
     afa:	f886 5320 	strb.w	r5, [r6, #800]	; 0x320
     afe:	f886 4321 	strb.w	r4, [r6, #801]	; 0x321
     b02:	f886 0322 	strb.w	r0, [r6, #802]	; 0x322
     b06:	f206 3163 	addw	r1, r6, #867	; 0x363
     b0a:	e001      	b.n	b10 <ros::NodeHandle_<MbedHardware, 25, 25, 512, 512>::publish(int, ros::Msg const*)+0x13c>
     b0c:	f817 2f01 	ldrb.w	r2, [r7, #1]!
     b10:	428f      	cmp	r7, r1
     b12:	4413      	add	r3, r2
     b14:	d1fa      	bne.n	b0c <ros::NodeHandle_<MbedHardware, 25, 25, 512, 512>::publish(int, ros::Msg const*)+0x138>
     b16:	43db      	mvns	r3, r3
     b18:	f106 0744 	add.w	r7, r6, #68	; 0x44
     b1c:	f886 3364 	strb.w	r3, [r6, #868]	; 0x364
     b20:	f206 351f 	addw	r5, r6, #799	; 0x31f
     b24:	f506 7459 	add.w	r4, r6, #868	; 0x364
     b28:	f815 1f01 	ldrb.w	r1, [r5, #1]!
     b2c:	4638      	mov	r0, r7
     b2e:	f003 fab3 	bl	4098 <mbed::Stream::putc(int)>
     b32:	42ac      	cmp	r4, r5
     b34:	d1f8      	bne.n	b28 <ros::NodeHandle_<MbedHardware, 25, 25, 512, 512>::publish(int, ros::Msg const*)+0x154>
     b36:	e003      	b.n	b40 <ros::NodeHandle_<MbedHardware, 25, 25, 512, 512>::publish(int, ros::Msg const*)+0x16c>
     b38:	4630      	mov	r0, r6
     b3a:	aa01      	add	r2, sp, #4
     b3c:	2107      	movs	r1, #7
     b3e:	4798      	blx	r3
     b40:	f04f 35ff 	mov.w	r5, #4294967295
     b44:	e79a      	b.n	a7c <ros::NodeHandle_<MbedHardware, 25, 25, 512, 512>::publish(int, ros::Msg const*)+0xa8>
     b46:	bf00      	nop
     b48:	0000707c 	.word	0x0000707c
     b4c:	00007240 	.word	0x00007240
     b50:	000009d5 	.word	0x000009d5

00000b54 <main>:
     b54:	e92d 4880 	stmdb	sp!, {r7, r11, lr}
     b58:	f8df 937c 	ldr.w	r9, [pc, #892]	; ed8 <Stack_Size+0x2d8>
     b5c:	b089      	sub	sp, #36	; 0x24
     b5e:	f8d9 1100 	ldr.w	r1, [r9, #256]	; 0x100
     b62:	f109 0004 	add.w	r0, r9, #4
     b66:	f003 f9c1 	bl	3eec <mbed::SerialBase::baud(int)>
     b6a:	2200      	movs	r2, #0
     b6c:	4613      	mov	r3, r2
     b6e:	f509 61b0 	add.w	r1, r9, #1408	; 0x580
     b72:	f8c9 25e8 	str.w	r2, [r9, #1512]	; 0x5e8
     b76:	f8c9 25ec 	str.w	r2, [r9, #1516]	; 0x5ec
     b7a:	f8c9 25f4 	str.w	r2, [r9, #1524]	; 0x5f4
     b7e:	f8c9 25f0 	str.w	r2, [r9, #1520]	; 0x5f0
     b82:	f851 2f04 	ldr.w	r2, [r1, #4]!
     b86:	b11a      	cbz	r2, b90 <main+0x3c>
     b88:	3301      	adds	r3, #1
     b8a:	2b19      	cmp	r3, #25
     b8c:	d1f9      	bne.n	b82 <main+0x2e>
     b8e:	e006      	b.n	b9e <main+0x4a>
     b90:	4acf      	ldr	r2, [pc, #828]	; (ed0 <Stack_Size+0x2d0>)
     b92:	eb09 0183 	add.w	r1, r9, r3, lsl #2
     b96:	3364      	adds	r3, #100	; 0x64
     b98:	f8c1 2584 	str.w	r2, [r1, #1412]	; 0x584
     b9c:	6053      	str	r3, [r2, #4]
     b9e:	f8df 8348 	ldr.w	r8, [pc, #840]	; ee8 <Stack_Size+0x2e8>
     ba2:	f5a8 7a48 	sub.w	r10, r8, #800	; 0x320
     ba6:	e00d      	b.n	bc4 <main+0x70>
     ba8:	f899 35fc 	ldrb.w	r3, [r9, #1532]	; 0x5fc
     bac:	b13b      	cbz	r3, bbe <main+0x6a>
     bae:	f640 12c4 	movw	r2, #2500	; 0x9c4
     bb2:	f8da 3600 	ldr.w	r3, [r10, #1536]	; 0x600
     bb6:	1ae3      	subs	r3, r4, r3
     bb8:	4293      	cmp	r3, r2
     bba:	f200 8197 	bhi.w	eec <Stack_Size+0x2ec>
     bbe:	2001      	movs	r0, #1
     bc0:	f002 f8fa 	bl	2db8 <wait_ms>
     bc4:	48c3      	ldr	r0, [pc, #780]	; (ed4 <Stack_Size+0x2d4>)
     bc6:	f003 fa97 	bl	40f8 <mbed::Timer::read_ms()>
     bca:	f642 22f8 	movw	r2, #11000	; 0x2af8
     bce:	f8d9 3604 	ldr.w	r3, [r9, #1540]	; 0x604
     bd2:	4604      	mov	r4, r0
     bd4:	1ac3      	subs	r3, r0, r3
     bd6:	4293      	cmp	r3, r2
     bd8:	bf84      	itt	hi
     bda:	2300      	movhi	r3, #0
     bdc:	f88a 35fc 	strbhi.w	r3, [r10, #1532]	; 0x5fc
     be0:	f8d9 35e8 	ldr.w	r3, [r9, #1512]	; 0x5e8
     be4:	b133      	cbz	r3, bf4 <main+0xa0>
     be6:	f8da 3608 	ldr.w	r3, [r10, #1544]	; 0x608
     bea:	4298      	cmp	r0, r3
     bec:	bf84      	itt	hi
     bee:	2300      	movhi	r3, #0
     bf0:	f8ca 35e8 	strhi.w	r3, [r10, #1512]	; 0x5e8
     bf4:	4db8      	ldr	r5, [pc, #736]	; (ed8 <Stack_Size+0x2d8>)
     bf6:	1d28      	adds	r0, r5, #4
     bf8:	f001 fdac 	bl	2754 <AjK::MODSERIAL::rxBufferEmpty()>
     bfc:	4607      	mov	r7, r0
     bfe:	2800      	cmp	r0, #0
     c00:	d1d2      	bne.n	ba8 <main+0x54>
     c02:	2101      	movs	r1, #1
     c04:	1d28      	adds	r0, r5, #4
     c06:	f001 fc1b 	bl	2440 <AjK::MODSERIAL::__getc(bool)>
     c0a:	2800      	cmp	r0, #0
     c0c:	dbcc      	blt.n	ba8 <main+0x54>
     c0e:	f8da 35f8 	ldr.w	r3, [r10, #1528]	; 0x5f8
     c12:	f8da 65e8 	ldr.w	r6, [r10, #1512]	; 0x5e8
     c16:	4403      	add	r3, r0
     c18:	2e07      	cmp	r6, #7
     c1a:	f8ca 35f8 	str.w	r3, [r10, #1528]	; 0x5f8
     c1e:	f000 80a9 	beq.w	d74 <Stack_Size+0x174>
     c22:	b956      	cbnz	r6, c3a <Stack_Size+0x3a>
     c24:	28ff      	cmp	r0, #255	; 0xff
     c26:	f040 80b9 	bne.w	d9c <Stack_Size+0x19c>
     c2a:	2201      	movs	r2, #1
     c2c:	f104 0314 	add.w	r3, r4, #20
     c30:	f8ca 25e8 	str.w	r2, [r10, #1512]	; 0x5e8
     c34:	f8ca 3608 	str.w	r3, [r10, #1544]	; 0x608
     c38:	e7dc      	b.n	bf4 <main+0xa0>
     c3a:	2e01      	cmp	r6, #1
     c3c:	f000 80b9 	beq.w	db2 <Stack_Size+0x1b2>
     c40:	2e02      	cmp	r6, #2
     c42:	f000 8106 	beq.w	e52 <Stack_Size+0x252>
     c46:	2e03      	cmp	r6, #3
     c48:	f000 810d 	beq.w	e66 <Stack_Size+0x266>
     c4c:	2e04      	cmp	r6, #4
     c4e:	f000 8114 	beq.w	e7a <Stack_Size+0x27a>
     c52:	2e05      	cmp	r6, #5
     c54:	f000 8120 	beq.w	e98 <Stack_Size+0x298>
     c58:	2e06      	cmp	r6, #6
     c5a:	f000 8125 	beq.w	ea8 <Stack_Size+0x2a8>
     c5e:	2e08      	cmp	r6, #8
     c60:	d1c8      	bne.n	bf4 <main+0xa0>
     c62:	4a9e      	ldr	r2, [pc, #632]	; (edc <Stack_Size+0x2dc>)
     c64:	2100      	movs	r1, #0
     c66:	401a      	ands	r2, r3
     c68:	428a      	cmp	r2, r1
     c6a:	f8c9 15e8 	str.w	r1, [r9, #1512]	; 0x5e8
     c6e:	f2c0 8186 	blt.w	f7e <Stack_Size+0x37e>
     c72:	2aff      	cmp	r2, #255	; 0xff
     c74:	d1be      	bne.n	bf4 <main+0xa0>
     c76:	f8d9 35f0 	ldr.w	r3, [r9, #1520]	; 0x5f0
     c7a:	4d97      	ldr	r5, [pc, #604]	; (ed8 <Stack_Size+0x2d8>)
     c7c:	2b00      	cmp	r3, #0
     c7e:	f000 826d 	beq.w	115c <Stack_Size+0x55c>
     c82:	2b0a      	cmp	r3, #10
     c84:	f000 822f 	beq.w	10e6 <Stack_Size+0x4e6>
     c88:	2b06      	cmp	r3, #6
     c8a:	f000 8181 	beq.w	f90 <Stack_Size+0x390>
     c8e:	2b0b      	cmp	r3, #11
     c90:	f000 817a 	beq.w	f88 <Stack_Size+0x388>
     c94:	eb0a 0383 	add.w	r3, r10, r3, lsl #2
     c98:	f8d3 33f4 	ldr.w	r3, [r3, #1012]	; 0x3f4
     c9c:	2b00      	cmp	r3, #0
     c9e:	d0a9      	beq.n	bf4 <main+0xa0>
     ca0:	681a      	ldr	r2, [r3, #0]
     ca2:	498f      	ldr	r1, [pc, #572]	; (ee0 <Stack_Size+0x2e0>)
     ca4:	6812      	ldr	r2, [r2, #0]
     ca6:	428a      	cmp	r2, r1
     ca8:	f040 8425 	bne.w	14f6 <Stack_Size+0x8f6>
     cac:	f89a 2120 	ldrb.w	r2, [r10, #288]	; 0x120
     cb0:	f103 000c 	add.w	r0, r3, #12
     cb4:	615a      	str	r2, [r3, #20]
     cb6:	f89a 1121 	ldrb.w	r1, [r10, #289]	; 0x121
     cba:	ea42 2201 	orr.w	r2, r2, r1, lsl #8
     cbe:	615a      	str	r2, [r3, #20]
     cc0:	f89a 1122 	ldrb.w	r1, [r10, #290]	; 0x122
     cc4:	ea42 4201 	orr.w	r2, r2, r1, lsl #16
     cc8:	615a      	str	r2, [r3, #20]
     cca:	f89a 1123 	ldrb.w	r1, [r10, #291]	; 0x123
     cce:	ea42 6201 	orr.w	r2, r2, r1, lsl #24
     cd2:	615a      	str	r2, [r3, #20]
     cd4:	f89a 2124 	ldrb.w	r2, [r10, #292]	; 0x124
     cd8:	619a      	str	r2, [r3, #24]
     cda:	f89a 1125 	ldrb.w	r1, [r10, #293]	; 0x125
     cde:	ea42 2201 	orr.w	r2, r2, r1, lsl #8
     ce2:	619a      	str	r2, [r3, #24]
     ce4:	f89a 1126 	ldrb.w	r1, [r10, #294]	; 0x126
     ce8:	ea42 4201 	orr.w	r2, r2, r1, lsl #16
     cec:	619a      	str	r2, [r3, #24]
     cee:	f89a 1127 	ldrb.w	r1, [r10, #295]	; 0x127
     cf2:	ea42 6201 	orr.w	r2, r2, r1, lsl #24
     cf6:	619a      	str	r2, [r3, #24]
     cf8:	f89a 2128 	ldrb.w	r2, [r10, #296]	; 0x128
     cfc:	61da      	str	r2, [r3, #28]
     cfe:	f89a 1129 	ldrb.w	r1, [r10, #297]	; 0x129
     d02:	ea42 2201 	orr.w	r2, r2, r1, lsl #8
     d06:	61da      	str	r2, [r3, #28]
     d08:	f89a 112a 	ldrb.w	r1, [r10, #298]	; 0x12a
     d0c:	ea42 4201 	orr.w	r2, r2, r1, lsl #16
     d10:	61da      	str	r2, [r3, #28]
     d12:	f89a 112b 	ldrb.w	r1, [r10, #299]	; 0x12b
     d16:	ea42 6201 	orr.w	r2, r2, r1, lsl #24
     d1a:	61da      	str	r2, [r3, #28]
     d1c:	f8da 112c 	ldr.w	r1, [r10, #300]	; 0x12c
     d20:	f101 0710 	add.w	r7, r1, #16
     d24:	2f10      	cmp	r7, #16
     d26:	d90a      	bls.n	d3e <Stack_Size+0x13e>
     d28:	f201 162f 	addw	r6, r1, #303	; 0x12f
     d2c:	f205 152f 	addw	r5, r5, #303	; 0x12f
     d30:	4456      	add	r6, r10
     d32:	f815 2f01 	ldrb.w	r2, [r5, #1]!
     d36:	42ae      	cmp	r6, r5
     d38:	f805 2c01 	strb.w	r2, [r5, #-1]
     d3c:	d1f9      	bne.n	d32 <Stack_Size+0x132>
     d3e:	eb09 0201 	add.w	r2, r9, r1
     d42:	2100      	movs	r1, #0
     d44:	f882 112f 	strb.w	r1, [r2, #303]	; 0x12f
     d48:	4966      	ldr	r1, [pc, #408]	; (ee4 <Stack_Size+0x2e4>)
     d4a:	444f      	add	r7, r9
     d4c:	6219      	str	r1, [r3, #32]
     d4e:	f897 1120 	ldrb.w	r1, [r7, #288]	; 0x120
     d52:	f883 1024 	strb.w	r1, [r3, #36]	; 0x24
     d56:	f892 5131 	ldrb.w	r5, [r2, #305]	; 0x131
     d5a:	6a99      	ldr	r1, [r3, #40]	; 0x28
     d5c:	f883 5025 	strb.w	r5, [r3, #37]	; 0x25
     d60:	f892 5132 	ldrb.w	r5, [r2, #306]	; 0x132
     d64:	f883 5026 	strb.w	r5, [r3, #38]	; 0x26
     d68:	f892 2133 	ldrb.w	r2, [r2, #307]	; 0x133
     d6c:	f883 2027 	strb.w	r2, [r3, #39]	; 0x27
     d70:	4788      	blx	r1
     d72:	e73f      	b.n	bf4 <main+0xa0>
     d74:	f8da 25f4 	ldr.w	r2, [r10, #1524]	; 0x5f4
     d78:	f8da 35ec 	ldr.w	r3, [r10, #1516]	; 0x5ec
     d7c:	1c51      	adds	r1, r2, #1
     d7e:	3b01      	subs	r3, #1
     d80:	4452      	add	r2, r10
     d82:	f8ca 15f4 	str.w	r1, [r10, #1524]	; 0x5f4
     d86:	f882 0120 	strb.w	r0, [r2, #288]	; 0x120
     d8a:	f8ca 35ec 	str.w	r3, [r10, #1516]	; 0x5ec
     d8e:	2b00      	cmp	r3, #0
     d90:	f47f af30 	bne.w	bf4 <main+0xa0>
     d94:	2308      	movs	r3, #8
     d96:	f8c9 35e8 	str.w	r3, [r9, #1512]	; 0x5e8
     d9a:	e72b      	b.n	bf4 <main+0xa0>
     d9c:	f505 7082 	add.w	r0, r5, #260	; 0x104
     da0:	f003 f9aa 	bl	40f8 <mbed::Timer::read_ms()>
     da4:	1b00      	subs	r0, r0, r4
     da6:	2805      	cmp	r0, #5
     da8:	f67f af24 	bls.w	bf4 <main+0xa0>
     dac:	f885 65fc 	strb.w	r6, [r5, #1532]	; 0x5fc
     db0:	e705      	b.n	bbe <main+0x6a>
     db2:	28fe      	cmp	r0, #254	; 0xfe
     db4:	d06c      	beq.n	e90 <Stack_Size+0x290>
     db6:	f89a 35fc 	ldrb.w	r3, [r10, #1532]	; 0x5fc
     dba:	f8ca 75e8 	str.w	r7, [r10, #1512]	; 0x5e8
     dbe:	2b00      	cmp	r3, #0
     dc0:	f47f af18 	bne.w	bf4 <main+0xa0>
     dc4:	200a      	movs	r0, #10
     dc6:	461a      	mov	r2, r3
     dc8:	f88a 3327 	strb.w	r3, [r10, #807]	; 0x327
     dcc:	f88a 3328 	strb.w	r3, [r10, #808]	; 0x328
     dd0:	f88a 3329 	strb.w	r3, [r10, #809]	; 0x329
     dd4:	f88a 332a 	strb.w	r3, [r10, #810]	; 0x32a
     dd8:	f88a 332b 	strb.w	r3, [r10, #811]	; 0x32b
     ddc:	f88a 332c 	strb.w	r3, [r10, #812]	; 0x32c
     de0:	f88a 332d 	strb.w	r3, [r10, #813]	; 0x32d
     de4:	f88a 332e 	strb.w	r3, [r10, #814]	; 0x32e
     de8:	f88a 3323 	strb.w	r3, [r10, #803]	; 0x323
     dec:	f88a 3326 	strb.w	r3, [r10, #806]	; 0x326
     df0:	23fe      	movs	r3, #254	; 0xfe
     df2:	4601      	mov	r1, r0
     df4:	26ff      	movs	r6, #255	; 0xff
     df6:	f88a 0325 	strb.w	r0, [r10, #805]	; 0x325
     dfa:	f88a 3321 	strb.w	r3, [r10, #801]	; 0x321
     dfe:	2008      	movs	r0, #8
     e00:	23f7      	movs	r3, #247	; 0xf7
     e02:	f88a 3324 	strb.w	r3, [r10, #804]	; 0x324
     e06:	f88a 6320 	strb.w	r6, [r10, #800]	; 0x320
     e0a:	f205 3325 	addw	r3, r5, #805	; 0x325
     e0e:	f88a 0322 	strb.w	r0, [r10, #802]	; 0x322
     e12:	f205 352e 	addw	r5, r5, #814	; 0x32e
     e16:	e001      	b.n	e1c <Stack_Size+0x21c>
     e18:	f813 1f01 	ldrb.w	r1, [r3, #1]!
     e1c:	42ab      	cmp	r3, r5
     e1e:	440a      	add	r2, r1
     e20:	d1fa      	bne.n	e18 <Stack_Size+0x218>
     e22:	43d2      	mvns	r2, r2
     e24:	4645      	mov	r5, r8
     e26:	f889 232f 	strb.w	r2, [r9, #815]	; 0x32f
     e2a:	f108 070f 	add.w	r7, r8, #15
     e2e:	21ff      	movs	r1, #255	; 0xff
     e30:	e001      	b.n	e36 <Stack_Size+0x236>
     e32:	f815 1f01 	ldrb.w	r1, [r5, #1]!
     e36:	4e28      	ldr	r6, [pc, #160]	; (ed8 <Stack_Size+0x2d8>)
     e38:	f106 0044 	add.w	r0, r6, #68	; 0x44
     e3c:	f003 f92c 	bl	4098 <mbed::Stream::putc(int)>
     e40:	42bd      	cmp	r5, r7
     e42:	d1f6      	bne.n	e32 <Stack_Size+0x232>
     e44:	f506 7082 	add.w	r0, r6, #260	; 0x104
     e48:	f003 f956 	bl	40f8 <mbed::Timer::read_ms()>
     e4c:	f8c6 0114 	str.w	r0, [r6, #276]	; 0x114
     e50:	e6d0      	b.n	bf4 <main+0xa0>
     e52:	2303      	movs	r3, #3
     e54:	f8ca 05ec 	str.w	r0, [r10, #1516]	; 0x5ec
     e58:	f8ca 75f4 	str.w	r7, [r10, #1524]	; 0x5f4
     e5c:	f8ca 05f8 	str.w	r0, [r10, #1528]	; 0x5f8
     e60:	f8ca 35e8 	str.w	r3, [r10, #1512]	; 0x5e8
     e64:	e6c6      	b.n	bf4 <main+0xa0>
     e66:	f8da 35ec 	ldr.w	r3, [r10, #1516]	; 0x5ec
     e6a:	2204      	movs	r2, #4
     e6c:	eb03 2000 	add.w	r0, r3, r0, lsl #8
     e70:	f8ca 05ec 	str.w	r0, [r10, #1516]	; 0x5ec
     e74:	f8ca 25e8 	str.w	r2, [r10, #1512]	; 0x5e8
     e78:	e6bc      	b.n	bf4 <main+0xa0>
     e7a:	4a18      	ldr	r2, [pc, #96]	; (edc <Stack_Size+0x2dc>)
     e7c:	401a      	ands	r2, r3
     e7e:	2a00      	cmp	r2, #0
     e80:	db21      	blt.n	ec6 <Stack_Size+0x2c6>
     e82:	2aff      	cmp	r2, #255	; 0xff
     e84:	bf0c      	ite	eq
     e86:	2305      	moveq	r3, #5
     e88:	2300      	movne	r3, #0
     e8a:	f8c9 35e8 	str.w	r3, [r9, #1512]	; 0x5e8
     e8e:	e6b1      	b.n	bf4 <main+0xa0>
     e90:	2302      	movs	r3, #2
     e92:	f8ca 35e8 	str.w	r3, [r10, #1512]	; 0x5e8
     e96:	e6ad      	b.n	bf4 <main+0xa0>
     e98:	2306      	movs	r3, #6
     e9a:	f8ca 05f0 	str.w	r0, [r10, #1520]	; 0x5f0
     e9e:	f8ca 05f8 	str.w	r0, [r10, #1528]	; 0x5f8
     ea2:	f8ca 35e8 	str.w	r3, [r10, #1512]	; 0x5e8
     ea6:	e6a5      	b.n	bf4 <main+0xa0>
     ea8:	f8d9 35f0 	ldr.w	r3, [r9, #1520]	; 0x5f0
     eac:	f8d9 25ec 	ldr.w	r2, [r9, #1516]	; 0x5ec
     eb0:	eb03 2300 	add.w	r3, r3, r0, lsl #8
     eb4:	2107      	movs	r1, #7
     eb6:	f8c9 35f0 	str.w	r3, [r9, #1520]	; 0x5f0
     eba:	f8c9 15e8 	str.w	r1, [r9, #1512]	; 0x5e8
     ebe:	2a00      	cmp	r2, #0
     ec0:	f43f af68 	beq.w	d94 <Stack_Size+0x194>
     ec4:	e696      	b.n	bf4 <main+0xa0>
     ec6:	3a01      	subs	r2, #1
     ec8:	f062 02ff 	orn	r2, r2, #255	; 0xff
     ecc:	3201      	adds	r2, #1
     ece:	e7d8      	b.n	e82 <Stack_Size+0x282>
     ed0:	10000188 	.word	0x10000188
     ed4:	100002c4 	.word	0x100002c4
     ed8:	100001c0 	.word	0x100001c0
     edc:	800000ff 	.word	0x800000ff
     ee0:	00000881 	.word	0x00000881
     ee4:	100002ef 	.word	0x100002ef
     ee8:	100004e0 	.word	0x100004e0
     eec:	250a      	movs	r5, #10
     eee:	26ff      	movs	r6, #255	; 0xff
     ef0:	4bb5      	ldr	r3, [pc, #724]	; (11c8 <Stack_Size+0x5c8>)
     ef2:	2000      	movs	r0, #0
     ef4:	4629      	mov	r1, r5
     ef6:	27fe      	movs	r7, #254	; 0xfe
     ef8:	f88a 5325 	strb.w	r5, [r10, #805]	; 0x325
     efc:	f88a 6320 	strb.w	r6, [r10, #800]	; 0x320
     f00:	25f7      	movs	r5, #247	; 0xf7
     f02:	2608      	movs	r6, #8
     f04:	4602      	mov	r2, r0
     f06:	f88a 0327 	strb.w	r0, [r10, #807]	; 0x327
     f0a:	f88a 0328 	strb.w	r0, [r10, #808]	; 0x328
     f0e:	f88a 0329 	strb.w	r0, [r10, #809]	; 0x329
     f12:	f88a 032a 	strb.w	r0, [r10, #810]	; 0x32a
     f16:	f88a 032b 	strb.w	r0, [r10, #811]	; 0x32b
     f1a:	f88a 032c 	strb.w	r0, [r10, #812]	; 0x32c
     f1e:	f88a 032d 	strb.w	r0, [r10, #813]	; 0x32d
     f22:	f88a 032e 	strb.w	r0, [r10, #814]	; 0x32e
     f26:	f88a 0323 	strb.w	r0, [r10, #803]	; 0x323
     f2a:	f88a 0326 	strb.w	r0, [r10, #806]	; 0x326
     f2e:	f88a 7321 	strb.w	r7, [r10, #801]	; 0x321
     f32:	f103 0009 	add.w	r0, r3, #9
     f36:	f88a 6322 	strb.w	r6, [r10, #802]	; 0x322
     f3a:	f88a 5324 	strb.w	r5, [r10, #804]	; 0x324
     f3e:	e001      	b.n	f44 <Stack_Size+0x344>
     f40:	f813 1f01 	ldrb.w	r1, [r3, #1]!
     f44:	4283      	cmp	r3, r0
     f46:	440a      	add	r2, r1
     f48:	d1fa      	bne.n	f40 <Stack_Size+0x340>
     f4a:	43d2      	mvns	r2, r2
     f4c:	4645      	mov	r5, r8
     f4e:	f889 232f 	strb.w	r2, [r9, #815]	; 0x32f
     f52:	f108 070f 	add.w	r7, r8, #15
     f56:	21ff      	movs	r1, #255	; 0xff
     f58:	e001      	b.n	f5e <Stack_Size+0x35e>
     f5a:	f815 1f01 	ldrb.w	r1, [r5, #1]!
     f5e:	4e9b      	ldr	r6, [pc, #620]	; (11cc <Stack_Size+0x5cc>)
     f60:	f106 0044 	add.w	r0, r6, #68	; 0x44
     f64:	f003 f898 	bl	4098 <mbed::Stream::putc(int)>
     f68:	42bd      	cmp	r5, r7
     f6a:	d1f6      	bne.n	f5a <Stack_Size+0x35a>
     f6c:	f506 7082 	add.w	r0, r6, #260	; 0x104
     f70:	f003 f8c2 	bl	40f8 <mbed::Timer::read_ms()>
     f74:	f8c6 4600 	str.w	r4, [r6, #1536]	; 0x600
     f78:	f8c6 0114 	str.w	r0, [r6, #276]	; 0x114
     f7c:	e61f      	b.n	bbe <main+0x6a>
     f7e:	3a01      	subs	r2, #1
     f80:	f062 02ff 	orn	r2, r2, #255	; 0xff
     f84:	3201      	adds	r2, #1
     f86:	e674      	b.n	c72 <Stack_Size+0x72>
     f88:	2300      	movs	r3, #0
     f8a:	f88a 35fc 	strb.w	r3, [r10, #1532]	; 0x5fc
     f8e:	e631      	b.n	bf4 <main+0xa0>
     f90:	f89a 5120 	ldrb.w	r5, [r10, #288]	; 0x120
     f94:	f89a 3614 	ldrb.w	r3, [r10, #1556]	; 0x614
     f98:	42ab      	cmp	r3, r5
     f9a:	d206      	bcs.n	faa <Stack_Size+0x3aa>
     f9c:	00a9      	lsls	r1, r5, #2
     f9e:	f8da 061c 	ldr.w	r0, [r10, #1564]	; 0x61c
     fa2:	f001 fa25 	bl	23f0 <__wrap_realloc>
     fa6:	f8ca 061c 	str.w	r0, [r10, #1564]	; 0x61c
     faa:	f889 5614 	strb.w	r5, [r9, #1556]	; 0x614
     fae:	2d00      	cmp	r5, #0
     fb0:	f000 82a7 	beq.w	1502 <Stack_Size+0x902>
     fb4:	4e85      	ldr	r6, [pc, #532]	; (11cc <Stack_Size+0x5cc>)
     fb6:	2704      	movs	r7, #4
     fb8:	2500      	movs	r5, #0
     fba:	f896 3126 	ldrb.w	r3, [r6, #294]	; 0x126
     fbe:	f896 1125 	ldrb.w	r1, [r6, #293]	; 0x125
     fc2:	f896 2124 	ldrb.w	r2, [r6, #292]	; 0x124
     fc6:	041b      	lsls	r3, r3, #16
     fc8:	ea43 2301 	orr.w	r3, r3, r1, lsl #8
     fcc:	f896 1127 	ldrb.w	r1, [r6, #295]	; 0x127
     fd0:	4313      	orrs	r3, r2
     fd2:	ea43 6301 	orr.w	r3, r3, r1, lsl #24
     fd6:	f8c9 3618 	str.w	r3, [r9, #1560]	; 0x618
     fda:	4b7d      	ldr	r3, [pc, #500]	; (11d0 <Stack_Size+0x5d0>)
     fdc:	3704      	adds	r7, #4
     fde:	6818      	ldr	r0, [r3, #0]
     fe0:	f8d9 361c 	ldr.w	r3, [r9, #1564]	; 0x61c
     fe4:	3604      	adds	r6, #4
     fe6:	f843 0025 	str.w	r0, [r3, r5, lsl #2]
     fea:	f899 3614 	ldrb.w	r3, [r9, #1556]	; 0x614
     fee:	3501      	adds	r5, #1
     ff0:	b2ed      	uxtb	r5, r5
     ff2:	42ab      	cmp	r3, r5
     ff4:	d8e1      	bhi.n	fba <Stack_Size+0x3ba>
     ff6:	1d3e      	adds	r6, r7, #4
     ff8:	4635      	mov	r5, r6
     ffa:	444f      	add	r7, r9
     ffc:	f897 7120 	ldrb.w	r7, [r7, #288]	; 0x120
    1000:	f899 3620 	ldrb.w	r3, [r9, #1568]	; 0x620
    1004:	42bb      	cmp	r3, r7
    1006:	d206      	bcs.n	1016 <Stack_Size+0x416>
    1008:	00b9      	lsls	r1, r7, #2
    100a:	f8da 0628 	ldr.w	r0, [r10, #1576]	; 0x628
    100e:	f001 f9ef 	bl	23f0 <__wrap_realloc>
    1012:	f8ca 0628 	str.w	r0, [r10, #1576]	; 0x628
    1016:	f889 7620 	strb.w	r7, [r9, #1568]	; 0x620
    101a:	b30f      	cbz	r7, 1060 <Stack_Size+0x460>
    101c:	eb0a 0705 	add.w	r7, r10, r5
    1020:	2600      	movs	r6, #0
    1022:	f897 3122 	ldrb.w	r3, [r7, #290]	; 0x122
    1026:	f897 1121 	ldrb.w	r1, [r7, #289]	; 0x121
    102a:	f897 2120 	ldrb.w	r2, [r7, #288]	; 0x120
    102e:	041b      	lsls	r3, r3, #16
    1030:	ea43 2301 	orr.w	r3, r3, r1, lsl #8
    1034:	f897 1123 	ldrb.w	r1, [r7, #291]	; 0x123
    1038:	4313      	orrs	r3, r2
    103a:	ea43 6301 	orr.w	r3, r3, r1, lsl #24
    103e:	f8c9 3624 	str.w	r3, [r9, #1572]	; 0x624
    1042:	4b64      	ldr	r3, [pc, #400]	; (11d4 <Stack_Size+0x5d4>)
    1044:	3504      	adds	r5, #4
    1046:	6818      	ldr	r0, [r3, #0]
    1048:	f8d9 3628 	ldr.w	r3, [r9, #1576]	; 0x628
    104c:	3704      	adds	r7, #4
    104e:	f843 0026 	str.w	r0, [r3, r6, lsl #2]
    1052:	f899 3620 	ldrb.w	r3, [r9, #1568]	; 0x620
    1056:	3601      	adds	r6, #1
    1058:	b2f6      	uxtb	r6, r6
    105a:	42b3      	cmp	r3, r6
    105c:	d8e1      	bhi.n	1022 <Stack_Size+0x422>
    105e:	462e      	mov	r6, r5
    1060:	444e      	add	r6, r9
    1062:	f896 6120 	ldrb.w	r6, [r6, #288]	; 0x120
    1066:	f899 362c 	ldrb.w	r3, [r9, #1580]	; 0x62c
    106a:	42b3      	cmp	r3, r6
    106c:	d206      	bcs.n	107c <Stack_Size+0x47c>
    106e:	00b1      	lsls	r1, r6, #2
    1070:	f8da 0634 	ldr.w	r0, [r10, #1588]	; 0x634
    1074:	f001 f9bc 	bl	23f0 <__wrap_realloc>
    1078:	f8ca 0634 	str.w	r0, [r10, #1588]	; 0x634
    107c:	3504      	adds	r5, #4
    107e:	f889 662c 	strb.w	r6, [r9, #1580]	; 0x62c
    1082:	b366      	cbz	r6, 10de <Stack_Size+0x4de>
    1084:	f04f 0e00 	mov.w	lr, #0
    1088:	46f4      	mov	r12, lr
    108a:	4b53      	ldr	r3, [pc, #332]	; (11d8 <Stack_Size+0x5d8>)
    108c:	1d2f      	adds	r7, r5, #4
    108e:	5958      	ldr	r0, [r3, r5]
    1090:	9007      	str	r0, [sp, #28]
    1092:	9e07      	ldr	r6, [sp, #28]
    1094:	443e      	add	r6, r7
    1096:	42be      	cmp	r6, r7
    1098:	d909      	bls.n	10ae <Stack_Size+0x4ae>
    109a:	463a      	mov	r2, r7
    109c:	f205 1323 	addw	r3, r5, #291	; 0x123
    10a0:	4453      	add	r3, r10
    10a2:	7859      	ldrb	r1, [r3, #1]
    10a4:	3201      	adds	r2, #1
    10a6:	4296      	cmp	r6, r2
    10a8:	f803 1b01 	strb.w	r1, [r3], #1
    10ac:	d8f9      	bhi.n	10a2 <Stack_Size+0x4a2>
    10ae:	4a4a      	ldr	r2, [pc, #296]	; (11d8 <Stack_Size+0x5d8>)
    10b0:	1e7b      	subs	r3, r7, #1
    10b2:	4413      	add	r3, r2
    10b4:	eb09 0206 	add.w	r2, r9, r6
    10b8:	f882 c11f 	strb.w	r12, [r2, #287]	; 0x11f
    10bc:	f8c9 3630 	str.w	r3, [r9, #1584]	; 0x630
    10c0:	4b46      	ldr	r3, [pc, #280]	; (11dc <Stack_Size+0x5dc>)
    10c2:	4635      	mov	r5, r6
    10c4:	6818      	ldr	r0, [r3, #0]
    10c6:	f8d9 3634 	ldr.w	r3, [r9, #1588]	; 0x634
    10ca:	f843 002e 	str.w	r0, [r3, lr, lsl #2]
    10ce:	f899 362c 	ldrb.w	r3, [r9, #1580]	; 0x62c
    10d2:	f10e 0e01 	add.w	lr, lr, #1
    10d6:	fa5f fe8e 	uxtb.w	lr, lr
    10da:	4573      	cmp	r3, lr
    10dc:	d8d5      	bhi.n	108a <Stack_Size+0x48a>
    10de:	2301      	movs	r3, #1
    10e0:	f889 360c 	strb.w	r3, [r9, #1548]	; 0x60c
    10e4:	e586      	b.n	bf4 <main+0xa0>
    10e6:	f505 7082 	add.w	r0, r5, #260	; 0x104
    10ea:	f003 f805 	bl	40f8 <mbed::Timer::read_ms()>
    10ee:	f8da 6114 	ldr.w	r6, [r10, #276]	; 0x114
    10f2:	f8da 2120 	ldr.w	r2, [r10, #288]	; 0x120
    10f6:	f8da 3124 	ldr.w	r3, [r10, #292]	; 0x124
    10fa:	4f39      	ldr	r7, [pc, #228]	; (11e0 <Stack_Size+0x5e0>)
    10fc:	1b86      	subs	r6, r0, r6
    10fe:	f505 7082 	add.w	r0, r5, #260	; 0x104
    1102:	f102 3bff 	add.w	r11, r2, #4294967295
    1106:	441f      	add	r7, r3
    1108:	f002 fff6 	bl	40f8 <mbed::Timer::read_ms()>
    110c:	4b35      	ldr	r3, [pc, #212]	; (11e4 <Stack_Size+0x5e4>)
    110e:	4935      	ldr	r1, [pc, #212]	; (11e4 <Stack_Size+0x5e4>)
    1110:	fba3 3206 	umull	r3, r2, r3, r6
    1114:	fba1 1e00 	umull	r1, lr, r1, r0
    1118:	f44f 737a 	mov.w	r3, #1000	; 0x3e8
    111c:	0992      	lsrs	r2, r2, #6
    111e:	fb03 6612 	mls	r6, r3, r2, r6
    1122:	ea4f 1e9e 	mov.w	lr, lr, lsr #6
    1126:	fb03 031e 	mls	r3, r3, lr, r0
    112a:	482f      	ldr	r0, [pc, #188]	; (11e8 <Stack_Size+0x5e8>)
    112c:	445a      	add	r2, r11
    112e:	fb00 7106 	mla	r1, r0, r6, r7
    1132:	fb00 1313 	mls	r3, r0, r3, r1
    1136:	ebce 0202 	rsb	r2, lr, r2
    113a:	f505 718e 	add.w	r1, r5, #284	; 0x11c
    113e:	f505 708c 	add.w	r0, r5, #280	; 0x118
    1142:	f8ca 311c 	str.w	r3, [r10, #284]	; 0x11c
    1146:	f8ca 2118 	str.w	r2, [r10, #280]	; 0x118
    114a:	f001 f965 	bl	2418 <ros::normalizeSecNSec(unsigned long&, unsigned long&)>
    114e:	f505 7082 	add.w	r0, r5, #260	; 0x104
    1152:	f002 ffd1 	bl	40f8 <mbed::Timer::read_ms()>
    1156:	f8ca 0604 	str.w	r0, [r10, #1540]	; 0x604
    115a:	e54b      	b.n	bf4 <main+0xa0>
    115c:	f885 3327 	strb.w	r3, [r5, #807]	; 0x327
    1160:	f885 3328 	strb.w	r3, [r5, #808]	; 0x328
    1164:	f885 3329 	strb.w	r3, [r5, #809]	; 0x329
    1168:	f885 332a 	strb.w	r3, [r5, #810]	; 0x32a
    116c:	f885 332b 	strb.w	r3, [r5, #811]	; 0x32b
    1170:	f885 332c 	strb.w	r3, [r5, #812]	; 0x32c
    1174:	f885 332d 	strb.w	r3, [r5, #813]	; 0x32d
    1178:	f885 332e 	strb.w	r3, [r5, #814]	; 0x32e
    117c:	f885 3323 	strb.w	r3, [r5, #803]	; 0x323
    1180:	f885 3326 	strb.w	r3, [r5, #806]	; 0x326
    1184:	4619      	mov	r1, r3
    1186:	23fe      	movs	r3, #254	; 0xfe
    1188:	260a      	movs	r6, #10
    118a:	f885 2320 	strb.w	r2, [r5, #800]	; 0x320
    118e:	f885 3321 	strb.w	r3, [r5, #801]	; 0x321
    1192:	2208      	movs	r2, #8
    1194:	23f7      	movs	r3, #247	; 0xf7
    1196:	f885 3324 	strb.w	r3, [r5, #804]	; 0x324
    119a:	f885 6325 	strb.w	r6, [r5, #805]	; 0x325
    119e:	f885 2322 	strb.w	r2, [r5, #802]	; 0x322
    11a2:	f205 332e 	addw	r3, r5, #814	; 0x32e
    11a6:	4630      	mov	r0, r6
    11a8:	f205 3525 	addw	r5, r5, #805	; 0x325
    11ac:	e001      	b.n	11b2 <Stack_Size+0x5b2>
    11ae:	f815 0f01 	ldrb.w	r0, [r5, #1]!
    11b2:	42ab      	cmp	r3, r5
    11b4:	4401      	add	r1, r0
    11b6:	d1fa      	bne.n	11ae <Stack_Size+0x5ae>
    11b8:	43c9      	mvns	r1, r1
    11ba:	f8df 8030 	ldr.w	r8, [pc, #48]	; 11ec <Stack_Size+0x5ec>
    11be:	f889 132f 	strb.w	r1, [r9, #815]	; 0x32f
    11c2:	4646      	mov	r6, r8
    11c4:	21ff      	movs	r1, #255	; 0xff
    11c6:	e015      	b.n	11f4 <Stack_Size+0x5f4>
    11c8:	100004e5 	.word	0x100004e5
    11cc:	100001c0 	.word	0x100001c0
    11d0:	100007d8 	.word	0x100007d8
    11d4:	100007e4 	.word	0x100007e4
    11d8:	100002e0 	.word	0x100002e0
    11dc:	100007f0 	.word	0x100007f0
    11e0:	3b9aca00 	.word	0x3b9aca00
    11e4:	10624dd3 	.word	0x10624dd3
    11e8:	000f4240 	.word	0x000f4240
    11ec:	100004e0 	.word	0x100004e0
    11f0:	f816 1f01 	ldrb.w	r1, [r6, #1]!
    11f4:	4dc5      	ldr	r5, [pc, #788]	; (150c <Stack_Size+0x90c>)
    11f6:	f105 0044 	add.w	r0, r5, #68	; 0x44
    11fa:	f002 ff4d 	bl	4098 <mbed::Stream::putc(int)>
    11fe:	f205 332f 	addw	r3, r5, #815	; 0x32f
    1202:	429e      	cmp	r6, r3
    1204:	d1f4      	bne.n	11f0 <Stack_Size+0x5f0>
    1206:	f505 7082 	add.w	r0, r5, #260	; 0x104
    120a:	f002 ff75 	bl	40f8 <mbed::Timer::read_ms()>
    120e:	f205 531c 	addw	r3, r5, #1308	; 0x51c
    1212:	9402      	str	r4, [sp, #8]
    1214:	461c      	mov	r4, r3
    1216:	f505 7259 	add.w	r2, r5, #868	; 0x364
    121a:	f8c5 0114 	str.w	r0, [r5, #276]	; 0x114
    121e:	9201      	str	r2, [sp, #4]
    1220:	f854 3f04 	ldr.w	r3, [r4, #4]!
    1224:	2b00      	cmp	r3, #0
    1226:	f000 809c 	beq.w	1362 <Stack_Size+0x762>
    122a:	6858      	ldr	r0, [r3, #4]
    122c:	689d      	ldr	r5, [r3, #8]
    122e:	6802      	ldr	r2, [r0, #0]
    1230:	f8d3 b000 	ldr.w	r11, [r3]
    1234:	6892      	ldr	r2, [r2, #8]
    1236:	4790      	blx	r2
    1238:	6823      	ldr	r3, [r4, #0]
    123a:	4607      	mov	r7, r0
    123c:	6858      	ldr	r0, [r3, #4]
    123e:	6803      	ldr	r3, [r0, #0]
    1240:	68db      	ldr	r3, [r3, #12]
    1242:	4798      	blx	r3
    1244:	6823      	ldr	r3, [r4, #0]
    1246:	4606      	mov	r6, r0
    1248:	691b      	ldr	r3, [r3, #16]
    124a:	2b63      	cmp	r3, #99	; 0x63
    124c:	dd04      	ble.n	1258 <Stack_Size+0x658>
    124e:	f899 25fc 	ldrb.w	r2, [r9, #1532]	; 0x5fc
    1252:	2a00      	cmp	r2, #0
    1254:	f000 8085 	beq.w	1362 <Stack_Size+0x762>
    1258:	f3c5 2207 	ubfx	r2, r5, #8, #8
    125c:	4658      	mov	r0, r11
    125e:	9303      	str	r3, [sp, #12]
    1260:	f889 5327 	strb.w	r5, [r9, #807]	; 0x327
    1264:	f889 2328 	strb.w	r2, [r9, #808]	; 0x328
    1268:	f005 f8fd 	bl	6466 <strlen>
    126c:	4605      	mov	r5, r0
    126e:	9005      	str	r0, [sp, #20]
    1270:	4ba7      	ldr	r3, [pc, #668]	; (1510 <Stack_Size+0x910>)
    1272:	9805      	ldr	r0, [sp, #20]
    1274:	4659      	mov	r1, r11
    1276:	6018      	str	r0, [r3, #0]
    1278:	462a      	mov	r2, r5
    127a:	1d18      	adds	r0, r3, #4
    127c:	f004 fa28 	bl	56d0 <memcpy>
    1280:	4638      	mov	r0, r7
    1282:	f005 f8f0 	bl	6466 <strlen>
    1286:	4683      	mov	r11, r0
    1288:	9006      	str	r0, [sp, #24]
    128a:	4ba2      	ldr	r3, [pc, #648]	; (1514 <Stack_Size+0x914>)
    128c:	9806      	ldr	r0, [sp, #24]
    128e:	1daa      	adds	r2, r5, #6
    1290:	350a      	adds	r5, #10
    1292:	5098      	str	r0, [r3, r2]
    1294:	4639      	mov	r1, r7
    1296:	465a      	mov	r2, r11
    1298:	1958      	adds	r0, r3, r5
    129a:	f004 fa19 	bl	56d0 <memcpy>
    129e:	4630      	mov	r0, r6
    12a0:	f005 f8e1 	bl	6466 <strlen>
    12a4:	4607      	mov	r7, r0
    12a6:	9007      	str	r0, [sp, #28]
    12a8:	4b9a      	ldr	r3, [pc, #616]	; (1514 <Stack_Size+0x914>)
    12aa:	445d      	add	r5, r11
    12ac:	9807      	ldr	r0, [sp, #28]
    12ae:	f105 0b04 	add.w	r11, r5, #4
    12b2:	5158      	str	r0, [r3, r5]
    12b4:	4631      	mov	r1, r6
    12b6:	463a      	mov	r2, r7
    12b8:	eb03 000b 	add.w	r0, r3, r11
    12bc:	f004 fa08 	bl	56d0 <memcpy>
    12c0:	eb07 000b 	add.w	r0, r7, r11
    12c4:	1d06      	adds	r6, r0, #4
    12c6:	f3c6 2207 	ubfx	r2, r6, #8, #8
    12ca:	fa5f fc86 	uxtb.w	r12, r6
    12ce:	eb0c 0702 	add.w	r7, r12, r2
    12d2:	43ff      	mvns	r7, r7
    12d4:	9b03      	ldr	r3, [sp, #12]
    12d6:	2500      	movs	r5, #0
    12d8:	4448      	add	r0, r9
    12da:	f04f 0e02 	mov.w	lr, #2
    12de:	b2b6      	uxth	r6, r6
    12e0:	f880 e328 	strb.w	lr, [r0, #808]	; 0x328
    12e4:	f880 5327 	strb.w	r5, [r0, #807]	; 0x327
    12e8:	f880 5329 	strb.w	r5, [r0, #809]	; 0x329
    12ec:	f880 532a 	strb.w	r5, [r0, #810]	; 0x32a
    12f0:	4629      	mov	r1, r5
    12f2:	b2d8      	uxtb	r0, r3
    12f4:	f206 3526 	addw	r5, r6, #806	; 0x326
    12f8:	f04f 0eff 	mov.w	lr, #255	; 0xff
    12fc:	f889 7324 	strb.w	r7, [r9, #804]	; 0x324
    1300:	f343 2307 	sbfx	r3, r3, #8, #8
    1304:	27fe      	movs	r7, #254	; 0xfe
    1306:	f889 2323 	strb.w	r2, [r9, #803]	; 0x323
    130a:	f889 c322 	strb.w	r12, [r9, #802]	; 0x322
    130e:	4a82      	ldr	r2, [pc, #520]	; (1518 <Stack_Size+0x918>)
    1310:	444d      	add	r5, r9
    1312:	f889 e320 	strb.w	lr, [r9, #800]	; 0x320
    1316:	f889 7321 	strb.w	r7, [r9, #801]	; 0x321
    131a:	f889 0325 	strb.w	r0, [r9, #805]	; 0x325
    131e:	f889 3326 	strb.w	r3, [r9, #806]	; 0x326
    1322:	e001      	b.n	1328 <Stack_Size+0x728>
    1324:	f812 0f01 	ldrb.w	r0, [r2, #1]!
    1328:	42aa      	cmp	r2, r5
    132a:	4401      	add	r1, r0
    132c:	d1fa      	bne.n	1324 <Stack_Size+0x724>
    132e:	43c9      	mvns	r1, r1
    1330:	1df2      	adds	r2, r6, #7
    1332:	f106 0308 	add.w	r3, r6, #8
    1336:	b292      	uxth	r2, r2
    1338:	b29b      	uxth	r3, r3
    133a:	444a      	add	r2, r9
    133c:	f5b3 7f00 	cmp.w	r3, #512	; 0x200
    1340:	f882 1320 	strb.w	r1, [r2, #800]	; 0x320
    1344:	f200 80fc 	bhi.w	1540 <Stack_Size+0x940>
    1348:	b15b      	cbz	r3, 1362 <Stack_Size+0x762>
    134a:	f203 331f 	addw	r3, r3, #799	; 0x31f
    134e:	4d73      	ldr	r5, [pc, #460]	; (151c <Stack_Size+0x91c>)
    1350:	eb0a 0603 	add.w	r6, r10, r3
    1354:	f815 1f01 	ldrb.w	r1, [r5, #1]!
    1358:	4871      	ldr	r0, [pc, #452]	; (1520 <Stack_Size+0x920>)
    135a:	f002 fe9d 	bl	4098 <mbed::Stream::putc(int)>
    135e:	42b5      	cmp	r5, r6
    1360:	d1f8      	bne.n	1354 <Stack_Size+0x754>
    1362:	4b70      	ldr	r3, [pc, #448]	; (1524 <Stack_Size+0x924>)
    1364:	429c      	cmp	r4, r3
    1366:	f47f af5b 	bne.w	1220 <Stack_Size+0x620>
    136a:	9c02      	ldr	r4, [sp, #8]
    136c:	9401      	str	r4, [sp, #4]
    136e:	461c      	mov	r4, r3
    1370:	f854 0f04 	ldr.w	r0, [r4, #4]!
    1374:	2800      	cmp	r0, #0
    1376:	f000 80a3 	beq.w	14c0 <Stack_Size+0x8c0>
    137a:	e890 0808 	ldmia.w	r0, {r3, r11}
    137e:	496a      	ldr	r1, [pc, #424]	; (1528 <Stack_Size+0x928>)
    1380:	689a      	ldr	r2, [r3, #8]
    1382:	6887      	ldr	r7, [r0, #8]
    1384:	428a      	cmp	r2, r1
    1386:	f040 80b1 	bne.w	14ec <Stack_Size+0x8ec>
    138a:	4e68      	ldr	r6, [pc, #416]	; (152c <Stack_Size+0x92c>)
    138c:	68da      	ldr	r2, [r3, #12]
    138e:	4968      	ldr	r1, [pc, #416]	; (1530 <Stack_Size+0x930>)
    1390:	428a      	cmp	r2, r1
    1392:	f040 80a6 	bne.w	14e2 <Stack_Size+0x8e2>
    1396:	4d67      	ldr	r5, [pc, #412]	; (1534 <Stack_Size+0x934>)
    1398:	685b      	ldr	r3, [r3, #4]
    139a:	4a67      	ldr	r2, [pc, #412]	; (1538 <Stack_Size+0x938>)
    139c:	4293      	cmp	r3, r2
    139e:	f040 809d 	bne.w	14dc <Stack_Size+0x8dc>
    13a2:	6ac3      	ldr	r3, [r0, #44]	; 0x2c
    13a4:	2b63      	cmp	r3, #99	; 0x63
    13a6:	dd04      	ble.n	13b2 <Stack_Size+0x7b2>
    13a8:	f899 25fc 	ldrb.w	r2, [r9, #1532]	; 0x5fc
    13ac:	2a00      	cmp	r2, #0
    13ae:	f000 8087 	beq.w	14c0 <Stack_Size+0x8c0>
    13b2:	f3cb 2207 	ubfx	r2, r11, #8, #8
    13b6:	4638      	mov	r0, r7
    13b8:	9302      	str	r3, [sp, #8]
    13ba:	f889 b327 	strb.w	r11, [r9, #807]	; 0x327
    13be:	f889 2328 	strb.w	r2, [r9, #808]	; 0x328
    13c2:	f005 f850 	bl	6466 <strlen>
    13c6:	4683      	mov	r11, r0
    13c8:	9005      	str	r0, [sp, #20]
    13ca:	4b51      	ldr	r3, [pc, #324]	; (1510 <Stack_Size+0x910>)
    13cc:	9805      	ldr	r0, [sp, #20]
    13ce:	4639      	mov	r1, r7
    13d0:	6018      	str	r0, [r3, #0]
    13d2:	465a      	mov	r2, r11
    13d4:	1d18      	adds	r0, r3, #4
    13d6:	f004 f97b 	bl	56d0 <memcpy>
    13da:	4630      	mov	r0, r6
    13dc:	f005 f843 	bl	6466 <strlen>
    13e0:	4607      	mov	r7, r0
    13e2:	9006      	str	r0, [sp, #24]
    13e4:	4b4b      	ldr	r3, [pc, #300]	; (1514 <Stack_Size+0x914>)
    13e6:	9806      	ldr	r0, [sp, #24]
    13e8:	f10b 0206 	add.w	r2, r11, #6
    13ec:	f10b 0b0a 	add.w	r11, r11, #10
    13f0:	5098      	str	r0, [r3, r2]
    13f2:	4631      	mov	r1, r6
    13f4:	463a      	mov	r2, r7
    13f6:	eb03 000b 	add.w	r0, r3, r11
    13fa:	f004 f969 	bl	56d0 <memcpy>
    13fe:	4628      	mov	r0, r5
    1400:	f005 f831 	bl	6466 <strlen>
    1404:	4606      	mov	r6, r0
    1406:	9007      	str	r0, [sp, #28]
    1408:	4b42      	ldr	r3, [pc, #264]	; (1514 <Stack_Size+0x914>)
    140a:	44bb      	add	r11, r7
    140c:	9807      	ldr	r0, [sp, #28]
    140e:	f10b 0704 	add.w	r7, r11, #4
    1412:	f843 000b 	str.w	r0, [r3, r11]
    1416:	4629      	mov	r1, r5
    1418:	4632      	mov	r2, r6
    141a:	19d8      	adds	r0, r3, r7
    141c:	f004 f958 	bl	56d0 <memcpy>
    1420:	19f0      	adds	r0, r6, r7
    1422:	1d07      	adds	r7, r0, #4
    1424:	f3c7 2207 	ubfx	r2, r7, #8, #8
    1428:	fa5f fc87 	uxtb.w	r12, r7
    142c:	eb0c 0b02 	add.w	r11, r12, r2
    1430:	ea6f 0b0b 	mvn.w	r11, r11
    1434:	9b02      	ldr	r3, [sp, #8]
    1436:	2500      	movs	r5, #0
    1438:	4448      	add	r0, r9
    143a:	2602      	movs	r6, #2
    143c:	b2bf      	uxth	r7, r7
    143e:	f880 6328 	strb.w	r6, [r0, #808]	; 0x328
    1442:	f880 5327 	strb.w	r5, [r0, #807]	; 0x327
    1446:	f880 5329 	strb.w	r5, [r0, #809]	; 0x329
    144a:	f880 532a 	strb.w	r5, [r0, #810]	; 0x32a
    144e:	4629      	mov	r1, r5
    1450:	b2d8      	uxtb	r0, r3
    1452:	f207 3526 	addw	r5, r7, #806	; 0x326
    1456:	f04f 0eff 	mov.w	lr, #255	; 0xff
    145a:	26fe      	movs	r6, #254	; 0xfe
    145c:	f343 2307 	sbfx	r3, r3, #8, #8
    1460:	f889 2323 	strb.w	r2, [r9, #803]	; 0x323
    1464:	f889 b324 	strb.w	r11, [r9, #804]	; 0x324
    1468:	f889 c322 	strb.w	r12, [r9, #802]	; 0x322
    146c:	4a2a      	ldr	r2, [pc, #168]	; (1518 <Stack_Size+0x918>)
    146e:	444d      	add	r5, r9
    1470:	f889 e320 	strb.w	lr, [r9, #800]	; 0x320
    1474:	f889 6321 	strb.w	r6, [r9, #801]	; 0x321
    1478:	f889 0325 	strb.w	r0, [r9, #805]	; 0x325
    147c:	f889 3326 	strb.w	r3, [r9, #806]	; 0x326
    1480:	e001      	b.n	1486 <Stack_Size+0x886>
    1482:	f812 0f01 	ldrb.w	r0, [r2, #1]!
    1486:	42aa      	cmp	r2, r5
    1488:	4401      	add	r1, r0
    148a:	d1fa      	bne.n	1482 <Stack_Size+0x882>
    148c:	43c9      	mvns	r1, r1
    148e:	1dfa      	adds	r2, r7, #7
    1490:	f107 0308 	add.w	r3, r7, #8
    1494:	b292      	uxth	r2, r2
    1496:	b29b      	uxth	r3, r3
    1498:	444a      	add	r2, r9
    149a:	f5b3 7f00 	cmp.w	r3, #512	; 0x200
    149e:	f882 1320 	strb.w	r1, [r2, #800]	; 0x320
    14a2:	f200 8093 	bhi.w	15cc <Stack_Size+0x9cc>
    14a6:	b15b      	cbz	r3, 14c0 <Stack_Size+0x8c0>
    14a8:	f203 331f 	addw	r3, r3, #799	; 0x31f
    14ac:	4d1b      	ldr	r5, [pc, #108]	; (151c <Stack_Size+0x91c>)
    14ae:	eb0a 0603 	add.w	r6, r10, r3
    14b2:	f815 1f01 	ldrb.w	r1, [r5, #1]!
    14b6:	481a      	ldr	r0, [pc, #104]	; (1520 <Stack_Size+0x920>)
    14b8:	f002 fdee 	bl	4098 <mbed::Stream::putc(int)>
    14bc:	42ae      	cmp	r6, r5
    14be:	d1f8      	bne.n	14b2 <Stack_Size+0x8b2>
    14c0:	4b1e      	ldr	r3, [pc, #120]	; (153c <Stack_Size+0x93c>)
    14c2:	429c      	cmp	r4, r3
    14c4:	f47f af54 	bne.w	1370 <Stack_Size+0x770>
    14c8:	9c01      	ldr	r4, [sp, #4]
    14ca:	2301      	movs	r3, #1
    14cc:	f8c9 4600 	str.w	r4, [r9, #1536]	; 0x600
    14d0:	f8c9 4604 	str.w	r4, [r9, #1540]	; 0x604
    14d4:	f889 35fc 	strb.w	r3, [r9, #1532]	; 0x5fc
    14d8:	f7ff bb71 	b.w	bbe <main+0x6a>
    14dc:	4798      	blx	r3
    14de:	4603      	mov	r3, r0
    14e0:	e760      	b.n	13a4 <Stack_Size+0x7a4>
    14e2:	4790      	blx	r2
    14e4:	4605      	mov	r5, r0
    14e6:	6820      	ldr	r0, [r4, #0]
    14e8:	6803      	ldr	r3, [r0, #0]
    14ea:	e755      	b.n	1398 <Stack_Size+0x798>
    14ec:	4790      	blx	r2
    14ee:	4606      	mov	r6, r0
    14f0:	6820      	ldr	r0, [r4, #0]
    14f2:	6803      	ldr	r3, [r0, #0]
    14f4:	e74a      	b.n	138c <Stack_Size+0x78c>
    14f6:	f505 7190 	add.w	r1, r5, #288	; 0x120
    14fa:	4618      	mov	r0, r3
    14fc:	4790      	blx	r2
    14fe:	f7ff bb79 	b.w	bf4 <main+0xa0>
    1502:	2608      	movs	r6, #8
    1504:	4635      	mov	r5, r6
    1506:	2704      	movs	r7, #4
    1508:	e577      	b.n	ffa <Stack_Size+0x3fa>
    150a:	bf00      	nop
    150c:	100001c0 	.word	0x100001c0
    1510:	100004e9 	.word	0x100004e9
    1514:	100004e7 	.word	0x100004e7
    1518:	100004e5 	.word	0x100004e5
    151c:	100004df 	.word	0x100004df
    1520:	10000204 	.word	0x10000204
    1524:	10000740 	.word	0x10000740
    1528:	00000245 	.word	0x00000245
    152c:	00007204 	.word	0x00007204
    1530:	0000024d 	.word	0x0000024d
    1534:	0000721c 	.word	0x0000721c
    1538:	00000241 	.word	0x00000241
    153c:	100007a4 	.word	0x100007a4
    1540:	4e45      	ldr	r6, [pc, #276]	; (1658 <Stack_Size+0xa58>)
    1542:	4d46      	ldr	r5, [pc, #280]	; (165c <Stack_Size+0xa5c>)
    1544:	ce0f      	ldmia	r6!, {r0, r1, r2, r3}
    1546:	c50f      	stmia	r5!, {r0, r1, r2, r3}
    1548:	ce0f      	ldmia	r6!, {r0, r1, r2, r3}
    154a:	c50f      	stmia	r5!, {r0, r1, r2, r3}
    154c:	ce0f      	ldmia	r6!, {r0, r1, r2, r3}
    154e:	c50f      	stmia	r5!, {r0, r1, r2, r3}
    1550:	e896 0003 	ldmia.w	r6, {r0, r1}
    1554:	2303      	movs	r3, #3
    1556:	f88a 3327 	strb.w	r3, [r10, #807]	; 0x327
    155a:	2338      	movs	r3, #56	; 0x38
    155c:	f8ca 3328 	str.w	r3, [r10, #808]	; 0x328
    1560:	23ff      	movs	r3, #255	; 0xff
    1562:	e885 0003 	stmia.w	r5, {r0, r1}
    1566:	f88a 3320 	strb.w	r3, [r10, #800]	; 0x320
    156a:	23fe      	movs	r3, #254	; 0xfe
    156c:	f88a 3321 	strb.w	r3, [r10, #801]	; 0x321
    1570:	233d      	movs	r3, #61	; 0x3d
    1572:	f88a 3322 	strb.w	r3, [r10, #802]	; 0x322
    1576:	f04f 0e00 	mov.w	lr, #0
    157a:	f04f 0c07 	mov.w	r12, #7
    157e:	23c2      	movs	r3, #194	; 0xc2
    1580:	eb05 020c 	add.w	r2, r5, r12
    1584:	4677      	mov	r7, lr
    1586:	46e3      	mov	r11, r12
    1588:	3d37      	subs	r5, #55	; 0x37
    158a:	f88a e323 	strb.w	lr, [r10, #803]	; 0x323
    158e:	f88a e326 	strb.w	lr, [r10, #806]	; 0x326
    1592:	f88a c325 	strb.w	r12, [r10, #805]	; 0x325
    1596:	f88a 3324 	strb.w	r3, [r10, #804]	; 0x324
    159a:	e001      	b.n	15a0 <Stack_Size+0x9a0>
    159c:	f815 bf01 	ldrb.w	r11, [r5, #1]!
    15a0:	42aa      	cmp	r2, r5
    15a2:	445f      	add	r7, r11
    15a4:	d1fa      	bne.n	159c <Stack_Size+0x99c>
    15a6:	43ff      	mvns	r7, r7
    15a8:	4d2d      	ldr	r5, [pc, #180]	; (1660 <Stack_Size+0xa60>)
    15aa:	f889 7364 	strb.w	r7, [r9, #868]	; 0x364
    15ae:	21ff      	movs	r1, #255	; 0xff
    15b0:	e001      	b.n	15b6 <Stack_Size+0x9b6>
    15b2:	f815 1f01 	ldrb.w	r1, [r5, #1]!
    15b6:	482b      	ldr	r0, [pc, #172]	; (1664 <Stack_Size+0xa64>)
    15b8:	f002 fd6e 	bl	4098 <mbed::Stream::putc(int)>
    15bc:	9b01      	ldr	r3, [sp, #4]
    15be:	429d      	cmp	r5, r3
    15c0:	d1f7      	bne.n	15b2 <Stack_Size+0x9b2>
    15c2:	4b29      	ldr	r3, [pc, #164]	; (1668 <Stack_Size+0xa68>)
    15c4:	429c      	cmp	r4, r3
    15c6:	f47f ae2b 	bne.w	1220 <Stack_Size+0x620>
    15ca:	e6ce      	b.n	136a <Stack_Size+0x76a>
    15cc:	4e22      	ldr	r6, [pc, #136]	; (1658 <Stack_Size+0xa58>)
    15ce:	4d23      	ldr	r5, [pc, #140]	; (165c <Stack_Size+0xa5c>)
    15d0:	ce0f      	ldmia	r6!, {r0, r1, r2, r3}
    15d2:	c50f      	stmia	r5!, {r0, r1, r2, r3}
    15d4:	ce0f      	ldmia	r6!, {r0, r1, r2, r3}
    15d6:	c50f      	stmia	r5!, {r0, r1, r2, r3}
    15d8:	ce0f      	ldmia	r6!, {r0, r1, r2, r3}
    15da:	c50f      	stmia	r5!, {r0, r1, r2, r3}
    15dc:	e896 0003 	ldmia.w	r6, {r0, r1}
    15e0:	2303      	movs	r3, #3
    15e2:	f88a 3327 	strb.w	r3, [r10, #807]	; 0x327
    15e6:	2338      	movs	r3, #56	; 0x38
    15e8:	f8ca 3328 	str.w	r3, [r10, #808]	; 0x328
    15ec:	23ff      	movs	r3, #255	; 0xff
    15ee:	e885 0003 	stmia.w	r5, {r0, r1}
    15f2:	f88a 3320 	strb.w	r3, [r10, #800]	; 0x320
    15f6:	23fe      	movs	r3, #254	; 0xfe
    15f8:	f88a 3321 	strb.w	r3, [r10, #801]	; 0x321
    15fc:	233d      	movs	r3, #61	; 0x3d
    15fe:	f88a 3322 	strb.w	r3, [r10, #802]	; 0x322
    1602:	f04f 0e00 	mov.w	lr, #0
    1606:	f04f 0c07 	mov.w	r12, #7
    160a:	23c2      	movs	r3, #194	; 0xc2
    160c:	eb05 020c 	add.w	r2, r5, r12
    1610:	4677      	mov	r7, lr
    1612:	46e3      	mov	r11, r12
    1614:	3d37      	subs	r5, #55	; 0x37
    1616:	f88a e323 	strb.w	lr, [r10, #803]	; 0x323
    161a:	f88a e326 	strb.w	lr, [r10, #806]	; 0x326
    161e:	f88a c325 	strb.w	r12, [r10, #805]	; 0x325
    1622:	f88a 3324 	strb.w	r3, [r10, #804]	; 0x324
    1626:	e001      	b.n	162c <Stack_Size+0xa2c>
    1628:	f815 bf01 	ldrb.w	r11, [r5, #1]!
    162c:	42aa      	cmp	r2, r5
    162e:	445f      	add	r7, r11
    1630:	d1fa      	bne.n	1628 <Stack_Size+0xa28>
    1632:	43ff      	mvns	r7, r7
    1634:	4d0a      	ldr	r5, [pc, #40]	; (1660 <Stack_Size+0xa60>)
    1636:	f889 7364 	strb.w	r7, [r9, #868]	; 0x364
    163a:	21ff      	movs	r1, #255	; 0xff
    163c:	e001      	b.n	1642 <Stack_Size+0xa42>
    163e:	f815 1f01 	ldrb.w	r1, [r5, #1]!
    1642:	4808      	ldr	r0, [pc, #32]	; (1664 <Stack_Size+0xa64>)
    1644:	f002 fd28 	bl	4098 <mbed::Stream::putc(int)>
    1648:	4b08      	ldr	r3, [pc, #32]	; (166c <Stack_Size+0xa6c>)
    164a:	42ab      	cmp	r3, r5
    164c:	d1f7      	bne.n	163e <Stack_Size+0xa3e>
    164e:	4b08      	ldr	r3, [pc, #32]	; (1670 <Stack_Size+0xa70>)
    1650:	429c      	cmp	r4, r3
    1652:	f47f ae8d 	bne.w	1370 <Stack_Size+0x770>
    1656:	e737      	b.n	14c8 <Stack_Size+0x8c8>
    1658:	00007240 	.word	0x00007240
    165c:	100004ec 	.word	0x100004ec
    1660:	100004e0 	.word	0x100004e0
    1664:	10000204 	.word	0x10000204
    1668:	10000740 	.word	0x10000740
    166c:	10000524 	.word	0x10000524
    1670:	100007a4 	.word	0x100007a4

00001674 <ros::NodeHandle_<MbedHardware, 25, 25, 512, 512>::negotiateTopics()>:
    1674:	e92d 4ff0 	stmdb	sp!, {r4, r5, r6, r7, r8, r9, r10, r11, lr}
    1678:	4607      	mov	r7, r0
    167a:	4bc1      	ldr	r3, [pc, #772]	; (1980 <ros::NodeHandle_<MbedHardware, 25, 25, 512, 512>::negotiateTopics()+0x30c>)
    167c:	49c1      	ldr	r1, [pc, #772]	; (1984 <ros::NodeHandle_<MbedHardware, 25, 25, 512, 512>::negotiateTopics()+0x310>)
    167e:	b091      	sub	sp, #68	; 0x44
    1680:	2200      	movs	r2, #0
    1682:	f500 68b0 	add.w	r8, r0, #1408	; 0x580
    1686:	f200 5b1c 	addw	r11, r0, #1308	; 0x51c
    168a:	910a      	str	r1, [sp, #40]	; 0x28
    168c:	930c      	str	r3, [sp, #48]	; 0x30
    168e:	930d      	str	r3, [sp, #52]	; 0x34
    1690:	930e      	str	r3, [sp, #56]	; 0x38
    1692:	f8ad 202c 	strh.w	r2, [sp, #44]	; 0x2c
    1696:	920f      	str	r2, [sp, #60]	; 0x3c
    1698:	f8cd 8004 	str.w	r8, [sp, #4]
    169c:	f85b 3f04 	ldr.w	r3, [r11, #4]!
    16a0:	2b00      	cmp	r3, #0
    16a2:	f000 80bd 	beq.w	1820 <ros::NodeHandle_<MbedHardware, 25, 25, 512, 512>::negotiateTopics()+0x1ac>
    16a6:	6858      	ldr	r0, [r3, #4]
    16a8:	681c      	ldr	r4, [r3, #0]
    16aa:	6801      	ldr	r1, [r0, #0]
    16ac:	689a      	ldr	r2, [r3, #8]
    16ae:	940c      	str	r4, [sp, #48]	; 0x30
    16b0:	688b      	ldr	r3, [r1, #8]
    16b2:	f8ad 202c 	strh.w	r2, [sp, #44]	; 0x2c
    16b6:	4798      	blx	r3
    16b8:	f8db 3000 	ldr.w	r3, [r11]
    16bc:	900d      	str	r0, [sp, #52]	; 0x34
    16be:	6858      	ldr	r0, [r3, #4]
    16c0:	6803      	ldr	r3, [r0, #0]
    16c2:	68db      	ldr	r3, [r3, #12]
    16c4:	4798      	blx	r3
    16c6:	683b      	ldr	r3, [r7, #0]
    16c8:	f8db 1000 	ldr.w	r1, [r11]
    16cc:	f44f 7200 	mov.w	r2, #512	; 0x200
    16d0:	900e      	str	r0, [sp, #56]	; 0x38
    16d2:	681b      	ldr	r3, [r3, #0]
    16d4:	690e      	ldr	r6, [r1, #16]
    16d6:	920f      	str	r2, [sp, #60]	; 0x3c
    16d8:	4aab      	ldr	r2, [pc, #684]	; (1988 <ros::NodeHandle_<MbedHardware, 25, 25, 512, 512>::negotiateTopics()+0x314>)
    16da:	4681      	mov	r9, r0
    16dc:	4293      	cmp	r3, r2
    16de:	f040 818b 	bne.w	19f8 <ros::NodeHandle_<MbedHardware, 25, 25, 512, 512>::negotiateTopics()+0x384>
    16e2:	2e63      	cmp	r6, #99	; 0x63
    16e4:	dd04      	ble.n	16f0 <ros::NodeHandle_<MbedHardware, 25, 25, 512, 512>::negotiateTopics()+0x7c>
    16e6:	f897 35fc 	ldrb.w	r3, [r7, #1532]	; 0x5fc
    16ea:	2b00      	cmp	r3, #0
    16ec:	f000 8098 	beq.w	1820 <ros::NodeHandle_<MbedHardware, 25, 25, 512, 512>::negotiateTopics()+0x1ac>
    16f0:	f8bd 302c 	ldrh.w	r3, [sp, #44]	; 0x2c
    16f4:	9d0c      	ldr	r5, [sp, #48]	; 0x30
    16f6:	0a1a      	lsrs	r2, r3, #8
    16f8:	f887 3327 	strb.w	r3, [r7, #807]	; 0x327
    16fc:	f887 2328 	strb.w	r2, [r7, #808]	; 0x328
    1700:	4628      	mov	r0, r5
    1702:	f004 feb0 	bl	6466 <strlen>
    1706:	4604      	mov	r4, r0
    1708:	ab10      	add	r3, sp, #64	; 0x40
    170a:	f843 0d2c 	str.w	r0, [r3, #-44]!
    170e:	6818      	ldr	r0, [r3, #0]
    1710:	4629      	mov	r1, r5
    1712:	4622      	mov	r2, r4
    1714:	f8c7 0329 	str.w	r0, [r7, #809]	; 0x329
    1718:	f207 302d 	addw	r0, r7, #813	; 0x32d
    171c:	f003 ffd8 	bl	56d0 <memcpy>
    1720:	9d0d      	ldr	r5, [sp, #52]	; 0x34
    1722:	ab10      	add	r3, sp, #64	; 0x40
    1724:	4628      	mov	r0, r5
    1726:	9300      	str	r3, [sp, #0]
    1728:	f004 fe9d 	bl	6466 <strlen>
    172c:	f207 3e27 	addw	lr, r7, #807	; 0x327
    1730:	4603      	mov	r3, r0
    1732:	4629      	mov	r1, r5
    1734:	4675      	mov	r5, lr
    1736:	9a00      	ldr	r2, [sp, #0]
    1738:	9006      	str	r0, [sp, #24]
    173a:	f852 0d28 	ldr.w	r0, [r2, #-40]!
    173e:	9302      	str	r3, [sp, #8]
    1740:	9200      	str	r2, [sp, #0]
    1742:	1da2      	adds	r2, r4, #6
    1744:	340a      	adds	r4, #10
    1746:	f84e 0002 	str.w	r0, [lr, r2]
    174a:	461a      	mov	r2, r3
    174c:	1928      	adds	r0, r5, r4
    174e:	f003 ffbf 	bl	56d0 <memcpy>
    1752:	4648      	mov	r0, r9
    1754:	f004 fe87 	bl	6466 <strlen>
    1758:	4682      	mov	r10, r0
    175a:	9b02      	ldr	r3, [sp, #8]
    175c:	9007      	str	r0, [sp, #28]
    175e:	f10d 0840 	add.w	r8, sp, #64	; 0x40
    1762:	4423      	add	r3, r4
    1764:	f858 0d24 	ldr.w	r0, [r8, #-36]!
    1768:	1d1c      	adds	r4, r3, #4
    176a:	50e8      	str	r0, [r5, r3]
    176c:	4649      	mov	r1, r9
    176e:	4652      	mov	r2, r10
    1770:	1928      	adds	r0, r5, r4
    1772:	f003 ffad 	bl	56d0 <memcpy>
    1776:	eb0a 0004 	add.w	r0, r10, r4
    177a:	1d01      	adds	r1, r0, #4
    177c:	fa5f fa81 	uxtb.w	r10, r1
    1780:	f3c1 2907 	ubfx	r9, r1, #8, #8
    1784:	eb0a 0e09 	add.w	lr, r10, r9
    1788:	ea6f 0e0e 	mvn.w	lr, lr
    178c:	2400      	movs	r4, #0
    178e:	542c      	strb	r4, [r5, r0]
    1790:	eb05 0c00 	add.w	r12, r5, r0
    1794:	b289      	uxth	r1, r1
    1796:	2002      	movs	r0, #2
    1798:	f88c 4002 	strb.w	r4, [r12, #2]
    179c:	f88c 4003 	strb.w	r4, [r12, #3]
    17a0:	f88c 0001 	strb.w	r0, [r12, #1]
    17a4:	f207 3325 	addw	r3, r7, #805	; 0x325
    17a8:	4622      	mov	r2, r4
    17aa:	f201 3026 	addw	r0, r1, #806	; 0x326
    17ae:	24ff      	movs	r4, #255	; 0xff
    17b0:	f887 e324 	strb.w	lr, [r7, #804]	; 0x324
    17b4:	25fe      	movs	r5, #254	; 0xfe
    17b6:	fa5f fe86 	uxtb.w	lr, r6
    17ba:	f346 2607 	sbfx	r6, r6, #8, #8
    17be:	9302      	str	r3, [sp, #8]
    17c0:	f887 a322 	strb.w	r10, [r7, #802]	; 0x322
    17c4:	f887 9323 	strb.w	r9, [r7, #803]	; 0x323
    17c8:	4438      	add	r0, r7
    17ca:	f887 4320 	strb.w	r4, [r7, #800]	; 0x320
    17ce:	f887 5321 	strb.w	r5, [r7, #801]	; 0x321
    17d2:	f887 e325 	strb.w	lr, [r7, #805]	; 0x325
    17d6:	f887 6326 	strb.w	r6, [r7, #806]	; 0x326
    17da:	e001      	b.n	17e0 <ros::NodeHandle_<MbedHardware, 25, 25, 512, 512>::negotiateTopics()+0x16c>
    17dc:	f813 ef01 	ldrb.w	lr, [r3, #1]!
    17e0:	4298      	cmp	r0, r3
    17e2:	4472      	add	r2, lr
    17e4:	d1fa      	bne.n	17dc <ros::NodeHandle_<MbedHardware, 25, 25, 512, 512>::negotiateTopics()+0x168>
    17e6:	43d2      	mvns	r2, r2
    17e8:	1dc8      	adds	r0, r1, #7
    17ea:	f101 0308 	add.w	r3, r1, #8
    17ee:	b280      	uxth	r0, r0
    17f0:	b29b      	uxth	r3, r3
    17f2:	1839      	adds	r1, r7, r0
    17f4:	f5b3 7f00 	cmp.w	r3, #512	; 0x200
    17f8:	f881 2320 	strb.w	r2, [r1, #800]	; 0x320
    17fc:	f200 811d 	bhi.w	1a3a <ros::NodeHandle_<MbedHardware, 25, 25, 512, 512>::negotiateTopics()+0x3c6>
    1800:	f507 7548 	add.w	r5, r7, #800	; 0x320
    1804:	b163      	cbz	r3, 1820 <ros::NodeHandle_<MbedHardware, 25, 25, 512, 512>::negotiateTopics()+0x1ac>
    1806:	3b01      	subs	r3, #1
    1808:	441d      	add	r5, r3
    180a:	f107 0644 	add.w	r6, r7, #68	; 0x44
    180e:	f207 341f 	addw	r4, r7, #799	; 0x31f
    1812:	f814 1f01 	ldrb.w	r1, [r4, #1]!
    1816:	4630      	mov	r0, r6
    1818:	f002 fc3e 	bl	4098 <mbed::Stream::putc(int)>
    181c:	42a5      	cmp	r5, r4
    181e:	d1f8      	bne.n	1812 <ros::NodeHandle_<MbedHardware, 25, 25, 512, 512>::negotiateTopics()+0x19e>
    1820:	9b01      	ldr	r3, [sp, #4]
    1822:	459b      	cmp	r11, r3
    1824:	f47f af3a 	bne.w	169c <ros::NodeHandle_<MbedHardware, 25, 25, 512, 512>::negotiateTopics()+0x28>
    1828:	4698      	mov	r8, r3
    182a:	f207 53e4 	addw	r3, r7, #1508	; 0x5e4
    182e:	9301      	str	r3, [sp, #4]
    1830:	f858 0f04 	ldr.w	r0, [r8, #4]!
    1834:	2800      	cmp	r0, #0
    1836:	f000 80d5 	beq.w	19e4 <ros::NodeHandle_<MbedHardware, 25, 25, 512, 512>::negotiateTopics()+0x370>
    183a:	6882      	ldr	r2, [r0, #8]
    183c:	6803      	ldr	r3, [r0, #0]
    183e:	6841      	ldr	r1, [r0, #4]
    1840:	920c      	str	r2, [sp, #48]	; 0x30
    1842:	689a      	ldr	r2, [r3, #8]
    1844:	f8ad 102c 	strh.w	r1, [sp, #44]	; 0x2c
    1848:	4950      	ldr	r1, [pc, #320]	; (198c <ros::NodeHandle_<MbedHardware, 25, 25, 512, 512>::negotiateTopics()+0x318>)
    184a:	428a      	cmp	r2, r1
    184c:	f040 80ef 	bne.w	1a2e <ros::NodeHandle_<MbedHardware, 25, 25, 512, 512>::negotiateTopics()+0x3ba>
    1850:	4a4f      	ldr	r2, [pc, #316]	; (1990 <ros::NodeHandle_<MbedHardware, 25, 25, 512, 512>::negotiateTopics()+0x31c>)
    1852:	920d      	str	r2, [sp, #52]	; 0x34
    1854:	68da      	ldr	r2, [r3, #12]
    1856:	494f      	ldr	r1, [pc, #316]	; (1994 <ros::NodeHandle_<MbedHardware, 25, 25, 512, 512>::negotiateTopics()+0x320>)
    1858:	428a      	cmp	r2, r1
    185a:	f040 80e2 	bne.w	1a22 <ros::NodeHandle_<MbedHardware, 25, 25, 512, 512>::negotiateTopics()+0x3ae>
    185e:	4a4e      	ldr	r2, [pc, #312]	; (1998 <ros::NodeHandle_<MbedHardware, 25, 25, 512, 512>::negotiateTopics()+0x324>)
    1860:	6839      	ldr	r1, [r7, #0]
    1862:	920e      	str	r2, [sp, #56]	; 0x38
    1864:	f44f 7200 	mov.w	r2, #512	; 0x200
    1868:	685b      	ldr	r3, [r3, #4]
    186a:	680c      	ldr	r4, [r1, #0]
    186c:	920f      	str	r2, [sp, #60]	; 0x3c
    186e:	4a4b      	ldr	r2, [pc, #300]	; (199c <ros::NodeHandle_<MbedHardware, 25, 25, 512, 512>::negotiateTopics()+0x328>)
    1870:	4293      	cmp	r3, r2
    1872:	f040 80d3 	bne.w	1a1c <ros::NodeHandle_<MbedHardware, 25, 25, 512, 512>::negotiateTopics()+0x3a8>
    1876:	6ac6      	ldr	r6, [r0, #44]	; 0x2c
    1878:	f8df a10c 	ldr.w	r10, [pc, #268]	; 1988 <ros::NodeHandle_<MbedHardware, 25, 25, 512, 512>::negotiateTopics()+0x314>
    187c:	4554      	cmp	r4, r10
    187e:	f040 80c4 	bne.w	1a0a <ros::NodeHandle_<MbedHardware, 25, 25, 512, 512>::negotiateTopics()+0x396>
    1882:	2e63      	cmp	r6, #99	; 0x63
    1884:	dd04      	ble.n	1890 <ros::NodeHandle_<MbedHardware, 25, 25, 512, 512>::negotiateTopics()+0x21c>
    1886:	f897 35fc 	ldrb.w	r3, [r7, #1532]	; 0x5fc
    188a:	2b00      	cmp	r3, #0
    188c:	f000 80aa 	beq.w	19e4 <ros::NodeHandle_<MbedHardware, 25, 25, 512, 512>::negotiateTopics()+0x370>
    1890:	f8bd 302c 	ldrh.w	r3, [sp, #44]	; 0x2c
    1894:	9d0c      	ldr	r5, [sp, #48]	; 0x30
    1896:	0a1a      	lsrs	r2, r3, #8
    1898:	f887 3327 	strb.w	r3, [r7, #807]	; 0x327
    189c:	f887 2328 	strb.w	r2, [r7, #808]	; 0x328
    18a0:	4628      	mov	r0, r5
    18a2:	f004 fde0 	bl	6466 <strlen>
    18a6:	4604      	mov	r4, r0
    18a8:	ab10      	add	r3, sp, #64	; 0x40
    18aa:	f843 0d2c 	str.w	r0, [r3, #-44]!
    18ae:	6818      	ldr	r0, [r3, #0]
    18b0:	4629      	mov	r1, r5
    18b2:	4622      	mov	r2, r4
    18b4:	f8c7 0329 	str.w	r0, [r7, #809]	; 0x329
    18b8:	f207 302d 	addw	r0, r7, #813	; 0x32d
    18bc:	f003 ff08 	bl	56d0 <memcpy>
    18c0:	9d0d      	ldr	r5, [sp, #52]	; 0x34
    18c2:	ab10      	add	r3, sp, #64	; 0x40
    18c4:	4628      	mov	r0, r5
    18c6:	9300      	str	r3, [sp, #0]
    18c8:	f004 fdcd 	bl	6466 <strlen>
    18cc:	f207 3e27 	addw	lr, r7, #807	; 0x327
    18d0:	4603      	mov	r3, r0
    18d2:	4629      	mov	r1, r5
    18d4:	4675      	mov	r5, lr
    18d6:	9a00      	ldr	r2, [sp, #0]
    18d8:	9006      	str	r0, [sp, #24]
    18da:	f852 0d28 	ldr.w	r0, [r2, #-40]!
    18de:	9303      	str	r3, [sp, #12]
    18e0:	9200      	str	r2, [sp, #0]
    18e2:	1da2      	adds	r2, r4, #6
    18e4:	340a      	adds	r4, #10
    18e6:	f84e 0002 	str.w	r0, [lr, r2]
    18ea:	461a      	mov	r2, r3
    18ec:	1928      	adds	r0, r5, r4
    18ee:	f003 feef 	bl	56d0 <memcpy>
    18f2:	990e      	ldr	r1, [sp, #56]	; 0x38
    18f4:	f10d 0940 	add.w	r9, sp, #64	; 0x40
    18f8:	4608      	mov	r0, r1
    18fa:	9102      	str	r1, [sp, #8]
    18fc:	f004 fdb3 	bl	6466 <strlen>
    1900:	4683      	mov	r11, r0
    1902:	9b03      	ldr	r3, [sp, #12]
    1904:	9007      	str	r0, [sp, #28]
    1906:	4423      	add	r3, r4
    1908:	f859 0d24 	ldr.w	r0, [r9, #-36]!
    190c:	1d1c      	adds	r4, r3, #4
    190e:	50e8      	str	r0, [r5, r3]
    1910:	465a      	mov	r2, r11
    1912:	1928      	adds	r0, r5, r4
    1914:	9902      	ldr	r1, [sp, #8]
    1916:	f003 fedb 	bl	56d0 <memcpy>
    191a:	eb0b 0004 	add.w	r0, r11, r4
    191e:	1d02      	adds	r2, r0, #4
    1920:	fa5f fb82 	uxtb.w	r11, r2
    1924:	f3c2 2c07 	ubfx	r12, r2, #8, #8
    1928:	eb0b 040c 	add.w	r4, r11, r12
    192c:	43e4      	mvns	r4, r4
    192e:	990f      	ldr	r1, [sp, #60]	; 0x3c
    1930:	eb05 0e00 	add.w	lr, r5, r0
    1934:	5429      	strb	r1, [r5, r0]
    1936:	0a08      	lsrs	r0, r1, #8
    1938:	f88e 0001 	strb.w	r0, [lr, #1]
    193c:	b292      	uxth	r2, r2
    193e:	0c08      	lsrs	r0, r1, #16
    1940:	0e09      	lsrs	r1, r1, #24
    1942:	f88e 0002 	strb.w	r0, [lr, #2]
    1946:	f88e 1003 	strb.w	r1, [lr, #3]
    194a:	f207 3325 	addw	r3, r7, #805	; 0x325
    194e:	21fe      	movs	r1, #254	; 0xfe
    1950:	f202 3026 	addw	r0, r2, #806	; 0x326
    1954:	25ff      	movs	r5, #255	; 0xff
    1956:	f887 4324 	strb.w	r4, [r7, #804]	; 0x324
    195a:	b2f4      	uxtb	r4, r6
    195c:	f346 2607 	sbfx	r6, r6, #8, #8
    1960:	f887 1321 	strb.w	r1, [r7, #801]	; 0x321
    1964:	9302      	str	r3, [sp, #8]
    1966:	f887 b322 	strb.w	r11, [r7, #802]	; 0x322
    196a:	f887 c323 	strb.w	r12, [r7, #803]	; 0x323
    196e:	4438      	add	r0, r7
    1970:	f887 5320 	strb.w	r5, [r7, #800]	; 0x320
    1974:	f887 4325 	strb.w	r4, [r7, #805]	; 0x325
    1978:	f887 6326 	strb.w	r6, [r7, #806]	; 0x326
    197c:	2100      	movs	r1, #0
    197e:	e011      	b.n	19a4 <ros::NodeHandle_<MbedHardware, 25, 25, 512, 512>::negotiateTopics()+0x330>
    1980:	00007278 	.word	0x00007278
    1984:	00007064 	.word	0x00007064
    1988:	000009d5 	.word	0x000009d5
    198c:	00000245 	.word	0x00000245
    1990:	00007204 	.word	0x00007204
    1994:	0000024d 	.word	0x0000024d
    1998:	0000721c 	.word	0x0000721c
    199c:	00000241 	.word	0x00000241
    19a0:	f813 4f01 	ldrb.w	r4, [r3, #1]!
    19a4:	4298      	cmp	r0, r3
    19a6:	4421      	add	r1, r4
    19a8:	d1fa      	bne.n	19a0 <ros::NodeHandle_<MbedHardware, 25, 25, 512, 512>::negotiateTopics()+0x32c>
    19aa:	43c9      	mvns	r1, r1
    19ac:	1dd0      	adds	r0, r2, #7
    19ae:	f102 0308 	add.w	r3, r2, #8
    19b2:	b280      	uxth	r0, r0
    19b4:	b29b      	uxth	r3, r3
    19b6:	183a      	adds	r2, r7, r0
    19b8:	f5b3 7f00 	cmp.w	r3, #512	; 0x200
    19bc:	f882 1320 	strb.w	r1, [r2, #800]	; 0x320
    19c0:	f200 8099 	bhi.w	1af6 <ros::NodeHandle_<MbedHardware, 25, 25, 512, 512>::negotiateTopics()+0x482>
    19c4:	f507 7548 	add.w	r5, r7, #800	; 0x320
    19c8:	b163      	cbz	r3, 19e4 <ros::NodeHandle_<MbedHardware, 25, 25, 512, 512>::negotiateTopics()+0x370>
    19ca:	3b01      	subs	r3, #1
    19cc:	441d      	add	r5, r3
    19ce:	f107 0644 	add.w	r6, r7, #68	; 0x44
    19d2:	f207 341f 	addw	r4, r7, #799	; 0x31f
    19d6:	f814 1f01 	ldrb.w	r1, [r4, #1]!
    19da:	4630      	mov	r0, r6
    19dc:	f002 fb5c 	bl	4098 <mbed::Stream::putc(int)>
    19e0:	42a5      	cmp	r5, r4
    19e2:	d1f8      	bne.n	19d6 <ros::NodeHandle_<MbedHardware, 25, 25, 512, 512>::negotiateTopics()+0x362>
    19e4:	9b01      	ldr	r3, [sp, #4]
    19e6:	4543      	cmp	r3, r8
    19e8:	f47f af22 	bne.w	1830 <ros::NodeHandle_<MbedHardware, 25, 25, 512, 512>::negotiateTopics()+0x1bc>
    19ec:	2301      	movs	r3, #1
    19ee:	f887 35fc 	strb.w	r3, [r7, #1532]	; 0x5fc
    19f2:	b011      	add	sp, #68	; 0x44
    19f4:	e8bd 8ff0 	ldmia.w	sp!, {r4, r5, r6, r7, r8, r9, r10, r11, pc}
    19f8:	4631      	mov	r1, r6
    19fa:	aa0a      	add	r2, sp, #40	; 0x28
    19fc:	4638      	mov	r0, r7
    19fe:	4798      	blx	r3
    1a00:	9b01      	ldr	r3, [sp, #4]
    1a02:	459b      	cmp	r11, r3
    1a04:	f47f ae4a 	bne.w	169c <ros::NodeHandle_<MbedHardware, 25, 25, 512, 512>::negotiateTopics()+0x28>
    1a08:	e70e      	b.n	1828 <ros::NodeHandle_<MbedHardware, 25, 25, 512, 512>::negotiateTopics()+0x1b4>
    1a0a:	4631      	mov	r1, r6
    1a0c:	aa0a      	add	r2, sp, #40	; 0x28
    1a0e:	4638      	mov	r0, r7
    1a10:	47a0      	blx	r4
    1a12:	9b01      	ldr	r3, [sp, #4]
    1a14:	4543      	cmp	r3, r8
    1a16:	f47f af0b 	bne.w	1830 <ros::NodeHandle_<MbedHardware, 25, 25, 512, 512>::negotiateTopics()+0x1bc>
    1a1a:	e7e7      	b.n	19ec <ros::NodeHandle_<MbedHardware, 25, 25, 512, 512>::negotiateTopics()+0x378>
    1a1c:	4798      	blx	r3
    1a1e:	4606      	mov	r6, r0
    1a20:	e72a      	b.n	1878 <ros::NodeHandle_<MbedHardware, 25, 25, 512, 512>::negotiateTopics()+0x204>
    1a22:	4790      	blx	r2
    1a24:	4602      	mov	r2, r0
    1a26:	f8d8 0000 	ldr.w	r0, [r8]
    1a2a:	6803      	ldr	r3, [r0, #0]
    1a2c:	e718      	b.n	1860 <ros::NodeHandle_<MbedHardware, 25, 25, 512, 512>::negotiateTopics()+0x1ec>
    1a2e:	4790      	blx	r2
    1a30:	4602      	mov	r2, r0
    1a32:	f8d8 0000 	ldr.w	r0, [r8]
    1a36:	6803      	ldr	r3, [r0, #0]
    1a38:	e70b      	b.n	1852 <ros::NodeHandle_<MbedHardware, 25, 25, 512, 512>::negotiateTopics()+0x1de>
    1a3a:	4961      	ldr	r1, [pc, #388]	; (1bc0 <ros::NodeHandle_<MbedHardware, 25, 25, 512, 512>::negotiateTopics()+0x54c>)
    1a3c:	2203      	movs	r2, #3
    1a3e:	9107      	str	r1, [sp, #28]
    1a40:	4960      	ldr	r1, [pc, #384]	; (1bc4 <ros::NodeHandle_<MbedHardware, 25, 25, 512, 512>::negotiateTopics()+0x550>)
    1a42:	683b      	ldr	r3, [r7, #0]
    1a44:	9109      	str	r1, [sp, #36]	; 0x24
    1a46:	f88d 2020 	strb.w	r2, [sp, #32]
    1a4a:	681b      	ldr	r3, [r3, #0]
    1a4c:	495e      	ldr	r1, [pc, #376]	; (1bc8 <ros::NodeHandle_<MbedHardware, 25, 25, 512, 512>::negotiateTopics()+0x554>)
    1a4e:	428b      	cmp	r3, r1
    1a50:	f040 80ac 	bne.w	1bac <ros::NodeHandle_<MbedHardware, 25, 25, 512, 512>::negotiateTopics()+0x538>
    1a54:	2338      	movs	r3, #56	; 0x38
    1a56:	9306      	str	r3, [sp, #24]
    1a58:	9b00      	ldr	r3, [sp, #0]
    1a5a:	4c5a      	ldr	r4, [pc, #360]	; (1bc4 <ros::NodeHandle_<MbedHardware, 25, 25, 512, 512>::negotiateTopics()+0x550>)
    1a5c:	6818      	ldr	r0, [r3, #0]
    1a5e:	f887 2327 	strb.w	r2, [r7, #807]	; 0x327
    1a62:	f8c7 0328 	str.w	r0, [r7, #808]	; 0x328
    1a66:	f104 0e30 	add.w	lr, r4, #48	; 0x30
    1a6a:	f507 754b 	add.w	r5, r7, #812	; 0x32c
    1a6e:	4626      	mov	r6, r4
    1a70:	ce0f      	ldmia	r6!, {r0, r1, r2, r3}
    1a72:	4576      	cmp	r6, lr
    1a74:	6028      	str	r0, [r5, #0]
    1a76:	6069      	str	r1, [r5, #4]
    1a78:	60aa      	str	r2, [r5, #8]
    1a7a:	60eb      	str	r3, [r5, #12]
    1a7c:	f104 0410 	add.w	r4, r4, #16
    1a80:	f105 0510 	add.w	r5, r5, #16
    1a84:	d1f3      	bne.n	1a6e <ros::NodeHandle_<MbedHardware, 25, 25, 512, 512>::negotiateTopics()+0x3fa>
    1a86:	cc03      	ldmia	r4!, {r0, r1}
    1a88:	9b02      	ldr	r3, [sp, #8]
    1a8a:	6028      	str	r0, [r5, #0]
    1a8c:	6069      	str	r1, [r5, #4]
    1a8e:	20ff      	movs	r0, #255	; 0xff
    1a90:	21fe      	movs	r1, #254	; 0xfe
    1a92:	2600      	movs	r6, #0
    1a94:	f04f 0e07 	mov.w	lr, #7
    1a98:	f887 0320 	strb.w	r0, [r7, #800]	; 0x320
    1a9c:	f887 1321 	strb.w	r1, [r7, #801]	; 0x321
    1aa0:	203d      	movs	r0, #61	; 0x3d
    1aa2:	21c2      	movs	r1, #194	; 0xc2
    1aa4:	f887 1324 	strb.w	r1, [r7, #804]	; 0x324
    1aa8:	4632      	mov	r2, r6
    1aaa:	4674      	mov	r4, lr
    1aac:	f887 6323 	strb.w	r6, [r7, #803]	; 0x323
    1ab0:	f887 6326 	strb.w	r6, [r7, #806]	; 0x326
    1ab4:	f887 e325 	strb.w	lr, [r7, #805]	; 0x325
    1ab8:	f887 0322 	strb.w	r0, [r7, #802]	; 0x322
    1abc:	f207 3163 	addw	r1, r7, #867	; 0x363
    1ac0:	e001      	b.n	1ac6 <ros::NodeHandle_<MbedHardware, 25, 25, 512, 512>::negotiateTopics()+0x452>
    1ac2:	f813 4f01 	ldrb.w	r4, [r3, #1]!
    1ac6:	4299      	cmp	r1, r3
    1ac8:	4422      	add	r2, r4
    1aca:	d1fa      	bne.n	1ac2 <ros::NodeHandle_<MbedHardware, 25, 25, 512, 512>::negotiateTopics()+0x44e>
    1acc:	43d2      	mvns	r2, r2
    1ace:	f107 0644 	add.w	r6, r7, #68	; 0x44
    1ad2:	f887 2364 	strb.w	r2, [r7, #868]	; 0x364
    1ad6:	f207 341f 	addw	r4, r7, #799	; 0x31f
    1ada:	f507 7559 	add.w	r5, r7, #868	; 0x364
    1ade:	f814 1f01 	ldrb.w	r1, [r4, #1]!
    1ae2:	4630      	mov	r0, r6
    1ae4:	f002 fad8 	bl	4098 <mbed::Stream::putc(int)>
    1ae8:	42ac      	cmp	r4, r5
    1aea:	d1f8      	bne.n	1ade <ros::NodeHandle_<MbedHardware, 25, 25, 512, 512>::negotiateTopics()+0x46a>
    1aec:	9b01      	ldr	r3, [sp, #4]
    1aee:	459b      	cmp	r11, r3
    1af0:	f47f add4 	bne.w	169c <ros::NodeHandle_<MbedHardware, 25, 25, 512, 512>::negotiateTopics()+0x28>
    1af4:	e698      	b.n	1828 <ros::NodeHandle_<MbedHardware, 25, 25, 512, 512>::negotiateTopics()+0x1b4>
    1af6:	4932      	ldr	r1, [pc, #200]	; (1bc0 <ros::NodeHandle_<MbedHardware, 25, 25, 512, 512>::negotiateTopics()+0x54c>)
    1af8:	4c32      	ldr	r4, [pc, #200]	; (1bc4 <ros::NodeHandle_<MbedHardware, 25, 25, 512, 512>::negotiateTopics()+0x550>)
    1afa:	2203      	movs	r2, #3
    1afc:	683b      	ldr	r3, [r7, #0]
    1afe:	9107      	str	r1, [sp, #28]
    1b00:	9409      	str	r4, [sp, #36]	; 0x24
    1b02:	f88d 2020 	strb.w	r2, [sp, #32]
    1b06:	681b      	ldr	r3, [r3, #0]
    1b08:	4553      	cmp	r3, r10
    1b0a:	d154      	bne.n	1bb6 <ros::NodeHandle_<MbedHardware, 25, 25, 512, 512>::negotiateTopics()+0x542>
    1b0c:	2338      	movs	r3, #56	; 0x38
    1b0e:	9306      	str	r3, [sp, #24]
    1b10:	9b00      	ldr	r3, [sp, #0]
    1b12:	f887 2327 	strb.w	r2, [r7, #807]	; 0x327
    1b16:	6818      	ldr	r0, [r3, #0]
    1b18:	f104 0e30 	add.w	lr, r4, #48	; 0x30
    1b1c:	f8c7 0328 	str.w	r0, [r7, #808]	; 0x328
    1b20:	f507 754b 	add.w	r5, r7, #812	; 0x32c
    1b24:	4626      	mov	r6, r4
    1b26:	ce0f      	ldmia	r6!, {r0, r1, r2, r3}
    1b28:	4576      	cmp	r6, lr
    1b2a:	6028      	str	r0, [r5, #0]
    1b2c:	6069      	str	r1, [r5, #4]
    1b2e:	60aa      	str	r2, [r5, #8]
    1b30:	60eb      	str	r3, [r5, #12]
    1b32:	f104 0410 	add.w	r4, r4, #16
    1b36:	f105 0510 	add.w	r5, r5, #16
    1b3a:	d1f3      	bne.n	1b24 <ros::NodeHandle_<MbedHardware, 25, 25, 512, 512>::negotiateTopics()+0x4b0>
    1b3c:	cc03      	ldmia	r4!, {r0, r1}
    1b3e:	9b02      	ldr	r3, [sp, #8]
    1b40:	6028      	str	r0, [r5, #0]
    1b42:	6069      	str	r1, [r5, #4]
    1b44:	20ff      	movs	r0, #255	; 0xff
    1b46:	21fe      	movs	r1, #254	; 0xfe
    1b48:	2600      	movs	r6, #0
    1b4a:	f04f 0e07 	mov.w	lr, #7
    1b4e:	f887 0320 	strb.w	r0, [r7, #800]	; 0x320
    1b52:	f887 1321 	strb.w	r1, [r7, #801]	; 0x321
    1b56:	203d      	movs	r0, #61	; 0x3d
    1b58:	21c2      	movs	r1, #194	; 0xc2
    1b5a:	f887 1324 	strb.w	r1, [r7, #804]	; 0x324
    1b5e:	4632      	mov	r2, r6
    1b60:	4674      	mov	r4, lr
    1b62:	f887 6323 	strb.w	r6, [r7, #803]	; 0x323
    1b66:	f887 6326 	strb.w	r6, [r7, #806]	; 0x326
    1b6a:	f887 e325 	strb.w	lr, [r7, #805]	; 0x325
    1b6e:	f887 0322 	strb.w	r0, [r7, #802]	; 0x322
    1b72:	f207 3163 	addw	r1, r7, #867	; 0x363
    1b76:	e001      	b.n	1b7c <ros::NodeHandle_<MbedHardware, 25, 25, 512, 512>::negotiateTopics()+0x508>
    1b78:	f813 4f01 	ldrb.w	r4, [r3, #1]!
    1b7c:	428b      	cmp	r3, r1
    1b7e:	4422      	add	r2, r4
    1b80:	d1fa      	bne.n	1b78 <ros::NodeHandle_<MbedHardware, 25, 25, 512, 512>::negotiateTopics()+0x504>
    1b82:	43d2      	mvns	r2, r2
    1b84:	f107 0644 	add.w	r6, r7, #68	; 0x44
    1b88:	f887 2364 	strb.w	r2, [r7, #868]	; 0x364
    1b8c:	f207 341f 	addw	r4, r7, #799	; 0x31f
    1b90:	f507 7559 	add.w	r5, r7, #868	; 0x364
    1b94:	f814 1f01 	ldrb.w	r1, [r4, #1]!
    1b98:	4630      	mov	r0, r6
    1b9a:	f002 fa7d 	bl	4098 <mbed::Stream::putc(int)>
    1b9e:	42a5      	cmp	r5, r4
    1ba0:	d1f8      	bne.n	1b94 <ros::NodeHandle_<MbedHardware, 25, 25, 512, 512>::negotiateTopics()+0x520>
    1ba2:	9b01      	ldr	r3, [sp, #4]
    1ba4:	4543      	cmp	r3, r8
    1ba6:	f47f ae43 	bne.w	1830 <ros::NodeHandle_<MbedHardware, 25, 25, 512, 512>::negotiateTopics()+0x1bc>
    1baa:	e71f      	b.n	19ec <ros::NodeHandle_<MbedHardware, 25, 25, 512, 512>::negotiateTopics()+0x378>
    1bac:	4642      	mov	r2, r8
    1bae:	2107      	movs	r1, #7
    1bb0:	4638      	mov	r0, r7
    1bb2:	4798      	blx	r3
    1bb4:	e634      	b.n	1820 <ros::NodeHandle_<MbedHardware, 25, 25, 512, 512>::negotiateTopics()+0x1ac>
    1bb6:	464a      	mov	r2, r9
    1bb8:	2107      	movs	r1, #7
    1bba:	4638      	mov	r0, r7
    1bbc:	4798      	blx	r3
    1bbe:	e711      	b.n	19e4 <ros::NodeHandle_<MbedHardware, 25, 25, 512, 512>::negotiateTopics()+0x370>
    1bc0:	0000707c 	.word	0x0000707c
    1bc4:	00007240 	.word	0x00007240
    1bc8:	000009d5 	.word	0x000009d5

00001bcc <ros::NodeHandle_<MbedHardware, 25, 25, 512, 512>::spinOnce()>:
    1bcc:	e92d 4ff0 	stmdb	sp!, {r4, r5, r6, r7, r8, r9, r10, r11, lr}
    1bd0:	f500 7382 	add.w	r3, r0, #260	; 0x104
    1bd4:	4604      	mov	r4, r0
    1bd6:	b087      	sub	sp, #28
    1bd8:	4618      	mov	r0, r3
    1bda:	9301      	str	r3, [sp, #4]
    1bdc:	f002 fa8c 	bl	40f8 <mbed::Timer::read_ms()>
    1be0:	f642 22f8 	movw	r2, #11000	; 0x2af8
    1be4:	f8d4 3604 	ldr.w	r3, [r4, #1540]	; 0x604
    1be8:	4606      	mov	r6, r0
    1bea:	1ac3      	subs	r3, r0, r3
    1bec:	4293      	cmp	r3, r2
    1bee:	bf84      	itt	hi
    1bf0:	2300      	movhi	r3, #0
    1bf2:	f884 35fc 	strbhi.w	r3, [r4, #1532]	; 0x5fc
    1bf6:	f8d4 35e8 	ldr.w	r3, [r4, #1512]	; 0x5e8
    1bfa:	b133      	cbz	r3, 1c0a <ros::NodeHandle_<MbedHardware, 25, 25, 512, 512>::spinOnce()+0x3e>
    1bfc:	f8d4 3608 	ldr.w	r3, [r4, #1544]	; 0x608
    1c00:	4283      	cmp	r3, r0
    1c02:	bf3c      	itt	cc
    1c04:	2300      	movcc	r3, #0
    1c06:	f8c4 35e8 	strcc.w	r3, [r4, #1512]	; 0x5e8
    1c0a:	f8df 83f0 	ldr.w	r8, [pc, #1008]	; 1ffc <ros::NodeHandle_<MbedHardware, 25, 25, 512, 512>::spinOnce()+0x430>
    1c0e:	1d25      	adds	r5, r4, #4
    1c10:	4628      	mov	r0, r5
    1c12:	f000 fd9f 	bl	2754 <AjK::MODSERIAL::rxBufferEmpty()>
    1c16:	4681      	mov	r9, r0
    1c18:	b170      	cbz	r0, 1c38 <ros::NodeHandle_<MbedHardware, 25, 25, 512, 512>::spinOnce()+0x6c>
    1c1a:	f894 05fc 	ldrb.w	r0, [r4, #1532]	; 0x5fc
    1c1e:	b140      	cbz	r0, 1c32 <ros::NodeHandle_<MbedHardware, 25, 25, 512, 512>::spinOnce()+0x66>
    1c20:	f640 12c4 	movw	r2, #2500	; 0x9c4
    1c24:	f8d4 3600 	ldr.w	r3, [r4, #1536]	; 0x600
    1c28:	1af3      	subs	r3, r6, r3
    1c2a:	4293      	cmp	r3, r2
    1c2c:	f200 8174 	bhi.w	1f18 <ros::NodeHandle_<MbedHardware, 25, 25, 512, 512>::spinOnce()+0x34c>
    1c30:	2000      	movs	r0, #0
    1c32:	b007      	add	sp, #28
    1c34:	e8bd 8ff0 	ldmia.w	sp!, {r4, r5, r6, r7, r8, r9, r10, r11, pc}
    1c38:	2101      	movs	r1, #1
    1c3a:	4628      	mov	r0, r5
    1c3c:	f000 fc00 	bl	2440 <AjK::MODSERIAL::__getc(bool)>
    1c40:	2800      	cmp	r0, #0
    1c42:	dbea      	blt.n	1c1a <ros::NodeHandle_<MbedHardware, 25, 25, 512, 512>::spinOnce()+0x4e>
    1c44:	f8d4 35f8 	ldr.w	r3, [r4, #1528]	; 0x5f8
    1c48:	f8d4 75e8 	ldr.w	r7, [r4, #1512]	; 0x5e8
    1c4c:	4403      	add	r3, r0
    1c4e:	2f07      	cmp	r7, #7
    1c50:	f8c4 35f8 	str.w	r3, [r4, #1528]	; 0x5f8
    1c54:	f000 80ab 	beq.w	1dae <ros::NodeHandle_<MbedHardware, 25, 25, 512, 512>::spinOnce()+0x1e2>
    1c58:	b957      	cbnz	r7, 1c70 <ros::NodeHandle_<MbedHardware, 25, 25, 512, 512>::spinOnce()+0xa4>
    1c5a:	28ff      	cmp	r0, #255	; 0xff
    1c5c:	f040 80bb 	bne.w	1dd6 <ros::NodeHandle_<MbedHardware, 25, 25, 512, 512>::spinOnce()+0x20a>
    1c60:	2201      	movs	r2, #1
    1c62:	f106 0314 	add.w	r3, r6, #20
    1c66:	f8c4 25e8 	str.w	r2, [r4, #1512]	; 0x5e8
    1c6a:	f8c4 3608 	str.w	r3, [r4, #1544]	; 0x608
    1c6e:	e7cf      	b.n	1c10 <ros::NodeHandle_<MbedHardware, 25, 25, 512, 512>::spinOnce()+0x44>
    1c70:	2f01      	cmp	r7, #1
    1c72:	f000 80be 	beq.w	1df2 <ros::NodeHandle_<MbedHardware, 25, 25, 512, 512>::spinOnce()+0x226>
    1c76:	2f02      	cmp	r7, #2
    1c78:	f000 8114 	beq.w	1ea4 <ros::NodeHandle_<MbedHardware, 25, 25, 512, 512>::spinOnce()+0x2d8>
    1c7c:	2f03      	cmp	r7, #3
    1c7e:	f000 811b 	beq.w	1eb8 <ros::NodeHandle_<MbedHardware, 25, 25, 512, 512>::spinOnce()+0x2ec>
    1c82:	2f04      	cmp	r7, #4
    1c84:	f000 8122 	beq.w	1ecc <ros::NodeHandle_<MbedHardware, 25, 25, 512, 512>::spinOnce()+0x300>
    1c88:	2f05      	cmp	r7, #5
    1c8a:	f000 812e 	beq.w	1eea <ros::NodeHandle_<MbedHardware, 25, 25, 512, 512>::spinOnce()+0x31e>
    1c8e:	2f06      	cmp	r7, #6
    1c90:	f000 8133 	beq.w	1efa <ros::NodeHandle_<MbedHardware, 25, 25, 512, 512>::spinOnce()+0x32e>
    1c94:	2f08      	cmp	r7, #8
    1c96:	d1bb      	bne.n	1c10 <ros::NodeHandle_<MbedHardware, 25, 25, 512, 512>::spinOnce()+0x44>
    1c98:	4ad4      	ldr	r2, [pc, #848]	; (1fec <ros::NodeHandle_<MbedHardware, 25, 25, 512, 512>::spinOnce()+0x420>)
    1c9a:	2100      	movs	r1, #0
    1c9c:	401a      	ands	r2, r3
    1c9e:	428a      	cmp	r2, r1
    1ca0:	f8c4 15e8 	str.w	r1, [r4, #1512]	; 0x5e8
    1ca4:	f2c0 819c 	blt.w	1fe0 <ros::NodeHandle_<MbedHardware, 25, 25, 512, 512>::spinOnce()+0x414>
    1ca8:	2aff      	cmp	r2, #255	; 0xff
    1caa:	d1b1      	bne.n	1c10 <ros::NodeHandle_<MbedHardware, 25, 25, 512, 512>::spinOnce()+0x44>
    1cac:	f8d4 35f0 	ldr.w	r3, [r4, #1520]	; 0x5f0
    1cb0:	2b00      	cmp	r3, #0
    1cb2:	f000 82a0 	beq.w	21f6 <ros::NodeHandle_<MbedHardware, 25, 25, 512, 512>::spinOnce()+0x62a>
    1cb6:	2b0a      	cmp	r3, #10
    1cb8:	f000 8260 	beq.w	217c <ros::NodeHandle_<MbedHardware, 25, 25, 512, 512>::spinOnce()+0x5b0>
    1cbc:	2b06      	cmp	r3, #6
    1cbe:	f000 81a8 	beq.w	2012 <ros::NodeHandle_<MbedHardware, 25, 25, 512, 512>::spinOnce()+0x446>
    1cc2:	2b0b      	cmp	r3, #11
    1cc4:	f000 81a1 	beq.w	200a <ros::NodeHandle_<MbedHardware, 25, 25, 512, 512>::spinOnce()+0x43e>
    1cc8:	eb04 0383 	add.w	r3, r4, r3, lsl #2
    1ccc:	f8d3 23f4 	ldr.w	r2, [r3, #1012]	; 0x3f4
    1cd0:	2a00      	cmp	r2, #0
    1cd2:	d09d      	beq.n	1c10 <ros::NodeHandle_<MbedHardware, 25, 25, 512, 512>::spinOnce()+0x44>
    1cd4:	6813      	ldr	r3, [r2, #0]
    1cd6:	48c6      	ldr	r0, [pc, #792]	; (1ff0 <ros::NodeHandle_<MbedHardware, 25, 25, 512, 512>::spinOnce()+0x424>)
    1cd8:	681b      	ldr	r3, [r3, #0]
    1cda:	f504 7190 	add.w	r1, r4, #288	; 0x120
    1cde:	4283      	cmp	r3, r0
    1ce0:	f040 8286 	bne.w	21f0 <ros::NodeHandle_<MbedHardware, 25, 25, 512, 512>::spinOnce()+0x624>
    1ce4:	f894 3120 	ldrb.w	r3, [r4, #288]	; 0x120
    1ce8:	f102 070c 	add.w	r7, r2, #12
    1cec:	6153      	str	r3, [r2, #20]
    1cee:	f894 0121 	ldrb.w	r0, [r4, #289]	; 0x121
    1cf2:	f204 192f 	addw	r9, r4, #303	; 0x12f
    1cf6:	ea43 2300 	orr.w	r3, r3, r0, lsl #8
    1cfa:	6153      	str	r3, [r2, #20]
    1cfc:	f894 0122 	ldrb.w	r0, [r4, #290]	; 0x122
    1d00:	ea43 4300 	orr.w	r3, r3, r0, lsl #16
    1d04:	6153      	str	r3, [r2, #20]
    1d06:	f894 0123 	ldrb.w	r0, [r4, #291]	; 0x123
    1d0a:	ea43 6300 	orr.w	r3, r3, r0, lsl #24
    1d0e:	6153      	str	r3, [r2, #20]
    1d10:	f894 3124 	ldrb.w	r3, [r4, #292]	; 0x124
    1d14:	6193      	str	r3, [r2, #24]
    1d16:	f894 0125 	ldrb.w	r0, [r4, #293]	; 0x125
    1d1a:	ea43 2300 	orr.w	r3, r3, r0, lsl #8
    1d1e:	6193      	str	r3, [r2, #24]
    1d20:	f894 0126 	ldrb.w	r0, [r4, #294]	; 0x126
    1d24:	ea43 4300 	orr.w	r3, r3, r0, lsl #16
    1d28:	6193      	str	r3, [r2, #24]
    1d2a:	f894 0127 	ldrb.w	r0, [r4, #295]	; 0x127
    1d2e:	ea43 6300 	orr.w	r3, r3, r0, lsl #24
    1d32:	6193      	str	r3, [r2, #24]
    1d34:	f894 3128 	ldrb.w	r3, [r4, #296]	; 0x128
    1d38:	61d3      	str	r3, [r2, #28]
    1d3a:	f894 0129 	ldrb.w	r0, [r4, #297]	; 0x129
    1d3e:	ea43 2300 	orr.w	r3, r3, r0, lsl #8
    1d42:	61d3      	str	r3, [r2, #28]
    1d44:	f894 012a 	ldrb.w	r0, [r4, #298]	; 0x12a
    1d48:	ea43 4300 	orr.w	r3, r3, r0, lsl #16
    1d4c:	61d3      	str	r3, [r2, #28]
    1d4e:	f894 012b 	ldrb.w	r0, [r4, #299]	; 0x12b
    1d52:	ea43 6300 	orr.w	r3, r3, r0, lsl #24
    1d56:	61d3      	str	r3, [r2, #28]
    1d58:	f8d4 012c 	ldr.w	r0, [r4, #300]	; 0x12c
    1d5c:	9003      	str	r0, [sp, #12]
    1d5e:	f8dd e00c 	ldr.w	lr, [sp, #12]
    1d62:	f10e 0a10 	add.w	r10, lr, #16
    1d66:	f1ba 0f10 	cmp.w	r10, #16
    1d6a:	d909      	bls.n	1d80 <ros::NodeHandle_<MbedHardware, 25, 25, 512, 512>::spinOnce()+0x1b4>
    1d6c:	464b      	mov	r3, r9
    1d6e:	f10e 0c0f 	add.w	r12, lr, #15
    1d72:	448c      	add	r12, r1
    1d74:	f813 0f01 	ldrb.w	r0, [r3, #1]!
    1d78:	459c      	cmp	r12, r3
    1d7a:	f803 0c01 	strb.w	r0, [r3, #-1]
    1d7e:	d1f9      	bne.n	1d74 <ros::NodeHandle_<MbedHardware, 25, 25, 512, 512>::spinOnce()+0x1a8>
    1d80:	eb01 030e 	add.w	r3, r1, lr
    1d84:	2000      	movs	r0, #0
    1d86:	73d8      	strb	r0, [r3, #15]
    1d88:	f8c2 9020 	str.w	r9, [r2, #32]
    1d8c:	f811 100a 	ldrb.w	r1, [r1, r10]
    1d90:	4638      	mov	r0, r7
    1d92:	f882 1024 	strb.w	r1, [r2, #36]	; 0x24
    1d96:	7c5f      	ldrb	r7, [r3, #17]
    1d98:	6a91      	ldr	r1, [r2, #40]	; 0x28
    1d9a:	f882 7025 	strb.w	r7, [r2, #37]	; 0x25
    1d9e:	7c9f      	ldrb	r7, [r3, #18]
    1da0:	f882 7026 	strb.w	r7, [r2, #38]	; 0x26
    1da4:	7cdb      	ldrb	r3, [r3, #19]
    1da6:	f882 3027 	strb.w	r3, [r2, #39]	; 0x27
    1daa:	4788      	blx	r1
    1dac:	e730      	b.n	1c10 <ros::NodeHandle_<MbedHardware, 25, 25, 512, 512>::spinOnce()+0x44>
    1dae:	f8d4 35f4 	ldr.w	r3, [r4, #1524]	; 0x5f4
    1db2:	1c5a      	adds	r2, r3, #1
    1db4:	4423      	add	r3, r4
    1db6:	f8c4 25f4 	str.w	r2, [r4, #1524]	; 0x5f4
    1dba:	f883 0120 	strb.w	r0, [r3, #288]	; 0x120
    1dbe:	f8d4 35ec 	ldr.w	r3, [r4, #1516]	; 0x5ec
    1dc2:	3b01      	subs	r3, #1
    1dc4:	f8c4 35ec 	str.w	r3, [r4, #1516]	; 0x5ec
    1dc8:	2b00      	cmp	r3, #0
    1dca:	f47f af21 	bne.w	1c10 <ros::NodeHandle_<MbedHardware, 25, 25, 512, 512>::spinOnce()+0x44>
    1dce:	2308      	movs	r3, #8
    1dd0:	f8c4 35e8 	str.w	r3, [r4, #1512]	; 0x5e8
    1dd4:	e71c      	b.n	1c10 <ros::NodeHandle_<MbedHardware, 25, 25, 512, 512>::spinOnce()+0x44>
    1dd6:	9801      	ldr	r0, [sp, #4]
    1dd8:	f002 f98e 	bl	40f8 <mbed::Timer::read_ms()>
    1ddc:	1b80      	subs	r0, r0, r6
    1dde:	2805      	cmp	r0, #5
    1de0:	f67f af16 	bls.w	1c10 <ros::NodeHandle_<MbedHardware, 25, 25, 512, 512>::spinOnce()+0x44>
    1de4:	f06f 0001 	mvn.w	r0, #1
    1de8:	f884 75fc 	strb.w	r7, [r4, #1532]	; 0x5fc
    1dec:	b007      	add	sp, #28
    1dee:	e8bd 8ff0 	ldmia.w	sp!, {r4, r5, r6, r7, r8, r9, r10, r11, pc}
    1df2:	28fe      	cmp	r0, #254	; 0xfe
    1df4:	d075      	beq.n	1ee2 <ros::NodeHandle_<MbedHardware, 25, 25, 512, 512>::spinOnce()+0x316>
    1df6:	f894 35fc 	ldrb.w	r3, [r4, #1532]	; 0x5fc
    1dfa:	f8c4 95e8 	str.w	r9, [r4, #1512]	; 0x5e8
    1dfe:	2b00      	cmp	r3, #0
    1e00:	f47f af06 	bne.w	1c10 <ros::NodeHandle_<MbedHardware, 25, 25, 512, 512>::spinOnce()+0x44>
    1e04:	497b      	ldr	r1, [pc, #492]	; (1ff4 <ros::NodeHandle_<MbedHardware, 25, 25, 512, 512>::spinOnce()+0x428>)
    1e06:	6822      	ldr	r2, [r4, #0]
    1e08:	9103      	str	r1, [sp, #12]
    1e0a:	6817      	ldr	r7, [r2, #0]
    1e0c:	4a7a      	ldr	r2, [pc, #488]	; (1ff8 <ros::NodeHandle_<MbedHardware, 25, 25, 512, 512>::spinOnce()+0x42c>)
    1e0e:	9304      	str	r3, [sp, #16]
    1e10:	4297      	cmp	r7, r2
    1e12:	9305      	str	r3, [sp, #20]
    1e14:	f040 80da 	bne.w	1fcc <ros::NodeHandle_<MbedHardware, 25, 25, 512, 512>::spinOnce()+0x400>
    1e18:	200a      	movs	r0, #10
    1e1a:	461a      	mov	r2, r3
    1e1c:	4601      	mov	r1, r0
    1e1e:	f04f 0eff 	mov.w	lr, #255	; 0xff
    1e22:	f884 3327 	strb.w	r3, [r4, #807]	; 0x327
    1e26:	f884 3328 	strb.w	r3, [r4, #808]	; 0x328
    1e2a:	f884 3329 	strb.w	r3, [r4, #809]	; 0x329
    1e2e:	f884 332a 	strb.w	r3, [r4, #810]	; 0x32a
    1e32:	f884 332b 	strb.w	r3, [r4, #811]	; 0x32b
    1e36:	f884 332c 	strb.w	r3, [r4, #812]	; 0x32c
    1e3a:	f884 332d 	strb.w	r3, [r4, #813]	; 0x32d
    1e3e:	f884 332e 	strb.w	r3, [r4, #814]	; 0x32e
    1e42:	f884 3323 	strb.w	r3, [r4, #803]	; 0x323
    1e46:	f884 3326 	strb.w	r3, [r4, #806]	; 0x326
    1e4a:	27fe      	movs	r7, #254	; 0xfe
    1e4c:	23f7      	movs	r3, #247	; 0xf7
    1e4e:	f884 0325 	strb.w	r0, [r4, #805]	; 0x325
    1e52:	2008      	movs	r0, #8
    1e54:	f884 0322 	strb.w	r0, [r4, #802]	; 0x322
    1e58:	f884 3324 	strb.w	r3, [r4, #804]	; 0x324
    1e5c:	f884 e320 	strb.w	lr, [r4, #800]	; 0x320
    1e60:	f884 7321 	strb.w	r7, [r4, #801]	; 0x321
    1e64:	f204 3325 	addw	r3, r4, #805	; 0x325
    1e68:	f204 302e 	addw	r0, r4, #814	; 0x32e
    1e6c:	e001      	b.n	1e72 <ros::NodeHandle_<MbedHardware, 25, 25, 512, 512>::spinOnce()+0x2a6>
    1e6e:	f813 1f01 	ldrb.w	r1, [r3, #1]!
    1e72:	4298      	cmp	r0, r3
    1e74:	440a      	add	r2, r1
    1e76:	d1fa      	bne.n	1e6e <ros::NodeHandle_<MbedHardware, 25, 25, 512, 512>::spinOnce()+0x2a2>
    1e78:	43d2      	mvns	r2, r2
    1e7a:	f104 0a44 	add.w	r10, r4, #68	; 0x44
    1e7e:	f884 232f 	strb.w	r2, [r4, #815]	; 0x32f
    1e82:	f204 371f 	addw	r7, r4, #799	; 0x31f
    1e86:	f204 392f 	addw	r9, r4, #815	; 0x32f
    1e8a:	f817 1f01 	ldrb.w	r1, [r7, #1]!
    1e8e:	4650      	mov	r0, r10
    1e90:	f002 f902 	bl	4098 <mbed::Stream::putc(int)>
    1e94:	454f      	cmp	r7, r9
    1e96:	d1f8      	bne.n	1e8a <ros::NodeHandle_<MbedHardware, 25, 25, 512, 512>::spinOnce()+0x2be>
    1e98:	9801      	ldr	r0, [sp, #4]
    1e9a:	f002 f92d 	bl	40f8 <mbed::Timer::read_ms()>
    1e9e:	f8c4 0114 	str.w	r0, [r4, #276]	; 0x114
    1ea2:	e6b5      	b.n	1c10 <ros::NodeHandle_<MbedHardware, 25, 25, 512, 512>::spinOnce()+0x44>
    1ea4:	2303      	movs	r3, #3
    1ea6:	f8c4 05ec 	str.w	r0, [r4, #1516]	; 0x5ec
    1eaa:	f8c4 95f4 	str.w	r9, [r4, #1524]	; 0x5f4
    1eae:	f8c4 05f8 	str.w	r0, [r4, #1528]	; 0x5f8
    1eb2:	f8c4 35e8 	str.w	r3, [r4, #1512]	; 0x5e8
    1eb6:	e6ab      	b.n	1c10 <ros::NodeHandle_<MbedHardware, 25, 25, 512, 512>::spinOnce()+0x44>
    1eb8:	f8d4 35ec 	ldr.w	r3, [r4, #1516]	; 0x5ec
    1ebc:	2204      	movs	r2, #4
    1ebe:	eb03 2000 	add.w	r0, r3, r0, lsl #8
    1ec2:	f8c4 05ec 	str.w	r0, [r4, #1516]	; 0x5ec
    1ec6:	f8c4 25e8 	str.w	r2, [r4, #1512]	; 0x5e8
    1eca:	e6a1      	b.n	1c10 <ros::NodeHandle_<MbedHardware, 25, 25, 512, 512>::spinOnce()+0x44>
    1ecc:	4a47      	ldr	r2, [pc, #284]	; (1fec <ros::NodeHandle_<MbedHardware, 25, 25, 512, 512>::spinOnce()+0x420>)
    1ece:	401a      	ands	r2, r3
    1ed0:	2a00      	cmp	r2, #0
    1ed2:	db76      	blt.n	1fc2 <ros::NodeHandle_<MbedHardware, 25, 25, 512, 512>::spinOnce()+0x3f6>
    1ed4:	2aff      	cmp	r2, #255	; 0xff
    1ed6:	bf0c      	ite	eq
    1ed8:	2305      	moveq	r3, #5
    1eda:	2300      	movne	r3, #0
    1edc:	f8c4 35e8 	str.w	r3, [r4, #1512]	; 0x5e8
    1ee0:	e696      	b.n	1c10 <ros::NodeHandle_<MbedHardware, 25, 25, 512, 512>::spinOnce()+0x44>
    1ee2:	2302      	movs	r3, #2
    1ee4:	f8c4 35e8 	str.w	r3, [r4, #1512]	; 0x5e8
    1ee8:	e692      	b.n	1c10 <ros::NodeHandle_<MbedHardware, 25, 25, 512, 512>::spinOnce()+0x44>
    1eea:	2306      	movs	r3, #6
    1eec:	f8c4 05f0 	str.w	r0, [r4, #1520]	; 0x5f0
    1ef0:	f8c4 05f8 	str.w	r0, [r4, #1528]	; 0x5f8
    1ef4:	f8c4 35e8 	str.w	r3, [r4, #1512]	; 0x5e8
    1ef8:	e68a      	b.n	1c10 <ros::NodeHandle_<MbedHardware, 25, 25, 512, 512>::spinOnce()+0x44>
    1efa:	f8d4 35f0 	ldr.w	r3, [r4, #1520]	; 0x5f0
    1efe:	f8d4 25ec 	ldr.w	r2, [r4, #1516]	; 0x5ec
    1f02:	eb03 2300 	add.w	r3, r3, r0, lsl #8
    1f06:	2107      	movs	r1, #7
    1f08:	f8c4 35f0 	str.w	r3, [r4, #1520]	; 0x5f0
    1f0c:	f8c4 15e8 	str.w	r1, [r4, #1512]	; 0x5e8
    1f10:	2a00      	cmp	r2, #0
    1f12:	f43f af5c 	beq.w	1dce <ros::NodeHandle_<MbedHardware, 25, 25, 512, 512>::spinOnce()+0x202>
    1f16:	e67b      	b.n	1c10 <ros::NodeHandle_<MbedHardware, 25, 25, 512, 512>::spinOnce()+0x44>
    1f18:	4a36      	ldr	r2, [pc, #216]	; (1ff4 <ros::NodeHandle_<MbedHardware, 25, 25, 512, 512>::spinOnce()+0x428>)
    1f1a:	6823      	ldr	r3, [r4, #0]
    1f1c:	9203      	str	r2, [sp, #12]
    1f1e:	681d      	ldr	r5, [r3, #0]
    1f20:	4a35      	ldr	r2, [pc, #212]	; (1ff8 <ros::NodeHandle_<MbedHardware, 25, 25, 512, 512>::spinOnce()+0x42c>)
    1f22:	2300      	movs	r3, #0
    1f24:	4295      	cmp	r5, r2
    1f26:	9304      	str	r3, [sp, #16]
    1f28:	9305      	str	r3, [sp, #20]
    1f2a:	d169      	bne.n	2000 <ros::NodeHandle_<MbedHardware, 25, 25, 512, 512>::spinOnce()+0x434>
    1f2c:	200a      	movs	r0, #10
    1f2e:	461a      	mov	r2, r3
    1f30:	4601      	mov	r1, r0
    1f32:	f04f 0eff 	mov.w	lr, #255	; 0xff
    1f36:	f884 3327 	strb.w	r3, [r4, #807]	; 0x327
    1f3a:	f884 3328 	strb.w	r3, [r4, #808]	; 0x328
    1f3e:	f884 3329 	strb.w	r3, [r4, #809]	; 0x329
    1f42:	f884 332a 	strb.w	r3, [r4, #810]	; 0x32a
    1f46:	f884 332b 	strb.w	r3, [r4, #811]	; 0x32b
    1f4a:	f884 332c 	strb.w	r3, [r4, #812]	; 0x32c
    1f4e:	f884 332d 	strb.w	r3, [r4, #813]	; 0x32d
    1f52:	f884 332e 	strb.w	r3, [r4, #814]	; 0x32e
    1f56:	f884 3323 	strb.w	r3, [r4, #803]	; 0x323
    1f5a:	f884 3326 	strb.w	r3, [r4, #806]	; 0x326
    1f5e:	25fe      	movs	r5, #254	; 0xfe
    1f60:	23f7      	movs	r3, #247	; 0xf7
    1f62:	f884 0325 	strb.w	r0, [r4, #805]	; 0x325
    1f66:	2008      	movs	r0, #8
    1f68:	f884 0322 	strb.w	r0, [r4, #802]	; 0x322
    1f6c:	f884 3324 	strb.w	r3, [r4, #804]	; 0x324
    1f70:	f884 e320 	strb.w	lr, [r4, #800]	; 0x320
    1f74:	f884 5321 	strb.w	r5, [r4, #801]	; 0x321
    1f78:	f204 3325 	addw	r3, r4, #805	; 0x325
    1f7c:	f204 302e 	addw	r0, r4, #814	; 0x32e
    1f80:	e001      	b.n	1f86 <ros::NodeHandle_<MbedHardware, 25, 25, 512, 512>::spinOnce()+0x3ba>
    1f82:	f813 1f01 	ldrb.w	r1, [r3, #1]!
    1f86:	4283      	cmp	r3, r0
    1f88:	440a      	add	r2, r1
    1f8a:	d1fa      	bne.n	1f82 <ros::NodeHandle_<MbedHardware, 25, 25, 512, 512>::spinOnce()+0x3b6>
    1f8c:	43d2      	mvns	r2, r2
    1f8e:	f104 0944 	add.w	r9, r4, #68	; 0x44
    1f92:	f884 232f 	strb.w	r2, [r4, #815]	; 0x32f
    1f96:	f204 351f 	addw	r5, r4, #799	; 0x31f
    1f9a:	f204 382f 	addw	r8, r4, #815	; 0x32f
    1f9e:	f815 1f01 	ldrb.w	r1, [r5, #1]!
    1fa2:	4648      	mov	r0, r9
    1fa4:	f002 f878 	bl	4098 <mbed::Stream::putc(int)>
    1fa8:	45a8      	cmp	r8, r5
    1faa:	d1f8      	bne.n	1f9e <ros::NodeHandle_<MbedHardware, 25, 25, 512, 512>::spinOnce()+0x3d2>
    1fac:	9801      	ldr	r0, [sp, #4]
    1fae:	f002 f8a3 	bl	40f8 <mbed::Timer::read_ms()>
    1fb2:	f8c4 0114 	str.w	r0, [r4, #276]	; 0x114
    1fb6:	2000      	movs	r0, #0
    1fb8:	f8c4 6600 	str.w	r6, [r4, #1536]	; 0x600
    1fbc:	b007      	add	sp, #28
    1fbe:	e8bd 8ff0 	ldmia.w	sp!, {r4, r5, r6, r7, r8, r9, r10, r11, pc}
    1fc2:	3a01      	subs	r2, #1
    1fc4:	f062 02ff 	orn	r2, r2, #255	; 0xff
    1fc8:	3201      	adds	r2, #1
    1fca:	e783      	b.n	1ed4 <ros::NodeHandle_<MbedHardware, 25, 25, 512, 512>::spinOnce()+0x308>
    1fcc:	aa03      	add	r2, sp, #12
    1fce:	210a      	movs	r1, #10
    1fd0:	4620      	mov	r0, r4
    1fd2:	47b8      	blx	r7
    1fd4:	9801      	ldr	r0, [sp, #4]
    1fd6:	f002 f88f 	bl	40f8 <mbed::Timer::read_ms()>
    1fda:	f8c4 0114 	str.w	r0, [r4, #276]	; 0x114
    1fde:	e617      	b.n	1c10 <ros::NodeHandle_<MbedHardware, 25, 25, 512, 512>::spinOnce()+0x44>
    1fe0:	3a01      	subs	r2, #1
    1fe2:	f062 02ff 	orn	r2, r2, #255	; 0xff
    1fe6:	3201      	adds	r2, #1
    1fe8:	e65e      	b.n	1ca8 <ros::NodeHandle_<MbedHardware, 25, 25, 512, 512>::spinOnce()+0xdc>
    1fea:	bf00      	nop
    1fec:	800000ff 	.word	0x800000ff
    1ff0:	00000881 	.word	0x00000881
    1ff4:	0000704c 	.word	0x0000704c
    1ff8:	000009d5 	.word	0x000009d5
    1ffc:	10624dd3 	.word	0x10624dd3
    2000:	aa03      	add	r2, sp, #12
    2002:	210a      	movs	r1, #10
    2004:	4620      	mov	r0, r4
    2006:	47a8      	blx	r5
    2008:	e7d0      	b.n	1fac <ros::NodeHandle_<MbedHardware, 25, 25, 512, 512>::spinOnce()+0x3e0>
    200a:	2300      	movs	r3, #0
    200c:	f884 35fc 	strb.w	r3, [r4, #1532]	; 0x5fc
    2010:	e5fe      	b.n	1c10 <ros::NodeHandle_<MbedHardware, 25, 25, 512, 512>::spinOnce()+0x44>
    2012:	f894 7120 	ldrb.w	r7, [r4, #288]	; 0x120
    2016:	f894 3614 	ldrb.w	r3, [r4, #1556]	; 0x614
    201a:	f504 7990 	add.w	r9, r4, #288	; 0x120
    201e:	42bb      	cmp	r3, r7
    2020:	d206      	bcs.n	2030 <ros::NodeHandle_<MbedHardware, 25, 25, 512, 512>::spinOnce()+0x464>
    2022:	00b9      	lsls	r1, r7, #2
    2024:	f8d4 061c 	ldr.w	r0, [r4, #1564]	; 0x61c
    2028:	f000 f9e2 	bl	23f0 <__wrap_realloc>
    202c:	f8c4 061c 	str.w	r0, [r4, #1564]	; 0x61c
    2030:	f884 7614 	strb.w	r7, [r4, #1556]	; 0x614
    2034:	2f00      	cmp	r7, #0
    2036:	f000 80f7 	beq.w	2228 <ros::NodeHandle_<MbedHardware, 25, 25, 512, 512>::spinOnce()+0x65c>
    203a:	4648      	mov	r0, r9
    203c:	f504 6ec3 	add.w	lr, r4, #1560	; 0x618
    2040:	2704      	movs	r7, #4
    2042:	2100      	movs	r1, #0
    2044:	7983      	ldrb	r3, [r0, #6]
    2046:	f890 c005 	ldrb.w	r12, [r0, #5]
    204a:	7902      	ldrb	r2, [r0, #4]
    204c:	041b      	lsls	r3, r3, #16
    204e:	ea43 230c 	orr.w	r3, r3, r12, lsl #8
    2052:	f890 c007 	ldrb.w	r12, [r0, #7]
    2056:	4313      	orrs	r3, r2
    2058:	ea43 630c 	orr.w	r3, r3, r12, lsl #24
    205c:	f8c4 3618 	str.w	r3, [r4, #1560]	; 0x618
    2060:	f8de 2000 	ldr.w	r2, [lr]
    2064:	f8d4 361c 	ldr.w	r3, [r4, #1564]	; 0x61c
    2068:	3704      	adds	r7, #4
    206a:	f843 2021 	str.w	r2, [r3, r1, lsl #2]
    206e:	f894 3614 	ldrb.w	r3, [r4, #1556]	; 0x614
    2072:	3101      	adds	r1, #1
    2074:	b2c9      	uxtb	r1, r1
    2076:	428b      	cmp	r3, r1
    2078:	f100 0004 	add.w	r0, r0, #4
    207c:	d8e2      	bhi.n	2044 <ros::NodeHandle_<MbedHardware, 25, 25, 512, 512>::spinOnce()+0x478>
    207e:	f107 0a04 	add.w	r10, r7, #4
    2082:	463b      	mov	r3, r7
    2084:	4657      	mov	r7, r10
    2086:	f819 b003 	ldrb.w	r11, [r9, r3]
    208a:	f894 3620 	ldrb.w	r3, [r4, #1568]	; 0x620
    208e:	455b      	cmp	r3, r11
    2090:	d207      	bcs.n	20a2 <ros::NodeHandle_<MbedHardware, 25, 25, 512, 512>::spinOnce()+0x4d6>
    2092:	ea4f 018b 	mov.w	r1, r11, lsl #2
    2096:	f8d4 0628 	ldr.w	r0, [r4, #1576]	; 0x628
    209a:	f000 f9a9 	bl	23f0 <__wrap_realloc>
    209e:	f8c4 0628 	str.w	r0, [r4, #1576]	; 0x628
    20a2:	f884 b620 	strb.w	r11, [r4, #1568]	; 0x620
    20a6:	f1bb 0f00 	cmp.w	r11, #0
    20aa:	d022      	beq.n	20f2 <ros::NodeHandle_<MbedHardware, 25, 25, 512, 512>::spinOnce()+0x526>
    20ac:	f204 6e24 	addw	lr, r4, #1572	; 0x624
    20b0:	eb09 0007 	add.w	r0, r9, r7
    20b4:	2100      	movs	r1, #0
    20b6:	7883      	ldrb	r3, [r0, #2]
    20b8:	f890 c001 	ldrb.w	r12, [r0, #1]
    20bc:	7802      	ldrb	r2, [r0, #0]
    20be:	041b      	lsls	r3, r3, #16
    20c0:	ea43 230c 	orr.w	r3, r3, r12, lsl #8
    20c4:	f890 c003 	ldrb.w	r12, [r0, #3]
    20c8:	4313      	orrs	r3, r2
    20ca:	ea43 630c 	orr.w	r3, r3, r12, lsl #24
    20ce:	f8c4 3624 	str.w	r3, [r4, #1572]	; 0x624
    20d2:	f8de 2000 	ldr.w	r2, [lr]
    20d6:	f8d4 3628 	ldr.w	r3, [r4, #1576]	; 0x628
    20da:	3704      	adds	r7, #4
    20dc:	f843 2021 	str.w	r2, [r3, r1, lsl #2]
    20e0:	f894 3620 	ldrb.w	r3, [r4, #1568]	; 0x620
    20e4:	3101      	adds	r1, #1
    20e6:	b2c9      	uxtb	r1, r1
    20e8:	428b      	cmp	r3, r1
    20ea:	f100 0004 	add.w	r0, r0, #4
    20ee:	d8e2      	bhi.n	20b6 <ros::NodeHandle_<MbedHardware, 25, 25, 512, 512>::spinOnce()+0x4ea>
    20f0:	46ba      	mov	r10, r7
    20f2:	f819 a00a 	ldrb.w	r10, [r9, r10]
    20f6:	f894 362c 	ldrb.w	r3, [r4, #1580]	; 0x62c
    20fa:	4553      	cmp	r3, r10
    20fc:	d207      	bcs.n	210e <ros::NodeHandle_<MbedHardware, 25, 25, 512, 512>::spinOnce()+0x542>
    20fe:	ea4f 018a 	mov.w	r1, r10, lsl #2
    2102:	f8d4 0634 	ldr.w	r0, [r4, #1588]	; 0x634
    2106:	f000 f973 	bl	23f0 <__wrap_realloc>
    210a:	f8c4 0634 	str.w	r0, [r4, #1588]	; 0x634
    210e:	3704      	adds	r7, #4
    2110:	f884 a62c 	strb.w	r10, [r4, #1580]	; 0x62c
    2114:	f1ba 0f00 	cmp.w	r10, #0
    2118:	d02c      	beq.n	2174 <ros::NodeHandle_<MbedHardware, 25, 25, 512, 512>::spinOnce()+0x5a8>
    211a:	2100      	movs	r1, #0
    211c:	468c      	mov	r12, r1
    211e:	f504 6ec6 	add.w	lr, r4, #1584	; 0x630
    2122:	f859 0007 	ldr.w	r0, [r9, r7]
    2126:	f107 0a04 	add.w	r10, r7, #4
    212a:	9003      	str	r0, [sp, #12]
    212c:	9a03      	ldr	r2, [sp, #12]
    212e:	4452      	add	r2, r10
    2130:	4592      	cmp	r10, r2
    2132:	d209      	bcs.n	2148 <ros::NodeHandle_<MbedHardware, 25, 25, 512, 512>::spinOnce()+0x57c>
    2134:	4650      	mov	r0, r10
    2136:	1cfb      	adds	r3, r7, #3
    2138:	444b      	add	r3, r9
    213a:	f813 7f01 	ldrb.w	r7, [r3, #1]!
    213e:	3001      	adds	r0, #1
    2140:	4290      	cmp	r0, r2
    2142:	f803 7c01 	strb.w	r7, [r3, #-1]
    2146:	d3f8      	bcc.n	213a <ros::NodeHandle_<MbedHardware, 25, 25, 512, 512>::spinOnce()+0x56e>
    2148:	f10a 33ff 	add.w	r3, r10, #4294967295
    214c:	444b      	add	r3, r9
    214e:	eb09 0002 	add.w	r0, r9, r2
    2152:	f800 cc01 	strb.w	r12, [r0, #-1]
    2156:	f8c4 3630 	str.w	r3, [r4, #1584]	; 0x630
    215a:	f8de 0000 	ldr.w	r0, [lr]
    215e:	f8d4 3634 	ldr.w	r3, [r4, #1588]	; 0x634
    2162:	4617      	mov	r7, r2
    2164:	f843 0021 	str.w	r0, [r3, r1, lsl #2]
    2168:	f894 362c 	ldrb.w	r3, [r4, #1580]	; 0x62c
    216c:	3101      	adds	r1, #1
    216e:	b2c9      	uxtb	r1, r1
    2170:	428b      	cmp	r3, r1
    2172:	d8d6      	bhi.n	2122 <ros::NodeHandle_<MbedHardware, 25, 25, 512, 512>::spinOnce()+0x556>
    2174:	2301      	movs	r3, #1
    2176:	f884 360c 	strb.w	r3, [r4, #1548]	; 0x60c
    217a:	e549      	b.n	1c10 <ros::NodeHandle_<MbedHardware, 25, 25, 512, 512>::spinOnce()+0x44>
    217c:	f8dd b004 	ldr.w	r11, [sp, #4]
    2180:	f8df a0b8 	ldr.w	r10, [pc, #184]	; 223c <ros::NodeHandle_<MbedHardware, 25, 25, 512, 512>::spinOnce()+0x670>
    2184:	4658      	mov	r0, r11
    2186:	f001 ffb7 	bl	40f8 <mbed::Timer::read_ms()>
    218a:	f8d4 7114 	ldr.w	r7, [r4, #276]	; 0x114
    218e:	f8d4 3124 	ldr.w	r3, [r4, #292]	; 0x124
    2192:	1bc7      	subs	r7, r0, r7
    2194:	4658      	mov	r0, r11
    2196:	449a      	add	r10, r3
    2198:	f8d4 9120 	ldr.w	r9, [r4, #288]	; 0x120
    219c:	f001 ffac 	bl	40f8 <mbed::Timer::read_ms()>
    21a0:	fba8 3e07 	umull	r3, lr, r8, r7
    21a4:	fba8 1200 	umull	r1, r2, r8, r0
    21a8:	ea4f 1e9e 	mov.w	lr, lr, lsr #6
    21ac:	f44f 737a 	mov.w	r3, #1000	; 0x3e8
    21b0:	fb03 771e 	mls	r7, r3, lr, r7
    21b4:	0991      	lsrs	r1, r2, #6
    21b6:	4a1f      	ldr	r2, [pc, #124]	; (2234 <ros::NodeHandle_<MbedHardware, 25, 25, 512, 512>::spinOnce()+0x668>)
    21b8:	fb03 0311 	mls	r3, r3, r1, r0
    21bc:	fb02 a207 	mla	r2, r2, r7, r10
    21c0:	4f1c      	ldr	r7, [pc, #112]	; (2234 <ros::NodeHandle_<MbedHardware, 25, 25, 512, 512>::spinOnce()+0x668>)
    21c2:	f109 39ff 	add.w	r9, r9, #4294967295
    21c6:	fb07 2313 	mls	r3, r7, r3, r2
    21ca:	44f1      	add	r9, lr
    21cc:	ebc1 0209 	rsb	r2, r1, r9
    21d0:	f8c4 311c 	str.w	r3, [r4, #284]	; 0x11c
    21d4:	f8c4 2118 	str.w	r2, [r4, #280]	; 0x118
    21d8:	f504 718e 	add.w	r1, r4, #284	; 0x11c
    21dc:	f504 708c 	add.w	r0, r4, #280	; 0x118
    21e0:	f000 f91a 	bl	2418 <ros::normalizeSecNSec(unsigned long&, unsigned long&)>
    21e4:	4658      	mov	r0, r11
    21e6:	f001 ff87 	bl	40f8 <mbed::Timer::read_ms()>
    21ea:	f8c4 0604 	str.w	r0, [r4, #1540]	; 0x604
    21ee:	e50f      	b.n	1c10 <ros::NodeHandle_<MbedHardware, 25, 25, 512, 512>::spinOnce()+0x44>
    21f0:	4610      	mov	r0, r2
    21f2:	4798      	blx	r3
    21f4:	e50c      	b.n	1c10 <ros::NodeHandle_<MbedHardware, 25, 25, 512, 512>::spinOnce()+0x44>
    21f6:	4910      	ldr	r1, [pc, #64]	; (2238 <ros::NodeHandle_<MbedHardware, 25, 25, 512, 512>::spinOnce()+0x66c>)
    21f8:	6822      	ldr	r2, [r4, #0]
    21fa:	9103      	str	r1, [sp, #12]
    21fc:	9304      	str	r3, [sp, #16]
    21fe:	210a      	movs	r1, #10
    2200:	9305      	str	r3, [sp, #20]
    2202:	4620      	mov	r0, r4
    2204:	6813      	ldr	r3, [r2, #0]
    2206:	aa03      	add	r2, sp, #12
    2208:	4798      	blx	r3
    220a:	9801      	ldr	r0, [sp, #4]
    220c:	f001 ff74 	bl	40f8 <mbed::Timer::read_ms()>
    2210:	f8c4 0114 	str.w	r0, [r4, #276]	; 0x114
    2214:	4620      	mov	r0, r4
    2216:	f7ff fa2d 	bl	1674 <ros::NodeHandle_<MbedHardware, 25, 25, 512, 512>::negotiateTopics()>
    221a:	f8c4 6600 	str.w	r6, [r4, #1536]	; 0x600
    221e:	f8c4 6604 	str.w	r6, [r4, #1540]	; 0x604
    2222:	f04f 30ff 	mov.w	r0, #4294967295
    2226:	e504      	b.n	1c32 <ros::NodeHandle_<MbedHardware, 25, 25, 512, 512>::spinOnce()+0x66>
    2228:	f04f 0a08 	mov.w	r10, #8
    222c:	4657      	mov	r7, r10
    222e:	2304      	movs	r3, #4
    2230:	e729      	b.n	2086 <ros::NodeHandle_<MbedHardware, 25, 25, 512, 512>::spinOnce()+0x4ba>
    2232:	bf00      	nop
    2234:	000f4240 	.word	0x000f4240
    2238:	0000704c 	.word	0x0000704c
    223c:	3b9aca00 	.word	0x3b9aca00

00002240 <_GLOBAL__sub_I_cmd_in>:
    2240:	b5f8      	push	{r3, r4, r5, r6, r7, lr}
    2242:	4c3c      	ldr	r4, [pc, #240]	; (2334 <_GLOBAL__sub_I_cmd_in+0xf4>)
    2244:	4a3c      	ldr	r2, [pc, #240]	; (2338 <_GLOBAL__sub_I_cmd_in+0xf8>)
    2246:	4620      	mov	r0, r4
    2248:	493c      	ldr	r1, [pc, #240]	; (233c <_GLOBAL__sub_I_cmd_in+0xfc>)
    224a:	2300      	movs	r3, #0
    224c:	f840 2b04 	str.w	r2, [r0], #4
    2250:	4a3b      	ldr	r2, [pc, #236]	; (2340 <_GLOBAL__sub_I_cmd_in+0x100>)
    2252:	f000 fa55 	bl	2700 <AjK::MODSERIAL::MODSERIAL(PinName, PinName, char const*)>
    2256:	f504 7082 	add.w	r0, r4, #260	; 0x104
    225a:	f001 ff31 	bl	40c0 <mbed::Timer::Timer()>
    225e:	f44f 4361 	mov.w	r3, #57600	; 0xe100
    2262:	f8c4 3100 	str.w	r3, [r4, #256]	; 0x100
    2266:	f504 7082 	add.w	r0, r4, #260	; 0x104
    226a:	f001 ff39 	bl	40e0 <mbed::Timer::start()>
    226e:	4a35      	ldr	r2, [pc, #212]	; (2344 <_GLOBAL__sub_I_cmd_in+0x104>)
    2270:	2300      	movs	r3, #0
    2272:	4619      	mov	r1, r3
    2274:	f884 35fc 	strb.w	r3, [r4, #1532]	; 0x5fc
    2278:	f8c4 2610 	str.w	r2, [r4, #1552]	; 0x610
    227c:	f884 3614 	strb.w	r3, [r4, #1556]	; 0x614
    2280:	f8c4 361c 	str.w	r3, [r4, #1564]	; 0x61c
    2284:	f884 3620 	strb.w	r3, [r4, #1568]	; 0x620
    2288:	f8c4 3628 	str.w	r3, [r4, #1576]	; 0x628
    228c:	f884 362c 	strb.w	r3, [r4, #1580]	; 0x62c
    2290:	f8c4 3634 	str.w	r3, [r4, #1588]	; 0x634
    2294:	f204 521c 	addw	r2, r4, #1308	; 0x51c
    2298:	f504 63b0 	add.w	r3, r4, #1408	; 0x580
    229c:	f842 1f04 	str.w	r1, [r2, #4]!
    22a0:	4293      	cmp	r3, r2
    22a2:	d1fb      	bne.n	229c <_GLOBAL__sub_I_cmd_in+0x5c>
    22a4:	4928      	ldr	r1, [pc, #160]	; (2348 <_GLOBAL__sub_I_cmd_in+0x108>)
    22a6:	2200      	movs	r2, #0
    22a8:	f843 2f04 	str.w	r2, [r3, #4]!
    22ac:	4299      	cmp	r1, r3
    22ae:	d1fb      	bne.n	22a8 <_GLOBAL__sub_I_cmd_in+0x68>
    22b0:	4a26      	ldr	r2, [pc, #152]	; (234c <_GLOBAL__sub_I_cmd_in+0x10c>)
    22b2:	2100      	movs	r1, #0
    22b4:	f502 7300 	add.w	r3, r2, #512	; 0x200
    22b8:	f802 1f01 	strb.w	r1, [r2, #1]!
    22bc:	4293      	cmp	r3, r2
    22be:	d1fb      	bne.n	22b8 <_GLOBAL__sub_I_cmd_in+0x78>
    22c0:	4923      	ldr	r1, [pc, #140]	; (2350 <_GLOBAL__sub_I_cmd_in+0x110>)
    22c2:	2200      	movs	r2, #0
    22c4:	f803 2f01 	strb.w	r2, [r3, #1]!
    22c8:	428b      	cmp	r3, r1
    22ca:	f04f 0400 	mov.w	r4, #0
    22ce:	d1f9      	bne.n	22c4 <_GLOBAL__sub_I_cmd_in+0x84>
    22d0:	4a20      	ldr	r2, [pc, #128]	; (2354 <_GLOBAL__sub_I_cmd_in+0x114>)
    22d2:	4921      	ldr	r1, [pc, #132]	; (2358 <_GLOBAL__sub_I_cmd_in+0x118>)
    22d4:	4817      	ldr	r0, [pc, #92]	; (2334 <_GLOBAL__sub_I_cmd_in+0xf4>)
    22d6:	f001 ff43 	bl	4160 <__aeabi_atexit>
    22da:	4920      	ldr	r1, [pc, #128]	; (235c <_GLOBAL__sub_I_cmd_in+0x11c>)
    22dc:	4820      	ldr	r0, [pc, #128]	; (2360 <_GLOBAL__sub_I_cmd_in+0x120>)
    22de:	f000 fe6b 	bl	2fb8 <pwmout_init>
    22e2:	4920      	ldr	r1, [pc, #128]	; (2364 <_GLOBAL__sub_I_cmd_in+0x124>)
    22e4:	4820      	ldr	r0, [pc, #128]	; (2368 <_GLOBAL__sub_I_cmd_in+0x128>)
    22e6:	f000 fe67 	bl	2fb8 <pwmout_init>
    22ea:	4920      	ldr	r1, [pc, #128]	; (236c <_GLOBAL__sub_I_cmd_in+0x12c>)
    22ec:	4820      	ldr	r0, [pc, #128]	; (2370 <_GLOBAL__sub_I_cmd_in+0x130>)
    22ee:	f000 fe63 	bl	2fb8 <pwmout_init>
    22f2:	4920      	ldr	r1, [pc, #128]	; (2374 <_GLOBAL__sub_I_cmd_in+0x134>)
    22f4:	4820      	ldr	r0, [pc, #128]	; (2378 <_GLOBAL__sub_I_cmd_in+0x138>)
    22f6:	f000 fe5f 	bl	2fb8 <pwmout_init>
    22fa:	4b20      	ldr	r3, [pc, #128]	; (237c <_GLOBAL__sub_I_cmd_in+0x13c>)
    22fc:	f8df e094 	ldr.w	lr, [pc, #148]	; 2394 <_GLOBAL__sub_I_cmd_in+0x154>
    2300:	4f1f      	ldr	r7, [pc, #124]	; (2380 <_GLOBAL__sub_I_cmd_in+0x140>)
    2302:	4e20      	ldr	r6, [pc, #128]	; (2384 <_GLOBAL__sub_I_cmd_in+0x144>)
    2304:	4d20      	ldr	r5, [pc, #128]	; (2388 <_GLOBAL__sub_I_cmd_in+0x148>)
    2306:	4821      	ldr	r0, [pc, #132]	; (238c <_GLOBAL__sub_I_cmd_in+0x14c>)
    2308:	4a21      	ldr	r2, [pc, #132]	; (2390 <_GLOBAL__sub_I_cmd_in+0x150>)
    230a:	2101      	movs	r1, #1
    230c:	f883 4024 	strb.w	r4, [r3, #36]	; 0x24
    2310:	f883 4025 	strb.w	r4, [r3, #37]	; 0x25
    2314:	f883 4026 	strb.w	r4, [r3, #38]	; 0x26
    2318:	f883 4027 	strb.w	r4, [r3, #39]	; 0x27
    231c:	615c      	str	r4, [r3, #20]
    231e:	619c      	str	r4, [r3, #24]
    2320:	61dc      	str	r4, [r3, #28]
    2322:	f8c3 e000 	str.w	lr, [r3]
    2326:	60df      	str	r7, [r3, #12]
    2328:	611e      	str	r6, [r3, #16]
    232a:	621d      	str	r5, [r3, #32]
    232c:	6298      	str	r0, [r3, #40]	; 0x28
    232e:	62d9      	str	r1, [r3, #44]	; 0x2c
    2330:	609a      	str	r2, [r3, #8]
    2332:	bdf8      	pop	{r3, r4, r5, r6, r7, pc}
    2334:	100001c0 	.word	0x100001c0
    2338:	000070dc 	.word	0x000070dc
    233c:	2009c002 	.word	0x2009c002
    2340:	2009c003 	.word	0x2009c003
    2344:	00007094 	.word	0x00007094
    2348:	100007a4 	.word	0x100007a4
    234c:	100002df 	.word	0x100002df
    2350:	100006df 	.word	0x100006df
    2354:	100000c8 	.word	0x100000c8
    2358:	00002399 	.word	0x00002399
    235c:	2009c032 	.word	0x2009c032
    2360:	10000800 	.word	0x10000800
    2364:	2009c034 	.word	0x2009c034
    2368:	10000180 	.word	0x10000180
    236c:	2009c037 	.word	0x2009c037
    2370:	100001b8 	.word	0x100001b8
    2374:	2009c035 	.word	0x2009c035
    2378:	100007f8 	.word	0x100007f8
    237c:	10000188 	.word	0x10000188
    2380:	000070c4 	.word	0x000070c4
    2384:	000070ac 	.word	0x000070ac
    2388:	00007278 	.word	0x00007278
    238c:	0000025d 	.word	0x0000025d
    2390:	0000727c 	.word	0x0000727c
    2394:	000070f0 	.word	0x000070f0

00002398 <ros::NodeHandle_<MbedHardware, 25, 25, 512, 512>::~NodeHandle_()>:
    2398:	b510      	push	{r4, lr}
    239a:	4604      	mov	r4, r0
    239c:	4b03      	ldr	r3, [pc, #12]	; (23ac <ros::NodeHandle_<MbedHardware, 25, 25, 512, 512>::~NodeHandle_()+0x14>)
    239e:	f840 3b04 	str.w	r3, [r0], #4
    23a2:	f000 f94f 	bl	2644 <AjK::MODSERIAL::~MODSERIAL()>
    23a6:	4620      	mov	r0, r4
    23a8:	bd10      	pop	{r4, pc}
    23aa:	bf00      	nop
    23ac:	000070dc 	.word	0x000070dc

000023b0 <_start>:
    23b0:	4a07      	ldr	r2, [pc, #28]	; (23d0 <_start+0x20>)
    23b2:	4808      	ldr	r0, [pc, #32]	; (23d4 <_start+0x24>)
    23b4:	b508      	push	{r3, lr}
    23b6:	2100      	movs	r1, #0
    23b8:	1a12      	subs	r2, r2, r0
    23ba:	f003 f9af 	bl	571c <memset>
    23be:	f3af 8000 	nop.w
    23c2:	f003 f8f5 	bl	55b0 <__libc_init_array>
    23c6:	f001 fd1d 	bl	3e04 <__wrap_main>
    23ca:	f002 fdf3 	bl	4fb4 <exit>
    23ce:	bf00      	nop
    23d0:	10000a18 	.word	0x10000a18
    23d4:	10000164 	.word	0x10000164

000023d8 <__wrap__isatty>:
    23d8:	2802      	cmp	r0, #2
    23da:	dc01      	bgt.n	23e0 <__wrap__isatty+0x8>
    23dc:	2001      	movs	r0, #1
    23de:	4770      	bx	lr
    23e0:	f001 bcd8 	b.w	3d94 <_isatty>

000023e4 <__wrap_malloc>:
    23e4:	f3ef 8305 	mrs	r3, IPSR
    23e8:	b103      	cbz	r3, 23ec <__wrap_malloc+0x8>
    23ea:	be00      	bkpt	0x0000
    23ec:	f003 b952 	b.w	5694 <malloc>

000023f0 <__wrap_realloc>:
    23f0:	f3ef 8305 	mrs	r3, IPSR
    23f4:	b103      	cbz	r3, 23f8 <__wrap_realloc+0x8>
    23f6:	be00      	bkpt	0x0000
    23f8:	f003 bec0 	b.w	617c <realloc>

000023fc <__wrap_free>:
    23fc:	f3ef 8305 	mrs	r3, IPSR
    2400:	b103      	cbz	r3, 2404 <__wrap_free+0x8>
    2402:	be00      	bkpt	0x0000
    2404:	f003 b94e 	b.w	56a4 <free>

00002408 <abort>:
    2408:	b508      	push	{r3, lr}
    240a:	2001      	movs	r0, #1
    240c:	f002 fdd2 	bl	4fb4 <exit>

00002410 <__cxa_pure_virtual>:
    2410:	b508      	push	{r3, lr}
    2412:	f7ff fff9 	bl	2408 <abort>
    2416:	bf00      	nop

00002418 <ros::normalizeSecNSec(unsigned long&, unsigned long&)>:
    2418:	b410      	push	{r4}
    241a:	680c      	ldr	r4, [r1, #0]
    241c:	4a06      	ldr	r2, [pc, #24]	; (2438 <ros::normalizeSecNSec(unsigned long&, unsigned long&)+0x20>)
    241e:	0a63      	lsrs	r3, r4, #9
    2420:	fba2 2303 	umull	r2, r3, r2, r3
    2424:	4a05      	ldr	r2, [pc, #20]	; (243c <ros::normalizeSecNSec(unsigned long&, unsigned long&)+0x24>)
    2426:	09db      	lsrs	r3, r3, #7
    2428:	fb02 4213 	mls	r2, r2, r3, r4
    242c:	6804      	ldr	r4, [r0, #0]
    242e:	4423      	add	r3, r4
    2430:	6003      	str	r3, [r0, #0]
    2432:	bc10      	pop	{r4}
    2434:	600a      	str	r2, [r1, #0]
    2436:	4770      	bx	lr
    2438:	00044b83 	.word	0x00044b83
    243c:	3b9aca00 	.word	0x3b9aca00

00002440 <AjK::MODSERIAL::__getc(bool)>:
    2440:	6fc3      	ldr	r3, [r0, #124]	; 0x7c
    2442:	b570      	push	{r4, r5, r6, lr}
    2444:	2b00      	cmp	r3, #0
    2446:	d02d      	beq.n	24a4 <AjK::MODSERIAL::__getc(bool)+0x64>
    2448:	6e42      	ldr	r2, [r0, #100]	; 0x64
    244a:	2a00      	cmp	r2, #0
    244c:	d02a      	beq.n	24a4 <AjK::MODSERIAL::__getc(bool)+0x64>
    244e:	2900      	cmp	r1, #0
    2450:	d02f      	beq.n	24b2 <AjK::MODSERIAL::__getc(bool)+0x72>
    2452:	f8d0 3084 	ldr.w	r3, [r0, #132]	; 0x84
    2456:	2b00      	cmp	r3, #0
    2458:	d0fb      	beq.n	2452 <AjK::MODSERIAL::__getc(bool)+0x12>
    245a:	6f43      	ldr	r3, [r0, #116]	; 0x74
    245c:	4604      	mov	r4, r0
    245e:	5cd5      	ldrb	r5, [r2, r3]
    2460:	6f43      	ldr	r3, [r0, #116]	; 0x74
    2462:	b2ed      	uxtb	r5, r5
    2464:	3301      	adds	r3, #1
    2466:	6743      	str	r3, [r0, #116]	; 0x74
    2468:	6f42      	ldr	r2, [r0, #116]	; 0x74
    246a:	6fc3      	ldr	r3, [r0, #124]	; 0x7c
    246c:	429a      	cmp	r2, r3
    246e:	bfa4      	itt	ge
    2470:	2300      	movge	r3, #0
    2472:	6743      	strge	r3, [r0, #116]	; 0x74
    2474:	f8d0 2084 	ldr.w	r2, [r0, #132]	; 0x84
    2478:	6fc3      	ldr	r3, [r0, #124]	; 0x7c
    247a:	429a      	cmp	r2, r3
    247c:	d009      	beq.n	2492 <AjK::MODSERIAL::__getc(bool)+0x52>
    247e:	6dc3      	ldr	r3, [r0, #92]	; 0x5c
    2480:	685e      	ldr	r6, [r3, #4]
    2482:	685a      	ldr	r2, [r3, #4]
    2484:	f022 0201 	bic.w	r2, r2, #1
    2488:	605a      	str	r2, [r3, #4]
    248a:	f000 f819 	bl	24c0 <AjK::MODSERIAL::isr_rx()>
    248e:	6de3      	ldr	r3, [r4, #92]	; 0x5c
    2490:	605e      	str	r6, [r3, #4]
    2492:	b672      	cpsid	i
    2494:	f8d4 3084 	ldr.w	r3, [r4, #132]	; 0x84
    2498:	3b01      	subs	r3, #1
    249a:	f8c4 3084 	str.w	r3, [r4, #132]	; 0x84
    249e:	b662      	cpsie	i
    24a0:	4628      	mov	r0, r5
    24a2:	bd70      	pop	{r4, r5, r6, pc}
    24a4:	6dc2      	ldr	r2, [r0, #92]	; 0x5c
    24a6:	7d13      	ldrb	r3, [r2, #20]
    24a8:	07db      	lsls	r3, r3, #31
    24aa:	d5fc      	bpl.n	24a6 <AjK::MODSERIAL::__getc(bool)+0x66>
    24ac:	7810      	ldrb	r0, [r2, #0]
    24ae:	b2c0      	uxtb	r0, r0
    24b0:	bd70      	pop	{r4, r5, r6, pc}
    24b2:	f8d0 3084 	ldr.w	r3, [r0, #132]	; 0x84
    24b6:	2b00      	cmp	r3, #0
    24b8:	d1cf      	bne.n	245a <AjK::MODSERIAL::__getc(bool)+0x1a>
    24ba:	f04f 30ff 	mov.w	r0, #4294967295
    24be:	bd70      	pop	{r4, r5, r6, pc}

000024c0 <AjK::MODSERIAL::isr_rx()>:
    24c0:	6dc3      	ldr	r3, [r0, #92]	; 0x5c
    24c2:	b570      	push	{r4, r5, r6, lr}
    24c4:	2b00      	cmp	r3, #0
    24c6:	d04e      	beq.n	2566 <AjK::MODSERIAL::isr_rx()+0xa6>
    24c8:	6fc2      	ldr	r2, [r0, #124]	; 0x7c
    24ca:	2a00      	cmp	r2, #0
    24cc:	d04b      	beq.n	2566 <AjK::MODSERIAL::isr_rx()+0xa6>
    24ce:	6e42      	ldr	r2, [r0, #100]	; 0x64
    24d0:	2a00      	cmp	r2, #0
    24d2:	d048      	beq.n	2566 <AjK::MODSERIAL::isr_rx()+0xa6>
    24d4:	4604      	mov	r4, r0
    24d6:	f100 0558 	add.w	r5, r0, #88	; 0x58
    24da:	2600      	movs	r6, #0
    24dc:	e020      	b.n	2520 <AjK::MODSERIAL::isr_rx()+0x60>
    24de:	6e62      	ldr	r2, [r4, #100]	; 0x64
    24e0:	b18a      	cbz	r2, 2506 <AjK::MODSERIAL::isr_rx()+0x46>
    24e2:	6ee1      	ldr	r1, [r4, #108]	; 0x6c
    24e4:	f894 3061 	ldrb.w	r3, [r4, #97]	; 0x61
    24e8:	b2db      	uxtb	r3, r3
    24ea:	5453      	strb	r3, [r2, r1]
    24ec:	f8d4 3084 	ldr.w	r3, [r4, #132]	; 0x84
    24f0:	3301      	adds	r3, #1
    24f2:	f8c4 3084 	str.w	r3, [r4, #132]	; 0x84
    24f6:	6ee3      	ldr	r3, [r4, #108]	; 0x6c
    24f8:	3301      	adds	r3, #1
    24fa:	66e3      	str	r3, [r4, #108]	; 0x6c
    24fc:	6ee2      	ldr	r2, [r4, #108]	; 0x6c
    24fe:	6fe3      	ldr	r3, [r4, #124]	; 0x7c
    2500:	429a      	cmp	r2, r3
    2502:	bfa8      	it	ge
    2504:	66e6      	strge	r6, [r4, #108]	; 0x6c
    2506:	f8d4 3098 	ldr.w	r3, [r4, #152]	; 0x98
    250a:	2b00      	cmp	r3, #0
    250c:	d034      	beq.n	2578 <AjK::MODSERIAL::isr_rx()+0xb8>
    250e:	4628      	mov	r0, r5
    2510:	4798      	blx	r3
    2512:	f894 2094 	ldrb.w	r2, [r4, #148]	; 0x94
    2516:	f894 3061 	ldrb.w	r3, [r4, #97]	; 0x61
    251a:	429a      	cmp	r2, r3
    251c:	d01c      	beq.n	2558 <AjK::MODSERIAL::isr_rx()+0x98>
    251e:	6de3      	ldr	r3, [r4, #92]	; 0x5c
    2520:	7d1a      	ldrb	r2, [r3, #20]
    2522:	07d0      	lsls	r0, r2, #31
    2524:	d538      	bpl.n	2598 <AjK::MODSERIAL::isr_rx()+0xd8>
    2526:	781b      	ldrb	r3, [r3, #0]
    2528:	b2db      	uxtb	r3, r3
    252a:	f884 3061 	strb.w	r3, [r4, #97]	; 0x61
    252e:	f8d4 2084 	ldr.w	r2, [r4, #132]	; 0x84
    2532:	6fe3      	ldr	r3, [r4, #124]	; 0x7c
    2534:	429a      	cmp	r2, r3
    2536:	d1d2      	bne.n	24de <AjK::MODSERIAL::isr_rx()+0x1e>
    2538:	f894 3061 	ldrb.w	r3, [r4, #97]	; 0x61
    253c:	f8d4 20b8 	ldr.w	r2, [r4, #184]	; 0xb8
    2540:	b2db      	uxtb	r3, r3
    2542:	f8c4 308c 	str.w	r3, [r4, #140]	; 0x8c
    2546:	b37a      	cbz	r2, 25a8 <AjK::MODSERIAL::isr_rx()+0xe8>
    2548:	4628      	mov	r0, r5
    254a:	4790      	blx	r2
    254c:	f894 2094 	ldrb.w	r2, [r4, #148]	; 0x94
    2550:	f894 3061 	ldrb.w	r3, [r4, #97]	; 0x61
    2554:	429a      	cmp	r2, r3
    2556:	d1e2      	bne.n	251e <AjK::MODSERIAL::isr_rx()+0x5e>
    2558:	f8d4 30e8 	ldr.w	r3, [r4, #232]	; 0xe8
    255c:	2b00      	cmp	r3, #0
    255e:	d048      	beq.n	25f2 <AjK::MODSERIAL::isr_rx()+0x132>
    2560:	4628      	mov	r0, r5
    2562:	4798      	blx	r3
    2564:	e7db      	b.n	251e <AjK::MODSERIAL::isr_rx()+0x5e>
    2566:	f8d0 3098 	ldr.w	r3, [r0, #152]	; 0x98
    256a:	f100 0158 	add.w	r1, r0, #88	; 0x58
    256e:	b383      	cbz	r3, 25d2 <AjK::MODSERIAL::isr_rx()+0x112>
    2570:	e8bd 4070 	ldmia.w	sp!, {r4, r5, r6, lr}
    2574:	4608      	mov	r0, r1
    2576:	4718      	bx	r3
    2578:	f8d4 009c 	ldr.w	r0, [r4, #156]	; 0x9c
    257c:	2800      	cmp	r0, #0
    257e:	d0c8      	beq.n	2512 <AjK::MODSERIAL::isr_rx()+0x52>
    2580:	f8d4 20a0 	ldr.w	r2, [r4, #160]	; 0xa0
    2584:	f8d4 30a4 	ldr.w	r3, [r4, #164]	; 0xa4
    2588:	b13a      	cbz	r2, 259a <AjK::MODSERIAL::isr_rx()+0xda>
    258a:	07d9      	lsls	r1, r3, #31
    258c:	d407      	bmi.n	259e <AjK::MODSERIAL::isr_rx()+0xde>
    258e:	eb00 0063 	add.w	r0, r0, r3, asr #1
    2592:	4629      	mov	r1, r5
    2594:	4790      	blx	r2
    2596:	e7bc      	b.n	2512 <AjK::MODSERIAL::isr_rx()+0x52>
    2598:	bd70      	pop	{r4, r5, r6, pc}
    259a:	07d9      	lsls	r1, r3, #31
    259c:	d5b9      	bpl.n	2512 <AjK::MODSERIAL::isr_rx()+0x52>
    259e:	105b      	asrs	r3, r3, #1
    25a0:	58c1      	ldr	r1, [r0, r3]
    25a2:	4418      	add	r0, r3
    25a4:	588a      	ldr	r2, [r1, r2]
    25a6:	e7f4      	b.n	2592 <AjK::MODSERIAL::isr_rx()+0xd2>
    25a8:	f8d4 30bc 	ldr.w	r3, [r4, #188]	; 0xbc
    25ac:	2b00      	cmp	r3, #0
    25ae:	d0b0      	beq.n	2512 <AjK::MODSERIAL::isr_rx()+0x52>
    25b0:	f8d4 20c0 	ldr.w	r2, [r4, #192]	; 0xc0
    25b4:	f8d4 00c4 	ldr.w	r0, [r4, #196]	; 0xc4
    25b8:	b122      	cbz	r2, 25c4 <AjK::MODSERIAL::isr_rx()+0x104>
    25ba:	07c1      	lsls	r1, r0, #31
    25bc:	d404      	bmi.n	25c8 <AjK::MODSERIAL::isr_rx()+0x108>
    25be:	eb03 0060 	add.w	r0, r3, r0, asr #1
    25c2:	e7e6      	b.n	2592 <AjK::MODSERIAL::isr_rx()+0xd2>
    25c4:	07c1      	lsls	r1, r0, #31
    25c6:	d5a4      	bpl.n	2512 <AjK::MODSERIAL::isr_rx()+0x52>
    25c8:	1040      	asrs	r0, r0, #1
    25ca:	5819      	ldr	r1, [r3, r0]
    25cc:	4418      	add	r0, r3
    25ce:	588a      	ldr	r2, [r1, r2]
    25d0:	e7df      	b.n	2592 <AjK::MODSERIAL::isr_rx()+0xd2>
    25d2:	f8d0 309c 	ldr.w	r3, [r0, #156]	; 0x9c
    25d6:	2b00      	cmp	r3, #0
    25d8:	d0de      	beq.n	2598 <AjK::MODSERIAL::isr_rx()+0xd8>
    25da:	f8d0 20a0 	ldr.w	r2, [r0, #160]	; 0xa0
    25de:	f8d0 00a4 	ldr.w	r0, [r0, #164]	; 0xa4
    25e2:	b31a      	cbz	r2, 262c <AjK::MODSERIAL::isr_rx()+0x16c>
    25e4:	07c4      	lsls	r4, r0, #31
    25e6:	d414      	bmi.n	2612 <AjK::MODSERIAL::isr_rx()+0x152>
    25e8:	eb03 0060 	add.w	r0, r3, r0, asr #1
    25ec:	e8bd 4070 	ldmia.w	sp!, {r4, r5, r6, lr}
    25f0:	4710      	bx	r2
    25f2:	f8d4 00ec 	ldr.w	r0, [r4, #236]	; 0xec
    25f6:	2800      	cmp	r0, #0
    25f8:	d091      	beq.n	251e <AjK::MODSERIAL::isr_rx()+0x5e>
    25fa:	f8d4 20f0 	ldr.w	r2, [r4, #240]	; 0xf0
    25fe:	f8d4 30f4 	ldr.w	r3, [r4, #244]	; 0xf4
    2602:	b15a      	cbz	r2, 261c <AjK::MODSERIAL::isr_rx()+0x15c>
    2604:	07d9      	lsls	r1, r3, #31
    2606:	d40c      	bmi.n	2622 <AjK::MODSERIAL::isr_rx()+0x162>
    2608:	eb00 0063 	add.w	r0, r0, r3, asr #1
    260c:	4629      	mov	r1, r5
    260e:	4790      	blx	r2
    2610:	e785      	b.n	251e <AjK::MODSERIAL::isr_rx()+0x5e>
    2612:	1040      	asrs	r0, r0, #1
    2614:	581c      	ldr	r4, [r3, r0]
    2616:	4418      	add	r0, r3
    2618:	58a2      	ldr	r2, [r4, r2]
    261a:	e7e7      	b.n	25ec <AjK::MODSERIAL::isr_rx()+0x12c>
    261c:	07d9      	lsls	r1, r3, #31
    261e:	f57f af7e 	bpl.w	251e <AjK::MODSERIAL::isr_rx()+0x5e>
    2622:	105b      	asrs	r3, r3, #1
    2624:	58c1      	ldr	r1, [r0, r3]
    2626:	4418      	add	r0, r3
    2628:	588a      	ldr	r2, [r1, r2]
    262a:	e7ef      	b.n	260c <AjK::MODSERIAL::isr_rx()+0x14c>
    262c:	07c5      	lsls	r5, r0, #31
    262e:	d4f0      	bmi.n	2612 <AjK::MODSERIAL::isr_rx()+0x152>
    2630:	bd70      	pop	{r4, r5, r6, pc}
    2632:	bf00      	nop

00002634 <mbed::SerialBase::~SerialBase()>:
    2634:	4770      	bx	lr
    2636:	bf00      	nop

00002638 <mbed::SerialBase::~SerialBase()>:
    2638:	b510      	push	{r4, lr}
    263a:	4604      	mov	r4, r0
    263c:	f001 fd95 	bl	416a <operator delete(void*)>
    2640:	4620      	mov	r0, r4
    2642:	bd10      	pop	{r4, pc}

00002644 <AjK::MODSERIAL::~MODSERIAL()>:
    2644:	b5f8      	push	{r3, r4, r5, r6, r7, lr}
    2646:	4604      	mov	r4, r0
    2648:	f890 20f8 	ldrb.w	r2, [r0, #248]	; 0xf8
    264c:	4d14      	ldr	r5, [pc, #80]	; (26a0 <AjK::MODSERIAL::~MODSERIAL()+0x5c>)
    264e:	b253      	sxtb	r3, r2
    2650:	6e40      	ldr	r0, [r0, #100]	; 0x64
    2652:	2101      	movs	r1, #1
    2654:	095b      	lsrs	r3, r3, #5
    2656:	f002 021f 	and.w	r2, r2, #31
    265a:	4e12      	ldr	r6, [pc, #72]	; (26a4 <AjK::MODSERIAL::~MODSERIAL()+0x60>)
    265c:	fa01 f202 	lsl.w	r2, r1, r2
    2660:	f105 0718 	add.w	r7, r5, #24
    2664:	3320      	adds	r3, #32
    2666:	f105 014c 	add.w	r1, r5, #76	; 0x4c
    266a:	6025      	str	r5, [r4, #0]
    266c:	6427      	str	r7, [r4, #64]	; 0x40
    266e:	6461      	str	r1, [r4, #68]	; 0x44
    2670:	f846 2023 	str.w	r2, [r6, r3, lsl #2]
    2674:	b108      	cbz	r0, 267a <AjK::MODSERIAL::~MODSERIAL()+0x36>
    2676:	f7ff fec1 	bl	23fc <__wrap_free>
    267a:	6ea0      	ldr	r0, [r4, #104]	; 0x68
    267c:	b108      	cbz	r0, 2682 <AjK::MODSERIAL::~MODSERIAL()+0x3e>
    267e:	f7ff febd 	bl	23fc <__wrap_free>
    2682:	4b09      	ldr	r3, [pc, #36]	; (26a8 <AjK::MODSERIAL::~MODSERIAL()+0x64>)
    2684:	f104 0040 	add.w	r0, r4, #64	; 0x40
    2688:	f103 0118 	add.w	r1, r3, #24
    268c:	f103 024c 	add.w	r2, r3, #76	; 0x4c
    2690:	6023      	str	r3, [r4, #0]
    2692:	6421      	str	r1, [r4, #64]	; 0x40
    2694:	6462      	str	r2, [r4, #68]	; 0x44
    2696:	f001 fced 	bl	4074 <mbed::Stream::~Stream()>
    269a:	4620      	mov	r0, r4
    269c:	bdf8      	pop	{r3, r4, r5, r6, r7, pc}
    269e:	bf00      	nop
    26a0:	000072ac 	.word	0x000072ac
    26a4:	e000e100 	.word	0xe000e100
    26a8:	00007640 	.word	0x00007640

000026ac <non-virtual thunk to AjK::MODSERIAL::~MODSERIAL()>:
    26ac:	f1a0 0040 	sub.w	r0, r0, #64	; 0x40
    26b0:	f7ff bfc8 	b.w	2644 <AjK::MODSERIAL::~MODSERIAL()>

000026b4 <non-virtual thunk to AjK::MODSERIAL::~MODSERIAL()>:
    26b4:	f1a0 0044 	sub.w	r0, r0, #68	; 0x44
    26b8:	f7ff bfc4 	b.w	2644 <AjK::MODSERIAL::~MODSERIAL()>

000026bc <AjK::MODSERIAL::~MODSERIAL()>:
    26bc:	b510      	push	{r4, lr}
    26be:	4604      	mov	r4, r0
    26c0:	f7ff ffc0 	bl	2644 <AjK::MODSERIAL::~MODSERIAL()>
    26c4:	4620      	mov	r0, r4
    26c6:	f001 fd50 	bl	416a <operator delete(void*)>
    26ca:	4620      	mov	r0, r4
    26cc:	bd10      	pop	{r4, pc}
    26ce:	bf00      	nop

000026d0 <non-virtual thunk to AjK::MODSERIAL::~MODSERIAL()>:
    26d0:	f1a0 0044 	sub.w	r0, r0, #68	; 0x44
    26d4:	f7ff bff2 	b.w	26bc <AjK::MODSERIAL::~MODSERIAL()>

000026d8 <non-virtual thunk to AjK::MODSERIAL::~MODSERIAL()>:
    26d8:	f1a0 0040 	sub.w	r0, r0, #64	; 0x40
    26dc:	f7ff bfee 	b.w	26bc <AjK::MODSERIAL::~MODSERIAL()>

000026e0 <AjK::MODSERIAL::_getc()>:
    26e0:	2101      	movs	r1, #1
    26e2:	f7ff bead 	b.w	2440 <AjK::MODSERIAL::__getc(bool)>
    26e6:	bf00      	nop

000026e8 <non-virtual thunk to AjK::MODSERIAL::_getc()>:
    26e8:	f1a0 0040 	sub.w	r0, r0, #64	; 0x40
    26ec:	e7f8      	b.n	26e0 <AjK::MODSERIAL::_getc()>
    26ee:	bf00      	nop

000026f0 <AjK::MODSERIAL::_putc(int)>:
    26f0:	2201      	movs	r2, #1
    26f2:	f000 b835 	b.w	2760 <AjK::MODSERIAL::__putc(int, bool)>
    26f6:	bf00      	nop

000026f8 <non-virtual thunk to AjK::MODSERIAL::_putc(int)>:
    26f8:	f1a0 0040 	sub.w	r0, r0, #64	; 0x40
    26fc:	e7f8      	b.n	26f0 <AjK::MODSERIAL::_putc(int)>
    26fe:	bf00      	nop

00002700 <AjK::MODSERIAL::MODSERIAL(PinName, PinName, char const*)>:
    2700:	b538      	push	{r3, r4, r5, lr}
    2702:	4604      	mov	r4, r0
    2704:	4615      	mov	r5, r2
    2706:	f001 fc49 	bl	3f9c <mbed::Serial::Serial(PinName, PinName, char const*)>
    270a:	4b11      	ldr	r3, [pc, #68]	; (2750 <AjK::MODSERIAL::MODSERIAL(PinName, PinName, char const*)+0x50>)
    270c:	2100      	movs	r1, #0
    270e:	f103 0018 	add.w	r0, r3, #24
    2712:	460a      	mov	r2, r1
    2714:	65a1      	str	r1, [r4, #88]	; 0x58
    2716:	f103 014c 	add.w	r1, r3, #76	; 0x4c
    271a:	6023      	str	r3, [r4, #0]
    271c:	6461      	str	r1, [r4, #68]	; 0x44
    271e:	6420      	str	r0, [r4, #64]	; 0x40
    2720:	f104 03a8 	add.w	r3, r4, #168	; 0xa8
    2724:	f504 7184 	add.w	r1, r4, #264	; 0x108
    2728:	f843 2c10 	str.w	r2, [r3, #-16]
    272c:	f843 2c0c 	str.w	r2, [r3, #-12]
    2730:	f843 2c08 	str.w	r2, [r3, #-8]
    2734:	f843 2c04 	str.w	r2, [r3, #-4]
    2738:	3310      	adds	r3, #16
    273a:	428b      	cmp	r3, r1
    273c:	d1f4      	bne.n	2728 <AjK::MODSERIAL::MODSERIAL(PinName, PinName, char const*)+0x28>
    273e:	f44f 7280 	mov.w	r2, #256	; 0x100
    2742:	4620      	mov	r0, r4
    2744:	462b      	mov	r3, r5
    2746:	4611      	mov	r1, r2
    2748:	f000 f89e 	bl	2888 <AjK::MODSERIAL::init(int, int, PinName)>
    274c:	4620      	mov	r0, r4
    274e:	bd38      	pop	{r3, r4, r5, pc}
    2750:	000072ac 	.word	0x000072ac

00002754 <AjK::MODSERIAL::rxBufferEmpty()>:
    2754:	f8d0 0084 	ldr.w	r0, [r0, #132]	; 0x84
    2758:	fab0 f080 	clz	r0, r0
    275c:	0940      	lsrs	r0, r0, #5
    275e:	4770      	bx	lr

00002760 <AjK::MODSERIAL::__putc(int, bool)>:
    2760:	6e83      	ldr	r3, [r0, #104]	; 0x68
    2762:	b570      	push	{r4, r5, r6, lr}
    2764:	4604      	mov	r4, r0
    2766:	b113      	cbz	r3, 276e <AjK::MODSERIAL::__putc(int, bool)+0xe>
    2768:	f8d0 3080 	ldr.w	r3, [r0, #128]	; 0x80
    276c:	b93b      	cbnz	r3, 277e <AjK::MODSERIAL::__putc(int, bool)+0x1e>
    276e:	6de2      	ldr	r2, [r4, #92]	; 0x5c
    2770:	7d13      	ldrb	r3, [r2, #20]
    2772:	069e      	lsls	r6, r3, #26
    2774:	d5fc      	bpl.n	2770 <AjK::MODSERIAL::__putc(int, bool)+0x10>
    2776:	b2c9      	uxtb	r1, r1
    2778:	7011      	strb	r1, [r2, #0]
    277a:	2000      	movs	r0, #0
    277c:	bd70      	pop	{r4, r5, r6, pc}
    277e:	6dc3      	ldr	r3, [r0, #92]	; 0x5c
    2780:	7d18      	ldrb	r0, [r3, #20]
    2782:	0685      	lsls	r5, r0, #26
    2784:	d505      	bpl.n	2792 <AjK::MODSERIAL::__putc(int, bool)+0x32>
    2786:	f8d4 0088 	ldr.w	r0, [r4, #136]	; 0x88
    278a:	b910      	cbnz	r0, 2792 <AjK::MODSERIAL::__putc(int, bool)+0x32>
    278c:	b2c9      	uxtb	r1, r1
    278e:	7019      	strb	r1, [r3, #0]
    2790:	bd70      	pop	{r4, r5, r6, pc}
    2792:	460d      	mov	r5, r1
    2794:	b1c2      	cbz	r2, 27c8 <AjK::MODSERIAL::__putc(int, bool)+0x68>
    2796:	685e      	ldr	r6, [r3, #4]
    2798:	685a      	ldr	r2, [r3, #4]
    279a:	f022 0202 	bic.w	r2, r2, #2
    279e:	605a      	str	r2, [r3, #4]
    27a0:	f8d4 2088 	ldr.w	r2, [r4, #136]	; 0x88
    27a4:	f8d4 3080 	ldr.w	r3, [r4, #128]	; 0x80
    27a8:	429a      	cmp	r2, r3
    27aa:	d109      	bne.n	27c0 <AjK::MODSERIAL::__putc(int, bool)+0x60>
    27ac:	2100      	movs	r1, #0
    27ae:	4620      	mov	r0, r4
    27b0:	f000 f8ee 	bl	2990 <AjK::MODSERIAL::isr_tx(bool)>
    27b4:	f8d4 2088 	ldr.w	r2, [r4, #136]	; 0x88
    27b8:	f8d4 3080 	ldr.w	r3, [r4, #128]	; 0x80
    27bc:	429a      	cmp	r2, r3
    27be:	d0f5      	beq.n	27ac <AjK::MODSERIAL::__putc(int, bool)+0x4c>
    27c0:	6de3      	ldr	r3, [r4, #92]	; 0x5c
    27c2:	605e      	str	r6, [r3, #4]
    27c4:	6de3      	ldr	r3, [r4, #92]	; 0x5c
    27c6:	e005      	b.n	27d4 <AjK::MODSERIAL::__putc(int, bool)+0x74>
    27c8:	f8d4 1088 	ldr.w	r1, [r4, #136]	; 0x88
    27cc:	f8d4 2080 	ldr.w	r2, [r4, #128]	; 0x80
    27d0:	4291      	cmp	r1, r2
    27d2:	d020      	beq.n	2816 <AjK::MODSERIAL::__putc(int, bool)+0xb6>
    27d4:	685a      	ldr	r2, [r3, #4]
    27d6:	b2e9      	uxtb	r1, r5
    27d8:	f022 0202 	bic.w	r2, r2, #2
    27dc:	605a      	str	r2, [r3, #4]
    27de:	6f23      	ldr	r3, [r4, #112]	; 0x70
    27e0:	6ea2      	ldr	r2, [r4, #104]	; 0x68
    27e2:	54d1      	strb	r1, [r2, r3]
    27e4:	b672      	cpsid	i
    27e6:	f8d4 3088 	ldr.w	r3, [r4, #136]	; 0x88
    27ea:	3301      	adds	r3, #1
    27ec:	f8c4 3088 	str.w	r3, [r4, #136]	; 0x88
    27f0:	b662      	cpsie	i
    27f2:	6f23      	ldr	r3, [r4, #112]	; 0x70
    27f4:	2000      	movs	r0, #0
    27f6:	3301      	adds	r3, #1
    27f8:	6723      	str	r3, [r4, #112]	; 0x70
    27fa:	6f22      	ldr	r2, [r4, #112]	; 0x70
    27fc:	f8d4 3080 	ldr.w	r3, [r4, #128]	; 0x80
    2800:	429a      	cmp	r2, r3
    2802:	bfa8      	it	ge
    2804:	2300      	movge	r3, #0
    2806:	6de2      	ldr	r2, [r4, #92]	; 0x5c
    2808:	bfa8      	it	ge
    280a:	6723      	strge	r3, [r4, #112]	; 0x70
    280c:	6853      	ldr	r3, [r2, #4]
    280e:	f043 0302 	orr.w	r3, r3, #2
    2812:	6053      	str	r3, [r2, #4]
    2814:	bd70      	pop	{r4, r5, r6, pc}
    2816:	f8d4 30c8 	ldr.w	r3, [r4, #200]	; 0xc8
    281a:	f8c4 5090 	str.w	r5, [r4, #144]	; 0x90
    281e:	f104 0058 	add.w	r0, r4, #88	; 0x58
    2822:	b11b      	cbz	r3, 282c <AjK::MODSERIAL::__putc(int, bool)+0xcc>
    2824:	4798      	blx	r3
    2826:	f04f 30ff 	mov.w	r0, #4294967295
    282a:	bd70      	pop	{r4, r5, r6, pc}
    282c:	f8d4 20cc 	ldr.w	r2, [r4, #204]	; 0xcc
    2830:	b1aa      	cbz	r2, 285e <AjK::MODSERIAL::__putc(int, bool)+0xfe>
    2832:	f8d4 50d0 	ldr.w	r5, [r4, #208]	; 0xd0
    2836:	f8d4 30d4 	ldr.w	r3, [r4, #212]	; 0xd4
    283a:	b175      	cbz	r5, 285a <AjK::MODSERIAL::__putc(int, bool)+0xfa>
    283c:	07d9      	lsls	r1, r3, #31
    283e:	d407      	bmi.n	2850 <AjK::MODSERIAL::__putc(int, bool)+0xf0>
    2840:	eb02 0363 	add.w	r3, r2, r3, asr #1
    2844:	4601      	mov	r1, r0
    2846:	4618      	mov	r0, r3
    2848:	47a8      	blx	r5
    284a:	f04f 30ff 	mov.w	r0, #4294967295
    284e:	bd70      	pop	{r4, r5, r6, pc}
    2850:	105b      	asrs	r3, r3, #1
    2852:	58d1      	ldr	r1, [r2, r3]
    2854:	4413      	add	r3, r2
    2856:	594d      	ldr	r5, [r1, r5]
    2858:	e7f4      	b.n	2844 <AjK::MODSERIAL::__putc(int, bool)+0xe4>
    285a:	07dc      	lsls	r4, r3, #31
    285c:	d4f8      	bmi.n	2850 <AjK::MODSERIAL::__putc(int, bool)+0xf0>
    285e:	f04f 30ff 	mov.w	r0, #4294967295
    2862:	bd70      	pop	{r4, r5, r6, pc}

00002864 <void mbed::FunctionPointerArg1<void, void>::membercaller<AjK::MODSERIAL>(void*, unsigned int*)>:
    2864:	684b      	ldr	r3, [r1, #4]
    2866:	07da      	lsls	r2, r3, #31
    2868:	d505      	bpl.n	2876 <void mbed::FunctionPointerArg1<void, void>::membercaller<AjK::MODSERIAL>(void*, unsigned int*)+0x12>
    286a:	105b      	asrs	r3, r3, #1
    286c:	680a      	ldr	r2, [r1, #0]
    286e:	58c1      	ldr	r1, [r0, r3]
    2870:	4418      	add	r0, r3
    2872:	588a      	ldr	r2, [r1, r2]
    2874:	4710      	bx	r2
    2876:	680a      	ldr	r2, [r1, #0]
    2878:	eb00 0063 	add.w	r0, r0, r3, asr #1
    287c:	4710      	bx	r2
    287e:	bf00      	nop

00002880 <AjK::MODSERIAL::isr_tx()>:
    2880:	2101      	movs	r1, #1
    2882:	f000 b885 	b.w	2990 <AjK::MODSERIAL::isr_tx(bool)>
    2886:	bf00      	nop

00002888 <AjK::MODSERIAL::init(int, int, PinName)>:
    2888:	b5f8      	push	{r3, r4, r5, r6, r7, lr}
    288a:	4604      	mov	r4, r0
    288c:	f890 50f8 	ldrb.w	r5, [r0, #248]	; 0xf8
    2890:	2601      	movs	r6, #1
    2892:	b26b      	sxtb	r3, r5
    2894:	095b      	lsrs	r3, r3, #5
    2896:	f005 051f 	and.w	r5, r5, #31
    289a:	4f38      	ldr	r7, [pc, #224]	; (297c <AjK::MODSERIAL::init(int, int, PinName)+0xf4>)
    289c:	3320      	adds	r3, #32
    289e:	fa06 f505 	lsl.w	r5, r6, r5
    28a2:	f847 5023 	str.w	r5, [r7, r3, lsl #2]
    28a6:	4616      	mov	r6, r2
    28a8:	460d      	mov	r5, r1
    28aa:	f000 f90d 	bl	2ac8 <AjK::MODSERIAL::setBase()>
    28ae:	6de3      	ldr	r3, [r4, #92]	; 0x5c
    28b0:	65a4      	str	r4, [r4, #88]	; 0x58
    28b2:	2b00      	cmp	r3, #0
    28b4:	d05e      	beq.n	2974 <AjK::MODSERIAL::init(int, int, PinName)+0xec>
    28b6:	2e00      	cmp	r6, #0
    28b8:	67e6      	str	r6, [r4, #124]	; 0x7c
    28ba:	dd47      	ble.n	294c <AjK::MODSERIAL::init(int, int, PinName)+0xc4>
    28bc:	6fe0      	ldr	r0, [r4, #124]	; 0x7c
    28be:	f7ff fd91 	bl	23e4 <__wrap_malloc>
    28c2:	2100      	movs	r1, #0
    28c4:	66e1      	str	r1, [r4, #108]	; 0x6c
    28c6:	6660      	str	r0, [r4, #100]	; 0x64
    28c8:	6761      	str	r1, [r4, #116]	; 0x74
    28ca:	f8c4 1084 	str.w	r1, [r4, #132]	; 0x84
    28ce:	f8c4 108c 	str.w	r1, [r4, #140]	; 0x8c
    28d2:	2c00      	cmp	r4, #0
    28d4:	d042      	beq.n	295c <AjK::MODSERIAL::init(int, int, PinName)+0xd4>
    28d6:	4a2a      	ldr	r2, [pc, #168]	; (2980 <AjK::MODSERIAL::init(int, int, PinName)+0xf8>)
    28d8:	4b2a      	ldr	r3, [pc, #168]	; (2984 <AjK::MODSERIAL::init(int, int, PinName)+0xfc>)
    28da:	1d26      	adds	r6, r4, #4
    28dc:	6122      	str	r2, [r4, #16]
    28de:	60e4      	str	r4, [r4, #12]
    28e0:	6161      	str	r1, [r4, #20]
    28e2:	6223      	str	r3, [r4, #32]
    28e4:	4630      	mov	r0, r6
    28e6:	2201      	movs	r2, #1
    28e8:	f000 fe26 	bl	3538 <serial_irq_set>
    28ec:	2d00      	cmp	r5, #0
    28ee:	f8c4 5080 	str.w	r5, [r4, #128]	; 0x80
    28f2:	dd3d      	ble.n	2970 <AjK::MODSERIAL::init(int, int, PinName)+0xe8>
    28f4:	f8d4 0080 	ldr.w	r0, [r4, #128]	; 0x80
    28f8:	f7ff fd74 	bl	23e4 <__wrap_malloc>
    28fc:	4922      	ldr	r1, [pc, #136]	; (2988 <AjK::MODSERIAL::init(int, int, PinName)+0x100>)
    28fe:	2300      	movs	r3, #0
    2900:	6723      	str	r3, [r4, #112]	; 0x70
    2902:	66a0      	str	r0, [r4, #104]	; 0x68
    2904:	67a3      	str	r3, [r4, #120]	; 0x78
    2906:	f8c4 3088 	str.w	r3, [r4, #136]	; 0x88
    290a:	f8c4 3090 	str.w	r3, [r4, #144]	; 0x90
    290e:	b1f9      	cbz	r1, 2950 <AjK::MODSERIAL::init(int, int, PinName)+0xc8>
    2910:	b1f4      	cbz	r4, 2950 <AjK::MODSERIAL::init(int, int, PinName)+0xc8>
    2912:	4d1c      	ldr	r5, [pc, #112]	; (2984 <AjK::MODSERIAL::init(int, int, PinName)+0xfc>)
    2914:	2201      	movs	r2, #1
    2916:	62a1      	str	r1, [r4, #40]	; 0x28
    2918:	6264      	str	r4, [r4, #36]	; 0x24
    291a:	62e3      	str	r3, [r4, #44]	; 0x2c
    291c:	4630      	mov	r0, r6
    291e:	63a5      	str	r5, [r4, #56]	; 0x38
    2920:	4611      	mov	r1, r2
    2922:	f000 fe09 	bl	3538 <serial_irq_set>
    2926:	4620      	mov	r0, r4
    2928:	f000 f8fa 	bl	2b20 <AjK::MODSERIAL::initDevice()>
    292c:	f894 30f8 	ldrb.w	r3, [r4, #248]	; 0xf8
    2930:	2101      	movs	r1, #1
    2932:	b25a      	sxtb	r2, r3
    2934:	f003 031f 	and.w	r3, r3, #31
    2938:	fa01 f303 	lsl.w	r3, r1, r3
    293c:	480f      	ldr	r0, [pc, #60]	; (297c <AjK::MODSERIAL::init(int, int, PinName)+0xf4>)
    293e:	2100      	movs	r1, #0
    2940:	0952      	lsrs	r2, r2, #5
    2942:	f884 1094 	strb.w	r1, [r4, #148]	; 0x94
    2946:	f840 3022 	str.w	r3, [r0, r2, lsl #2]
    294a:	bdf8      	pop	{r3, r4, r5, r6, r7, pc}
    294c:	2000      	movs	r0, #0
    294e:	e7b8      	b.n	28c2 <AjK::MODSERIAL::init(int, int, PinName)+0x3a>
    2950:	4630      	mov	r0, r6
    2952:	2200      	movs	r2, #0
    2954:	2101      	movs	r1, #1
    2956:	f000 fdef 	bl	3538 <serial_irq_set>
    295a:	e7e4      	b.n	2926 <AjK::MODSERIAL::init(int, int, PinName)+0x9e>
    295c:	2604      	movs	r6, #4
    295e:	4630      	mov	r0, r6
    2960:	4622      	mov	r2, r4
    2962:	4621      	mov	r1, r4
    2964:	f000 fde8 	bl	3538 <serial_irq_set>
    2968:	2d00      	cmp	r5, #0
    296a:	f8c4 5080 	str.w	r5, [r4, #128]	; 0x80
    296e:	dcc1      	bgt.n	28f4 <AjK::MODSERIAL::init(int, int, PinName)+0x6c>
    2970:	2000      	movs	r0, #0
    2972:	e7c3      	b.n	28fc <AjK::MODSERIAL::init(int, int, PinName)+0x74>
    2974:	4805      	ldr	r0, [pc, #20]	; (298c <AjK::MODSERIAL::init(int, int, PinName)+0x104>)
    2976:	f000 f911 	bl	2b9c <error>
    297a:	e7d4      	b.n	2926 <AjK::MODSERIAL::init(int, int, PinName)+0x9e>
    297c:	e000e100 	.word	0xe000e100
    2980:	000024c1 	.word	0x000024c1
    2984:	00002865 	.word	0x00002865
    2988:	00002881 	.word	0x00002881
    298c:	00007300 	.word	0x00007300

00002990 <AjK::MODSERIAL::isr_tx(bool)>:
    2990:	6dc3      	ldr	r3, [r0, #92]	; 0x5c
    2992:	e92d 41f0 	stmdb	sp!, {r4, r5, r6, r7, r8, lr}
    2996:	b313      	cbz	r3, 29de <AjK::MODSERIAL::isr_tx(bool)+0x4e>
    2998:	f8d0 3080 	ldr.w	r3, [r0, #128]	; 0x80
    299c:	b1fb      	cbz	r3, 29de <AjK::MODSERIAL::isr_tx(bool)+0x4e>
    299e:	6e83      	ldr	r3, [r0, #104]	; 0x68
    29a0:	b1eb      	cbz	r3, 29de <AjK::MODSERIAL::isr_tx(bool)+0x4e>
    29a2:	460e      	mov	r6, r1
    29a4:	4604      	mov	r4, r0
    29a6:	2700      	movs	r7, #0
    29a8:	f100 0558 	add.w	r5, r0, #88	; 0x58
    29ac:	f8d4 3088 	ldr.w	r3, [r4, #136]	; 0x88
    29b0:	b11b      	cbz	r3, 29ba <AjK::MODSERIAL::isr_tx(bool)+0x2a>
    29b2:	6de2      	ldr	r2, [r4, #92]	; 0x5c
    29b4:	7d13      	ldrb	r3, [r2, #20]
    29b6:	0698      	lsls	r0, r3, #26
    29b8:	d41a      	bmi.n	29f0 <AjK::MODSERIAL::isr_tx(bool)+0x60>
    29ba:	f8d4 3088 	ldr.w	r3, [r4, #136]	; 0x88
    29be:	2b00      	cmp	r3, #0
    29c0:	d133      	bne.n	2a2a <AjK::MODSERIAL::isr_tx(bool)+0x9a>
    29c2:	6de2      	ldr	r2, [r4, #92]	; 0x5c
    29c4:	f104 0058 	add.w	r0, r4, #88	; 0x58
    29c8:	6853      	ldr	r3, [r2, #4]
    29ca:	f023 0302 	bic.w	r3, r3, #2
    29ce:	6053      	str	r3, [r2, #4]
    29d0:	f8d4 30d8 	ldr.w	r3, [r4, #216]	; 0xd8
    29d4:	2b00      	cmp	r3, #0
    29d6:	d04b      	beq.n	2a70 <AjK::MODSERIAL::isr_tx(bool)+0xe0>
    29d8:	e8bd 41f0 	ldmia.w	sp!, {r4, r5, r6, r7, r8, lr}
    29dc:	4718      	bx	r3
    29de:	f8d0 30a8 	ldr.w	r3, [r0, #168]	; 0xa8
    29e2:	f100 0158 	add.w	r1, r0, #88	; 0x58
    29e6:	b313      	cbz	r3, 2a2e <AjK::MODSERIAL::isr_tx(bool)+0x9e>
    29e8:	e8bd 41f0 	ldmia.w	sp!, {r4, r5, r6, r7, r8, lr}
    29ec:	4608      	mov	r0, r1
    29ee:	4718      	bx	r3
    29f0:	6fa3      	ldr	r3, [r4, #120]	; 0x78
    29f2:	6ea1      	ldr	r1, [r4, #104]	; 0x68
    29f4:	5ccb      	ldrb	r3, [r1, r3]
    29f6:	b2db      	uxtb	r3, r3
    29f8:	f884 3060 	strb.w	r3, [r4, #96]	; 0x60
    29fc:	7013      	strb	r3, [r2, #0]
    29fe:	f8d4 3088 	ldr.w	r3, [r4, #136]	; 0x88
    2a02:	3b01      	subs	r3, #1
    2a04:	f8c4 3088 	str.w	r3, [r4, #136]	; 0x88
    2a08:	6fa3      	ldr	r3, [r4, #120]	; 0x78
    2a0a:	3301      	adds	r3, #1
    2a0c:	67a3      	str	r3, [r4, #120]	; 0x78
    2a0e:	6fa2      	ldr	r2, [r4, #120]	; 0x78
    2a10:	f8d4 3080 	ldr.w	r3, [r4, #128]	; 0x80
    2a14:	429a      	cmp	r2, r3
    2a16:	db00      	blt.n	2a1a <AjK::MODSERIAL::isr_tx(bool)+0x8a>
    2a18:	67a7      	str	r7, [r4, #120]	; 0x78
    2a1a:	2e00      	cmp	r6, #0
    2a1c:	d0c6      	beq.n	29ac <AjK::MODSERIAL::isr_tx(bool)+0x1c>
    2a1e:	f8d4 30a8 	ldr.w	r3, [r4, #168]	; 0xa8
    2a22:	b1ab      	cbz	r3, 2a50 <AjK::MODSERIAL::isr_tx(bool)+0xc0>
    2a24:	4628      	mov	r0, r5
    2a26:	4798      	blx	r3
    2a28:	e7c0      	b.n	29ac <AjK::MODSERIAL::isr_tx(bool)+0x1c>
    2a2a:	e8bd 81f0 	ldmia.w	sp!, {r4, r5, r6, r7, r8, pc}
    2a2e:	f8d0 30ac 	ldr.w	r3, [r0, #172]	; 0xac
    2a32:	2b00      	cmp	r3, #0
    2a34:	d0f9      	beq.n	2a2a <AjK::MODSERIAL::isr_tx(bool)+0x9a>
    2a36:	f8d0 20b0 	ldr.w	r2, [r0, #176]	; 0xb0
    2a3a:	f8d0 00b4 	ldr.w	r0, [r0, #180]	; 0xb4
    2a3e:	2a00      	cmp	r2, #0
    2a40:	d03a      	beq.n	2ab8 <AjK::MODSERIAL::isr_tx(bool)+0x128>
    2a42:	07c4      	lsls	r4, r0, #31
    2a44:	d427      	bmi.n	2a96 <AjK::MODSERIAL::isr_tx(bool)+0x106>
    2a46:	eb03 0060 	add.w	r0, r3, r0, asr #1
    2a4a:	e8bd 41f0 	ldmia.w	sp!, {r4, r5, r6, r7, r8, lr}
    2a4e:	4710      	bx	r2
    2a50:	f8d4 00ac 	ldr.w	r0, [r4, #172]	; 0xac
    2a54:	2800      	cmp	r0, #0
    2a56:	d0a9      	beq.n	29ac <AjK::MODSERIAL::isr_tx(bool)+0x1c>
    2a58:	f8d4 20b0 	ldr.w	r2, [r4, #176]	; 0xb0
    2a5c:	f8d4 30b4 	ldr.w	r3, [r4, #180]	; 0xb4
    2a60:	b1f2      	cbz	r2, 2aa0 <AjK::MODSERIAL::isr_tx(bool)+0x110>
    2a62:	07d9      	lsls	r1, r3, #31
    2a64:	d41e      	bmi.n	2aa4 <AjK::MODSERIAL::isr_tx(bool)+0x114>
    2a66:	eb00 0063 	add.w	r0, r0, r3, asr #1
    2a6a:	4629      	mov	r1, r5
    2a6c:	4790      	blx	r2
    2a6e:	e79d      	b.n	29ac <AjK::MODSERIAL::isr_tx(bool)+0x1c>
    2a70:	f8d4 30dc 	ldr.w	r3, [r4, #220]	; 0xdc
    2a74:	2b00      	cmp	r3, #0
    2a76:	d0d8      	beq.n	2a2a <AjK::MODSERIAL::isr_tx(bool)+0x9a>
    2a78:	f8d4 50e0 	ldr.w	r5, [r4, #224]	; 0xe0
    2a7c:	f8d4 20e4 	ldr.w	r2, [r4, #228]	; 0xe4
    2a80:	b1f5      	cbz	r5, 2ac0 <AjK::MODSERIAL::isr_tx(bool)+0x130>
    2a82:	07d1      	lsls	r1, r2, #31
    2a84:	d413      	bmi.n	2aae <AjK::MODSERIAL::isr_tx(bool)+0x11e>
    2a86:	eb03 0362 	add.w	r3, r3, r2, asr #1
    2a8a:	4601      	mov	r1, r0
    2a8c:	4618      	mov	r0, r3
    2a8e:	462b      	mov	r3, r5
    2a90:	e8bd 41f0 	ldmia.w	sp!, {r4, r5, r6, r7, r8, lr}
    2a94:	4718      	bx	r3
    2a96:	1040      	asrs	r0, r0, #1
    2a98:	581c      	ldr	r4, [r3, r0]
    2a9a:	4418      	add	r0, r3
    2a9c:	58a2      	ldr	r2, [r4, r2]
    2a9e:	e7d4      	b.n	2a4a <AjK::MODSERIAL::isr_tx(bool)+0xba>
    2aa0:	07d9      	lsls	r1, r3, #31
    2aa2:	d583      	bpl.n	29ac <AjK::MODSERIAL::isr_tx(bool)+0x1c>
    2aa4:	105b      	asrs	r3, r3, #1
    2aa6:	58c1      	ldr	r1, [r0, r3]
    2aa8:	4418      	add	r0, r3
    2aaa:	588a      	ldr	r2, [r1, r2]
    2aac:	e7dd      	b.n	2a6a <AjK::MODSERIAL::isr_tx(bool)+0xda>
    2aae:	1052      	asrs	r2, r2, #1
    2ab0:	5899      	ldr	r1, [r3, r2]
    2ab2:	4413      	add	r3, r2
    2ab4:	594d      	ldr	r5, [r1, r5]
    2ab6:	e7e8      	b.n	2a8a <AjK::MODSERIAL::isr_tx(bool)+0xfa>
    2ab8:	07c5      	lsls	r5, r0, #31
    2aba:	d4ec      	bmi.n	2a96 <AjK::MODSERIAL::isr_tx(bool)+0x106>
    2abc:	e8bd 81f0 	ldmia.w	sp!, {r4, r5, r6, r7, r8, pc}
    2ac0:	07d4      	lsls	r4, r2, #31
    2ac2:	d4f4      	bmi.n	2aae <AjK::MODSERIAL::isr_tx(bool)+0x11e>
    2ac4:	e8bd 81f0 	ldmia.w	sp!, {r4, r5, r6, r7, r8, pc}

00002ac8 <AjK::MODSERIAL::setBase()>:
    2ac8:	6883      	ldr	r3, [r0, #8]
    2aca:	2b03      	cmp	r3, #3
    2acc:	d81b      	bhi.n	2b06 <AjK::MODSERIAL::setBase()+0x3e>
    2ace:	e8df f003 	tbb	[pc, r3]
    2ad2:	0e14      	.short	0x0e14
    2ad4:	0208      	.short	0x0208
    2ad6:	4a0e      	ldr	r2, [pc, #56]	; (2b10 <AjK::MODSERIAL::setBase()+0x48>)
    2ad8:	2308      	movs	r3, #8
    2ada:	65c2      	str	r2, [r0, #92]	; 0x5c
    2adc:	f880 30f8 	strb.w	r3, [r0, #248]	; 0xf8
    2ae0:	4770      	bx	lr
    2ae2:	4a0c      	ldr	r2, [pc, #48]	; (2b14 <AjK::MODSERIAL::setBase()+0x4c>)
    2ae4:	2307      	movs	r3, #7
    2ae6:	65c2      	str	r2, [r0, #92]	; 0x5c
    2ae8:	f880 30f8 	strb.w	r3, [r0, #248]	; 0xf8
    2aec:	4770      	bx	lr
    2aee:	4a0a      	ldr	r2, [pc, #40]	; (2b18 <AjK::MODSERIAL::setBase()+0x50>)
    2af0:	2306      	movs	r3, #6
    2af2:	65c2      	str	r2, [r0, #92]	; 0x5c
    2af4:	f880 30f8 	strb.w	r3, [r0, #248]	; 0xf8
    2af8:	4770      	bx	lr
    2afa:	4a08      	ldr	r2, [pc, #32]	; (2b1c <AjK::MODSERIAL::setBase()+0x54>)
    2afc:	2305      	movs	r3, #5
    2afe:	65c2      	str	r2, [r0, #92]	; 0x5c
    2b00:	f880 30f8 	strb.w	r3, [r0, #248]	; 0xf8
    2b04:	4770      	bx	lr
    2b06:	2300      	movs	r3, #0
    2b08:	65c3      	str	r3, [r0, #92]	; 0x5c
    2b0a:	f880 30f8 	strb.w	r3, [r0, #248]	; 0xf8
    2b0e:	4770      	bx	lr
    2b10:	4009c000 	.word	0x4009c000
    2b14:	40098000 	.word	0x40098000
    2b18:	40010000 	.word	0x40010000
    2b1c:	4000c000 	.word	0x4000c000

00002b20 <AjK::MODSERIAL::initDevice()>:
    2b20:	6dc3      	ldr	r3, [r0, #92]	; 0x5c
    2b22:	2207      	movs	r2, #7
    2b24:	721a      	strb	r2, [r3, #8]
    2b26:	4770      	bx	lr

00002b28 <mbed_die>:
    2b28:	b500      	push	{lr}
    2b2a:	b099      	sub	sp, #100	; 0x64
    2b2c:	b672      	cpsid	i
    2b2e:	4917      	ldr	r1, [pc, #92]	; (2b8c <mbed_die+0x64>)
    2b30:	4668      	mov	r0, sp
    2b32:	f000 f857 	bl	2be4 <gpio_init_out>
    2b36:	a806      	add	r0, sp, #24
    2b38:	4915      	ldr	r1, [pc, #84]	; (2b90 <mbed_die+0x68>)
    2b3a:	f000 f853 	bl	2be4 <gpio_init_out>
    2b3e:	a80c      	add	r0, sp, #48	; 0x30
    2b40:	4914      	ldr	r1, [pc, #80]	; (2b94 <mbed_die+0x6c>)
    2b42:	f000 f84f 	bl	2be4 <gpio_init_out>
    2b46:	a812      	add	r0, sp, #72	; 0x48
    2b48:	4913      	ldr	r1, [pc, #76]	; (2b98 <mbed_die+0x70>)
    2b4a:	f000 f84b 	bl	2be4 <gpio_init_out>
    2b4e:	9a03      	ldr	r2, [sp, #12]
    2b50:	9901      	ldr	r1, [sp, #4]
    2b52:	9b0a      	ldr	r3, [sp, #40]	; 0x28
    2b54:	6011      	str	r1, [r2, #0]
    2b56:	9907      	ldr	r1, [sp, #28]
    2b58:	9a10      	ldr	r2, [sp, #64]	; 0x40
    2b5a:	6019      	str	r1, [r3, #0]
    2b5c:	990d      	ldr	r1, [sp, #52]	; 0x34
    2b5e:	9b15      	ldr	r3, [sp, #84]	; 0x54
    2b60:	6011      	str	r1, [r2, #0]
    2b62:	9a13      	ldr	r2, [sp, #76]	; 0x4c
    2b64:	2096      	movs	r0, #150	; 0x96
    2b66:	601a      	str	r2, [r3, #0]
    2b68:	f000 f926 	bl	2db8 <wait_ms>
    2b6c:	9a04      	ldr	r2, [sp, #16]
    2b6e:	9901      	ldr	r1, [sp, #4]
    2b70:	9b09      	ldr	r3, [sp, #36]	; 0x24
    2b72:	6011      	str	r1, [r2, #0]
    2b74:	9907      	ldr	r1, [sp, #28]
    2b76:	9a0f      	ldr	r2, [sp, #60]	; 0x3c
    2b78:	6019      	str	r1, [r3, #0]
    2b7a:	990d      	ldr	r1, [sp, #52]	; 0x34
    2b7c:	9b16      	ldr	r3, [sp, #88]	; 0x58
    2b7e:	6011      	str	r1, [r2, #0]
    2b80:	9a13      	ldr	r2, [sp, #76]	; 0x4c
    2b82:	2096      	movs	r0, #150	; 0x96
    2b84:	601a      	str	r2, [r3, #0]
    2b86:	f000 f917 	bl	2db8 <wait_ms>
    2b8a:	e7e0      	b.n	2b4e <mbed_die+0x26>
    2b8c:	2009c032 	.word	0x2009c032
    2b90:	2009c034 	.word	0x2009c034
    2b94:	2009c035 	.word	0x2009c035
    2b98:	2009c037 	.word	0x2009c037

00002b9c <error>:
    2b9c:	b40f      	push	{r0, r1, r2, r3}
    2b9e:	b500      	push	{lr}
    2ba0:	4a06      	ldr	r2, [pc, #24]	; (2bbc <error+0x20>)
    2ba2:	b083      	sub	sp, #12
    2ba4:	ab04      	add	r3, sp, #16
    2ba6:	f853 1b04 	ldr.w	r1, [r3], #4
    2baa:	6810      	ldr	r0, [r2, #0]
    2bac:	461a      	mov	r2, r3
    2bae:	68c0      	ldr	r0, [r0, #12]
    2bb0:	9301      	str	r3, [sp, #4]
    2bb2:	f002 ff97 	bl	5ae4 <vfiprintf>
    2bb6:	2001      	movs	r0, #1
    2bb8:	f002 f9fc 	bl	4fb4 <exit>
    2bbc:	10000150 	.word	0x10000150

00002bc0 <gpio_init_in>:
    2bc0:	b538      	push	{r3, r4, r5, lr}
    2bc2:	460d      	mov	r5, r1
    2bc4:	4604      	mov	r4, r0
    2bc6:	f000 f977 	bl	2eb8 <gpio_init>
    2bca:	3501      	adds	r5, #1
    2bcc:	d009      	beq.n	2be2 <gpio_init_in+0x22>
    2bce:	4620      	mov	r0, r4
    2bd0:	2100      	movs	r1, #0
    2bd2:	f000 f993 	bl	2efc <gpio_dir>
    2bd6:	4620      	mov	r0, r4
    2bd8:	e8bd 4038 	ldmia.w	sp!, {r3, r4, r5, lr}
    2bdc:	2103      	movs	r1, #3
    2bde:	f000 b989 	b.w	2ef4 <gpio_mode>
    2be2:	bd38      	pop	{r3, r4, r5, pc}

00002be4 <gpio_init_out>:
    2be4:	b538      	push	{r3, r4, r5, lr}
    2be6:	460d      	mov	r5, r1
    2be8:	4604      	mov	r4, r0
    2bea:	f000 f965 	bl	2eb8 <gpio_init>
    2bee:	3501      	adds	r5, #1
    2bf0:	d00c      	beq.n	2c0c <gpio_init_out+0x28>
    2bf2:	6923      	ldr	r3, [r4, #16]
    2bf4:	6862      	ldr	r2, [r4, #4]
    2bf6:	4620      	mov	r0, r4
    2bf8:	2101      	movs	r1, #1
    2bfa:	601a      	str	r2, [r3, #0]
    2bfc:	f000 f97e 	bl	2efc <gpio_dir>
    2c00:	4620      	mov	r0, r4
    2c02:	e8bd 4038 	ldmia.w	sp!, {r3, r4, r5, lr}
    2c06:	2102      	movs	r1, #2
    2c08:	f000 b974 	b.w	2ef4 <gpio_mode>
    2c0c:	bd38      	pop	{r3, r4, r5, pc}
    2c0e:	bf00      	nop

00002c10 <gpio_init_out_ex>:
    2c10:	b570      	push	{r4, r5, r6, lr}
    2c12:	460d      	mov	r5, r1
    2c14:	4616      	mov	r6, r2
    2c16:	4604      	mov	r4, r0
    2c18:	f000 f94e 	bl	2eb8 <gpio_init>
    2c1c:	3501      	adds	r5, #1
    2c1e:	d011      	beq.n	2c44 <gpio_init_out_ex+0x34>
    2c20:	b966      	cbnz	r6, 2c3c <gpio_init_out_ex+0x2c>
    2c22:	6923      	ldr	r3, [r4, #16]
    2c24:	6862      	ldr	r2, [r4, #4]
    2c26:	601a      	str	r2, [r3, #0]
    2c28:	4620      	mov	r0, r4
    2c2a:	2101      	movs	r1, #1
    2c2c:	f000 f966 	bl	2efc <gpio_dir>
    2c30:	4620      	mov	r0, r4
    2c32:	e8bd 4070 	ldmia.w	sp!, {r4, r5, r6, lr}
    2c36:	2102      	movs	r1, #2
    2c38:	f000 b95c 	b.w	2ef4 <gpio_mode>
    2c3c:	68e3      	ldr	r3, [r4, #12]
    2c3e:	6862      	ldr	r2, [r4, #4]
    2c40:	601a      	str	r2, [r3, #0]
    2c42:	e7f1      	b.n	2c28 <gpio_init_out_ex+0x18>
    2c44:	bd70      	pop	{r4, r5, r6, pc}
    2c46:	bf00      	nop

00002c48 <mbed_interface_connected>:
    2c48:	f000 b86e 	b.w	2d28 <semihost_connected>

00002c4c <pinmap_pinout>:
    2c4c:	1c43      	adds	r3, r0, #1
    2c4e:	d01c      	beq.n	2c8a <pinmap_pinout+0x3e>
    2c50:	680b      	ldr	r3, [r1, #0]
    2c52:	1c5a      	adds	r2, r3, #1
    2c54:	d01a      	beq.n	2c8c <pinmap_pinout+0x40>
    2c56:	4298      	cmp	r0, r3
    2c58:	b510      	push	{r4, lr}
    2c5a:	4604      	mov	r4, r0
    2c5c:	d102      	bne.n	2c64 <pinmap_pinout+0x18>
    2c5e:	e00a      	b.n	2c76 <pinmap_pinout+0x2a>
    2c60:	429c      	cmp	r4, r3
    2c62:	d008      	beq.n	2c76 <pinmap_pinout+0x2a>
    2c64:	f851 3f0c 	ldr.w	r3, [r1, #12]!
    2c68:	1c5a      	adds	r2, r3, #1
    2c6a:	d1f9      	bne.n	2c60 <pinmap_pinout+0x14>
    2c6c:	4809      	ldr	r0, [pc, #36]	; (2c94 <pinmap_pinout+0x48>)
    2c6e:	e8bd 4010 	ldmia.w	sp!, {r4, lr}
    2c72:	f7ff bf93 	b.w	2b9c <error>
    2c76:	4620      	mov	r0, r4
    2c78:	6889      	ldr	r1, [r1, #8]
    2c7a:	f000 f951 	bl	2f20 <pin_function>
    2c7e:	4620      	mov	r0, r4
    2c80:	e8bd 4010 	ldmia.w	sp!, {r4, lr}
    2c84:	2102      	movs	r1, #2
    2c86:	f000 b967 	b.w	2f58 <pin_mode>
    2c8a:	4770      	bx	lr
    2c8c:	4801      	ldr	r0, [pc, #4]	; (2c94 <pinmap_pinout+0x48>)
    2c8e:	f7ff bf85 	b.w	2b9c <error>
    2c92:	bf00      	nop
    2c94:	00007330 	.word	0x00007330

00002c98 <pinmap_merge>:
    2c98:	4288      	cmp	r0, r1
    2c9a:	d00a      	beq.n	2cb2 <pinmap_merge+0x1a>
    2c9c:	1c42      	adds	r2, r0, #1
    2c9e:	d009      	beq.n	2cb4 <pinmap_merge+0x1c>
    2ca0:	3101      	adds	r1, #1
    2ca2:	d006      	beq.n	2cb2 <pinmap_merge+0x1a>
    2ca4:	b508      	push	{r3, lr}
    2ca6:	4804      	ldr	r0, [pc, #16]	; (2cb8 <pinmap_merge+0x20>)
    2ca8:	f7ff ff78 	bl	2b9c <error>
    2cac:	f04f 30ff 	mov.w	r0, #4294967295
    2cb0:	bd08      	pop	{r3, pc}
    2cb2:	4770      	bx	lr
    2cb4:	4608      	mov	r0, r1
    2cb6:	4770      	bx	lr
    2cb8:	00007344 	.word	0x00007344

00002cbc <pinmap_find_peripheral>:
    2cbc:	680b      	ldr	r3, [r1, #0]
    2cbe:	1c5a      	adds	r2, r3, #1
    2cc0:	d008      	beq.n	2cd4 <pinmap_find_peripheral+0x18>
    2cc2:	4298      	cmp	r0, r3
    2cc4:	d102      	bne.n	2ccc <pinmap_find_peripheral+0x10>
    2cc6:	e007      	b.n	2cd8 <pinmap_find_peripheral+0x1c>
    2cc8:	4283      	cmp	r3, r0
    2cca:	d005      	beq.n	2cd8 <pinmap_find_peripheral+0x1c>
    2ccc:	f851 3f0c 	ldr.w	r3, [r1, #12]!
    2cd0:	1c5a      	adds	r2, r3, #1
    2cd2:	d1f9      	bne.n	2cc8 <pinmap_find_peripheral+0xc>
    2cd4:	4618      	mov	r0, r3
    2cd6:	4770      	bx	lr
    2cd8:	6848      	ldr	r0, [r1, #4]
    2cda:	4770      	bx	lr

00002cdc <pinmap_peripheral>:
    2cdc:	1c42      	adds	r2, r0, #1
    2cde:	d00e      	beq.n	2cfe <pinmap_peripheral+0x22>
    2ce0:	b508      	push	{r3, lr}
    2ce2:	680b      	ldr	r3, [r1, #0]
    2ce4:	1c5a      	adds	r2, r3, #1
    2ce6:	d104      	bne.n	2cf2 <pinmap_peripheral+0x16>
    2ce8:	e00a      	b.n	2d00 <pinmap_peripheral+0x24>
    2cea:	f851 3f0c 	ldr.w	r3, [r1, #12]!
    2cee:	1c5a      	adds	r2, r3, #1
    2cf0:	d006      	beq.n	2d00 <pinmap_peripheral+0x24>
    2cf2:	4298      	cmp	r0, r3
    2cf4:	d1f9      	bne.n	2cea <pinmap_peripheral+0xe>
    2cf6:	6848      	ldr	r0, [r1, #4]
    2cf8:	1c41      	adds	r1, r0, #1
    2cfa:	d001      	beq.n	2d00 <pinmap_peripheral+0x24>
    2cfc:	bd08      	pop	{r3, pc}
    2cfe:	4770      	bx	lr
    2d00:	4802      	ldr	r0, [pc, #8]	; (2d0c <pinmap_peripheral+0x30>)
    2d02:	f7ff ff4b 	bl	2b9c <error>
    2d06:	f04f 30ff 	mov.w	r0, #4294967295
    2d0a:	bd08      	pop	{r3, pc}
    2d0c:	00007358 	.word	0x00007358

00002d10 <semihost_exit>:
    2d10:	b530      	push	{r4, r5, lr}
    2d12:	b085      	sub	sp, #20
    2d14:	2418      	movs	r4, #24
    2d16:	466d      	mov	r5, sp
    2d18:	4620      	mov	r0, r4
    2d1a:	4629      	mov	r1, r5
    2d1c:	beab      	bkpt	0x00ab
    2d1e:	4604      	mov	r4, r0
    2d20:	4620      	mov	r0, r4
    2d22:	b005      	add	sp, #20
    2d24:	bd30      	pop	{r4, r5, pc}
    2d26:	bf00      	nop

00002d28 <semihost_connected>:
    2d28:	4b02      	ldr	r3, [pc, #8]	; (2d34 <semihost_connected+0xc>)
    2d2a:	6818      	ldr	r0, [r3, #0]
    2d2c:	f000 0001 	and.w	r0, r0, #1
    2d30:	4770      	bx	lr
    2d32:	bf00      	nop
    2d34:	e000edf0 	.word	0xe000edf0

00002d38 <ticker_irq_handler>:
    2d38:	6803      	ldr	r3, [r0, #0]
    2d3a:	b570      	push	{r4, r5, r6, lr}
    2d3c:	68db      	ldr	r3, [r3, #12]
    2d3e:	4605      	mov	r5, r0
    2d40:	4798      	blx	r3
    2d42:	686b      	ldr	r3, [r5, #4]
    2d44:	685b      	ldr	r3, [r3, #4]
    2d46:	b183      	cbz	r3, 2d6a <ticker_irq_handler+0x32>
    2d48:	682a      	ldr	r2, [r5, #0]
    2d4a:	681c      	ldr	r4, [r3, #0]
    2d4c:	6853      	ldr	r3, [r2, #4]
    2d4e:	4798      	blx	r3
    2d50:	1a20      	subs	r0, r4, r0
    2d52:	2800      	cmp	r0, #0
    2d54:	686a      	ldr	r2, [r5, #4]
    2d56:	dc0d      	bgt.n	2d74 <ticker_irq_handler+0x3c>
    2d58:	6850      	ldr	r0, [r2, #4]
    2d5a:	6811      	ldr	r1, [r2, #0]
    2d5c:	6883      	ldr	r3, [r0, #8]
    2d5e:	6053      	str	r3, [r2, #4]
    2d60:	2900      	cmp	r1, #0
    2d62:	d0f0      	beq.n	2d46 <ticker_irq_handler+0xe>
    2d64:	6840      	ldr	r0, [r0, #4]
    2d66:	4788      	blx	r1
    2d68:	e7eb      	b.n	2d42 <ticker_irq_handler+0xa>
    2d6a:	682b      	ldr	r3, [r5, #0]
    2d6c:	e8bd 4070 	ldmia.w	sp!, {r4, r5, r6, lr}
    2d70:	689b      	ldr	r3, [r3, #8]
    2d72:	4718      	bx	r3
    2d74:	682b      	ldr	r3, [r5, #0]
    2d76:	6852      	ldr	r2, [r2, #4]
    2d78:	691b      	ldr	r3, [r3, #16]
    2d7a:	6810      	ldr	r0, [r2, #0]
    2d7c:	e8bd 4070 	ldmia.w	sp!, {r4, r5, r6, lr}
    2d80:	4718      	bx	r3
    2d82:	bf00      	nop

00002d84 <ticker_read>:
    2d84:	6803      	ldr	r3, [r0, #0]
    2d86:	685b      	ldr	r3, [r3, #4]
    2d88:	4718      	bx	r3
    2d8a:	bf00      	nop

00002d8c <get_us_ticker_data>:
    2d8c:	4800      	ldr	r0, [pc, #0]	; (2d90 <get_us_ticker_data+0x4>)
    2d8e:	4770      	bx	lr
    2d90:	000073ac 	.word	0x000073ac

00002d94 <us_ticker_irq_handler>:
    2d94:	4801      	ldr	r0, [pc, #4]	; (2d9c <us_ticker_irq_handler+0x8>)
    2d96:	f7ff bfcf 	b.w	2d38 <ticker_irq_handler>
    2d9a:	bf00      	nop
    2d9c:	000073ac 	.word	0x000073ac

00002da0 <wait_us>:
    2da0:	b538      	push	{r3, r4, r5, lr}
    2da2:	4605      	mov	r5, r0
    2da4:	f000 fdd2 	bl	394c <us_ticker_read>
    2da8:	4604      	mov	r4, r0
    2daa:	f000 fdcf 	bl	394c <us_ticker_read>
    2dae:	1b00      	subs	r0, r0, r4
    2db0:	42a8      	cmp	r0, r5
    2db2:	d3fa      	bcc.n	2daa <wait_us+0xa>
    2db4:	bd38      	pop	{r3, r4, r5, pc}
    2db6:	bf00      	nop

00002db8 <wait_ms>:
    2db8:	f44f 737a 	mov.w	r3, #1000	; 0x3e8
    2dbc:	fb03 f000 	mul.w	r0, r3, r0
    2dc0:	f7ff bfee 	b.w	2da0 <wait_us>

00002dc4 <NVIC_SetVector>:
    2dc4:	4b0c      	ldr	r3, [pc, #48]	; (2df8 <NVIC_SetVector+0x34>)
    2dc6:	b430      	push	{r4, r5}
    2dc8:	689d      	ldr	r5, [r3, #8]
    2dca:	689a      	ldr	r2, [r3, #8]
    2dcc:	462b      	mov	r3, r5
    2dce:	f1b2 5f80 	cmp.w	r2, #268435456	; 0x10000000
    2dd2:	d20c      	bcs.n	2dee <NVIC_SetVector+0x2a>
    2dd4:	4a09      	ldr	r2, [pc, #36]	; (2dfc <NVIC_SetVector+0x38>)
    2dd6:	35c4      	adds	r5, #196	; 0xc4
    2dd8:	f853 4b04 	ldr.w	r4, [r3], #4
    2ddc:	42ab      	cmp	r3, r5
    2dde:	f842 4f04 	str.w	r4, [r2, #4]!
    2de2:	d1f9      	bne.n	2dd8 <NVIC_SetVector+0x14>
    2de4:	f04f 5280 	mov.w	r2, #268435456	; 0x10000000
    2de8:	4613      	mov	r3, r2
    2dea:	4c03      	ldr	r4, [pc, #12]	; (2df8 <NVIC_SetVector+0x34>)
    2dec:	60a2      	str	r2, [r4, #8]
    2dee:	3010      	adds	r0, #16
    2df0:	f843 1020 	str.w	r1, [r3, r0, lsl #2]
    2df4:	bc30      	pop	{r4, r5}
    2df6:	4770      	bx	lr
    2df8:	e000ed00 	.word	0xe000ed00
    2dfc:	0ffffffc 	.word	0x0ffffffc

00002e00 <SystemInit>:
    2e00:	4a2b      	ldr	r2, [pc, #172]	; (2eb0 <SystemInit+0xb0>)
    2e02:	2320      	movs	r3, #32
    2e04:	b4f0      	push	{r4, r5, r6, r7}
    2e06:	f8c2 31a0 	str.w	r3, [r2, #416]	; 0x1a0
    2e0a:	f8d2 31a0 	ldr.w	r3, [r2, #416]	; 0x1a0
    2e0e:	0698      	lsls	r0, r3, #26
    2e10:	d445      	bmi.n	2e9e <SystemInit+0x9e>
    2e12:	4b27      	ldr	r3, [pc, #156]	; (2eb0 <SystemInit+0xb0>)
    2e14:	2500      	movs	r5, #0
    2e16:	4619      	mov	r1, r3
    2e18:	2401      	movs	r4, #1
    2e1a:	20aa      	movs	r0, #170	; 0xaa
    2e1c:	2255      	movs	r2, #85	; 0x55
    2e1e:	2702      	movs	r7, #2
    2e20:	260b      	movs	r6, #11
    2e22:	f8c3 7104 	str.w	r7, [r3, #260]	; 0x104
    2e26:	f8c3 51a8 	str.w	r5, [r3, #424]	; 0x1a8
    2e2a:	f8c3 51ac 	str.w	r5, [r3, #428]	; 0x1ac
    2e2e:	f8c3 410c 	str.w	r4, [r3, #268]	; 0x10c
    2e32:	f8c3 6084 	str.w	r6, [r3, #132]	; 0x84
    2e36:	f8c3 008c 	str.w	r0, [r3, #140]	; 0x8c
    2e3a:	f8c3 208c 	str.w	r2, [r3, #140]	; 0x8c
    2e3e:	f8c3 4080 	str.w	r4, [r3, #128]	; 0x80
    2e42:	f8c3 008c 	str.w	r0, [r3, #140]	; 0x8c
    2e46:	f8c3 208c 	str.w	r2, [r3, #140]	; 0x8c
    2e4a:	f8d1 3088 	ldr.w	r3, [r1, #136]	; 0x88
    2e4e:	4a18      	ldr	r2, [pc, #96]	; (2eb0 <SystemInit+0xb0>)
    2e50:	015b      	lsls	r3, r3, #5
    2e52:	d5fa      	bpl.n	2e4a <SystemInit+0x4a>
    2e54:	4611      	mov	r1, r2
    2e56:	2403      	movs	r4, #3
    2e58:	20aa      	movs	r0, #170	; 0xaa
    2e5a:	2355      	movs	r3, #85	; 0x55
    2e5c:	f8c2 4080 	str.w	r4, [r2, #128]	; 0x80
    2e60:	f8c2 008c 	str.w	r0, [r2, #140]	; 0x8c
    2e64:	f8c2 308c 	str.w	r3, [r2, #140]	; 0x8c
    2e68:	f8d1 3088 	ldr.w	r3, [r1, #136]	; 0x88
    2e6c:	4a10      	ldr	r2, [pc, #64]	; (2eb0 <SystemInit+0xb0>)
    2e6e:	f013 7f40 	tst.w	r3, #50331648	; 0x3000000
    2e72:	d0f9      	beq.n	2e68 <SystemInit+0x68>
    2e74:	490f      	ldr	r1, [pc, #60]	; (2eb4 <SystemInit+0xb4>)
    2e76:	2300      	movs	r3, #0
    2e78:	2005      	movs	r0, #5
    2e7a:	f8c2 0108 	str.w	r0, [r2, #264]	; 0x108
    2e7e:	f8c2 10c4 	str.w	r1, [r2, #196]	; 0xc4
    2e82:	f8c2 31c8 	str.w	r3, [r2, #456]	; 0x1c8
    2e86:	6813      	ldr	r3, [r2, #0]
    2e88:	bcf0      	pop	{r4, r5, r6, r7}
    2e8a:	f423 4370 	bic.w	r3, r3, #61440	; 0xf000
    2e8e:	f023 033a 	bic.w	r3, r3, #58	; 0x3a
    2e92:	f443 5340 	orr.w	r3, r3, #12288	; 0x3000
    2e96:	f043 033a 	orr.w	r3, r3, #58	; 0x3a
    2e9a:	6013      	str	r3, [r2, #0]
    2e9c:	4770      	bx	lr
    2e9e:	f8d2 31a0 	ldr.w	r3, [r2, #416]	; 0x1a0
    2ea2:	0659      	lsls	r1, r3, #25
    2ea4:	d4b5      	bmi.n	2e12 <SystemInit+0x12>
    2ea6:	f8d2 31a0 	ldr.w	r3, [r2, #416]	; 0x1a0
    2eaa:	0659      	lsls	r1, r3, #25
    2eac:	d5f7      	bpl.n	2e9e <SystemInit+0x9e>
    2eae:	e7b0      	b.n	2e12 <SystemInit+0x12>
    2eb0:	400fc000 	.word	0x400fc000
    2eb4:	042887de 	.word	0x042887de

00002eb8 <gpio_init>:
    2eb8:	1c4a      	adds	r2, r1, #1
    2eba:	6001      	str	r1, [r0, #0]
    2ebc:	d018      	beq.n	2ef0 <gpio_init+0x38>
    2ebe:	b538      	push	{r3, r4, r5, lr}
    2ec0:	460c      	mov	r4, r1
    2ec2:	4605      	mov	r5, r0
    2ec4:	2100      	movs	r1, #0
    2ec6:	4620      	mov	r0, r4
    2ec8:	f000 f82a 	bl	2f20 <pin_function>
    2ecc:	f024 011f 	bic.w	r1, r4, #31
    2ed0:	f004 021f 	and.w	r2, r4, #31
    2ed4:	2301      	movs	r3, #1
    2ed6:	4093      	lsls	r3, r2
    2ed8:	f101 0418 	add.w	r4, r1, #24
    2edc:	f101 001c 	add.w	r0, r1, #28
    2ee0:	f101 0214 	add.w	r2, r1, #20
    2ee4:	60a9      	str	r1, [r5, #8]
    2ee6:	606b      	str	r3, [r5, #4]
    2ee8:	60ec      	str	r4, [r5, #12]
    2eea:	6128      	str	r0, [r5, #16]
    2eec:	616a      	str	r2, [r5, #20]
    2eee:	bd38      	pop	{r3, r4, r5, pc}
    2ef0:	4770      	bx	lr
    2ef2:	bf00      	nop

00002ef4 <gpio_mode>:
    2ef4:	6800      	ldr	r0, [r0, #0]
    2ef6:	f000 b82f 	b.w	2f58 <pin_mode>
    2efa:	bf00      	nop

00002efc <gpio_dir>:
    2efc:	b141      	cbz	r1, 2f10 <gpio_dir+0x14>
    2efe:	2901      	cmp	r1, #1
    2f00:	d105      	bne.n	2f0e <gpio_dir+0x12>
    2f02:	6882      	ldr	r2, [r0, #8]
    2f04:	6843      	ldr	r3, [r0, #4]
    2f06:	6811      	ldr	r1, [r2, #0]
    2f08:	430b      	orrs	r3, r1
    2f0a:	6013      	str	r3, [r2, #0]
    2f0c:	4770      	bx	lr
    2f0e:	4770      	bx	lr
    2f10:	6882      	ldr	r2, [r0, #8]
    2f12:	6841      	ldr	r1, [r0, #4]
    2f14:	6813      	ldr	r3, [r2, #0]
    2f16:	ea23 0301 	bic.w	r3, r3, r1
    2f1a:	6013      	str	r3, [r2, #0]
    2f1c:	4770      	bx	lr
    2f1e:	bf00      	nop

00002f20 <pin_function>:
    2f20:	f100 4060 	add.w	r0, r0, #3758096384	; 0xe0000000
    2f24:	f5a0 201c 	sub.w	r0, r0, #638976	; 0x9c000
    2f28:	0903      	lsrs	r3, r0, #4
    2f2a:	009b      	lsls	r3, r3, #2
    2f2c:	f103 4380 	add.w	r3, r3, #1073741824	; 0x40000000
    2f30:	f503 3330 	add.w	r3, r3, #180224	; 0x2c000
    2f34:	0040      	lsls	r0, r0, #1
    2f36:	b410      	push	{r4}
    2f38:	f000 001e 	and.w	r0, r0, #30
    2f3c:	681c      	ldr	r4, [r3, #0]
    2f3e:	2203      	movs	r2, #3
    2f40:	4082      	lsls	r2, r0
    2f42:	ea24 0202 	bic.w	r2, r4, r2
    2f46:	601a      	str	r2, [r3, #0]
    2f48:	681a      	ldr	r2, [r3, #0]
    2f4a:	4081      	lsls	r1, r0
    2f4c:	ea41 0002 	orr.w	r0, r1, r2
    2f50:	6018      	str	r0, [r3, #0]
    2f52:	bc10      	pop	{r4}
    2f54:	4770      	bx	lr
    2f56:	bf00      	nop

00002f58 <pin_mode>:
    2f58:	f100 4060 	add.w	r0, r0, #3758096384	; 0xe0000000
    2f5c:	f5a0 201c 	sub.w	r0, r0, #638976	; 0x9c000
    2f60:	0943      	lsrs	r3, r0, #5
    2f62:	009b      	lsls	r3, r3, #2
    2f64:	f103 4380 	add.w	r3, r3, #1073741824	; 0x40000000
    2f68:	f503 3330 	add.w	r3, r3, #180224	; 0x2c000
    2f6c:	b430      	push	{r4, r5}
    2f6e:	f000 021f 	and.w	r2, r0, #31
    2f72:	6e9c      	ldr	r4, [r3, #104]	; 0x68
    2f74:	f3c1 0580 	ubfx	r5, r1, #2, #1
    2f78:	fa05 f202 	lsl.w	r2, r5, r2
    2f7c:	ea24 0402 	bic.w	r4, r4, r2
    2f80:	669c      	str	r4, [r3, #104]	; 0x68
    2f82:	6e9c      	ldr	r4, [r3, #104]	; 0x68
    2f84:	4322      	orrs	r2, r4
    2f86:	669a      	str	r2, [r3, #104]	; 0x68
    2f88:	b99d      	cbnz	r5, 2fb2 <pin_mode+0x5a>
    2f8a:	0903      	lsrs	r3, r0, #4
    2f8c:	009b      	lsls	r3, r3, #2
    2f8e:	f103 4380 	add.w	r3, r3, #1073741824	; 0x40000000
    2f92:	f503 3330 	add.w	r3, r3, #180224	; 0x2c000
    2f96:	0040      	lsls	r0, r0, #1
    2f98:	6c1c      	ldr	r4, [r3, #64]	; 0x40
    2f9a:	f000 001e 	and.w	r0, r0, #30
    2f9e:	2203      	movs	r2, #3
    2fa0:	4082      	lsls	r2, r0
    2fa2:	ea24 0202 	bic.w	r2, r4, r2
    2fa6:	641a      	str	r2, [r3, #64]	; 0x40
    2fa8:	6c1a      	ldr	r2, [r3, #64]	; 0x40
    2faa:	fa01 f000 	lsl.w	r0, r1, r0
    2fae:	4310      	orrs	r0, r2
    2fb0:	6418      	str	r0, [r3, #64]	; 0x40
    2fb2:	bc30      	pop	{r4, r5}
    2fb4:	4770      	bx	lr
    2fb6:	bf00      	nop

00002fb8 <pwmout_init>:
    2fb8:	b5f8      	push	{r3, r4, r5, r6, r7, lr}
    2fba:	460d      	mov	r5, r1
    2fbc:	4604      	mov	r4, r0
    2fbe:	492f      	ldr	r1, [pc, #188]	; (307c <pwmout_init+0xc4>)
    2fc0:	4628      	mov	r0, r5
    2fc2:	f7ff fe8b 	bl	2cdc <pinmap_peripheral>
    2fc6:	f644 6120 	movw	r1, #20000	; 0x4e20
    2fca:	4a2d      	ldr	r2, [pc, #180]	; (3080 <pwmout_init+0xc8>)
    2fcc:	4f2d      	ldr	r7, [pc, #180]	; (3084 <pwmout_init+0xcc>)
    2fce:	f8d2 30c4 	ldr.w	r3, [r2, #196]	; 0xc4
    2fd2:	b2c6      	uxtb	r6, r0
    2fd4:	f857 7026 	ldr.w	r7, [r7, r6, lsl #2]
    2fd8:	f043 0340 	orr.w	r3, r3, #64	; 0x40
    2fdc:	7120      	strb	r0, [r4, #4]
    2fde:	6027      	str	r7, [r4, #0]
    2fe0:	f8c2 30c4 	str.w	r3, [r2, #196]	; 0xc4
    2fe4:	f8d2 01a8 	ldr.w	r0, [r2, #424]	; 0x1a8
    2fe8:	4b27      	ldr	r3, [pc, #156]	; (3088 <pwmout_init+0xd0>)
    2fea:	f420 5040 	bic.w	r0, r0, #12288	; 0x3000
    2fee:	f04f 0e00 	mov.w	lr, #0
    2ff2:	2402      	movs	r4, #2
    2ff4:	f8c2 01a8 	str.w	r0, [r2, #424]	; 0x1a8
    2ff8:	f8c3 e00c 	str.w	lr, [r3, #12]
    2ffc:	615c      	str	r4, [r3, #20]
    2ffe:	6cd8      	ldr	r0, [r3, #76]	; 0x4c
    3000:	f106 0e08 	add.w	lr, r6, #8
    3004:	2201      	movs	r2, #1
    3006:	fa02 f20e 	lsl.w	r2, r2, lr
    300a:	4302      	orrs	r2, r0
    300c:	481f      	ldr	r0, [pc, #124]	; (308c <pwmout_init+0xd4>)
    300e:	64da      	str	r2, [r3, #76]	; 0x4c
    3010:	6802      	ldr	r2, [r0, #0]
    3012:	f8df e080 	ldr.w	lr, [pc, #128]	; 3094 <pwmout_init+0xdc>
    3016:	481e      	ldr	r0, [pc, #120]	; (3090 <pwmout_init+0xd8>)
    3018:	fbae e202 	umull	lr, r2, lr, r2
    301c:	0d12      	lsrs	r2, r2, #20
    301e:	fb01 f102 	mul.w	r1, r1, r2
    3022:	6002      	str	r2, [r0, #0]
    3024:	605c      	str	r4, [r3, #4]
    3026:	6199      	str	r1, [r3, #24]
    3028:	699a      	ldr	r2, [r3, #24]
    302a:	b132      	cbz	r2, 303a <pwmout_init+0x82>
    302c:	683a      	ldr	r2, [r7, #0]
    302e:	699b      	ldr	r3, [r3, #24]
    3030:	fb02 f101 	mul.w	r1, r2, r1
    3034:	fbb1 f1f3 	udiv	r1, r1, r3
    3038:	6039      	str	r1, [r7, #0]
    303a:	4c13      	ldr	r4, [pc, #76]	; (3088 <pwmout_init+0xd0>)
    303c:	2209      	movs	r2, #9
    303e:	6d23      	ldr	r3, [r4, #80]	; 0x50
    3040:	f043 0301 	orr.w	r3, r3, #1
    3044:	6523      	str	r3, [r4, #80]	; 0x50
    3046:	6062      	str	r2, [r4, #4]
    3048:	69a0      	ldr	r0, [r4, #24]
    304a:	f001 fd61 	bl	4b10 <__aeabi_ui2f>
    304e:	2100      	movs	r1, #0
    3050:	f001 fdb6 	bl	4bc0 <__aeabi_fmul>
    3054:	f001 ff7a 	bl	4f4c <__aeabi_f2uiz>
    3058:	69a3      	ldr	r3, [r4, #24]
    305a:	490b      	ldr	r1, [pc, #44]	; (3088 <pwmout_init+0xd0>)
    305c:	4298      	cmp	r0, r3
    305e:	bf08      	it	eq
    3060:	3001      	addeq	r0, #1
    3062:	6038      	str	r0, [r7, #0]
    3064:	6d0b      	ldr	r3, [r1, #80]	; 0x50
    3066:	2201      	movs	r2, #1
    3068:	fa02 f606 	lsl.w	r6, r2, r6
    306c:	431e      	orrs	r6, r3
    306e:	650e      	str	r6, [r1, #80]	; 0x50
    3070:	4628      	mov	r0, r5
    3072:	e8bd 40f8 	ldmia.w	sp!, {r3, r4, r5, r6, r7, lr}
    3076:	4901      	ldr	r1, [pc, #4]	; (307c <pwmout_init+0xc4>)
    3078:	f7ff bde8 	b.w	2c4c <pinmap_pinout>
    307c:	000073b4 	.word	0x000073b4
    3080:	400fc000 	.word	0x400fc000
    3084:	100000d0 	.word	0x100000d0
    3088:	40018000 	.word	0x40018000
    308c:	100000cc 	.word	0x100000cc
    3090:	10000810 	.word	0x10000810
    3094:	431bde83 	.word	0x431bde83

00003098 <pwmout_write>:
    3098:	b570      	push	{r4, r5, r6, lr}
    309a:	460c      	mov	r4, r1
    309c:	4605      	mov	r5, r0
    309e:	2100      	movs	r1, #0
    30a0:	4620      	mov	r0, r4
    30a2:	f001 ff2b 	bl	4efc <__aeabi_fcmplt>
    30a6:	b9f0      	cbnz	r0, 30e6 <pwmout_write+0x4e>
    30a8:	f04f 517e 	mov.w	r1, #1065353216	; 0x3f800000
    30ac:	4620      	mov	r0, r4
    30ae:	f001 ff43 	bl	4f38 <__aeabi_fcmpgt>
    30b2:	b108      	cbz	r0, 30b8 <pwmout_write+0x20>
    30b4:	f04f 547e 	mov.w	r4, #1065353216	; 0x3f800000
    30b8:	4e0c      	ldr	r6, [pc, #48]	; (30ec <pwmout_write+0x54>)
    30ba:	69b0      	ldr	r0, [r6, #24]
    30bc:	f001 fd28 	bl	4b10 <__aeabi_ui2f>
    30c0:	4621      	mov	r1, r4
    30c2:	f001 fd7d 	bl	4bc0 <__aeabi_fmul>
    30c6:	f001 ff41 	bl	4f4c <__aeabi_f2uiz>
    30ca:	69b3      	ldr	r3, [r6, #24]
    30cc:	4907      	ldr	r1, [pc, #28]	; (30ec <pwmout_write+0x54>)
    30ce:	4298      	cmp	r0, r3
    30d0:	682b      	ldr	r3, [r5, #0]
    30d2:	bf08      	it	eq
    30d4:	3001      	addeq	r0, #1
    30d6:	6018      	str	r0, [r3, #0]
    30d8:	7928      	ldrb	r0, [r5, #4]
    30da:	6d0a      	ldr	r2, [r1, #80]	; 0x50
    30dc:	2301      	movs	r3, #1
    30de:	4083      	lsls	r3, r0
    30e0:	4313      	orrs	r3, r2
    30e2:	650b      	str	r3, [r1, #80]	; 0x50
    30e4:	bd70      	pop	{r4, r5, r6, pc}
    30e6:	2400      	movs	r4, #0
    30e8:	e7e6      	b.n	30b8 <pwmout_write+0x20>
    30ea:	bf00      	nop
    30ec:	40018000 	.word	0x40018000

000030f0 <uart2_irq>:
    30f0:	4b15      	ldr	r3, [pc, #84]	; (3148 <uart2_irq+0x58>)
    30f2:	6899      	ldr	r1, [r3, #8]
    30f4:	f3c1 0142 	ubfx	r1, r1, #1, #3
    30f8:	2901      	cmp	r1, #1
    30fa:	d018      	beq.n	312e <uart2_irq+0x3e>
    30fc:	2902      	cmp	r1, #2
    30fe:	d114      	bne.n	312a <uart2_irq+0x3a>
    3100:	4a12      	ldr	r2, [pc, #72]	; (314c <uart2_irq+0x5c>)
    3102:	6f51      	ldr	r1, [r2, #116]	; 0x74
    3104:	3101      	adds	r1, #1
    3106:	d006      	beq.n	3116 <uart2_irq+0x26>
    3108:	f8d2 1080 	ldr.w	r1, [r2, #128]	; 0x80
    310c:	6f90      	ldr	r0, [r2, #120]	; 0x78
    310e:	6008      	str	r0, [r1, #0]
    3110:	f892 10a6 	ldrb.w	r1, [r2, #166]	; 0xa6
    3114:	b189      	cbz	r1, 313a <uart2_irq+0x4a>
    3116:	6f10      	ldr	r0, [r2, #112]	; 0x70
    3118:	4b0c      	ldr	r3, [pc, #48]	; (314c <uart2_irq+0x5c>)
    311a:	b138      	cbz	r0, 312c <uart2_irq+0x3c>
    311c:	f893 30a6 	ldrb.w	r3, [r3, #166]	; 0xa6
    3120:	b123      	cbz	r3, 312c <uart2_irq+0x3c>
    3122:	4b0b      	ldr	r3, [pc, #44]	; (3150 <uart2_irq+0x60>)
    3124:	2100      	movs	r1, #0
    3126:	681b      	ldr	r3, [r3, #0]
    3128:	4718      	bx	r3
    312a:	4770      	bx	lr
    312c:	4770      	bx	lr
    312e:	4b07      	ldr	r3, [pc, #28]	; (314c <uart2_irq+0x5c>)
    3130:	6f18      	ldr	r0, [r3, #112]	; 0x70
    3132:	b138      	cbz	r0, 3144 <uart2_irq+0x54>
    3134:	4b06      	ldr	r3, [pc, #24]	; (3150 <uart2_irq+0x60>)
    3136:	681b      	ldr	r3, [r3, #0]
    3138:	4718      	bx	r3
    313a:	6859      	ldr	r1, [r3, #4]
    313c:	f021 0101 	bic.w	r1, r1, #1
    3140:	6059      	str	r1, [r3, #4]
    3142:	e7e8      	b.n	3116 <uart2_irq+0x26>
    3144:	4770      	bx	lr
    3146:	bf00      	nop
    3148:	40098000 	.word	0x40098000
    314c:	1000081c 	.word	0x1000081c
    3150:	10000818 	.word	0x10000818

00003154 <serial_irq_set_internal>:
    3154:	b5f8      	push	{r3, r4, r5, r6, r7, lr}
    3156:	4c29      	ldr	r4, [pc, #164]	; (31fc <serial_irq_set_internal+0xa8>)
    3158:	6803      	ldr	r3, [r0, #0]
    315a:	42a3      	cmp	r3, r4
    315c:	d047      	beq.n	31ee <serial_irq_set_internal+0x9a>
    315e:	dd3f      	ble.n	31e0 <serial_irq_set_internal+0x8c>
    3160:	4c27      	ldr	r4, [pc, #156]	; (3200 <serial_irq_set_internal+0xac>)
    3162:	42a3      	cmp	r3, r4
    3164:	d029      	beq.n	31ba <serial_irq_set_internal+0x66>
    3166:	f504 4480 	add.w	r4, r4, #16384	; 0x4000
    316a:	42a3      	cmp	r3, r4
    316c:	d142      	bne.n	31f4 <serial_irq_set_internal+0xa0>
    316e:	4d25      	ldr	r5, [pc, #148]	; (3204 <serial_irq_set_internal+0xb0>)
    3170:	2608      	movs	r6, #8
    3172:	bb32      	cbnz	r2, 31c2 <serial_irq_set_internal+0x6e>
    3174:	2901      	cmp	r1, #1
    3176:	d00b      	beq.n	3190 <serial_irq_set_internal+0x3c>
    3178:	6842      	ldr	r2, [r0, #4]
    317a:	4c23      	ldr	r4, [pc, #140]	; (3208 <serial_irq_set_internal+0xb4>)
    317c:	ebc2 02c2 	rsb	r2, r2, r2, lsl #3
    3180:	eb04 02c2 	add.w	r2, r4, r2, lsl #3
    3184:	f892 4036 	ldrb.w	r4, [r2, #54]	; 0x36
    3188:	f892 2035 	ldrb.w	r2, [r2, #53]	; 0x35
    318c:	42d4      	cmn	r4, r2
    318e:	d113      	bne.n	31b8 <serial_irq_set_internal+0x64>
    3190:	fab1 f281 	clz	r2, r1
    3194:	685d      	ldr	r5, [r3, #4]
    3196:	2401      	movs	r4, #1
    3198:	fa04 f101 	lsl.w	r1, r4, r1
    319c:	ea25 0101 	bic.w	r1, r5, r1
    31a0:	6059      	str	r1, [r3, #4]
    31a2:	6803      	ldr	r3, [r0, #0]
    31a4:	0952      	lsrs	r2, r2, #5
    31a6:	685b      	ldr	r3, [r3, #4]
    31a8:	fa04 f202 	lsl.w	r2, r4, r2
    31ac:	421a      	tst	r2, r3
    31ae:	d103      	bne.n	31b8 <serial_irq_set_internal+0x64>
    31b0:	4b16      	ldr	r3, [pc, #88]	; (320c <serial_irq_set_internal+0xb8>)
    31b2:	40b4      	lsls	r4, r6
    31b4:	f8c3 4080 	str.w	r4, [r3, #128]	; 0x80
    31b8:	bdf8      	pop	{r3, r4, r5, r6, r7, pc}
    31ba:	4d15      	ldr	r5, [pc, #84]	; (3210 <serial_irq_set_internal+0xbc>)
    31bc:	2607      	movs	r6, #7
    31be:	2a00      	cmp	r2, #0
    31c0:	d0d8      	beq.n	3174 <serial_irq_set_internal+0x20>
    31c2:	6858      	ldr	r0, [r3, #4]
    31c4:	2701      	movs	r7, #1
    31c6:	fa07 f201 	lsl.w	r2, r7, r1
    31ca:	4302      	orrs	r2, r0
    31cc:	b274      	sxtb	r4, r6
    31ce:	605a      	str	r2, [r3, #4]
    31d0:	4629      	mov	r1, r5
    31d2:	4620      	mov	r0, r4
    31d4:	f7ff fdf6 	bl	2dc4 <NVIC_SetVector>
    31d8:	4b0c      	ldr	r3, [pc, #48]	; (320c <serial_irq_set_internal+0xb8>)
    31da:	40a7      	lsls	r7, r4
    31dc:	601f      	str	r7, [r3, #0]
    31de:	bdf8      	pop	{r3, r4, r5, r6, r7, pc}
    31e0:	f5a4 4480 	sub.w	r4, r4, #16384	; 0x4000
    31e4:	42a3      	cmp	r3, r4
    31e6:	d105      	bne.n	31f4 <serial_irq_set_internal+0xa0>
    31e8:	4d0a      	ldr	r5, [pc, #40]	; (3214 <serial_irq_set_internal+0xc0>)
    31ea:	2605      	movs	r6, #5
    31ec:	e7c1      	b.n	3172 <serial_irq_set_internal+0x1e>
    31ee:	4d0a      	ldr	r5, [pc, #40]	; (3218 <serial_irq_set_internal+0xc4>)
    31f0:	2606      	movs	r6, #6
    31f2:	e7be      	b.n	3172 <serial_irq_set_internal+0x1e>
    31f4:	2500      	movs	r5, #0
    31f6:	462e      	mov	r6, r5
    31f8:	e7bb      	b.n	3172 <serial_irq_set_internal+0x1e>
    31fa:	bf00      	nop
    31fc:	40010000 	.word	0x40010000
    3200:	40098000 	.word	0x40098000
    3204:	0000321d 	.word	0x0000321d
    3208:	1000081c 	.word	0x1000081c
    320c:	e000e100 	.word	0xe000e100
    3210:	000030f1 	.word	0x000030f1
    3214:	00003289 	.word	0x00003289
    3218:	000032e9 	.word	0x000032e9

0000321c <uart3_irq>:
    321c:	4b17      	ldr	r3, [pc, #92]	; (327c <uart3_irq+0x60>)
    321e:	6899      	ldr	r1, [r3, #8]
    3220:	f3c1 0142 	ubfx	r1, r1, #1, #3
    3224:	2901      	cmp	r1, #1
    3226:	d01b      	beq.n	3260 <uart3_irq+0x44>
    3228:	2902      	cmp	r1, #2
    322a:	d117      	bne.n	325c <uart3_irq+0x40>
    322c:	4a14      	ldr	r2, [pc, #80]	; (3280 <uart3_irq+0x64>)
    322e:	f8d2 10ac 	ldr.w	r1, [r2, #172]	; 0xac
    3232:	3101      	adds	r1, #1
    3234:	d007      	beq.n	3246 <uart3_irq+0x2a>
    3236:	f8d2 10b8 	ldr.w	r1, [r2, #184]	; 0xb8
    323a:	f8d2 00b0 	ldr.w	r0, [r2, #176]	; 0xb0
    323e:	6008      	str	r0, [r1, #0]
    3240:	f892 10de 	ldrb.w	r1, [r2, #222]	; 0xde
    3244:	b199      	cbz	r1, 326e <uart3_irq+0x52>
    3246:	f8d2 00a8 	ldr.w	r0, [r2, #168]	; 0xa8
    324a:	4b0d      	ldr	r3, [pc, #52]	; (3280 <uart3_irq+0x64>)
    324c:	b138      	cbz	r0, 325e <uart3_irq+0x42>
    324e:	f893 30de 	ldrb.w	r3, [r3, #222]	; 0xde
    3252:	b123      	cbz	r3, 325e <uart3_irq+0x42>
    3254:	4b0b      	ldr	r3, [pc, #44]	; (3284 <uart3_irq+0x68>)
    3256:	2100      	movs	r1, #0
    3258:	681b      	ldr	r3, [r3, #0]
    325a:	4718      	bx	r3
    325c:	4770      	bx	lr
    325e:	4770      	bx	lr
    3260:	4b07      	ldr	r3, [pc, #28]	; (3280 <uart3_irq+0x64>)
    3262:	f8d3 00a8 	ldr.w	r0, [r3, #168]	; 0xa8
    3266:	b138      	cbz	r0, 3278 <uart3_irq+0x5c>
    3268:	4b06      	ldr	r3, [pc, #24]	; (3284 <uart3_irq+0x68>)
    326a:	681b      	ldr	r3, [r3, #0]
    326c:	4718      	bx	r3
    326e:	6859      	ldr	r1, [r3, #4]
    3270:	f021 0101 	bic.w	r1, r1, #1
    3274:	6059      	str	r1, [r3, #4]
    3276:	e7e6      	b.n	3246 <uart3_irq+0x2a>
    3278:	4770      	bx	lr
    327a:	bf00      	nop
    327c:	4009c000 	.word	0x4009c000
    3280:	1000081c 	.word	0x1000081c
    3284:	10000818 	.word	0x10000818

00003288 <uart0_irq>:
    3288:	4b14      	ldr	r3, [pc, #80]	; (32dc <uart0_irq+0x54>)
    328a:	6899      	ldr	r1, [r3, #8]
    328c:	f3c1 0142 	ubfx	r1, r1, #1, #3
    3290:	2901      	cmp	r1, #1
    3292:	d017      	beq.n	32c4 <uart0_irq+0x3c>
    3294:	2902      	cmp	r1, #2
    3296:	d113      	bne.n	32c0 <uart0_irq+0x38>
    3298:	4a11      	ldr	r2, [pc, #68]	; (32e0 <uart0_irq+0x58>)
    329a:	6851      	ldr	r1, [r2, #4]
    329c:	3101      	adds	r1, #1
    329e:	d005      	beq.n	32ac <uart0_irq+0x24>
    32a0:	6911      	ldr	r1, [r2, #16]
    32a2:	6890      	ldr	r0, [r2, #8]
    32a4:	6008      	str	r0, [r1, #0]
    32a6:	f892 1036 	ldrb.w	r1, [r2, #54]	; 0x36
    32aa:	b189      	cbz	r1, 32d0 <uart0_irq+0x48>
    32ac:	6810      	ldr	r0, [r2, #0]
    32ae:	4b0c      	ldr	r3, [pc, #48]	; (32e0 <uart0_irq+0x58>)
    32b0:	b138      	cbz	r0, 32c2 <uart0_irq+0x3a>
    32b2:	f893 3036 	ldrb.w	r3, [r3, #54]	; 0x36
    32b6:	b123      	cbz	r3, 32c2 <uart0_irq+0x3a>
    32b8:	4b0a      	ldr	r3, [pc, #40]	; (32e4 <uart0_irq+0x5c>)
    32ba:	2100      	movs	r1, #0
    32bc:	681b      	ldr	r3, [r3, #0]
    32be:	4718      	bx	r3
    32c0:	4770      	bx	lr
    32c2:	4770      	bx	lr
    32c4:	4b06      	ldr	r3, [pc, #24]	; (32e0 <uart0_irq+0x58>)
    32c6:	6818      	ldr	r0, [r3, #0]
    32c8:	b138      	cbz	r0, 32da <uart0_irq+0x52>
    32ca:	4b06      	ldr	r3, [pc, #24]	; (32e4 <uart0_irq+0x5c>)
    32cc:	681b      	ldr	r3, [r3, #0]
    32ce:	4718      	bx	r3
    32d0:	6859      	ldr	r1, [r3, #4]
    32d2:	f021 0101 	bic.w	r1, r1, #1
    32d6:	6059      	str	r1, [r3, #4]
    32d8:	e7e8      	b.n	32ac <uart0_irq+0x24>
    32da:	4770      	bx	lr
    32dc:	4000c000 	.word	0x4000c000
    32e0:	1000081c 	.word	0x1000081c
    32e4:	10000818 	.word	0x10000818

000032e8 <uart1_irq>:
    32e8:	4b14      	ldr	r3, [pc, #80]	; (333c <uart1_irq+0x54>)
    32ea:	6899      	ldr	r1, [r3, #8]
    32ec:	f3c1 0142 	ubfx	r1, r1, #1, #3
    32f0:	2901      	cmp	r1, #1
    32f2:	d017      	beq.n	3324 <uart1_irq+0x3c>
    32f4:	2902      	cmp	r1, #2
    32f6:	d113      	bne.n	3320 <uart1_irq+0x38>
    32f8:	4a11      	ldr	r2, [pc, #68]	; (3340 <uart1_irq+0x58>)
    32fa:	6bd1      	ldr	r1, [r2, #60]	; 0x3c
    32fc:	3101      	adds	r1, #1
    32fe:	d005      	beq.n	330c <uart1_irq+0x24>
    3300:	6c91      	ldr	r1, [r2, #72]	; 0x48
    3302:	6c10      	ldr	r0, [r2, #64]	; 0x40
    3304:	6008      	str	r0, [r1, #0]
    3306:	f892 106e 	ldrb.w	r1, [r2, #110]	; 0x6e
    330a:	b189      	cbz	r1, 3330 <uart1_irq+0x48>
    330c:	6b90      	ldr	r0, [r2, #56]	; 0x38
    330e:	4b0c      	ldr	r3, [pc, #48]	; (3340 <uart1_irq+0x58>)
    3310:	b138      	cbz	r0, 3322 <uart1_irq+0x3a>
    3312:	f893 306e 	ldrb.w	r3, [r3, #110]	; 0x6e
    3316:	b123      	cbz	r3, 3322 <uart1_irq+0x3a>
    3318:	4b0a      	ldr	r3, [pc, #40]	; (3344 <uart1_irq+0x5c>)
    331a:	2100      	movs	r1, #0
    331c:	681b      	ldr	r3, [r3, #0]
    331e:	4718      	bx	r3
    3320:	4770      	bx	lr
    3322:	4770      	bx	lr
    3324:	4b06      	ldr	r3, [pc, #24]	; (3340 <uart1_irq+0x58>)
    3326:	6b98      	ldr	r0, [r3, #56]	; 0x38
    3328:	b138      	cbz	r0, 333a <uart1_irq+0x52>
    332a:	4b06      	ldr	r3, [pc, #24]	; (3344 <uart1_irq+0x5c>)
    332c:	681b      	ldr	r3, [r3, #0]
    332e:	4718      	bx	r3
    3330:	6859      	ldr	r1, [r3, #4]
    3332:	f021 0101 	bic.w	r1, r1, #1
    3336:	6059      	str	r1, [r3, #4]
    3338:	e7e8      	b.n	330c <uart1_irq+0x24>
    333a:	4770      	bx	lr
    333c:	40010000 	.word	0x40010000
    3340:	1000081c 	.word	0x1000081c
    3344:	10000818 	.word	0x10000818

00003348 <serial_baud>:
    3348:	e92d 4ff0 	stmdb	sp!, {r4, r5, r6, r7, r8, r9, r10, r11, lr}
    334c:	6802      	ldr	r2, [r0, #0]
    334e:	4b6e      	ldr	r3, [pc, #440]	; (3508 <serial_baud+0x1c0>)
    3350:	b089      	sub	sp, #36	; 0x24
    3352:	429a      	cmp	r2, r3
    3354:	9007      	str	r0, [sp, #28]
    3356:	9206      	str	r2, [sp, #24]
    3358:	f000 80c8 	beq.w	34ec <serial_baud+0x1a4>
    335c:	f340 80b4 	ble.w	34c8 <serial_baud+0x180>
    3360:	4b6a      	ldr	r3, [pc, #424]	; (350c <serial_baud+0x1c4>)
    3362:	9806      	ldr	r0, [sp, #24]
    3364:	4298      	cmp	r0, r3
    3366:	d072      	beq.n	344e <serial_baud+0x106>
    3368:	f503 4380 	add.w	r3, r3, #16384	; 0x4000
    336c:	4298      	cmp	r0, r3
    336e:	f040 809d 	bne.w	34ac <serial_baud+0x164>
    3372:	4b67      	ldr	r3, [pc, #412]	; (3510 <serial_baud+0x1c8>)
    3374:	f8d3 21ac 	ldr.w	r2, [r3, #428]	; 0x1ac
    3378:	f422 2240 	bic.w	r2, r2, #786432	; 0xc0000
    337c:	f8c3 21ac 	str.w	r2, [r3, #428]	; 0x1ac
    3380:	f8d3 21ac 	ldr.w	r2, [r3, #428]	; 0x1ac
    3384:	f442 2280 	orr.w	r2, r2, #262144	; 0x40000
    3388:	f8c3 21ac 	str.w	r2, [r3, #428]	; 0x1ac
    338c:	4a61      	ldr	r2, [pc, #388]	; (3514 <serial_baud+0x1cc>)
    338e:	010b      	lsls	r3, r1, #4
    3390:	6812      	ldr	r2, [r2, #0]
    3392:	fbb2 f0f3 	udiv	r0, r2, r3
    3396:	fb03 2310 	mls	r3, r3, r0, r2
    339a:	9203      	str	r2, [sp, #12]
    339c:	b280      	uxth	r0, r0
    339e:	2b00      	cmp	r3, #0
    33a0:	f000 8090 	beq.w	34c4 <serial_baud+0x17c>
    33a4:	9b03      	ldr	r3, [sp, #12]
    33a6:	f04f 0801 	mov.w	r8, #1
    33aa:	005a      	lsls	r2, r3, #1
    33ac:	009c      	lsls	r4, r3, #2
    33ae:	4694      	mov	r12, r2
    33b0:	46a2      	mov	r10, r4
    33b2:	46c3      	mov	r11, r8
    33b4:	468e      	mov	lr, r1
    33b6:	4699      	mov	r9, r3
    33b8:	2300      	movs	r3, #0
    33ba:	9205      	str	r2, [sp, #20]
    33bc:	9404      	str	r4, [sp, #16]
    33be:	9000      	str	r0, [sp, #0]
    33c0:	9102      	str	r1, [sp, #8]
    33c2:	9301      	str	r3, [sp, #4]
    33c4:	2400      	movs	r4, #0
    33c6:	4625      	mov	r5, r4
    33c8:	9e02      	ldr	r6, [sp, #8]
    33ca:	fa5f f788 	uxtb.w	r7, r8
    33ce:	f1bc 0f00 	cmp.w	r12, #0
    33d2:	bfb5      	itete	lt
    33d4:	fbbc f0f6 	udivlt	r0, r12, r6
    33d8:	fbba f0f6 	udivge	r0, r10, r6
    33dc:	0900      	lsrlt	r0, r0, #4
    33de:	0940      	lsrge	r0, r0, #5
    33e0:	3001      	adds	r0, #1
    33e2:	f3c0 004f 	ubfx	r0, r0, #1, #16
    33e6:	eb08 0204 	add.w	r2, r8, r4
    33ea:	2800      	cmp	r0, #0
    33ec:	d03d      	beq.n	346a <serial_baud+0x122>
    33ee:	b10c      	cbz	r4, 33f4 <serial_baud+0xac>
    33f0:	2801      	cmp	r0, #1
    33f2:	d03b      	beq.n	346c <serial_baud+0x124>
    33f4:	4603      	mov	r3, r0
    33f6:	fb03 f302 	mul.w	r3, r3, r2
    33fa:	00db      	lsls	r3, r3, #3
    33fc:	fbb9 f3f3 	udiv	r3, r9, r3
    3400:	3301      	adds	r3, #1
    3402:	ebc1 0353 	rsb	r3, r1, r3, lsr #1
    3406:	2b00      	cmp	r3, #0
    3408:	bfb8      	it	lt
    340a:	425b      	neglt	r3, r3
    340c:	4573      	cmp	r3, lr
    340e:	da05      	bge.n	341c <serial_baud+0xd4>
    3410:	4299      	cmp	r1, r3
    3412:	d030      	beq.n	3476 <serial_baud+0x12e>
    3414:	469e      	mov	lr, r3
    3416:	46bb      	mov	r11, r7
    3418:	e88d 0021 	stmia.w	sp, {r0, r5}
    341c:	3401      	adds	r4, #1
    341e:	b2e5      	uxtb	r5, r4
    3420:	42af      	cmp	r7, r5
    3422:	440e      	add	r6, r1
    3424:	d8d3      	bhi.n	33ce <serial_baud+0x86>
    3426:	9b03      	ldr	r3, [sp, #12]
    3428:	f108 0801 	add.w	r8, r8, #1
    342c:	4499      	add	r9, r3
    342e:	9b05      	ldr	r3, [sp, #20]
    3430:	f1b8 0f10 	cmp.w	r8, #16
    3434:	449c      	add	r12, r3
    3436:	9b04      	ldr	r3, [sp, #16]
    3438:	449a      	add	r10, r3
    343a:	9b02      	ldr	r3, [sp, #8]
    343c:	440b      	add	r3, r1
    343e:	9302      	str	r3, [sp, #8]
    3440:	d1c0      	bne.n	33c4 <serial_baud+0x7c>
    3442:	9b01      	ldr	r3, [sp, #4]
    3444:	9800      	ldr	r0, [sp, #0]
    3446:	ea43 150b 	orr.w	r5, r3, r11, lsl #4
    344a:	b2ed      	uxtb	r5, r5
    344c:	e016      	b.n	347c <serial_baud+0x134>
    344e:	4b30      	ldr	r3, [pc, #192]	; (3510 <serial_baud+0x1c8>)
    3450:	f8d3 21ac 	ldr.w	r2, [r3, #428]	; 0x1ac
    3454:	f422 3240 	bic.w	r2, r2, #196608	; 0x30000
    3458:	f8c3 21ac 	str.w	r2, [r3, #428]	; 0x1ac
    345c:	f8d3 21ac 	ldr.w	r2, [r3, #428]	; 0x1ac
    3460:	f442 3280 	orr.w	r2, r2, #65536	; 0x10000
    3464:	f8c3 21ac 	str.w	r2, [r3, #428]	; 0x1ac
    3468:	e790      	b.n	338c <serial_baud+0x44>
    346a:	b114      	cbz	r4, 3472 <serial_baud+0x12a>
    346c:	2002      	movs	r0, #2
    346e:	4603      	mov	r3, r0
    3470:	e7c1      	b.n	33f6 <serial_baud+0xae>
    3472:	2001      	movs	r0, #1
    3474:	e7be      	b.n	33f4 <serial_baud+0xac>
    3476:	ea45 1507 	orr.w	r5, r5, r7, lsl #4
    347a:	b2ed      	uxtb	r5, r5
    347c:	9906      	ldr	r1, [sp, #24]
    347e:	f3c0 2207 	ubfx	r2, r0, #8, #8
    3482:	7b0b      	ldrb	r3, [r1, #12]
    3484:	b2c0      	uxtb	r0, r0
    3486:	f043 0380 	orr.w	r3, r3, #128	; 0x80
    348a:	730b      	strb	r3, [r1, #12]
    348c:	9907      	ldr	r1, [sp, #28]
    348e:	680b      	ldr	r3, [r1, #0]
    3490:	711a      	strb	r2, [r3, #4]
    3492:	680b      	ldr	r3, [r1, #0]
    3494:	7018      	strb	r0, [r3, #0]
    3496:	680b      	ldr	r3, [r1, #0]
    3498:	f883 5028 	strb.w	r5, [r3, #40]	; 0x28
    349c:	680a      	ldr	r2, [r1, #0]
    349e:	7b13      	ldrb	r3, [r2, #12]
    34a0:	f003 037f 	and.w	r3, r3, #127	; 0x7f
    34a4:	7313      	strb	r3, [r2, #12]
    34a6:	b009      	add	sp, #36	; 0x24
    34a8:	e8bd 8ff0 	ldmia.w	sp!, {r4, r5, r6, r7, r8, r9, r10, r11, pc}
    34ac:	4a19      	ldr	r2, [pc, #100]	; (3514 <serial_baud+0x1cc>)
    34ae:	010b      	lsls	r3, r1, #4
    34b0:	6812      	ldr	r2, [r2, #0]
    34b2:	fbb2 f0f3 	udiv	r0, r2, r3
    34b6:	fb03 2310 	mls	r3, r3, r0, r2
    34ba:	9203      	str	r2, [sp, #12]
    34bc:	b280      	uxth	r0, r0
    34be:	2b00      	cmp	r3, #0
    34c0:	f47f af70 	bne.w	33a4 <serial_baud+0x5c>
    34c4:	2510      	movs	r5, #16
    34c6:	e7d9      	b.n	347c <serial_baud+0x134>
    34c8:	f5a3 4380 	sub.w	r3, r3, #16384	; 0x4000
    34cc:	429a      	cmp	r2, r3
    34ce:	d1ed      	bne.n	34ac <serial_baud+0x164>
    34d0:	4b0f      	ldr	r3, [pc, #60]	; (3510 <serial_baud+0x1c8>)
    34d2:	f8d3 21a8 	ldr.w	r2, [r3, #424]	; 0x1a8
    34d6:	f022 02c0 	bic.w	r2, r2, #192	; 0xc0
    34da:	f8c3 21a8 	str.w	r2, [r3, #424]	; 0x1a8
    34de:	f8d3 21a8 	ldr.w	r2, [r3, #424]	; 0x1a8
    34e2:	f042 0240 	orr.w	r2, r2, #64	; 0x40
    34e6:	f8c3 21a8 	str.w	r2, [r3, #424]	; 0x1a8
    34ea:	e74f      	b.n	338c <serial_baud+0x44>
    34ec:	4b08      	ldr	r3, [pc, #32]	; (3510 <serial_baud+0x1c8>)
    34ee:	f8d3 21a8 	ldr.w	r2, [r3, #424]	; 0x1a8
    34f2:	f422 7240 	bic.w	r2, r2, #768	; 0x300
    34f6:	f8c3 21a8 	str.w	r2, [r3, #424]	; 0x1a8
    34fa:	f8d3 21a8 	ldr.w	r2, [r3, #424]	; 0x1a8
    34fe:	f442 7280 	orr.w	r2, r2, #256	; 0x100
    3502:	f8c3 21a8 	str.w	r2, [r3, #424]	; 0x1a8
    3506:	e741      	b.n	338c <serial_baud+0x44>
    3508:	40010000 	.word	0x40010000
    350c:	40098000 	.word	0x40098000
    3510:	400fc000 	.word	0x400fc000
    3514:	100000cc 	.word	0x100000cc

00003518 <serial_irq_handler>:
    3518:	6843      	ldr	r3, [r0, #4]
    351a:	b410      	push	{r4}
    351c:	4804      	ldr	r0, [pc, #16]	; (3530 <serial_irq_handler+0x18>)
    351e:	4c05      	ldr	r4, [pc, #20]	; (3534 <serial_irq_handler+0x1c>)
    3520:	ebc3 03c3 	rsb	r3, r3, r3, lsl #3
    3524:	f844 2033 	str.w	r2, [r4, r3, lsl #3]
    3528:	6001      	str	r1, [r0, #0]
    352a:	bc10      	pop	{r4}
    352c:	4770      	bx	lr
    352e:	bf00      	nop
    3530:	10000818 	.word	0x10000818
    3534:	1000081c 	.word	0x1000081c

00003538 <serial_irq_set>:
    3538:	b959      	cbnz	r1, 3552 <serial_irq_set+0x1a>
    353a:	6843      	ldr	r3, [r0, #4]
    353c:	b410      	push	{r4}
    353e:	4c06      	ldr	r4, [pc, #24]	; (3558 <serial_irq_set+0x20>)
    3540:	ebc3 03c3 	rsb	r3, r3, r3, lsl #3
    3544:	eb04 03c3 	add.w	r3, r4, r3, lsl #3
    3548:	f883 2036 	strb.w	r2, [r3, #54]	; 0x36
    354c:	bc10      	pop	{r4}
    354e:	f7ff be01 	b.w	3154 <serial_irq_set_internal>
    3552:	f7ff bdff 	b.w	3154 <serial_irq_set_internal>
    3556:	bf00      	nop
    3558:	1000081c 	.word	0x1000081c

0000355c <serial_getc>:
    355c:	6802      	ldr	r2, [r0, #0]
    355e:	7d13      	ldrb	r3, [r2, #20]
    3560:	07db      	lsls	r3, r3, #31
    3562:	d5fc      	bpl.n	355e <serial_getc+0x2>
    3564:	6843      	ldr	r3, [r0, #4]
    3566:	4909      	ldr	r1, [pc, #36]	; (358c <serial_getc+0x30>)
    3568:	ebc3 03c3 	rsb	r3, r3, r3, lsl #3
    356c:	eb01 03c3 	add.w	r3, r1, r3, lsl #3
    3570:	6859      	ldr	r1, [r3, #4]
    3572:	7810      	ldrb	r0, [r2, #0]
    3574:	3101      	adds	r1, #1
    3576:	b2c0      	uxtb	r0, r0
    3578:	d006      	beq.n	3588 <serial_getc+0x2c>
    357a:	6959      	ldr	r1, [r3, #20]
    357c:	689b      	ldr	r3, [r3, #8]
    357e:	600b      	str	r3, [r1, #0]
    3580:	6853      	ldr	r3, [r2, #4]
    3582:	f043 0301 	orr.w	r3, r3, #1
    3586:	6053      	str	r3, [r2, #4]
    3588:	4770      	bx	lr
    358a:	bf00      	nop
    358c:	1000081c 	.word	0x1000081c

00003590 <serial_writable>:
    3590:	6843      	ldr	r3, [r0, #4]
    3592:	4a15      	ldr	r2, [pc, #84]	; (35e8 <serial_writable+0x58>)
    3594:	ebc3 03c3 	rsb	r3, r3, r3, lsl #3
    3598:	00db      	lsls	r3, r3, #3
    359a:	18d1      	adds	r1, r2, r3
    359c:	b410      	push	{r4}
    359e:	69cc      	ldr	r4, [r1, #28]
    35a0:	3401      	adds	r4, #1
    35a2:	d00f      	beq.n	35c4 <serial_writable+0x34>
    35a4:	460b      	mov	r3, r1
    35a6:	6b0a      	ldr	r2, [r1, #48]	; 0x30
    35a8:	331c      	adds	r3, #28
    35aa:	685b      	ldr	r3, [r3, #4]
    35ac:	6812      	ldr	r2, [r2, #0]
    35ae:	421a      	tst	r2, r3
    35b0:	d105      	bne.n	35be <serial_writable+0x2e>
    35b2:	6803      	ldr	r3, [r0, #0]
    35b4:	bc10      	pop	{r4}
    35b6:	7d18      	ldrb	r0, [r3, #20]
    35b8:	f3c0 1080 	ubfx	r0, r0, #6, #1
    35bc:	4770      	bx	lr
    35be:	2000      	movs	r0, #0
    35c0:	bc10      	pop	{r4}
    35c2:	4770      	bx	lr
    35c4:	6803      	ldr	r3, [r0, #0]
    35c6:	7d1b      	ldrb	r3, [r3, #20]
    35c8:	069b      	lsls	r3, r3, #26
    35ca:	d407      	bmi.n	35dc <serial_writable+0x4c>
    35cc:	f891 0034 	ldrb.w	r0, [r1, #52]	; 0x34
    35d0:	bc10      	pop	{r4}
    35d2:	280f      	cmp	r0, #15
    35d4:	bf8c      	ite	hi
    35d6:	2000      	movhi	r0, #0
    35d8:	2001      	movls	r0, #1
    35da:	4770      	bx	lr
    35dc:	2300      	movs	r3, #0
    35de:	f881 3034 	strb.w	r3, [r1, #52]	; 0x34
    35e2:	2001      	movs	r0, #1
    35e4:	bc10      	pop	{r4}
    35e6:	4770      	bx	lr
    35e8:	1000081c 	.word	0x1000081c

000035ec <serial_putc>:
    35ec:	b538      	push	{r3, r4, r5, lr}
    35ee:	4604      	mov	r4, r0
    35f0:	460d      	mov	r5, r1
    35f2:	4620      	mov	r0, r4
    35f4:	f7ff ffcc 	bl	3590 <serial_writable>
    35f8:	2800      	cmp	r0, #0
    35fa:	d0fa      	beq.n	35f2 <serial_putc+0x6>
    35fc:	6823      	ldr	r3, [r4, #0]
    35fe:	b2ed      	uxtb	r5, r5
    3600:	701d      	strb	r5, [r3, #0]
    3602:	6863      	ldr	r3, [r4, #4]
    3604:	4a05      	ldr	r2, [pc, #20]	; (361c <serial_putc+0x30>)
    3606:	ebc3 03c3 	rsb	r3, r3, r3, lsl #3
    360a:	eb02 03c3 	add.w	r3, r2, r3, lsl #3
    360e:	f893 2034 	ldrb.w	r2, [r3, #52]	; 0x34
    3612:	3201      	adds	r2, #1
    3614:	f883 2034 	strb.w	r2, [r3, #52]	; 0x34
    3618:	bd38      	pop	{r3, r4, r5, pc}
    361a:	bf00      	nop
    361c:	1000081c 	.word	0x1000081c

00003620 <serial_set_flow_control>:
    3620:	e92d 4ff0 	stmdb	sp!, {r4, r5, r6, r7, r8, r9, r10, r11, lr}
    3624:	4605      	mov	r5, r0
    3626:	4844      	ldr	r0, [pc, #272]	; (3738 <serial_set_flow_control+0x118>)
    3628:	682c      	ldr	r4, [r5, #0]
    362a:	b083      	sub	sp, #12
    362c:	4284      	cmp	r4, r0
    362e:	460f      	mov	r7, r1
    3630:	4691      	mov	r9, r2
    3632:	469a      	mov	r10, r3
    3634:	d01d      	beq.n	3672 <serial_set_flow_control+0x52>
    3636:	686e      	ldr	r6, [r5, #4]
    3638:	2400      	movs	r4, #0
    363a:	4632      	mov	r2, r6
    363c:	f8df b104 	ldr.w	r11, [pc, #260]	; 3744 <serial_set_flow_control+0x124>
    3640:	ea4f 08c6 	mov.w	r8, r6, lsl #3
    3644:	ebc2 01c2 	rsb	r1, r2, r2, lsl #3
    3648:	ebc6 0008 	rsb	r0, r6, r8
    364c:	eb0b 00c0 	add.w	r0, r11, r0, lsl #3
    3650:	2200      	movs	r2, #0
    3652:	eb0b 01c1 	add.w	r1, r11, r1, lsl #3
    3656:	f04f 33ff 	mov.w	r3, #4294967295
    365a:	f881 2035 	strb.w	r2, [r1, #53]	; 0x35
    365e:	61c3      	str	r3, [r0, #28]
    3660:	6043      	str	r3, [r0, #4]
    3662:	4611      	mov	r1, r2
    3664:	4628      	mov	r0, r5
    3666:	f7ff fd75 	bl	3154 <serial_irq_set_internal>
    366a:	b94f      	cbnz	r7, 3680 <serial_set_flow_control+0x60>
    366c:	b003      	add	sp, #12
    366e:	e8bd 8ff0 	ldmia.w	sp!, {r4, r5, r6, r7, r8, r9, r10, r11, pc}
    3672:	7c23      	ldrb	r3, [r4, #16]
    3674:	686e      	ldr	r6, [r5, #4]
    3676:	f003 033f 	and.w	r3, r3, #63	; 0x3f
    367a:	7423      	strb	r3, [r4, #16]
    367c:	686a      	ldr	r2, [r5, #4]
    367e:	e7dd      	b.n	363c <serial_set_flow_control+0x1c>
    3680:	492e      	ldr	r1, [pc, #184]	; (373c <serial_set_flow_control+0x11c>)
    3682:	4648      	mov	r0, r9
    3684:	f7ff fb1a 	bl	2cbc <pinmap_find_peripheral>
    3688:	492d      	ldr	r1, [pc, #180]	; (3740 <serial_set_flow_control+0x120>)
    368a:	9001      	str	r0, [sp, #4]
    368c:	4650      	mov	r0, r10
    368e:	f7ff fb15 	bl	2cbc <pinmap_find_peripheral>
    3692:	1eba      	subs	r2, r7, #2
    3694:	2a01      	cmp	r2, #1
    3696:	d930      	bls.n	36fa <serial_set_flow_control+0xda>
    3698:	2f01      	cmp	r7, #1
    369a:	d1e7      	bne.n	366c <serial_set_flow_control+0x4c>
    369c:	f1b9 3fff 	cmp.w	r9, #4294967295
    36a0:	d0e4      	beq.n	366c <serial_set_flow_control+0x4c>
    36a2:	4a25      	ldr	r2, [pc, #148]	; (3738 <serial_set_flow_control+0x118>)
    36a4:	9b01      	ldr	r3, [sp, #4]
    36a6:	6829      	ldr	r1, [r5, #0]
    36a8:	2007      	movs	r0, #7
    36aa:	4293      	cmp	r3, r2
    36ac:	7208      	strb	r0, [r1, #8]
    36ae:	d10b      	bne.n	36c8 <serial_set_flow_control+0xa8>
    36b0:	b154      	cbz	r4, 36c8 <serial_set_flow_control+0xa8>
    36b2:	4648      	mov	r0, r9
    36b4:	7c23      	ldrb	r3, [r4, #16]
    36b6:	4921      	ldr	r1, [pc, #132]	; (373c <serial_set_flow_control+0x11c>)
    36b8:	f043 0340 	orr.w	r3, r3, #64	; 0x40
    36bc:	7423      	strb	r3, [r4, #16]
    36be:	b003      	add	sp, #12
    36c0:	e8bd 4ff0 	ldmia.w	sp!, {r4, r5, r6, r7, r8, r9, r10, r11, lr}
    36c4:	f7ff bac2 	b.w	2c4c <pinmap_pinout>
    36c8:	ebc6 0608 	rsb	r6, r6, r8
    36cc:	eb0b 00c6 	add.w	r0, r11, r6, lsl #3
    36d0:	4649      	mov	r1, r9
    36d2:	3004      	adds	r0, #4
    36d4:	2200      	movs	r2, #0
    36d6:	f7ff fa9b 	bl	2c10 <gpio_init_out_ex>
    36da:	686a      	ldr	r2, [r5, #4]
    36dc:	2401      	movs	r4, #1
    36de:	ebc2 02c2 	rsb	r2, r2, r2, lsl #3
    36e2:	eb0b 03c2 	add.w	r3, r11, r2, lsl #3
    36e6:	4628      	mov	r0, r5
    36e8:	4622      	mov	r2, r4
    36ea:	2100      	movs	r1, #0
    36ec:	f883 4035 	strb.w	r4, [r3, #53]	; 0x35
    36f0:	b003      	add	sp, #12
    36f2:	e8bd 4ff0 	ldmia.w	sp!, {r4, r5, r6, r7, r8, r9, r10, r11, lr}
    36f6:	f7ff bd2d 	b.w	3154 <serial_irq_set_internal>
    36fa:	f1ba 3fff 	cmp.w	r10, #4294967295
    36fe:	d00a      	beq.n	3716 <serial_set_flow_control+0xf6>
    3700:	4a0d      	ldr	r2, [pc, #52]	; (3738 <serial_set_flow_control+0x118>)
    3702:	4290      	cmp	r0, r2
    3704:	d00d      	beq.n	3722 <serial_set_flow_control+0x102>
    3706:	ebc6 0008 	rsb	r0, r6, r8
    370a:	eb0b 00c0 	add.w	r0, r11, r0, lsl #3
    370e:	4651      	mov	r1, r10
    3710:	301c      	adds	r0, #28
    3712:	f7ff fa55 	bl	2bc0 <gpio_init_in>
    3716:	2f03      	cmp	r7, #3
    3718:	d1a8      	bne.n	366c <serial_set_flow_control+0x4c>
    371a:	f1b9 3fff 	cmp.w	r9, #4294967295
    371e:	d1c0      	bne.n	36a2 <serial_set_flow_control+0x82>
    3720:	e7a4      	b.n	366c <serial_set_flow_control+0x4c>
    3722:	2c00      	cmp	r4, #0
    3724:	d0ef      	beq.n	3706 <serial_set_flow_control+0xe6>
    3726:	7c22      	ldrb	r2, [r4, #16]
    3728:	4650      	mov	r0, r10
    372a:	f042 0280 	orr.w	r2, r2, #128	; 0x80
    372e:	7422      	strb	r2, [r4, #16]
    3730:	4903      	ldr	r1, [pc, #12]	; (3740 <serial_set_flow_control+0x120>)
    3732:	f7ff fa8b 	bl	2c4c <pinmap_pinout>
    3736:	e7ee      	b.n	3716 <serial_set_flow_control+0xf6>
    3738:	40010000 	.word	0x40010000
    373c:	00007468 	.word	0x00007468
    3740:	00007564 	.word	0x00007564
    3744:	1000081c 	.word	0x1000081c

00003748 <serial_init>:
    3748:	e92d 41f0 	stmdb	sp!, {r4, r5, r6, r7, r8, lr}
    374c:	460f      	mov	r7, r1
    374e:	4605      	mov	r5, r0
    3750:	4959      	ldr	r1, [pc, #356]	; (38b8 <serial_init+0x170>)
    3752:	4638      	mov	r0, r7
    3754:	4616      	mov	r6, r2
    3756:	f7ff fac1 	bl	2cdc <pinmap_peripheral>
    375a:	4958      	ldr	r1, [pc, #352]	; (38bc <serial_init+0x174>)
    375c:	4604      	mov	r4, r0
    375e:	4630      	mov	r0, r6
    3760:	f7ff fabc 	bl	2cdc <pinmap_peripheral>
    3764:	4601      	mov	r1, r0
    3766:	4620      	mov	r0, r4
    3768:	f7ff fa96 	bl	2c98 <pinmap_merge>
    376c:	4b54      	ldr	r3, [pc, #336]	; (38c0 <serial_init+0x178>)
    376e:	4604      	mov	r4, r0
    3770:	4298      	cmp	r0, r3
    3772:	6028      	str	r0, [r5, #0]
    3774:	d07f      	beq.n	3876 <serial_init+0x12e>
    3776:	d96f      	bls.n	3858 <serial_init+0x110>
    3778:	4b52      	ldr	r3, [pc, #328]	; (38c4 <serial_init+0x17c>)
    377a:	4298      	cmp	r0, r3
    377c:	d04b      	beq.n	3816 <serial_init+0xce>
    377e:	f503 4380 	add.w	r3, r3, #16384	; 0x4000
    3782:	4298      	cmp	r0, r3
    3784:	d106      	bne.n	3794 <serial_init+0x4c>
    3786:	4a50      	ldr	r2, [pc, #320]	; (38c8 <serial_init+0x180>)
    3788:	f8d2 30c4 	ldr.w	r3, [r2, #196]	; 0xc4
    378c:	f043 7300 	orr.w	r3, r3, #33554432	; 0x2000000
    3790:	f8c2 30c4 	str.w	r3, [r2, #196]	; 0xc4
    3794:	2301      	movs	r3, #1
    3796:	7223      	strb	r3, [r4, #8]
    3798:	682b      	ldr	r3, [r5, #0]
    379a:	f04f 0800 	mov.w	r8, #0
    379e:	f8c3 8004 	str.w	r8, [r3, #4]
    37a2:	f44f 5116 	mov.w	r1, #9600	; 0x2580
    37a6:	4628      	mov	r0, r5
    37a8:	f7ff fdce 	bl	3348 <serial_baud>
    37ac:	682b      	ldr	r3, [r5, #0]
    37ae:	2203      	movs	r2, #3
    37b0:	731a      	strb	r2, [r3, #12]
    37b2:	4941      	ldr	r1, [pc, #260]	; (38b8 <serial_init+0x170>)
    37b4:	4638      	mov	r0, r7
    37b6:	f7ff fa49 	bl	2c4c <pinmap_pinout>
    37ba:	4940      	ldr	r1, [pc, #256]	; (38bc <serial_init+0x174>)
    37bc:	4630      	mov	r0, r6
    37be:	f7ff fa45 	bl	2c4c <pinmap_pinout>
    37c2:	1c7a      	adds	r2, r7, #1
    37c4:	d003      	beq.n	37ce <serial_init+0x86>
    37c6:	4641      	mov	r1, r8
    37c8:	4638      	mov	r0, r7
    37ca:	f7ff fbc5 	bl	2f58 <pin_mode>
    37ce:	1c73      	adds	r3, r6, #1
    37d0:	d003      	beq.n	37da <serial_init+0x92>
    37d2:	4630      	mov	r0, r6
    37d4:	2100      	movs	r1, #0
    37d6:	f7ff fbbf 	bl	2f58 <pin_mode>
    37da:	4b39      	ldr	r3, [pc, #228]	; (38c0 <serial_init+0x178>)
    37dc:	429c      	cmp	r4, r3
    37de:	d047      	beq.n	3870 <serial_init+0x128>
    37e0:	d921      	bls.n	3826 <serial_init+0xde>
    37e2:	4b38      	ldr	r3, [pc, #224]	; (38c4 <serial_init+0x17c>)
    37e4:	429c      	cmp	r4, r3
    37e6:	d063      	beq.n	38b0 <serial_init+0x168>
    37e8:	f503 4380 	add.w	r3, r3, #16384	; 0x4000
    37ec:	429c      	cmp	r4, r3
    37ee:	d14a      	bne.n	3886 <serial_init+0x13e>
    37f0:	2303      	movs	r3, #3
    37f2:	606b      	str	r3, [r5, #4]
    37f4:	4c35      	ldr	r4, [pc, #212]	; (38cc <serial_init+0x184>)
    37f6:	ebc3 03c3 	rsb	r3, r3, r3, lsl #3
    37fa:	f04f 36ff 	mov.w	r6, #4294967295
    37fe:	eb04 04c3 	add.w	r4, r4, r3, lsl #3
    3802:	4628      	mov	r0, r5
    3804:	4633      	mov	r3, r6
    3806:	4632      	mov	r2, r6
    3808:	6066      	str	r6, [r4, #4]
    380a:	61e6      	str	r6, [r4, #28]
    380c:	2100      	movs	r1, #0
    380e:	e8bd 41f0 	ldmia.w	sp!, {r4, r5, r6, r7, r8, lr}
    3812:	f7ff bf05 	b.w	3620 <serial_set_flow_control>
    3816:	4a2c      	ldr	r2, [pc, #176]	; (38c8 <serial_init+0x180>)
    3818:	f8d2 30c4 	ldr.w	r3, [r2, #196]	; 0xc4
    381c:	f043 7380 	orr.w	r3, r3, #16777216	; 0x1000000
    3820:	f8c2 30c4 	str.w	r3, [r2, #196]	; 0xc4
    3824:	e7b6      	b.n	3794 <serial_init+0x4c>
    3826:	f5a3 4380 	sub.w	r3, r3, #16384	; 0x4000
    382a:	429c      	cmp	r4, r3
    382c:	d12b      	bne.n	3886 <serial_init+0x13e>
    382e:	4e27      	ldr	r6, [pc, #156]	; (38cc <serial_init+0x184>)
    3830:	f04f 34ff 	mov.w	r4, #4294967295
    3834:	2100      	movs	r1, #0
    3836:	6069      	str	r1, [r5, #4]
    3838:	4623      	mov	r3, r4
    383a:	4622      	mov	r2, r4
    383c:	4628      	mov	r0, r5
    383e:	6074      	str	r4, [r6, #4]
    3840:	61f4      	str	r4, [r6, #28]
    3842:	f7ff feed 	bl	3620 <serial_set_flow_control>
    3846:	4b22      	ldr	r3, [pc, #136]	; (38d0 <serial_init+0x188>)
    3848:	2201      	movs	r2, #1
    384a:	601a      	str	r2, [r3, #0]
    384c:	6828      	ldr	r0, [r5, #0]
    384e:	6869      	ldr	r1, [r5, #4]
    3850:	4b20      	ldr	r3, [pc, #128]	; (38d4 <serial_init+0x18c>)
    3852:	c303      	stmia	r3!, {r0, r1}
    3854:	e8bd 81f0 	ldmia.w	sp!, {r4, r5, r6, r7, r8, pc}
    3858:	f5a3 4380 	sub.w	r3, r3, #16384	; 0x4000
    385c:	4298      	cmp	r0, r3
    385e:	d199      	bne.n	3794 <serial_init+0x4c>
    3860:	4a19      	ldr	r2, [pc, #100]	; (38c8 <serial_init+0x180>)
    3862:	f8d2 30c4 	ldr.w	r3, [r2, #196]	; 0xc4
    3866:	f043 0308 	orr.w	r3, r3, #8
    386a:	f8c2 30c4 	str.w	r3, [r2, #196]	; 0xc4
    386e:	e791      	b.n	3794 <serial_init+0x4c>
    3870:	2301      	movs	r3, #1
    3872:	606b      	str	r3, [r5, #4]
    3874:	e7be      	b.n	37f4 <serial_init+0xac>
    3876:	4a14      	ldr	r2, [pc, #80]	; (38c8 <serial_init+0x180>)
    3878:	f8d2 30c4 	ldr.w	r3, [r2, #196]	; 0xc4
    387c:	f043 0310 	orr.w	r3, r3, #16
    3880:	f8c2 30c4 	str.w	r3, [r2, #196]	; 0xc4
    3884:	e786      	b.n	3794 <serial_init+0x4c>
    3886:	686e      	ldr	r6, [r5, #4]
    3888:	4b10      	ldr	r3, [pc, #64]	; (38cc <serial_init+0x184>)
    388a:	ebc6 06c6 	rsb	r6, r6, r6, lsl #3
    388e:	f04f 37ff 	mov.w	r7, #4294967295
    3892:	eb03 06c6 	add.w	r6, r3, r6, lsl #3
    3896:	463a      	mov	r2, r7
    3898:	463b      	mov	r3, r7
    389a:	2100      	movs	r1, #0
    389c:	4628      	mov	r0, r5
    389e:	6077      	str	r7, [r6, #4]
    38a0:	61f7      	str	r7, [r6, #28]
    38a2:	f7ff febd 	bl	3620 <serial_set_flow_control>
    38a6:	4b0c      	ldr	r3, [pc, #48]	; (38d8 <serial_init+0x190>)
    38a8:	429c      	cmp	r4, r3
    38aa:	d0cc      	beq.n	3846 <serial_init+0xfe>
    38ac:	e8bd 81f0 	ldmia.w	sp!, {r4, r5, r6, r7, r8, pc}
    38b0:	2302      	movs	r3, #2
    38b2:	606b      	str	r3, [r5, #4]
    38b4:	e79e      	b.n	37f4 <serial_init+0xac>
    38b6:	bf00      	nop
    38b8:	000074f8 	.word	0x000074f8
    38bc:	0000748c 	.word	0x0000748c
    38c0:	40010000 	.word	0x40010000
    38c4:	40098000 	.word	0x40098000
    38c8:	400fc000 	.word	0x400fc000
    38cc:	1000081c 	.word	0x1000081c
    38d0:	10000814 	.word	0x10000814
    38d4:	10000a0c 	.word	0x10000a0c
    38d8:	4000c000 	.word	0x4000c000

000038dc <us_ticker_init.part.0>:
    38dc:	b538      	push	{r3, r4, r5, lr}
    38de:	4910      	ldr	r1, [pc, #64]	; (3920 <us_ticker_init.part.0+0x44>)
    38e0:	4b10      	ldr	r3, [pc, #64]	; (3924 <us_ticker_init.part.0+0x48>)
    38e2:	2401      	movs	r4, #1
    38e4:	601c      	str	r4, [r3, #0]
    38e6:	f8d1 30c4 	ldr.w	r3, [r1, #196]	; 0xc4
    38ea:	4a0f      	ldr	r2, [pc, #60]	; (3928 <us_ticker_init.part.0+0x4c>)
    38ec:	f443 0300 	orr.w	r3, r3, #8388608	; 0x800000
    38f0:	480e      	ldr	r0, [pc, #56]	; (392c <us_ticker_init.part.0+0x50>)
    38f2:	2500      	movs	r5, #0
    38f4:	f8c1 30c4 	str.w	r3, [r1, #196]	; 0xc4
    38f8:	6715      	str	r5, [r2, #112]	; 0x70
    38fa:	6803      	ldr	r3, [r0, #0]
    38fc:	480c      	ldr	r0, [pc, #48]	; (3930 <us_ticker_init.part.0+0x54>)
    38fe:	2102      	movs	r1, #2
    3900:	fba0 0303 	umull	r0, r3, r0, r3
    3904:	0d1b      	lsrs	r3, r3, #20
    3906:	3b01      	subs	r3, #1
    3908:	6051      	str	r1, [r2, #4]
    390a:	2004      	movs	r0, #4
    390c:	60d3      	str	r3, [r2, #12]
    390e:	4909      	ldr	r1, [pc, #36]	; (3934 <us_ticker_init.part.0+0x58>)
    3910:	6054      	str	r4, [r2, #4]
    3912:	f7ff fa57 	bl	2dc4 <NVIC_SetVector>
    3916:	4b08      	ldr	r3, [pc, #32]	; (3938 <us_ticker_init.part.0+0x5c>)
    3918:	2210      	movs	r2, #16
    391a:	601a      	str	r2, [r3, #0]
    391c:	bd38      	pop	{r3, r4, r5, pc}
    391e:	bf00      	nop
    3920:	400fc000 	.word	0x400fc000
    3924:	100008fc 	.word	0x100008fc
    3928:	40094000 	.word	0x40094000
    392c:	100000cc 	.word	0x100000cc
    3930:	431bde83 	.word	0x431bde83
    3934:	00002d95 	.word	0x00002d95
    3938:	e000e100 	.word	0xe000e100

0000393c <us_ticker_init>:
    393c:	4b02      	ldr	r3, [pc, #8]	; (3948 <us_ticker_init+0xc>)
    393e:	681b      	ldr	r3, [r3, #0]
    3940:	b103      	cbz	r3, 3944 <us_ticker_init+0x8>
    3942:	4770      	bx	lr
    3944:	f7ff bfca 	b.w	38dc <us_ticker_init.part.0>
    3948:	100008fc 	.word	0x100008fc

0000394c <us_ticker_read>:
    394c:	b508      	push	{r3, lr}
    394e:	4b04      	ldr	r3, [pc, #16]	; (3960 <us_ticker_read+0x14>)
    3950:	681b      	ldr	r3, [r3, #0]
    3952:	b90b      	cbnz	r3, 3958 <us_ticker_read+0xc>
    3954:	f7ff ffc2 	bl	38dc <us_ticker_init.part.0>
    3958:	4b02      	ldr	r3, [pc, #8]	; (3964 <us_ticker_read+0x18>)
    395a:	6898      	ldr	r0, [r3, #8]
    395c:	bd08      	pop	{r3, pc}
    395e:	bf00      	nop
    3960:	100008fc 	.word	0x100008fc
    3964:	40094000 	.word	0x40094000

00003968 <us_ticker_set_interrupt>:
    3968:	4b03      	ldr	r3, [pc, #12]	; (3978 <us_ticker_set_interrupt+0x10>)
    396a:	6198      	str	r0, [r3, #24]
    396c:	695a      	ldr	r2, [r3, #20]
    396e:	f042 0201 	orr.w	r2, r2, #1
    3972:	615a      	str	r2, [r3, #20]
    3974:	4770      	bx	lr
    3976:	bf00      	nop
    3978:	40094000 	.word	0x40094000

0000397c <us_ticker_disable_interrupt>:
    397c:	4a02      	ldr	r2, [pc, #8]	; (3988 <us_ticker_disable_interrupt+0xc>)
    397e:	6953      	ldr	r3, [r2, #20]
    3980:	f023 0301 	bic.w	r3, r3, #1
    3984:	6153      	str	r3, [r2, #20]
    3986:	4770      	bx	lr
    3988:	40094000 	.word	0x40094000

0000398c <us_ticker_clear_interrupt>:
    398c:	4b01      	ldr	r3, [pc, #4]	; (3994 <us_ticker_clear_interrupt+0x8>)
    398e:	2201      	movs	r2, #1
    3990:	601a      	str	r2, [r3, #0]
    3992:	4770      	bx	lr
    3994:	40094000 	.word	0x40094000

00003998 <mbed::FileBase::~FileBase()>:
    3998:	4a09      	ldr	r2, [pc, #36]	; (39c0 <mbed::FileBase::~FileBase()+0x28>)
    399a:	6883      	ldr	r3, [r0, #8]
    399c:	6002      	str	r2, [r0, #0]
    399e:	b153      	cbz	r3, 39b6 <mbed::FileBase::~FileBase()+0x1e>
    39a0:	4b08      	ldr	r3, [pc, #32]	; (39c4 <mbed::FileBase::~FileBase()+0x2c>)
    39a2:	681a      	ldr	r2, [r3, #0]
    39a4:	4290      	cmp	r0, r2
    39a6:	d101      	bne.n	39ac <mbed::FileBase::~FileBase()+0x14>
    39a8:	e006      	b.n	39b8 <mbed::FileBase::~FileBase()+0x20>
    39aa:	461a      	mov	r2, r3
    39ac:	6853      	ldr	r3, [r2, #4]
    39ae:	4298      	cmp	r0, r3
