
KL25Z/rosserial_mbed_Blink.elf:     file format elf32-littlearm
architecture: arm, flags 0x00000112:
EXEC_P, HAS_SYMS, D_PAGED
start address 0x000000c1


Disassembly of section .isr_vector:

00000000 <__isr_vector>:
   0:	20003000 	.word	0x20003000
   4:	000000c1 	.word	0x000000c1
   8:	000033ed 	.word	0x000033ed
   c:	000041a7 	.word	0x000041a7
	...
  2c:	000041a9 	.word	0x000041a9
	...
  38:	000041ab 	.word	0x000041ab
  3c:	000041ad 	.word	0x000041ad
  40:	000041af 	.word	0x000041af
  44:	000041af 	.word	0x000041af
  48:	000041af 	.word	0x000041af
  4c:	000041af 	.word	0x000041af
  50:	000041af 	.word	0x000041af
  54:	000041af 	.word	0x000041af
  58:	000041af 	.word	0x000041af
  5c:	000041af 	.word	0x000041af
  60:	000041af 	.word	0x000041af
  64:	000041af 	.word	0x000041af
  68:	000041af 	.word	0x000041af
  6c:	000041af 	.word	0x000041af
  70:	000041af 	.word	0x000041af
  74:	000041af 	.word	0x000041af
  78:	000041af 	.word	0x000041af
  7c:	000041af 	.word	0x000041af
  80:	000041af 	.word	0x000041af
  84:	000041af 	.word	0x000041af
  88:	000041af 	.word	0x000041af
  8c:	000041af 	.word	0x000041af
  90:	000041af 	.word	0x000041af
  94:	000041af 	.word	0x000041af
  98:	000041af 	.word	0x000041af
  9c:	000041af 	.word	0x000041af
  a0:	000041af 	.word	0x000041af
  a4:	000041af 	.word	0x000041af
  a8:	000041af 	.word	0x000041af
  ac:	000041af 	.word	0x000041af
  b0:	000041af 	.word	0x000041af
  b4:	000041af 	.word	0x000041af
  b8:	000041af 	.word	0x000041af
  bc:	000041af 	.word	0x000041af

000000c0 <Reset_Handler>:
  c0:	4907      	ldr	r1, [pc, #28]	; (e0 <Reset_Handler+0x20>)
  c2:	4a08      	ldr	r2, [pc, #32]	; (e4 <Reset_Handler+0x24>)
  c4:	4b08      	ldr	r3, [pc, #32]	; (e8 <Reset_Handler+0x28>)
  c6:	1a9b      	subs	r3, r3, r2
  c8:	dd05      	ble.n	d6 <Reset_Handler+0x16>
  ca:	2400      	movs	r4, #0
  cc:	5908      	ldr	r0, [r1, r4]
  ce:	5110      	str	r0, [r2, r4]
  d0:	3404      	adds	r4, #4
  d2:	429c      	cmp	r4, r3
  d4:	dbfa      	blt.n	cc <Reset_Handler+0xc>
  d6:	4805      	ldr	r0, [pc, #20]	; (ec <Reset_Handler+0x2c>)
  d8:	4780      	blx	r0
  da:	4805      	ldr	r0, [pc, #20]	; (f0 <Reset_Handler+0x30>)
  dc:	4700      	bx	r0
  de:	0000      	.short	0x0000
  e0:	00006dc4 	.word	0x00006dc4
  e4:	1ffff0c0 	.word	0x1ffff0c0
  e8:	1ffff144 	.word	0x1ffff144
  ec:	00002ef9 	.word	0x00002ef9
  f0:	00002549 	.word	0x00002549

Disassembly of section .text:

00000410 <deregister_tm_clones>:
     410:	4b05      	ldr	r3, [pc, #20]	; (428 <deregister_tm_clones+0x18>)
     412:	4806      	ldr	r0, [pc, #24]	; (42c <deregister_tm_clones+0x1c>)
     414:	3303      	adds	r3, #3
     416:	b510      	push	{r4, lr}
     418:	1a1b      	subs	r3, r3, r0
     41a:	2b06      	cmp	r3, #6
     41c:	d903      	bls.n	426 <deregister_tm_clones+0x16>
     41e:	4b04      	ldr	r3, [pc, #16]	; (430 <deregister_tm_clones+0x20>)
     420:	2b00      	cmp	r3, #0
     422:	d000      	beq.n	426 <deregister_tm_clones+0x16>
     424:	4798      	blx	r3
     426:	bd10      	pop	{r4, pc}
     428:	1ffff144 	.word	0x1ffff144
     42c:	1ffff144 	.word	0x1ffff144
     430:	00000000 	.word	0x00000000

00000434 <register_tm_clones>:
     434:	4806      	ldr	r0, [pc, #24]	; (450 <register_tm_clones+0x1c>)
     436:	4907      	ldr	r1, [pc, #28]	; (454 <register_tm_clones+0x20>)
     438:	b510      	push	{r4, lr}
     43a:	1a09      	subs	r1, r1, r0
     43c:	1089      	asrs	r1, r1, #2
     43e:	0fcb      	lsrs	r3, r1, #31
     440:	1859      	adds	r1, r3, r1
     442:	1049      	asrs	r1, r1, #1
     444:	d003      	beq.n	44e <register_tm_clones+0x1a>
     446:	4b04      	ldr	r3, [pc, #16]	; (458 <register_tm_clones+0x24>)
     448:	2b00      	cmp	r3, #0
     44a:	d000      	beq.n	44e <register_tm_clones+0x1a>
     44c:	4798      	blx	r3
     44e:	bd10      	pop	{r4, pc}
     450:	1ffff144 	.word	0x1ffff144
     454:	1ffff144 	.word	0x1ffff144
     458:	00000000 	.word	0x00000000

0000045c <__do_global_dtors_aux>:
     45c:	b510      	push	{r4, lr}
     45e:	4c07      	ldr	r4, [pc, #28]	; (47c <__do_global_dtors_aux+0x20>)
     460:	7823      	ldrb	r3, [r4, #0]
     462:	2b00      	cmp	r3, #0
     464:	d109      	bne.n	47a <__do_global_dtors_aux+0x1e>
     466:	f7ff ffd3 	bl	410 <deregister_tm_clones>
     46a:	4b05      	ldr	r3, [pc, #20]	; (480 <__do_global_dtors_aux+0x24>)
     46c:	2b00      	cmp	r3, #0
     46e:	d002      	beq.n	476 <__do_global_dtors_aux+0x1a>
     470:	4804      	ldr	r0, [pc, #16]	; (484 <__do_global_dtors_aux+0x28>)
     472:	e000      	b.n	476 <__do_global_dtors_aux+0x1a>
     474:	bf00      	nop
     476:	2301      	movs	r3, #1
     478:	7023      	strb	r3, [r4, #0]
     47a:	bd10      	pop	{r4, pc}
     47c:	1ffff144 	.word	0x1ffff144
     480:	00000000 	.word	0x00000000
     484:	00006dc0 	.word	0x00006dc0

00000488 <frame_dummy>:
     488:	4b09      	ldr	r3, [pc, #36]	; (4b0 <frame_dummy+0x28>)
     48a:	b510      	push	{r4, lr}
     48c:	2b00      	cmp	r3, #0
     48e:	d003      	beq.n	498 <frame_dummy+0x10>
     490:	4908      	ldr	r1, [pc, #32]	; (4b4 <frame_dummy+0x2c>)
     492:	4809      	ldr	r0, [pc, #36]	; (4b8 <frame_dummy+0x30>)
     494:	e000      	b.n	498 <frame_dummy+0x10>
     496:	bf00      	nop
     498:	4808      	ldr	r0, [pc, #32]	; (4bc <frame_dummy+0x34>)
     49a:	6803      	ldr	r3, [r0, #0]
     49c:	2b00      	cmp	r3, #0
     49e:	d102      	bne.n	4a6 <frame_dummy+0x1e>
     4a0:	f7ff ffc8 	bl	434 <register_tm_clones>
     4a4:	bd10      	pop	{r4, pc}
     4a6:	4b06      	ldr	r3, [pc, #24]	; (4c0 <frame_dummy+0x38>)
     4a8:	2b00      	cmp	r3, #0
     4aa:	d0f9      	beq.n	4a0 <frame_dummy+0x18>
     4ac:	4798      	blx	r3
     4ae:	e7f7      	b.n	4a0 <frame_dummy+0x18>
     4b0:	00000000 	.word	0x00000000
     4b4:	1ffff148 	.word	0x1ffff148
     4b8:	00006dc0 	.word	0x00006dc0
     4bc:	1ffff144 	.word	0x1ffff144
     4c0:	00000000 	.word	0x00000000

000004c4 <std_msgs::Time::serialize(unsigned char*) const>:
     4c4:	7903      	ldrb	r3, [r0, #4]
     4c6:	700b      	strb	r3, [r1, #0]
     4c8:	6843      	ldr	r3, [r0, #4]
     4ca:	0a1b      	lsrs	r3, r3, #8
     4cc:	704b      	strb	r3, [r1, #1]
     4ce:	88c3      	ldrh	r3, [r0, #6]
     4d0:	708b      	strb	r3, [r1, #2]
     4d2:	79c3      	ldrb	r3, [r0, #7]
     4d4:	70cb      	strb	r3, [r1, #3]
     4d6:	7a03      	ldrb	r3, [r0, #8]
     4d8:	710b      	strb	r3, [r1, #4]
     4da:	6883      	ldr	r3, [r0, #8]
     4dc:	0a1b      	lsrs	r3, r3, #8
     4de:	714b      	strb	r3, [r1, #5]
     4e0:	8943      	ldrh	r3, [r0, #10]
     4e2:	718b      	strb	r3, [r1, #6]
     4e4:	7ac3      	ldrb	r3, [r0, #11]
     4e6:	2008      	movs	r0, #8
     4e8:	71cb      	strb	r3, [r1, #7]
     4ea:	4770      	bx	lr

000004ec <std_msgs::Time::deserialize(unsigned char*)>:
     4ec:	b510      	push	{r4, lr}
     4ee:	780c      	ldrb	r4, [r1, #0]
     4f0:	6044      	str	r4, [r0, #4]
     4f2:	784b      	ldrb	r3, [r1, #1]
     4f4:	021b      	lsls	r3, r3, #8
     4f6:	4323      	orrs	r3, r4
     4f8:	001a      	movs	r2, r3
     4fa:	6043      	str	r3, [r0, #4]
     4fc:	788b      	ldrb	r3, [r1, #2]
     4fe:	041b      	lsls	r3, r3, #16
     500:	4313      	orrs	r3, r2
     502:	6043      	str	r3, [r0, #4]
     504:	78ca      	ldrb	r2, [r1, #3]
     506:	0612      	lsls	r2, r2, #24
     508:	4313      	orrs	r3, r2
     50a:	6043      	str	r3, [r0, #4]
     50c:	790c      	ldrb	r4, [r1, #4]
     50e:	6084      	str	r4, [r0, #8]
     510:	794b      	ldrb	r3, [r1, #5]
     512:	021b      	lsls	r3, r3, #8
     514:	4323      	orrs	r3, r4
     516:	001a      	movs	r2, r3
     518:	6083      	str	r3, [r0, #8]
     51a:	798b      	ldrb	r3, [r1, #6]
     51c:	041b      	lsls	r3, r3, #16
     51e:	4313      	orrs	r3, r2
     520:	6083      	str	r3, [r0, #8]
     522:	79ca      	ldrb	r2, [r1, #7]
     524:	0612      	lsls	r2, r2, #24
     526:	4313      	orrs	r3, r2
     528:	6083      	str	r3, [r0, #8]
     52a:	2008      	movs	r0, #8
     52c:	bd10      	pop	{r4, pc}
     52e:	46c0      	nop			; (mov r8, r8)

00000530 <std_msgs::Time::getType()>:
     530:	4800      	ldr	r0, [pc, #0]	; (534 <std_msgs::Time::getType()+0x4>)
     532:	4770      	bx	lr
     534:	00006758 	.word	0x00006758

00000538 <std_msgs::Time::getMD5()>:
     538:	4800      	ldr	r0, [pc, #0]	; (53c <std_msgs::Time::getMD5()+0x4>)
     53a:	4770      	bx	lr
     53c:	00006768 	.word	0x00006768

00000540 <rosserial_msgs::TopicInfo::getType()>:
     540:	4800      	ldr	r0, [pc, #0]	; (544 <rosserial_msgs::TopicInfo::getType()+0x4>)
     542:	4770      	bx	lr
     544:	0000678c 	.word	0x0000678c

00000548 <rosserial_msgs::TopicInfo::getMD5()>:
     548:	4800      	ldr	r0, [pc, #0]	; (54c <rosserial_msgs::TopicInfo::getMD5()+0x4>)
     54a:	4770      	bx	lr
     54c:	000067a8 	.word	0x000067a8

00000550 <rosserial_msgs::Log::getType()>:
     550:	4800      	ldr	r0, [pc, #0]	; (554 <rosserial_msgs::Log::getType()+0x4>)
     552:	4770      	bx	lr
     554:	000067cc 	.word	0x000067cc

00000558 <rosserial_msgs::Log::getMD5()>:
     558:	4800      	ldr	r0, [pc, #0]	; (55c <rosserial_msgs::Log::getMD5()+0x4>)
     55a:	4770      	bx	lr
     55c:	000067e0 	.word	0x000067e0

00000560 <rosserial_msgs::RequestParamResponse::getType()>:
     560:	4800      	ldr	r0, [pc, #0]	; (564 <rosserial_msgs::RequestParamResponse::getType()+0x4>)
     562:	4770      	bx	lr
     564:	000068a4 	.word	0x000068a4

00000568 <rosserial_msgs::RequestParamResponse::getMD5()>:
     568:	4800      	ldr	r0, [pc, #0]	; (56c <rosserial_msgs::RequestParamResponse::getMD5()+0x4>)
     56a:	4770      	bx	lr
     56c:	00006804 	.word	0x00006804

00000570 <std_msgs::Empty::serialize(unsigned char*) const>:
     570:	2000      	movs	r0, #0
     572:	4770      	bx	lr

00000574 <std_msgs::Empty::deserialize(unsigned char*)>:
     574:	2000      	movs	r0, #0
     576:	4770      	bx	lr

00000578 <std_msgs::Empty::getType()>:
     578:	4800      	ldr	r0, [pc, #0]	; (57c <std_msgs::Empty::getType()+0x4>)
     57a:	4770      	bx	lr
     57c:	00006828 	.word	0x00006828

00000580 <std_msgs::Empty::getMD5()>:
     580:	4800      	ldr	r0, [pc, #0]	; (584 <std_msgs::Empty::getMD5()+0x4>)
     582:	4770      	bx	lr
     584:	00006838 	.word	0x00006838

00000588 <messageCb(std_msgs::Empty const&)>:
     588:	4b05      	ldr	r3, [pc, #20]	; (5a0 <messageCb(std_msgs::Empty const&)+0x18>)
     58a:	6959      	ldr	r1, [r3, #20]
     58c:	685a      	ldr	r2, [r3, #4]
     58e:	6809      	ldr	r1, [r1, #0]
     590:	4211      	tst	r1, r2
     592:	d102      	bne.n	59a <messageCb(std_msgs::Empty const&)+0x12>
     594:	68db      	ldr	r3, [r3, #12]
     596:	601a      	str	r2, [r3, #0]
     598:	4770      	bx	lr
     59a:	691b      	ldr	r3, [r3, #16]
     59c:	601a      	str	r2, [r3, #0]
     59e:	e7fb      	b.n	598 <messageCb(std_msgs::Empty const&)+0x10>
     5a0:	1ffff160 	.word	0x1ffff160

000005a4 <ros::Subscriber<std_msgs::Empty>::callback(unsigned char*)>:
     5a4:	0003      	movs	r3, r0
     5a6:	b510      	push	{r4, lr}
     5a8:	300c      	adds	r0, #12
     5aa:	691b      	ldr	r3, [r3, #16]
     5ac:	4798      	blx	r3
     5ae:	bd10      	pop	{r4, pc}

000005b0 <ros::Subscriber<std_msgs::Empty>::getEndpointType()>:
     5b0:	6940      	ldr	r0, [r0, #20]
     5b2:	4770      	bx	lr

000005b4 <ros::Subscriber<std_msgs::Empty>::getMsgType()>:
     5b4:	4800      	ldr	r0, [pc, #0]	; (5b8 <ros::Subscriber<std_msgs::Empty>::getMsgType()+0x4>)
     5b6:	4770      	bx	lr
     5b8:	00006828 	.word	0x00006828

000005bc <ros::Subscriber<std_msgs::Empty>::getMsgMD5()>:
     5bc:	4800      	ldr	r0, [pc, #0]	; (5c0 <ros::Subscriber<std_msgs::Empty>::getMsgMD5()+0x4>)
     5be:	4770      	bx	lr
     5c0:	00006838 	.word	0x00006838

000005c4 <ros::NodeHandle_<MbedHardware, 25, 25, 512, 512>::connected()>:
     5c4:	4b01      	ldr	r3, [pc, #4]	; (5cc <ros::NodeHandle_<MbedHardware, 25, 25, 512, 512>::connected()+0x8>)
     5c6:	5cc0      	ldrb	r0, [r0, r3]
     5c8:	4770      	bx	lr
     5ca:	46c0      	nop			; (mov r8, r8)
     5cc:	000005fc 	.word	0x000005fc

000005d0 <rosserial_msgs::RequestParamResponse::serialize(unsigned char*) const>:
     5d0:	b5f0      	push	{r4, r5, r6, r7, lr}
     5d2:	4646      	mov	r6, r8
     5d4:	464f      	mov	r7, r9
     5d6:	b4c0      	push	{r6, r7}
     5d8:	7903      	ldrb	r3, [r0, #4]
     5da:	b083      	sub	sp, #12
     5dc:	700b      	strb	r3, [r1, #0]
     5de:	2300      	movs	r3, #0
     5e0:	704b      	strb	r3, [r1, #1]
     5e2:	708b      	strb	r3, [r1, #2]
     5e4:	70cb      	strb	r3, [r1, #3]
     5e6:	7903      	ldrb	r3, [r0, #4]
     5e8:	0005      	movs	r5, r0
     5ea:	000e      	movs	r6, r1
     5ec:	2b00      	cmp	r3, #0
     5ee:	d066      	beq.n	6be <rosserial_msgs::RequestParamResponse::serialize(unsigned char*) const+0xee>
     5f0:	2404      	movs	r4, #4
     5f2:	1d0b      	adds	r3, r1, #4
     5f4:	2100      	movs	r1, #0
     5f6:	1ba4      	subs	r4, r4, r6
     5f8:	68e8      	ldr	r0, [r5, #12]
     5fa:	008a      	lsls	r2, r1, #2
     5fc:	5812      	ldr	r2, [r2, r0]
     5fe:	3101      	adds	r1, #1
     600:	0a10      	lsrs	r0, r2, #8
     602:	701a      	strb	r2, [r3, #0]
     604:	7058      	strb	r0, [r3, #1]
     606:	0c10      	lsrs	r0, r2, #16
     608:	0e12      	lsrs	r2, r2, #24
     60a:	7098      	strb	r0, [r3, #2]
     60c:	70da      	strb	r2, [r3, #3]
     60e:	792a      	ldrb	r2, [r5, #4]
     610:	b2c9      	uxtb	r1, r1
     612:	18e0      	adds	r0, r4, r3
     614:	3304      	adds	r3, #4
     616:	428a      	cmp	r2, r1
     618:	d8ee      	bhi.n	5f8 <rosserial_msgs::RequestParamResponse::serialize(unsigned char*) const+0x28>
     61a:	1c43      	adds	r3, r0, #1
     61c:	1d02      	adds	r2, r0, #4
     61e:	469c      	mov	r12, r3
     620:	0014      	movs	r4, r2
     622:	1c87      	adds	r7, r0, #2
     624:	1cc1      	adds	r1, r0, #3
     626:	7c2b      	ldrb	r3, [r5, #16]
     628:	5433      	strb	r3, [r6, r0]
     62a:	2300      	movs	r3, #0
     62c:	4660      	mov	r0, r12
     62e:	5433      	strb	r3, [r6, r0]
     630:	55f3      	strb	r3, [r6, r7]
     632:	5473      	strb	r3, [r6, r1]
     634:	7c2b      	ldrb	r3, [r5, #16]
     636:	2b00      	cmp	r3, #0
     638:	d013      	beq.n	662 <rosserial_msgs::RequestParamResponse::serialize(unsigned char*) const+0x92>
     63a:	2200      	movs	r2, #0
     63c:	1931      	adds	r1, r6, r4
     63e:	69a8      	ldr	r0, [r5, #24]
     640:	0093      	lsls	r3, r2, #2
     642:	581b      	ldr	r3, [r3, r0]
     644:	3201      	adds	r2, #1
     646:	0a18      	lsrs	r0, r3, #8
     648:	700b      	strb	r3, [r1, #0]
     64a:	7048      	strb	r0, [r1, #1]
     64c:	0c18      	lsrs	r0, r3, #16
     64e:	0e1b      	lsrs	r3, r3, #24
     650:	7088      	strb	r0, [r1, #2]
     652:	70cb      	strb	r3, [r1, #3]
     654:	7c2b      	ldrb	r3, [r5, #16]
     656:	b2d2      	uxtb	r2, r2
     658:	3404      	adds	r4, #4
     65a:	3104      	adds	r1, #4
     65c:	4293      	cmp	r3, r2
     65e:	d8ee      	bhi.n	63e <rosserial_msgs::RequestParamResponse::serialize(unsigned char*) const+0x6e>
     660:	0022      	movs	r2, r4
     662:	7f2b      	ldrb	r3, [r5, #28]
     664:	54b3      	strb	r3, [r6, r2]
     666:	2200      	movs	r2, #0
     668:	1933      	adds	r3, r6, r4
     66a:	705a      	strb	r2, [r3, #1]
     66c:	709a      	strb	r2, [r3, #2]
     66e:	70da      	strb	r2, [r3, #3]
     670:	7f2b      	ldrb	r3, [r5, #28]
     672:	3404      	adds	r4, #4
     674:	2b00      	cmp	r3, #0
     676:	d01c      	beq.n	6b2 <rosserial_msgs::RequestParamResponse::serialize(unsigned char*) const+0xe2>
     678:	2700      	movs	r7, #0
     67a:	00bb      	lsls	r3, r7, #2
     67c:	4699      	mov	r9, r3
     67e:	464a      	mov	r2, r9
     680:	6a6b      	ldr	r3, [r5, #36]	; 0x24
     682:	3701      	adds	r7, #1
     684:	5898      	ldr	r0, [r3, r2]
     686:	f005 f9bf 	bl	5a08 <strlen>
     68a:	2204      	movs	r2, #4
     68c:	4680      	mov	r8, r0
     68e:	9001      	str	r0, [sp, #4]
     690:	a901      	add	r1, sp, #4
     692:	1930      	adds	r0, r6, r4
     694:	f004 fae3 	bl	4c5e <memcpy>
     698:	464a      	mov	r2, r9
     69a:	6a6b      	ldr	r3, [r5, #36]	; 0x24
     69c:	3404      	adds	r4, #4
     69e:	5899      	ldr	r1, [r3, r2]
     6a0:	1930      	adds	r0, r6, r4
     6a2:	4642      	mov	r2, r8
     6a4:	f004 fadb 	bl	4c5e <memcpy>
     6a8:	7f2b      	ldrb	r3, [r5, #28]
     6aa:	b2ff      	uxtb	r7, r7
     6ac:	4444      	add	r4, r8
     6ae:	42bb      	cmp	r3, r7
     6b0:	d8e3      	bhi.n	67a <rosserial_msgs::RequestParamResponse::serialize(unsigned char*) const+0xaa>
     6b2:	0020      	movs	r0, r4
     6b4:	b003      	add	sp, #12
     6b6:	bc0c      	pop	{r2, r3}
     6b8:	4690      	mov	r8, r2
     6ba:	4699      	mov	r9, r3
     6bc:	bdf0      	pop	{r4, r5, r6, r7, pc}
     6be:	2305      	movs	r3, #5
     6c0:	2208      	movs	r2, #8
     6c2:	2107      	movs	r1, #7
     6c4:	2408      	movs	r4, #8
     6c6:	2706      	movs	r7, #6
     6c8:	469c      	mov	r12, r3
     6ca:	2004      	movs	r0, #4
     6cc:	e7ab      	b.n	626 <rosserial_msgs::RequestParamResponse::serialize(unsigned char*) const+0x56>
     6ce:	46c0      	nop			; (mov r8, r8)

000006d0 <rosserial_msgs::Log::serialize(unsigned char*) const>:
     6d0:	b570      	push	{r4, r5, r6, lr}
     6d2:	7903      	ldrb	r3, [r0, #4]
     6d4:	b082      	sub	sp, #8
     6d6:	700b      	strb	r3, [r1, #0]
     6d8:	0006      	movs	r6, r0
     6da:	6880      	ldr	r0, [r0, #8]
     6dc:	000d      	movs	r5, r1
     6de:	f005 f993 	bl	5a08 <strlen>
     6e2:	0004      	movs	r4, r0
     6e4:	9001      	str	r0, [sp, #4]
     6e6:	a901      	add	r1, sp, #4
     6e8:	1c68      	adds	r0, r5, #1
     6ea:	2204      	movs	r2, #4
     6ec:	f004 fab7 	bl	4c5e <memcpy>
     6f0:	1d68      	adds	r0, r5, #5
     6f2:	68b1      	ldr	r1, [r6, #8]
     6f4:	0022      	movs	r2, r4
     6f6:	f004 fab2 	bl	4c5e <memcpy>
     6fa:	1d60      	adds	r0, r4, #5
     6fc:	b002      	add	sp, #8
     6fe:	bd70      	pop	{r4, r5, r6, pc}

00000700 <rosserial_msgs::TopicInfo::serialize(unsigned char*) const>:
     700:	b5f0      	push	{r4, r5, r6, r7, lr}
     702:	4647      	mov	r7, r8
     704:	b480      	push	{r7}
     706:	8883      	ldrh	r3, [r0, #4]
     708:	b084      	sub	sp, #16
     70a:	700b      	strb	r3, [r1, #0]
     70c:	8883      	ldrh	r3, [r0, #4]
     70e:	0006      	movs	r6, r0
     710:	0a1b      	lsrs	r3, r3, #8
     712:	704b      	strb	r3, [r1, #1]
     714:	6880      	ldr	r0, [r0, #8]
     716:	000d      	movs	r5, r1
     718:	f005 f976 	bl	5a08 <strlen>
     71c:	0004      	movs	r4, r0
     71e:	9001      	str	r0, [sp, #4]
     720:	a901      	add	r1, sp, #4
     722:	1ca8      	adds	r0, r5, #2
     724:	2204      	movs	r2, #4
     726:	f004 fa9a 	bl	4c5e <memcpy>
     72a:	0022      	movs	r2, r4
     72c:	68b1      	ldr	r1, [r6, #8]
     72e:	1da8      	adds	r0, r5, #6
     730:	f004 fa95 	bl	4c5e <memcpy>
     734:	1da3      	adds	r3, r4, #6
     736:	4698      	mov	r8, r3
     738:	68f0      	ldr	r0, [r6, #12]
     73a:	f005 f965 	bl	5a08 <strlen>
     73e:	4643      	mov	r3, r8
     740:	0007      	movs	r7, r0
     742:	9002      	str	r0, [sp, #8]
     744:	a902      	add	r1, sp, #8
     746:	18e8      	adds	r0, r5, r3
     748:	2204      	movs	r2, #4
     74a:	340a      	adds	r4, #10
     74c:	f004 fa87 	bl	4c5e <memcpy>
     750:	003a      	movs	r2, r7
     752:	68f1      	ldr	r1, [r6, #12]
     754:	1928      	adds	r0, r5, r4
     756:	f004 fa82 	bl	4c5e <memcpy>
     75a:	6930      	ldr	r0, [r6, #16]
     75c:	f005 f954 	bl	5a08 <strlen>
     760:	193c      	adds	r4, r7, r4
     762:	0007      	movs	r7, r0
     764:	9003      	str	r0, [sp, #12]
     766:	a903      	add	r1, sp, #12
     768:	1928      	adds	r0, r5, r4
     76a:	2204      	movs	r2, #4
     76c:	3404      	adds	r4, #4
     76e:	f004 fa76 	bl	4c5e <memcpy>
     772:	1928      	adds	r0, r5, r4
     774:	003a      	movs	r2, r7
     776:	6931      	ldr	r1, [r6, #16]
     778:	f004 fa71 	bl	4c5e <memcpy>
     77c:	6973      	ldr	r3, [r6, #20]
     77e:	1938      	adds	r0, r7, r4
     780:	542b      	strb	r3, [r5, r0]
     782:	0a1a      	lsrs	r2, r3, #8
     784:	182d      	adds	r5, r5, r0
     786:	706a      	strb	r2, [r5, #1]
     788:	3004      	adds	r0, #4
     78a:	0c1a      	lsrs	r2, r3, #16
     78c:	0e1b      	lsrs	r3, r3, #24
     78e:	70aa      	strb	r2, [r5, #2]
     790:	70eb      	strb	r3, [r5, #3]
     792:	b004      	add	sp, #16
     794:	bc04      	pop	{r2}
     796:	4690      	mov	r8, r2
     798:	bdf0      	pop	{r4, r5, r6, r7, pc}
     79a:	46c0      	nop			; (mov r8, r8)

0000079c <rosserial_msgs::Log::deserialize(unsigned char*)>:
     79c:	b530      	push	{r4, r5, lr}
     79e:	000c      	movs	r4, r1
     7a0:	780b      	ldrb	r3, [r1, #0]
     7a2:	b083      	sub	sp, #12
     7a4:	7103      	strb	r3, [r0, #4]
     7a6:	3101      	adds	r1, #1
     7a8:	0005      	movs	r5, r0
     7aa:	2204      	movs	r2, #4
     7ac:	a801      	add	r0, sp, #4
     7ae:	f004 fa56 	bl	4c5e <memcpy>
     7b2:	9901      	ldr	r1, [sp, #4]
     7b4:	0023      	movs	r3, r4
     7b6:	1d48      	adds	r0, r1, #5
     7b8:	1861      	adds	r1, r4, r1
     7ba:	2805      	cmp	r0, #5
     7bc:	d904      	bls.n	7c8 <rosserial_msgs::Log::deserialize(unsigned char*)+0x2c>
     7be:	795a      	ldrb	r2, [r3, #5]
     7c0:	3301      	adds	r3, #1
     7c2:	70da      	strb	r2, [r3, #3]
     7c4:	4299      	cmp	r1, r3
     7c6:	d1fa      	bne.n	7be <rosserial_msgs::Log::deserialize(unsigned char*)+0x22>
     7c8:	2300      	movs	r3, #0
     7ca:	3404      	adds	r4, #4
     7cc:	710b      	strb	r3, [r1, #4]
     7ce:	60ac      	str	r4, [r5, #8]
     7d0:	b003      	add	sp, #12
     7d2:	bd30      	pop	{r4, r5, pc}

000007d4 <rosserial_msgs::TopicInfo::deserialize(unsigned char*)>:
     7d4:	b5f0      	push	{r4, r5, r6, r7, lr}
     7d6:	000d      	movs	r5, r1
     7d8:	780a      	ldrb	r2, [r1, #0]
     7da:	b085      	sub	sp, #20
     7dc:	8082      	strh	r2, [r0, #4]
     7de:	784b      	ldrb	r3, [r1, #1]
     7e0:	0006      	movs	r6, r0
     7e2:	021b      	lsls	r3, r3, #8
     7e4:	4313      	orrs	r3, r2
     7e6:	8083      	strh	r3, [r0, #4]
     7e8:	2204      	movs	r2, #4
     7ea:	3102      	adds	r1, #2
     7ec:	a801      	add	r0, sp, #4
     7ee:	f004 fa36 	bl	4c5e <memcpy>
     7f2:	9b01      	ldr	r3, [sp, #4]
     7f4:	002a      	movs	r2, r5
     7f6:	1d9f      	adds	r7, r3, #6
     7f8:	18ec      	adds	r4, r5, r3
     7fa:	2f06      	cmp	r7, #6
     7fc:	d904      	bls.n	808 <rosserial_msgs::TopicInfo::deserialize(unsigned char*)+0x34>
     7fe:	7993      	ldrb	r3, [r2, #6]
     800:	3201      	adds	r2, #1
     802:	7113      	strb	r3, [r2, #4]
     804:	4294      	cmp	r4, r2
     806:	d1fa      	bne.n	7fe <rosserial_msgs::TopicInfo::deserialize(unsigned char*)+0x2a>
     808:	2300      	movs	r3, #0
     80a:	7163      	strb	r3, [r4, #5]
     80c:	1d6b      	adds	r3, r5, #5
     80e:	60b3      	str	r3, [r6, #8]
     810:	19e9      	adds	r1, r5, r7
     812:	2204      	movs	r2, #4
     814:	a802      	add	r0, sp, #8
     816:	f004 fa22 	bl	4c5e <memcpy>
     81a:	9b02      	ldr	r3, [sp, #8]
     81c:	1d38      	adds	r0, r7, #4
     81e:	18c7      	adds	r7, r0, r3
     820:	0002      	movs	r2, r0
     822:	0023      	movs	r3, r4
     824:	42b8      	cmp	r0, r7
     826:	d205      	bcs.n	834 <rosserial_msgs::TopicInfo::deserialize(unsigned char*)+0x60>
     828:	7a99      	ldrb	r1, [r3, #10]
     82a:	3201      	adds	r2, #1
     82c:	7259      	strb	r1, [r3, #9]
     82e:	3301      	adds	r3, #1
     830:	42ba      	cmp	r2, r7
     832:	d3f9      	bcc.n	828 <rosserial_msgs::TopicInfo::deserialize(unsigned char*)+0x54>
     834:	2200      	movs	r2, #0
     836:	19ec      	adds	r4, r5, r7
     838:	3801      	subs	r0, #1
     83a:	1e63      	subs	r3, r4, #1
     83c:	1828      	adds	r0, r5, r0
     83e:	701a      	strb	r2, [r3, #0]
     840:	0021      	movs	r1, r4
     842:	60f0      	str	r0, [r6, #12]
     844:	3204      	adds	r2, #4
     846:	a803      	add	r0, sp, #12
     848:	f004 fa09 	bl	4c5e <memcpy>
     84c:	9b03      	ldr	r3, [sp, #12]
     84e:	3704      	adds	r7, #4
     850:	18f8      	adds	r0, r7, r3
     852:	0021      	movs	r1, r4
     854:	1e3b      	subs	r3, r7, #0
     856:	4283      	cmp	r3, r0
     858:	d205      	bcs.n	866 <rosserial_msgs::TopicInfo::deserialize(unsigned char*)+0x92>
     85a:	790a      	ldrb	r2, [r1, #4]
     85c:	3301      	adds	r3, #1
     85e:	70ca      	strb	r2, [r1, #3]
     860:	3101      	adds	r1, #1
     862:	4283      	cmp	r3, r0
     864:	d3f9      	bcc.n	85a <rosserial_msgs::TopicInfo::deserialize(unsigned char*)+0x86>
     866:	2100      	movs	r1, #0
     868:	182a      	adds	r2, r5, r0
     86a:	3f01      	subs	r7, #1
     86c:	1e53      	subs	r3, r2, #1
     86e:	19ef      	adds	r7, r5, r7
     870:	7019      	strb	r1, [r3, #0]
     872:	6137      	str	r7, [r6, #16]
     874:	7853      	ldrb	r3, [r2, #1]
     876:	0219      	lsls	r1, r3, #8
     878:	7893      	ldrb	r3, [r2, #2]
     87a:	78d2      	ldrb	r2, [r2, #3]
     87c:	041b      	lsls	r3, r3, #16
     87e:	430b      	orrs	r3, r1
     880:	5c29      	ldrb	r1, [r5, r0]
     882:	0612      	lsls	r2, r2, #24
     884:	430b      	orrs	r3, r1
     886:	4313      	orrs	r3, r2
     888:	3004      	adds	r0, #4
     88a:	6173      	str	r3, [r6, #20]
     88c:	b005      	add	sp, #20
     88e:	bdf0      	pop	{r4, r5, r6, r7, pc}

00000890 <rosserial_msgs::RequestParamResponse::deserialize(unsigned char*)>:
     890:	b5f0      	push	{r4, r5, r6, r7, lr}
     892:	4657      	mov	r7, r10
     894:	4645      	mov	r5, r8
     896:	464e      	mov	r6, r9
     898:	b4e0      	push	{r5, r6, r7}
     89a:	780c      	ldrb	r4, [r1, #0]
     89c:	7903      	ldrb	r3, [r0, #4]
     89e:	b082      	sub	sp, #8
     8a0:	0005      	movs	r5, r0
     8a2:	000f      	movs	r7, r1
     8a4:	42a3      	cmp	r3, r4
     8a6:	d200      	bcs.n	8aa <rosserial_msgs::RequestParamResponse::deserialize(unsigned char*)+0x1a>
     8a8:	e09a      	b.n	9e0 <rosserial_msgs::RequestParamResponse::deserialize(unsigned char*)+0x150>
     8aa:	712c      	strb	r4, [r5, #4]
     8ac:	2308      	movs	r3, #8
     8ae:	2c00      	cmp	r4, #0
     8b0:	d100      	bne.n	8b4 <rosserial_msgs::RequestParamResponse::deserialize(unsigned char*)+0x24>
     8b2:	e09f      	b.n	9f4 <rosserial_msgs::RequestParamResponse::deserialize(unsigned char*)+0x164>
     8b4:	4699      	mov	r9, r3
     8b6:	3b04      	subs	r3, #4
     8b8:	1bdb      	subs	r3, r3, r7
     8ba:	2600      	movs	r6, #0
     8bc:	4698      	mov	r8, r3
     8be:	44a9      	add	r9, r5
     8c0:	1d3c      	adds	r4, r7, #4
     8c2:	7863      	ldrb	r3, [r4, #1]
     8c4:	46a2      	mov	r10, r4
     8c6:	021a      	lsls	r2, r3, #8
     8c8:	78a3      	ldrb	r3, [r4, #2]
     8ca:	00b0      	lsls	r0, r6, #2
     8cc:	041b      	lsls	r3, r3, #16
     8ce:	4313      	orrs	r3, r2
     8d0:	7822      	ldrb	r2, [r4, #0]
     8d2:	4649      	mov	r1, r9
     8d4:	4313      	orrs	r3, r2
     8d6:	78e2      	ldrb	r2, [r4, #3]
     8d8:	3601      	adds	r6, #1
     8da:	0612      	lsls	r2, r2, #24
     8dc:	4313      	orrs	r3, r2
     8de:	60ab      	str	r3, [r5, #8]
     8e0:	68eb      	ldr	r3, [r5, #12]
     8e2:	2204      	movs	r2, #4
     8e4:	469c      	mov	r12, r3
     8e6:	4460      	add	r0, r12
     8e8:	f004 f9b9 	bl	4c5e <memcpy>
     8ec:	792b      	ldrb	r3, [r5, #4]
     8ee:	b2f6      	uxtb	r6, r6
     8f0:	44c2      	add	r10, r8
     8f2:	3404      	adds	r4, #4
     8f4:	42b3      	cmp	r3, r6
     8f6:	d8e4      	bhi.n	8c2 <rosserial_msgs::RequestParamResponse::deserialize(unsigned char*)+0x32>
     8f8:	4653      	mov	r3, r10
     8fa:	1d1a      	adds	r2, r3, #4
     8fc:	5cfe      	ldrb	r6, [r7, r3]
     8fe:	7c2b      	ldrb	r3, [r5, #16]
     900:	4690      	mov	r8, r2
     902:	4692      	mov	r10, r2
     904:	42b3      	cmp	r3, r6
     906:	d200      	bcs.n	90a <rosserial_msgs::RequestParamResponse::deserialize(unsigned char*)+0x7a>
     908:	e07c      	b.n	a04 <rosserial_msgs::RequestParamResponse::deserialize(unsigned char*)+0x174>
     90a:	742e      	strb	r6, [r5, #16]
     90c:	2e00      	cmp	r6, #0
     90e:	d022      	beq.n	956 <rosserial_msgs::RequestParamResponse::deserialize(unsigned char*)+0xc6>
     910:	2314      	movs	r3, #20
     912:	4699      	mov	r9, r3
     914:	4653      	mov	r3, r10
     916:	2600      	movs	r6, #0
     918:	44a9      	add	r9, r5
     91a:	18fc      	adds	r4, r7, r3
     91c:	7863      	ldrb	r3, [r4, #1]
     91e:	00b0      	lsls	r0, r6, #2
     920:	021a      	lsls	r2, r3, #8
     922:	78a3      	ldrb	r3, [r4, #2]
     924:	4649      	mov	r1, r9
     926:	041b      	lsls	r3, r3, #16
     928:	4313      	orrs	r3, r2
     92a:	7822      	ldrb	r2, [r4, #0]
     92c:	3601      	adds	r6, #1
     92e:	4313      	orrs	r3, r2
     930:	78e2      	ldrb	r2, [r4, #3]
     932:	b2f6      	uxtb	r6, r6
     934:	0612      	lsls	r2, r2, #24
     936:	4313      	orrs	r3, r2
     938:	616b      	str	r3, [r5, #20]
     93a:	2304      	movs	r3, #4
     93c:	469c      	mov	r12, r3
     93e:	69ab      	ldr	r3, [r5, #24]
     940:	44e2      	add	r10, r12
     942:	469c      	mov	r12, r3
     944:	2204      	movs	r2, #4
     946:	4460      	add	r0, r12
     948:	f004 f989 	bl	4c5e <memcpy>
     94c:	7c2b      	ldrb	r3, [r5, #16]
     94e:	3404      	adds	r4, #4
     950:	42b3      	cmp	r3, r6
     952:	d8e3      	bhi.n	91c <rosserial_msgs::RequestParamResponse::deserialize(unsigned char*)+0x8c>
     954:	46d0      	mov	r8, r10
     956:	4643      	mov	r3, r8
     958:	5cfe      	ldrb	r6, [r7, r3]
     95a:	7f2b      	ldrb	r3, [r5, #28]
     95c:	42b3      	cmp	r3, r6
     95e:	d357      	bcc.n	a10 <rosserial_msgs::RequestParamResponse::deserialize(unsigned char*)+0x180>
     960:	2304      	movs	r3, #4
     962:	469c      	mov	r12, r3
     964:	772e      	strb	r6, [r5, #28]
     966:	44e2      	add	r10, r12
     968:	2e00      	cmp	r6, #0
     96a:	d032      	beq.n	9d2 <rosserial_msgs::RequestParamResponse::deserialize(unsigned char*)+0x142>
     96c:	331c      	adds	r3, #28
     96e:	4699      	mov	r9, r3
     970:	2300      	movs	r3, #0
     972:	2600      	movs	r6, #0
     974:	4698      	mov	r8, r3
     976:	44a9      	add	r9, r5
     978:	4653      	mov	r3, r10
     97a:	18fc      	adds	r4, r7, r3
     97c:	0021      	movs	r1, r4
     97e:	2204      	movs	r2, #4
     980:	a801      	add	r0, sp, #4
     982:	f004 f96c 	bl	4c5e <memcpy>
     986:	2304      	movs	r3, #4
     988:	469c      	mov	r12, r3
     98a:	9b01      	ldr	r3, [sp, #4]
     98c:	44e2      	add	r10, r12
     98e:	4453      	add	r3, r10
     990:	0018      	movs	r0, r3
     992:	0021      	movs	r1, r4
     994:	4653      	mov	r3, r10
     996:	4582      	cmp	r10, r0
     998:	d205      	bcs.n	9a6 <rosserial_msgs::RequestParamResponse::deserialize(unsigned char*)+0x116>
     99a:	790a      	ldrb	r2, [r1, #4]
     99c:	3301      	adds	r3, #1
     99e:	70ca      	strb	r2, [r1, #3]
     9a0:	3101      	adds	r1, #1
     9a2:	4283      	cmp	r3, r0
     9a4:	d3f9      	bcc.n	99a <rosserial_msgs::RequestParamResponse::deserialize(unsigned char*)+0x10a>
     9a6:	4642      	mov	r2, r8
     9a8:	183b      	adds	r3, r7, r0
     9aa:	3b01      	subs	r3, #1
     9ac:	701a      	strb	r2, [r3, #0]
     9ae:	4653      	mov	r3, r10
     9b0:	3b01      	subs	r3, #1
     9b2:	18fb      	adds	r3, r7, r3
     9b4:	622b      	str	r3, [r5, #32]
     9b6:	6a6b      	ldr	r3, [r5, #36]	; 0x24
     9b8:	4682      	mov	r10, r0
     9ba:	469c      	mov	r12, r3
     9bc:	00b0      	lsls	r0, r6, #2
     9be:	4460      	add	r0, r12
     9c0:	2204      	movs	r2, #4
     9c2:	4649      	mov	r1, r9
     9c4:	f004 f94b 	bl	4c5e <memcpy>
     9c8:	3601      	adds	r6, #1
     9ca:	7f2b      	ldrb	r3, [r5, #28]
     9cc:	b2f6      	uxtb	r6, r6
     9ce:	42b3      	cmp	r3, r6
     9d0:	d8d2      	bhi.n	978 <rosserial_msgs::RequestParamResponse::deserialize(unsigned char*)+0xe8>
     9d2:	4650      	mov	r0, r10
     9d4:	b002      	add	sp, #8
     9d6:	bc1c      	pop	{r2, r3, r4}
     9d8:	4690      	mov	r8, r2
     9da:	4699      	mov	r9, r3
     9dc:	46a2      	mov	r10, r4
     9de:	bdf0      	pop	{r4, r5, r6, r7, pc}
     9e0:	00a1      	lsls	r1, r4, #2
     9e2:	68c0      	ldr	r0, [r0, #12]
     9e4:	f001 fdd2 	bl	258c <__wrap_realloc>
     9e8:	712c      	strb	r4, [r5, #4]
     9ea:	60e8      	str	r0, [r5, #12]
     9ec:	2308      	movs	r3, #8
     9ee:	2c00      	cmp	r4, #0
     9f0:	d000      	beq.n	9f4 <rosserial_msgs::RequestParamResponse::deserialize(unsigned char*)+0x164>
     9f2:	e75f      	b.n	8b4 <rosserial_msgs::RequestParamResponse::deserialize(unsigned char*)+0x24>
     9f4:	4698      	mov	r8, r3
     9f6:	469a      	mov	r10, r3
     9f8:	3b04      	subs	r3, #4
     9fa:	5cfe      	ldrb	r6, [r7, r3]
     9fc:	7c2b      	ldrb	r3, [r5, #16]
     9fe:	42b3      	cmp	r3, r6
     a00:	d300      	bcc.n	a04 <rosserial_msgs::RequestParamResponse::deserialize(unsigned char*)+0x174>
     a02:	e782      	b.n	90a <rosserial_msgs::RequestParamResponse::deserialize(unsigned char*)+0x7a>
     a04:	00b1      	lsls	r1, r6, #2
     a06:	69a8      	ldr	r0, [r5, #24]
     a08:	f001 fdc0 	bl	258c <__wrap_realloc>
     a0c:	61a8      	str	r0, [r5, #24]
     a0e:	e77c      	b.n	90a <rosserial_msgs::RequestParamResponse::deserialize(unsigned char*)+0x7a>
     a10:	00b1      	lsls	r1, r6, #2
     a12:	6a68      	ldr	r0, [r5, #36]	; 0x24
     a14:	f001 fdba 	bl	258c <__wrap_realloc>
     a18:	6268      	str	r0, [r5, #36]	; 0x24
     a1a:	e7a1      	b.n	960 <rosserial_msgs::RequestParamResponse::deserialize(unsigned char*)+0xd0>

00000a1c <ros::NodeHandle_<MbedHardware, 25, 25, 512, 512>::publish(int, ros::Msg const*)>:
     a1c:	b5f0      	push	{r4, r5, r6, r7, lr}
     a1e:	4647      	mov	r7, r8
     a20:	b480      	push	{r7}
     a22:	0005      	movs	r5, r0
     a24:	b084      	sub	sp, #16
     a26:	1e0e      	subs	r6, r1, #0
     a28:	2e63      	cmp	r6, #99	; 0x63
     a2a:	dd05      	ble.n	a38 <ros::NodeHandle_<MbedHardware, 25, 25, 512, 512>::publish(int, ros::Msg const*)+0x1c>
     a2c:	2100      	movs	r1, #0
     a2e:	4b58      	ldr	r3, [pc, #352]	; (b90 <ros::NodeHandle_<MbedHardware, 25, 25, 512, 512>::publish(int, ros::Msg const*)+0x174>)
     a30:	4688      	mov	r8, r1
     a32:	5cc3      	ldrb	r3, [r0, r3]
     a34:	2b00      	cmp	r3, #0
     a36:	d04c      	beq.n	ad2 <ros::NodeHandle_<MbedHardware, 25, 25, 512, 512>::publish(int, ros::Msg const*)+0xb6>
     a38:	6813      	ldr	r3, [r2, #0]
     a3a:	4956      	ldr	r1, [pc, #344]	; (b94 <ros::NodeHandle_<MbedHardware, 25, 25, 512, 512>::publish(int, ros::Msg const*)+0x178>)
     a3c:	681b      	ldr	r3, [r3, #0]
     a3e:	1869      	adds	r1, r5, r1
     a40:	0010      	movs	r0, r2
     a42:	4798      	blx	r3
     a44:	b283      	uxth	r3, r0
     a46:	469c      	mov	r12, r3
     a48:	23c8      	movs	r3, #200	; 0xc8
     a4a:	22ff      	movs	r2, #255	; 0xff
     a4c:	009b      	lsls	r3, r3, #2
     a4e:	54ea      	strb	r2, [r5, r3]
     a50:	4b51      	ldr	r3, [pc, #324]	; (b98 <ros::NodeHandle_<MbedHardware, 25, 25, 512, 512>::publish(int, ros::Msg const*)+0x17c>)
     a52:	3a01      	subs	r2, #1
     a54:	54ea      	strb	r2, [r5, r3]
     a56:	4b51      	ldr	r3, [pc, #324]	; (b9c <ros::NodeHandle_<MbedHardware, 25, 25, 512, 512>::publish(int, ros::Msg const*)+0x180>)
     a58:	b2c1      	uxtb	r1, r0
     a5a:	1202      	asrs	r2, r0, #8
     a5c:	54e9      	strb	r1, [r5, r3]
     a5e:	b2d3      	uxtb	r3, r2
     a60:	4a4f      	ldr	r2, [pc, #316]	; (ba0 <ros::NodeHandle_<MbedHardware, 25, 25, 512, 512>::publish(int, ros::Msg const*)+0x184>)
     a62:	b2f4      	uxtb	r4, r6
     a64:	54ab      	strb	r3, [r5, r2]
     a66:	18cb      	adds	r3, r1, r3
     a68:	43db      	mvns	r3, r3
     a6a:	3201      	adds	r2, #1
     a6c:	54ab      	strb	r3, [r5, r2]
     a6e:	4a49      	ldr	r2, [pc, #292]	; (b94 <ros::NodeHandle_<MbedHardware, 25, 25, 512, 512>::publish(int, ros::Msg const*)+0x178>)
     a70:	4b4c      	ldr	r3, [pc, #304]	; (ba4 <ros::NodeHandle_<MbedHardware, 25, 25, 512, 512>::publish(int, ros::Msg const*)+0x188>)
     a72:	4690      	mov	r8, r2
     a74:	54ec      	strb	r4, [r5, r3]
     a76:	0401      	lsls	r1, r0, #16
     a78:	4b4b      	ldr	r3, [pc, #300]	; (ba8 <ros::NodeHandle_<MbedHardware, 25, 25, 512, 512>::publish(int, ros::Msg const*)+0x18c>)
     a7a:	0a36      	lsrs	r6, r6, #8
     a7c:	0c09      	lsrs	r1, r1, #16
     a7e:	54ee      	strb	r6, [r5, r3]
     a80:	4441      	add	r1, r8
     a82:	18ee      	adds	r6, r5, r3
     a84:	0033      	movs	r3, r6
     a86:	1869      	adds	r1, r5, r1
     a88:	2200      	movs	r2, #0
     a8a:	e001      	b.n	a90 <ros::NodeHandle_<MbedHardware, 25, 25, 512, 512>::publish(int, ros::Msg const*)+0x74>
     a8c:	781c      	ldrb	r4, [r3, #0]
     a8e:	3301      	adds	r3, #1
     a90:	1912      	adds	r2, r2, r4
     a92:	4299      	cmp	r1, r3
     a94:	d1fa      	bne.n	a8c <ros::NodeHandle_<MbedHardware, 25, 25, 512, 512>::publish(int, ros::Msg const*)+0x70>
     a96:	21c8      	movs	r1, #200	; 0xc8
     a98:	4663      	mov	r3, r12
     a9a:	0089      	lsls	r1, r1, #2
     a9c:	4667      	mov	r7, r12
     a9e:	468c      	mov	r12, r1
     aa0:	43d2      	mvns	r2, r2
     aa2:	3307      	adds	r3, #7
     aa4:	b29b      	uxth	r3, r3
     aa6:	18eb      	adds	r3, r5, r3
     aa8:	4463      	add	r3, r12
     aaa:	701a      	strb	r2, [r3, #0]
     aac:	2380      	movs	r3, #128	; 0x80
     aae:	3708      	adds	r7, #8
     ab0:	b2bf      	uxth	r7, r7
     ab2:	009b      	lsls	r3, r3, #2
     ab4:	429f      	cmp	r7, r3
     ab6:	d811      	bhi.n	adc <ros::NodeHandle_<MbedHardware, 25, 25, 512, 512>::publish(int, ros::Msg const*)+0xc0>
     ab8:	186e      	adds	r6, r5, r1
     aba:	46b8      	mov	r8, r7
     abc:	2f00      	cmp	r7, #0
     abe:	d008      	beq.n	ad2 <ros::NodeHandle_<MbedHardware, 25, 25, 512, 512>::publish(int, ros::Msg const*)+0xb6>
     ac0:	2400      	movs	r4, #0
     ac2:	3544      	adds	r5, #68	; 0x44
     ac4:	5d31      	ldrb	r1, [r6, r4]
     ac6:	0028      	movs	r0, r5
     ac8:	3401      	adds	r4, #1
     aca:	f003 fb2d 	bl	4128 <mbed::Stream::putc(int)>
     ace:	42a7      	cmp	r7, r4
     ad0:	dcf8      	bgt.n	ac4 <ros::NodeHandle_<MbedHardware, 25, 25, 512, 512>::publish(int, ros::Msg const*)+0xa8>
     ad2:	4640      	mov	r0, r8
     ad4:	b004      	add	sp, #16
     ad6:	bc04      	pop	{r2}
     ad8:	4690      	mov	r8, r2
     ada:	bdf0      	pop	{r4, r5, r6, r7, pc}
     adc:	2103      	movs	r1, #3
     ade:	4b33      	ldr	r3, [pc, #204]	; (bac <ros::NodeHandle_<MbedHardware, 25, 25, 512, 512>::publish(int, ros::Msg const*)+0x190>)
     ae0:	4c33      	ldr	r4, [pc, #204]	; (bb0 <ros::NodeHandle_<MbedHardware, 25, 25, 512, 512>::publish(int, ros::Msg const*)+0x194>)
     ae2:	aa01      	add	r2, sp, #4
     ae4:	9301      	str	r3, [sp, #4]
     ae6:	682b      	ldr	r3, [r5, #0]
     ae8:	7111      	strb	r1, [r2, #4]
     aea:	6094      	str	r4, [r2, #8]
     aec:	681b      	ldr	r3, [r3, #0]
     aee:	4831      	ldr	r0, [pc, #196]	; (bb4 <ros::NodeHandle_<MbedHardware, 25, 25, 512, 512>::publish(int, ros::Msg const*)+0x198>)
     af0:	4283      	cmp	r3, r0
     af2:	d148      	bne.n	b86 <ros::NodeHandle_<MbedHardware, 25, 25, 512, 512>::publish(int, ros::Msg const*)+0x16a>
     af4:	4b27      	ldr	r3, [pc, #156]	; (b94 <ros::NodeHandle_<MbedHardware, 25, 25, 512, 512>::publish(int, ros::Msg const*)+0x178>)
     af6:	2204      	movs	r2, #4
     af8:	54e9      	strb	r1, [r5, r3]
     afa:	2338      	movs	r3, #56	; 0x38
     afc:	9300      	str	r3, [sp, #0]
     afe:	23ca      	movs	r3, #202	; 0xca
     b00:	009b      	lsls	r3, r3, #2
     b02:	4669      	mov	r1, sp
     b04:	18e8      	adds	r0, r5, r3
     b06:	f004 f8aa 	bl	4c5e <memcpy>
     b0a:	23cb      	movs	r3, #203	; 0xcb
     b0c:	009b      	lsls	r3, r3, #2
     b0e:	2238      	movs	r2, #56	; 0x38
     b10:	0021      	movs	r1, r4
     b12:	18e8      	adds	r0, r5, r3
     b14:	f004 f8a3 	bl	4c5e <memcpy>
     b18:	23c8      	movs	r3, #200	; 0xc8
     b1a:	22ff      	movs	r2, #255	; 0xff
     b1c:	009b      	lsls	r3, r3, #2
     b1e:	54ea      	strb	r2, [r5, r3]
     b20:	4b1d      	ldr	r3, [pc, #116]	; (b98 <ros::NodeHandle_<MbedHardware, 25, 25, 512, 512>::publish(int, ros::Msg const*)+0x17c>)
     b22:	3a01      	subs	r2, #1
     b24:	54ea      	strb	r2, [r5, r3]
     b26:	4b1d      	ldr	r3, [pc, #116]	; (b9c <ros::NodeHandle_<MbedHardware, 25, 25, 512, 512>::publish(int, ros::Msg const*)+0x180>)
     b28:	3ac1      	subs	r2, #193	; 0xc1
     b2a:	54ea      	strb	r2, [r5, r3]
     b2c:	2300      	movs	r3, #0
     b2e:	21c2      	movs	r1, #194	; 0xc2
     b30:	4a1b      	ldr	r2, [pc, #108]	; (ba0 <ros::NodeHandle_<MbedHardware, 25, 25, 512, 512>::publish(int, ros::Msg const*)+0x184>)
     b32:	54ab      	strb	r3, [r5, r2]
     b34:	3201      	adds	r2, #1
     b36:	54a9      	strb	r1, [r5, r2]
     b38:	4a1a      	ldr	r2, [pc, #104]	; (ba4 <ros::NodeHandle_<MbedHardware, 25, 25, 512, 512>::publish(int, ros::Msg const*)+0x188>)
     b3a:	39bb      	subs	r1, #187	; 0xbb
     b3c:	54a9      	strb	r1, [r5, r2]
     b3e:	4a1a      	ldr	r2, [pc, #104]	; (ba8 <ros::NodeHandle_<MbedHardware, 25, 25, 512, 512>::publish(int, ros::Msg const*)+0x18c>)
     b40:	54ab      	strb	r3, [r5, r2]
     b42:	23d9      	movs	r3, #217	; 0xd9
     b44:	009b      	lsls	r3, r3, #2
     b46:	18e9      	adds	r1, r5, r3
     b48:	2207      	movs	r2, #7
     b4a:	2300      	movs	r3, #0
     b4c:	e001      	b.n	b52 <ros::NodeHandle_<MbedHardware, 25, 25, 512, 512>::publish(int, ros::Msg const*)+0x136>
     b4e:	7832      	ldrb	r2, [r6, #0]
     b50:	3601      	adds	r6, #1
     b52:	189b      	adds	r3, r3, r2
     b54:	428e      	cmp	r6, r1
     b56:	d1fa      	bne.n	b4e <ros::NodeHandle_<MbedHardware, 25, 25, 512, 512>::publish(int, ros::Msg const*)+0x132>
     b58:	22d9      	movs	r2, #217	; 0xd9
     b5a:	43db      	mvns	r3, r3
     b5c:	0092      	lsls	r2, r2, #2
     b5e:	54ab      	strb	r3, [r5, r2]
     b60:	23c8      	movs	r3, #200	; 0xc8
     b62:	009b      	lsls	r3, r3, #2
     b64:	18ec      	adds	r4, r5, r3
     b66:	4b14      	ldr	r3, [pc, #80]	; (bb8 <ros::NodeHandle_<MbedHardware, 25, 25, 512, 512>::publish(int, ros::Msg const*)+0x19c>)
     b68:	002e      	movs	r6, r5
     b6a:	469c      	mov	r12, r3
     b6c:	3644      	adds	r6, #68	; 0x44
     b6e:	4465      	add	r5, r12
     b70:	7821      	ldrb	r1, [r4, #0]
     b72:	0030      	movs	r0, r6
     b74:	3401      	adds	r4, #1
     b76:	f003 fad7 	bl	4128 <mbed::Stream::putc(int)>
     b7a:	42ac      	cmp	r4, r5
     b7c:	d1f8      	bne.n	b70 <ros::NodeHandle_<MbedHardware, 25, 25, 512, 512>::publish(int, ros::Msg const*)+0x154>
     b7e:	2301      	movs	r3, #1
     b80:	425b      	negs	r3, r3
     b82:	4698      	mov	r8, r3
     b84:	e7a5      	b.n	ad2 <ros::NodeHandle_<MbedHardware, 25, 25, 512, 512>::publish(int, ros::Msg const*)+0xb6>
     b86:	2107      	movs	r1, #7
     b88:	0028      	movs	r0, r5
     b8a:	4798      	blx	r3
     b8c:	e7f7      	b.n	b7e <ros::NodeHandle_<MbedHardware, 25, 25, 512, 512>::publish(int, ros::Msg const*)+0x162>
     b8e:	46c0      	nop			; (mov r8, r8)
     b90:	000005fc 	.word	0x000005fc
     b94:	00000327 	.word	0x00000327
     b98:	00000321 	.word	0x00000321
     b9c:	00000322 	.word	0x00000322
     ba0:	00000323 	.word	0x00000323
     ba4:	00000325 	.word	0x00000325
     ba8:	00000326 	.word	0x00000326
     bac:	000066ec 	.word	0x000066ec
     bb0:	0000685c 	.word	0x0000685c
     bb4:	00000a1d 	.word	0x00000a1d
     bb8:	00000365 	.word	0x00000365

00000bbc <main>:
     bbc:	b5f0      	push	{r4, r5, r6, r7, lr}
     bbe:	4656      	mov	r6, r10
     bc0:	465f      	mov	r7, r11
     bc2:	464d      	mov	r5, r9
     bc4:	4644      	mov	r4, r8
     bc6:	2380      	movs	r3, #128	; 0x80
     bc8:	b4f0      	push	{r4, r5, r6, r7}
     bca:	4ed5      	ldr	r6, [pc, #852]	; (f20 <main+0x364>)
     bcc:	005b      	lsls	r3, r3, #1
     bce:	58f1      	ldr	r1, [r6, r3]
     bd0:	b089      	sub	sp, #36	; 0x24
     bd2:	1d30      	adds	r0, r6, #4
     bd4:	f003 f9b4 	bl	3f40 <mbed::SerialBase::baud(int)>
     bd8:	22bd      	movs	r2, #189	; 0xbd
     bda:	2300      	movs	r3, #0
     bdc:	00d2      	lsls	r2, r2, #3
     bde:	50b3      	str	r3, [r6, r2]
     be0:	4ad0      	ldr	r2, [pc, #832]	; (f24 <main+0x368>)
     be2:	50b3      	str	r3, [r6, r2]
     be4:	4ad0      	ldr	r2, [pc, #832]	; (f28 <main+0x36c>)
     be6:	50b3      	str	r3, [r6, r2]
     be8:	3a04      	subs	r2, #4
     bea:	50b3      	str	r3, [r6, r2]
     bec:	4acf      	ldr	r2, [pc, #828]	; (f2c <main+0x370>)
     bee:	6811      	ldr	r1, [r2, #0]
     bf0:	2900      	cmp	r1, #0
     bf2:	d004      	beq.n	bfe <main+0x42>
     bf4:	3301      	adds	r3, #1
     bf6:	3204      	adds	r2, #4
     bf8:	2b19      	cmp	r3, #25
     bfa:	d1f8      	bne.n	bee <main+0x32>
     bfc:	e008      	b.n	c10 <main+0x54>
     bfe:	001a      	movs	r2, r3
     c00:	3261      	adds	r2, #97	; 0x61
     c02:	32ff      	adds	r2, #255	; 0xff
     c04:	49ca      	ldr	r1, [pc, #808]	; (f30 <main+0x374>)
     c06:	0092      	lsls	r2, r2, #2
     c08:	18b2      	adds	r2, r6, r2
     c0a:	3364      	adds	r3, #100	; 0x64
     c0c:	6051      	str	r1, [r2, #4]
     c0e:	604b      	str	r3, [r1, #4]
     c10:	4bc8      	ldr	r3, [pc, #800]	; (f34 <main+0x378>)
     c12:	469b      	mov	r11, r3
     c14:	48c8      	ldr	r0, [pc, #800]	; (f38 <main+0x37c>)
     c16:	f003 fab7 	bl	4188 <mbed::Timer::read_ms()>
     c1a:	465b      	mov	r3, r11
     c1c:	4ac7      	ldr	r2, [pc, #796]	; (f3c <main+0x380>)
     c1e:	58f3      	ldr	r3, [r6, r3]
     c20:	4682      	mov	r10, r0
     c22:	1ac3      	subs	r3, r0, r3
     c24:	4293      	cmp	r3, r2
     c26:	d902      	bls.n	c2e <main+0x72>
     c28:	2200      	movs	r2, #0
     c2a:	4bc5      	ldr	r3, [pc, #788]	; (f40 <main+0x384>)
     c2c:	54f2      	strb	r2, [r6, r3]
     c2e:	23bd      	movs	r3, #189	; 0xbd
     c30:	00db      	lsls	r3, r3, #3
     c32:	58f2      	ldr	r2, [r6, r3]
     c34:	2a00      	cmp	r2, #0
     c36:	d006      	beq.n	c46 <main+0x8a>
     c38:	22c1      	movs	r2, #193	; 0xc1
     c3a:	00d2      	lsls	r2, r2, #3
     c3c:	58b2      	ldr	r2, [r6, r2]
     c3e:	4592      	cmp	r10, r2
     c40:	d901      	bls.n	c46 <main+0x8a>
     c42:	2200      	movs	r2, #0
     c44:	50f2      	str	r2, [r6, r3]
     c46:	0034      	movs	r4, r6
     c48:	1d35      	adds	r5, r6, #4
     c4a:	0028      	movs	r0, r5
     c4c:	f001 fe5e 	bl	290c <AjK::MODSERIAL::rxBufferEmpty()>
     c50:	1e07      	subs	r7, r0, #0
     c52:	d010      	beq.n	c76 <main+0xba>
     c54:	4bba      	ldr	r3, [pc, #744]	; (f40 <main+0x384>)
     c56:	5cf3      	ldrb	r3, [r6, r3]
     c58:	2b00      	cmp	r3, #0
     c5a:	d008      	beq.n	c6e <main+0xb2>
     c5c:	23c0      	movs	r3, #192	; 0xc0
     c5e:	4652      	mov	r2, r10
     c60:	00db      	lsls	r3, r3, #3
     c62:	58f3      	ldr	r3, [r6, r3]
     c64:	1ad3      	subs	r3, r2, r3
     c66:	4ab7      	ldr	r2, [pc, #732]	; (f44 <main+0x388>)
     c68:	4293      	cmp	r3, r2
     c6a:	d900      	bls.n	c6e <main+0xb2>
     c6c:	e108      	b.n	e80 <main+0x2c4>
     c6e:	2001      	movs	r0, #1
     c70:	f002 f920 	bl	2eb4 <wait_ms>
     c74:	e7ce      	b.n	c14 <main+0x58>
     c76:	2101      	movs	r1, #1
     c78:	0028      	movs	r0, r5
     c7a:	f001 fcab 	bl	25d4 <AjK::MODSERIAL::__getc(bool)>
     c7e:	2800      	cmp	r0, #0
     c80:	dbe8      	blt.n	c54 <main+0x98>
     c82:	22bf      	movs	r2, #191	; 0xbf
     c84:	21bd      	movs	r1, #189	; 0xbd
     c86:	00d2      	lsls	r2, r2, #3
     c88:	58a3      	ldr	r3, [r4, r2]
     c8a:	00c9      	lsls	r1, r1, #3
     c8c:	5865      	ldr	r5, [r4, r1]
     c8e:	18c3      	adds	r3, r0, r3
     c90:	50a3      	str	r3, [r4, r2]
     c92:	2d07      	cmp	r5, #7
     c94:	d04c      	beq.n	d30 <main+0x174>
     c96:	2d00      	cmp	r5, #0
     c98:	d109      	bne.n	cae <main+0xf2>
     c9a:	28ff      	cmp	r0, #255	; 0xff
     c9c:	d15c      	bne.n	d58 <main+0x19c>
     c9e:	2301      	movs	r3, #1
     ca0:	22c1      	movs	r2, #193	; 0xc1
     ca2:	5063      	str	r3, [r4, r1]
     ca4:	4653      	mov	r3, r10
     ca6:	00d2      	lsls	r2, r2, #3
     ca8:	3314      	adds	r3, #20
     caa:	50a3      	str	r3, [r4, r2]
     cac:	e7cc      	b.n	c48 <main+0x8c>
     cae:	2d01      	cmp	r5, #1
     cb0:	d05e      	beq.n	d70 <main+0x1b4>
     cb2:	2d02      	cmp	r5, #2
     cb4:	d100      	bne.n	cb8 <main+0xfc>
     cb6:	e0ab      	b.n	e10 <main+0x254>
     cb8:	2d03      	cmp	r5, #3
     cba:	d100      	bne.n	cbe <main+0x102>
     cbc:	e0b0      	b.n	e20 <main+0x264>
     cbe:	2d04      	cmp	r5, #4
     cc0:	d100      	bne.n	cc4 <main+0x108>
     cc2:	e0b6      	b.n	e32 <main+0x276>
     cc4:	2d05      	cmp	r5, #5
     cc6:	d100      	bne.n	cca <main+0x10e>
     cc8:	e0c0      	b.n	e4c <main+0x290>
     cca:	2d06      	cmp	r5, #6
     ccc:	d100      	bne.n	cd0 <main+0x114>
     cce:	e0c4      	b.n	e5a <main+0x29e>
     cd0:	2d08      	cmp	r5, #8
     cd2:	d1b9      	bne.n	c48 <main+0x8c>
     cd4:	22bd      	movs	r2, #189	; 0xbd
     cd6:	2100      	movs	r1, #0
     cd8:	20ff      	movs	r0, #255	; 0xff
     cda:	00d2      	lsls	r2, r2, #3
     cdc:	50b1      	str	r1, [r6, r2]
     cde:	17da      	asrs	r2, r3, #31
     ce0:	0e12      	lsrs	r2, r2, #24
     ce2:	189b      	adds	r3, r3, r2
     ce4:	4003      	ands	r3, r0
     ce6:	1a9b      	subs	r3, r3, r2
     ce8:	2bff      	cmp	r3, #255	; 0xff
     cea:	d1ad      	bne.n	c48 <main+0x8c>
     cec:	22be      	movs	r2, #190	; 0xbe
     cee:	00d2      	lsls	r2, r2, #3
     cf0:	58a2      	ldr	r2, [r4, r2]
     cf2:	2a00      	cmp	r2, #0
     cf4:	d100      	bne.n	cf8 <main+0x13c>
     cf6:	e261      	b.n	11bc <main+0x600>
     cf8:	2a0a      	cmp	r2, #10
     cfa:	d100      	bne.n	cfe <main+0x142>
     cfc:	e216      	b.n	112c <main+0x570>
     cfe:	2a06      	cmp	r2, #6
     d00:	d100      	bne.n	d04 <main+0x148>
     d02:	e13b      	b.n	f7c <main+0x3c0>
     d04:	2a0b      	cmp	r2, #11
     d06:	d100      	bne.n	d0a <main+0x14e>
     d08:	e106      	b.n	f18 <main+0x35c>
     d0a:	0013      	movs	r3, r2
     d0c:	33fc      	adds	r3, #252	; 0xfc
     d0e:	009b      	lsls	r3, r3, #2
     d10:	18e3      	adds	r3, r4, r3
     d12:	685b      	ldr	r3, [r3, #4]
     d14:	2b00      	cmp	r3, #0
     d16:	d097      	beq.n	c48 <main+0x8c>
     d18:	681a      	ldr	r2, [r3, #0]
     d1a:	498b      	ldr	r1, [pc, #556]	; (f48 <main+0x38c>)
     d1c:	6812      	ldr	r2, [r2, #0]
     d1e:	428a      	cmp	r2, r1
     d20:	d001      	beq.n	d26 <main+0x16a>
     d22:	f000 fc65 	bl	15f0 <main+0xa34>
     d26:	0018      	movs	r0, r3
     d28:	691b      	ldr	r3, [r3, #16]
     d2a:	300c      	adds	r0, #12
     d2c:	4798      	blx	r3
     d2e:	e78b      	b.n	c48 <main+0x8c>
     d30:	4a7d      	ldr	r2, [pc, #500]	; (f28 <main+0x36c>)
     d32:	58a3      	ldr	r3, [r4, r2]
     d34:	1c59      	adds	r1, r3, #1
     d36:	18e3      	adds	r3, r4, r3
     d38:	50a1      	str	r1, [r4, r2]
     d3a:	3321      	adds	r3, #33	; 0x21
     d3c:	4a79      	ldr	r2, [pc, #484]	; (f24 <main+0x368>)
     d3e:	33ff      	adds	r3, #255	; 0xff
     d40:	7018      	strb	r0, [r3, #0]
     d42:	58a3      	ldr	r3, [r4, r2]
     d44:	3b01      	subs	r3, #1
     d46:	50a3      	str	r3, [r4, r2]
     d48:	2b00      	cmp	r3, #0
     d4a:	d000      	beq.n	d4e <main+0x192>
     d4c:	e77c      	b.n	c48 <main+0x8c>
     d4e:	23bd      	movs	r3, #189	; 0xbd
     d50:	2208      	movs	r2, #8
     d52:	00db      	lsls	r3, r3, #3
     d54:	50f2      	str	r2, [r6, r3]
     d56:	e777      	b.n	c48 <main+0x8c>
     d58:	1d60      	adds	r0, r4, #5
     d5a:	30ff      	adds	r0, #255	; 0xff
     d5c:	f003 fa14 	bl	4188 <mbed::Timer::read_ms()>
     d60:	4653      	mov	r3, r10
     d62:	1ac0      	subs	r0, r0, r3
     d64:	2805      	cmp	r0, #5
     d66:	d800      	bhi.n	d6a <main+0x1ae>
     d68:	e76e      	b.n	c48 <main+0x8c>
     d6a:	4b75      	ldr	r3, [pc, #468]	; (f40 <main+0x384>)
     d6c:	54f5      	strb	r5, [r6, r3]
     d6e:	e77e      	b.n	c6e <main+0xb2>
     d70:	28fe      	cmp	r0, #254	; 0xfe
     d72:	d068      	beq.n	e46 <main+0x28a>
     d74:	4b72      	ldr	r3, [pc, #456]	; (f40 <main+0x384>)
     d76:	5067      	str	r7, [r4, r1]
     d78:	5ce3      	ldrb	r3, [r4, r3]
     d7a:	2b00      	cmp	r3, #0
     d7c:	d000      	beq.n	d80 <main+0x1c4>
     d7e:	e763      	b.n	c48 <main+0x8c>
     d80:	21ff      	movs	r1, #255	; 0xff
     d82:	4a72      	ldr	r2, [pc, #456]	; (f4c <main+0x390>)
     d84:	54a3      	strb	r3, [r4, r2]
     d86:	3201      	adds	r2, #1
     d88:	54a3      	strb	r3, [r4, r2]
     d8a:	4a71      	ldr	r2, [pc, #452]	; (f50 <main+0x394>)
     d8c:	54a3      	strb	r3, [r4, r2]
     d8e:	4a71      	ldr	r2, [pc, #452]	; (f54 <main+0x398>)
     d90:	54a3      	strb	r3, [r4, r2]
     d92:	4a71      	ldr	r2, [pc, #452]	; (f58 <main+0x39c>)
     d94:	54a3      	strb	r3, [r4, r2]
     d96:	3201      	adds	r2, #1
     d98:	54a3      	strb	r3, [r4, r2]
     d9a:	4a70      	ldr	r2, [pc, #448]	; (f5c <main+0x3a0>)
     d9c:	54a3      	strb	r3, [r4, r2]
     d9e:	4a70      	ldr	r2, [pc, #448]	; (f60 <main+0x3a4>)
     da0:	54a3      	strb	r3, [r4, r2]
     da2:	3a0e      	subs	r2, #14
     da4:	54a1      	strb	r1, [r4, r2]
     da6:	4a6f      	ldr	r2, [pc, #444]	; (f64 <main+0x3a8>)
     da8:	3901      	subs	r1, #1
     daa:	54a1      	strb	r1, [r4, r2]
     dac:	4a6e      	ldr	r2, [pc, #440]	; (f68 <main+0x3ac>)
     dae:	39f6      	subs	r1, #246	; 0xf6
     db0:	54a1      	strb	r1, [r4, r2]
     db2:	4a6e      	ldr	r2, [pc, #440]	; (f6c <main+0x3b0>)
     db4:	31ef      	adds	r1, #239	; 0xef
     db6:	54a3      	strb	r3, [r4, r2]
     db8:	3201      	adds	r2, #1
     dba:	54a1      	strb	r1, [r4, r2]
     dbc:	4a6c      	ldr	r2, [pc, #432]	; (f70 <main+0x3b4>)
     dbe:	39ed      	subs	r1, #237	; 0xed
     dc0:	54a1      	strb	r1, [r4, r2]
     dc2:	4a6c      	ldr	r2, [pc, #432]	; (f74 <main+0x3b8>)
     dc4:	54a3      	strb	r3, [r4, r2]
     dc6:	18a3      	adds	r3, r4, r2
     dc8:	4a6b      	ldr	r2, [pc, #428]	; (f78 <main+0x3bc>)
     dca:	18a0      	adds	r0, r4, r2
     dcc:	2200      	movs	r2, #0
     dce:	e001      	b.n	dd4 <main+0x218>
     dd0:	7819      	ldrb	r1, [r3, #0]
     dd2:	3301      	adds	r3, #1
     dd4:	1852      	adds	r2, r2, r1
     dd6:	4283      	cmp	r3, r0
     dd8:	d1fa      	bne.n	dd0 <main+0x214>
     dda:	43d2      	mvns	r2, r2
     ddc:	4b66      	ldr	r3, [pc, #408]	; (f78 <main+0x3bc>)
     dde:	0037      	movs	r7, r6
     de0:	54f2      	strb	r2, [r6, r3]
     de2:	4b60      	ldr	r3, [pc, #384]	; (f64 <main+0x3a8>)
     de4:	21ff      	movs	r1, #255	; 0xff
     de6:	18f5      	adds	r5, r6, r3
     de8:	330f      	adds	r3, #15
     dea:	4698      	mov	r8, r3
     dec:	3744      	adds	r7, #68	; 0x44
     dee:	44b0      	add	r8, r6
     df0:	e001      	b.n	df6 <main+0x23a>
     df2:	7829      	ldrb	r1, [r5, #0]
     df4:	3501      	adds	r5, #1
     df6:	0038      	movs	r0, r7
     df8:	f003 f996 	bl	4128 <mbed::Stream::putc(int)>
     dfc:	4545      	cmp	r5, r8
     dfe:	d1f8      	bne.n	df2 <main+0x236>
     e00:	1d60      	adds	r0, r4, #5
     e02:	30ff      	adds	r0, #255	; 0xff
     e04:	f003 f9c0 	bl	4188 <mbed::Timer::read_ms()>
     e08:	238a      	movs	r3, #138	; 0x8a
     e0a:	005b      	lsls	r3, r3, #1
     e0c:	50e0      	str	r0, [r4, r3]
     e0e:	e71b      	b.n	c48 <main+0x8c>
     e10:	4b44      	ldr	r3, [pc, #272]	; (f24 <main+0x368>)
     e12:	50a0      	str	r0, [r4, r2]
     e14:	50e0      	str	r0, [r4, r3]
     e16:	4b44      	ldr	r3, [pc, #272]	; (f28 <main+0x36c>)
     e18:	50e7      	str	r7, [r4, r3]
     e1a:	2303      	movs	r3, #3
     e1c:	5063      	str	r3, [r4, r1]
     e1e:	e713      	b.n	c48 <main+0x8c>
     e20:	4b40      	ldr	r3, [pc, #256]	; (f24 <main+0x368>)
     e22:	0200      	lsls	r0, r0, #8
     e24:	58e2      	ldr	r2, [r4, r3]
     e26:	4694      	mov	r12, r2
     e28:	4460      	add	r0, r12
     e2a:	50e0      	str	r0, [r4, r3]
     e2c:	2304      	movs	r3, #4
     e2e:	5063      	str	r3, [r4, r1]
     e30:	e70a      	b.n	c48 <main+0x8c>
     e32:	20ff      	movs	r0, #255	; 0xff
     e34:	17da      	asrs	r2, r3, #31
     e36:	0e12      	lsrs	r2, r2, #24
     e38:	189b      	adds	r3, r3, r2
     e3a:	4003      	ands	r3, r0
     e3c:	1a9b      	subs	r3, r3, r2
     e3e:	2bff      	cmp	r3, #255	; 0xff
     e40:	d01b      	beq.n	e7a <main+0x2be>
     e42:	5067      	str	r7, [r4, r1]
     e44:	e700      	b.n	c48 <main+0x8c>
     e46:	2302      	movs	r3, #2
     e48:	5063      	str	r3, [r4, r1]
     e4a:	e6fd      	b.n	c48 <main+0x8c>
     e4c:	23be      	movs	r3, #190	; 0xbe
     e4e:	00db      	lsls	r3, r3, #3
     e50:	50e0      	str	r0, [r4, r3]
     e52:	2306      	movs	r3, #6
     e54:	50a0      	str	r0, [r4, r2]
     e56:	5063      	str	r3, [r4, r1]
     e58:	e6f6      	b.n	c48 <main+0x8c>
     e5a:	23be      	movs	r3, #190	; 0xbe
     e5c:	00db      	lsls	r3, r3, #3
     e5e:	58f2      	ldr	r2, [r6, r3]
     e60:	0200      	lsls	r0, r0, #8
     e62:	4694      	mov	r12, r2
     e64:	2207      	movs	r2, #7
     e66:	4460      	add	r0, r12
     e68:	50f0      	str	r0, [r6, r3]
     e6a:	3b08      	subs	r3, #8
     e6c:	50f2      	str	r2, [r6, r3]
     e6e:	4b2d      	ldr	r3, [pc, #180]	; (f24 <main+0x368>)
     e70:	58f3      	ldr	r3, [r6, r3]
     e72:	2b00      	cmp	r3, #0
     e74:	d100      	bne.n	e78 <main+0x2bc>
     e76:	e76a      	b.n	d4e <main+0x192>
     e78:	e6e6      	b.n	c48 <main+0x8c>
     e7a:	3bfa      	subs	r3, #250	; 0xfa
     e7c:	5063      	str	r3, [r4, r1]
     e7e:	e6e3      	b.n	c48 <main+0x8c>
     e80:	2300      	movs	r3, #0
     e82:	21ff      	movs	r1, #255	; 0xff
     e84:	4a31      	ldr	r2, [pc, #196]	; (f4c <main+0x390>)
     e86:	54b3      	strb	r3, [r6, r2]
     e88:	3201      	adds	r2, #1
     e8a:	54b3      	strb	r3, [r6, r2]
     e8c:	4a30      	ldr	r2, [pc, #192]	; (f50 <main+0x394>)
     e8e:	54b3      	strb	r3, [r6, r2]
     e90:	4a30      	ldr	r2, [pc, #192]	; (f54 <main+0x398>)
     e92:	54b3      	strb	r3, [r6, r2]
     e94:	4a30      	ldr	r2, [pc, #192]	; (f58 <main+0x39c>)
     e96:	54b3      	strb	r3, [r6, r2]
     e98:	3201      	adds	r2, #1
     e9a:	54b3      	strb	r3, [r6, r2]
     e9c:	4a2f      	ldr	r2, [pc, #188]	; (f5c <main+0x3a0>)
     e9e:	54b3      	strb	r3, [r6, r2]
     ea0:	4a2f      	ldr	r2, [pc, #188]	; (f60 <main+0x3a4>)
     ea2:	54b3      	strb	r3, [r6, r2]
     ea4:	3a0e      	subs	r2, #14
     ea6:	54b1      	strb	r1, [r6, r2]
     ea8:	4a2e      	ldr	r2, [pc, #184]	; (f64 <main+0x3a8>)
     eaa:	3901      	subs	r1, #1
     eac:	54b1      	strb	r1, [r6, r2]
     eae:	4a2e      	ldr	r2, [pc, #184]	; (f68 <main+0x3ac>)
     eb0:	39f6      	subs	r1, #246	; 0xf6
     eb2:	54b1      	strb	r1, [r6, r2]
     eb4:	4a2d      	ldr	r2, [pc, #180]	; (f6c <main+0x3b0>)
     eb6:	31ef      	adds	r1, #239	; 0xef
     eb8:	54b3      	strb	r3, [r6, r2]
     eba:	3201      	adds	r2, #1
     ebc:	54b1      	strb	r1, [r6, r2]
     ebe:	4a2c      	ldr	r2, [pc, #176]	; (f70 <main+0x3b4>)
     ec0:	39ed      	subs	r1, #237	; 0xed
     ec2:	54b1      	strb	r1, [r6, r2]
     ec4:	4a2b      	ldr	r2, [pc, #172]	; (f74 <main+0x3b8>)
     ec6:	54b3      	strb	r3, [r6, r2]
     ec8:	18b3      	adds	r3, r6, r2
     eca:	4a2b      	ldr	r2, [pc, #172]	; (f78 <main+0x3bc>)
     ecc:	18b0      	adds	r0, r6, r2
     ece:	2200      	movs	r2, #0
     ed0:	e001      	b.n	ed6 <main+0x31a>
     ed2:	7819      	ldrb	r1, [r3, #0]
     ed4:	3301      	adds	r3, #1
     ed6:	1852      	adds	r2, r2, r1
     ed8:	4283      	cmp	r3, r0
     eda:	d1fa      	bne.n	ed2 <main+0x316>
     edc:	43d2      	mvns	r2, r2
     ede:	0035      	movs	r5, r6
     ee0:	4b25      	ldr	r3, [pc, #148]	; (f78 <main+0x3bc>)
     ee2:	21ff      	movs	r1, #255	; 0xff
     ee4:	54f2      	strb	r2, [r6, r3]
     ee6:	4b1f      	ldr	r3, [pc, #124]	; (f64 <main+0x3a8>)
     ee8:	3544      	adds	r5, #68	; 0x44
     eea:	18f4      	adds	r4, r6, r3
     eec:	330f      	adds	r3, #15
     eee:	18f7      	adds	r7, r6, r3
     ef0:	e001      	b.n	ef6 <main+0x33a>
     ef2:	7821      	ldrb	r1, [r4, #0]
     ef4:	3401      	adds	r4, #1
     ef6:	0028      	movs	r0, r5
     ef8:	f003 f916 	bl	4128 <mbed::Stream::putc(int)>
     efc:	42bc      	cmp	r4, r7
     efe:	d1f8      	bne.n	ef2 <main+0x336>
     f00:	1d70      	adds	r0, r6, #5
     f02:	30ff      	adds	r0, #255	; 0xff
     f04:	f003 f940 	bl	4188 <mbed::Timer::read_ms()>
     f08:	238a      	movs	r3, #138	; 0x8a
     f0a:	005b      	lsls	r3, r3, #1
     f0c:	50f0      	str	r0, [r6, r3]
     f0e:	23c0      	movs	r3, #192	; 0xc0
     f10:	4652      	mov	r2, r10
     f12:	00db      	lsls	r3, r3, #3
     f14:	50f2      	str	r2, [r6, r3]
     f16:	e6aa      	b.n	c6e <main+0xb2>
     f18:	4b09      	ldr	r3, [pc, #36]	; (f40 <main+0x384>)
     f1a:	54e1      	strb	r1, [r4, r3]
     f1c:	e694      	b.n	c48 <main+0x8c>
     f1e:	46c0      	nop			; (mov r8, r8)
     f20:	1ffff178 	.word	0x1ffff178
     f24:	000005ec 	.word	0x000005ec
     f28:	000005f4 	.word	0x000005f4
     f2c:	1ffff6fc 	.word	0x1ffff6fc
     f30:	1ffff7b0 	.word	0x1ffff7b0
     f34:	00000604 	.word	0x00000604
     f38:	1ffff27c 	.word	0x1ffff27c
     f3c:	00002af8 	.word	0x00002af8
     f40:	000005fc 	.word	0x000005fc
     f44:	000009c4 	.word	0x000009c4
     f48:	000005a5 	.word	0x000005a5
     f4c:	00000327 	.word	0x00000327
     f50:	00000329 	.word	0x00000329
     f54:	0000032a 	.word	0x0000032a
     f58:	0000032b 	.word	0x0000032b
     f5c:	0000032d 	.word	0x0000032d
     f60:	0000032e 	.word	0x0000032e
     f64:	00000321 	.word	0x00000321
     f68:	00000322 	.word	0x00000322
     f6c:	00000323 	.word	0x00000323
     f70:	00000325 	.word	0x00000325
     f74:	00000326 	.word	0x00000326
     f78:	0000032f 	.word	0x0000032f
     f7c:	2390      	movs	r3, #144	; 0x90
     f7e:	005b      	lsls	r3, r3, #1
     f80:	5ce5      	ldrb	r5, [r4, r3]
     f82:	4ba9      	ldr	r3, [pc, #676]	; (1228 <main+0x66c>)
     f84:	5ce3      	ldrb	r3, [r4, r3]
     f86:	42ab      	cmp	r3, r5
     f88:	d205      	bcs.n	f96 <main+0x3da>
     f8a:	4fa8      	ldr	r7, [pc, #672]	; (122c <main+0x670>)
     f8c:	00a9      	lsls	r1, r5, #2
     f8e:	59e0      	ldr	r0, [r4, r7]
     f90:	f001 fafc 	bl	258c <__wrap_realloc>
     f94:	51e0      	str	r0, [r4, r7]
     f96:	4ba4      	ldr	r3, [pc, #656]	; (1228 <main+0x66c>)
     f98:	54f5      	strb	r5, [r6, r3]
     f9a:	2d00      	cmp	r5, #0
     f9c:	d100      	bne.n	fa0 <main+0x3e4>
     f9e:	e32c      	b.n	15fa <main+0xa3e>
     fa0:	2304      	movs	r3, #4
     fa2:	0025      	movs	r5, r4
     fa4:	4698      	mov	r8, r3
     fa6:	4ba1      	ldr	r3, [pc, #644]	; (122c <main+0x670>)
     fa8:	2700      	movs	r7, #0
     faa:	4699      	mov	r9, r3
     fac:	3525      	adds	r5, #37	; 0x25
     fae:	35ff      	adds	r5, #255	; 0xff
     fb0:	786b      	ldrb	r3, [r5, #1]
     fb2:	00b8      	lsls	r0, r7, #2
     fb4:	021a      	lsls	r2, r3, #8
     fb6:	78ab      	ldrb	r3, [r5, #2]
     fb8:	499d      	ldr	r1, [pc, #628]	; (1230 <main+0x674>)
     fba:	041b      	lsls	r3, r3, #16
     fbc:	4313      	orrs	r3, r2
     fbe:	782a      	ldrb	r2, [r5, #0]
     fc0:	3701      	adds	r7, #1
     fc2:	431a      	orrs	r2, r3
     fc4:	78eb      	ldrb	r3, [r5, #3]
     fc6:	b2ff      	uxtb	r7, r7
     fc8:	061b      	lsls	r3, r3, #24
     fca:	4313      	orrs	r3, r2
     fcc:	22c3      	movs	r2, #195	; 0xc3
     fce:	00d2      	lsls	r2, r2, #3
     fd0:	50b3      	str	r3, [r6, r2]
     fd2:	2304      	movs	r3, #4
     fd4:	469c      	mov	r12, r3
     fd6:	464b      	mov	r3, r9
     fd8:	58f3      	ldr	r3, [r6, r3]
     fda:	44e0      	add	r8, r12
     fdc:	469c      	mov	r12, r3
     fde:	2204      	movs	r2, #4
     fe0:	4460      	add	r0, r12
     fe2:	f003 fe3c 	bl	4c5e <memcpy>
     fe6:	4b90      	ldr	r3, [pc, #576]	; (1228 <main+0x66c>)
     fe8:	3504      	adds	r5, #4
     fea:	5cf3      	ldrb	r3, [r6, r3]
     fec:	42bb      	cmp	r3, r7
     fee:	d8df      	bhi.n	fb0 <main+0x3f4>
     ff0:	4645      	mov	r5, r8
     ff2:	1d2b      	adds	r3, r5, #4
     ff4:	4698      	mov	r8, r3
     ff6:	001f      	movs	r7, r3
     ff8:	23c4      	movs	r3, #196	; 0xc4
     ffa:	1975      	adds	r5, r6, r5
     ffc:	3521      	adds	r5, #33	; 0x21
     ffe:	35ff      	adds	r5, #255	; 0xff
    1000:	00db      	lsls	r3, r3, #3
    1002:	782d      	ldrb	r5, [r5, #0]
    1004:	5cf3      	ldrb	r3, [r6, r3]
    1006:	42ab      	cmp	r3, r5
    1008:	d208      	bcs.n	101c <main+0x460>
    100a:	23c5      	movs	r3, #197	; 0xc5
    100c:	00db      	lsls	r3, r3, #3
    100e:	4699      	mov	r9, r3
    1010:	58e0      	ldr	r0, [r4, r3]
    1012:	00a9      	lsls	r1, r5, #2
    1014:	f001 faba 	bl	258c <__wrap_realloc>
    1018:	464b      	mov	r3, r9
    101a:	50e0      	str	r0, [r4, r3]
    101c:	23c4      	movs	r3, #196	; 0xc4
    101e:	00db      	lsls	r3, r3, #3
    1020:	54f5      	strb	r5, [r6, r3]
    1022:	2d00      	cmp	r5, #0
    1024:	d02d      	beq.n	1082 <main+0x4c6>
    1026:	2300      	movs	r3, #0
    1028:	003d      	movs	r5, r7
    102a:	4698      	mov	r8, r3
    102c:	23c5      	movs	r3, #197	; 0xc5
    102e:	3521      	adds	r5, #33	; 0x21
    1030:	35ff      	adds	r5, #255	; 0xff
    1032:	1965      	adds	r5, r4, r5
    1034:	00db      	lsls	r3, r3, #3
    1036:	4699      	mov	r9, r3
    1038:	002b      	movs	r3, r5
    103a:	4645      	mov	r5, r8
    103c:	46b8      	mov	r8, r7
    103e:	001f      	movs	r7, r3
    1040:	787b      	ldrb	r3, [r7, #1]
    1042:	00a8      	lsls	r0, r5, #2
    1044:	021a      	lsls	r2, r3, #8
    1046:	78bb      	ldrb	r3, [r7, #2]
    1048:	497a      	ldr	r1, [pc, #488]	; (1234 <main+0x678>)
    104a:	041b      	lsls	r3, r3, #16
    104c:	4313      	orrs	r3, r2
    104e:	783a      	ldrb	r2, [r7, #0]
    1050:	3501      	adds	r5, #1
    1052:	431a      	orrs	r2, r3
    1054:	78fb      	ldrb	r3, [r7, #3]
    1056:	b2ed      	uxtb	r5, r5
    1058:	061b      	lsls	r3, r3, #24
    105a:	4313      	orrs	r3, r2
    105c:	4a76      	ldr	r2, [pc, #472]	; (1238 <main+0x67c>)
    105e:	3704      	adds	r7, #4
    1060:	50b3      	str	r3, [r6, r2]
    1062:	2304      	movs	r3, #4
    1064:	469c      	mov	r12, r3
    1066:	464b      	mov	r3, r9
    1068:	58f3      	ldr	r3, [r6, r3]
    106a:	44e0      	add	r8, r12
    106c:	469c      	mov	r12, r3
    106e:	2204      	movs	r2, #4
    1070:	4460      	add	r0, r12
    1072:	f003 fdf4 	bl	4c5e <memcpy>
    1076:	23c4      	movs	r3, #196	; 0xc4
    1078:	00db      	lsls	r3, r3, #3
    107a:	5cf3      	ldrb	r3, [r6, r3]
    107c:	42ab      	cmp	r3, r5
    107e:	d8df      	bhi.n	1040 <main+0x484>
    1080:	4647      	mov	r7, r8
    1082:	4643      	mov	r3, r8
    1084:	18f3      	adds	r3, r6, r3
    1086:	3321      	adds	r3, #33	; 0x21
    1088:	33ff      	adds	r3, #255	; 0xff
    108a:	781b      	ldrb	r3, [r3, #0]
    108c:	4698      	mov	r8, r3
    108e:	4b6b      	ldr	r3, [pc, #428]	; (123c <main+0x680>)
    1090:	5cf3      	ldrb	r3, [r6, r3]
    1092:	4543      	cmp	r3, r8
    1094:	d206      	bcs.n	10a4 <main+0x4e8>
    1096:	4643      	mov	r3, r8
    1098:	4d69      	ldr	r5, [pc, #420]	; (1240 <main+0x684>)
    109a:	0099      	lsls	r1, r3, #2
    109c:	5960      	ldr	r0, [r4, r5]
    109e:	f001 fa75 	bl	258c <__wrap_realloc>
    10a2:	5160      	str	r0, [r4, r5]
    10a4:	4642      	mov	r2, r8
    10a6:	4b65      	ldr	r3, [pc, #404]	; (123c <main+0x680>)
    10a8:	3704      	adds	r7, #4
    10aa:	54f2      	strb	r2, [r6, r3]
    10ac:	2390      	movs	r3, #144	; 0x90
    10ae:	005b      	lsls	r3, r3, #1
    10b0:	4699      	mov	r9, r3
    10b2:	4643      	mov	r3, r8
    10b4:	2500      	movs	r5, #0
    10b6:	44b1      	add	r9, r6
    10b8:	2b00      	cmp	r3, #0
    10ba:	d033      	beq.n	1124 <main+0x568>
    10bc:	464b      	mov	r3, r9
    10be:	2204      	movs	r2, #4
    10c0:	19d9      	adds	r1, r3, r7
    10c2:	a807      	add	r0, sp, #28
    10c4:	f003 fdcb 	bl	4c5e <memcpy>
    10c8:	1d3b      	adds	r3, r7, #4
    10ca:	469c      	mov	r12, r3
    10cc:	9b07      	ldr	r3, [sp, #28]
    10ce:	4463      	add	r3, r12
    10d0:	1e18      	subs	r0, r3, #0
    10d2:	4560      	cmp	r0, r12
    10d4:	d90a      	bls.n	10ec <main+0x530>
    10d6:	003b      	movs	r3, r7
    10d8:	4662      	mov	r2, r12
    10da:	3324      	adds	r3, #36	; 0x24
    10dc:	33ff      	adds	r3, #255	; 0xff
    10de:	18e3      	adds	r3, r4, r3
    10e0:	7859      	ldrb	r1, [r3, #1]
    10e2:	3201      	adds	r2, #1
    10e4:	7019      	strb	r1, [r3, #0]
    10e6:	3301      	adds	r3, #1
    10e8:	4290      	cmp	r0, r2
    10ea:	d8f9      	bhi.n	10e0 <main+0x524>
    10ec:	2200      	movs	r2, #0
    10ee:	1833      	adds	r3, r6, r0
    10f0:	3320      	adds	r3, #32
    10f2:	33ff      	adds	r3, #255	; 0xff
    10f4:	701a      	strb	r2, [r3, #0]
    10f6:	4663      	mov	r3, r12
    10f8:	22c6      	movs	r2, #198	; 0xc6
    10fa:	3b01      	subs	r3, #1
    10fc:	444b      	add	r3, r9
    10fe:	00d2      	lsls	r2, r2, #3
    1100:	50b3      	str	r3, [r6, r2]
    1102:	4a4f      	ldr	r2, [pc, #316]	; (1240 <main+0x684>)
    1104:	0007      	movs	r7, r0
    1106:	58b0      	ldr	r0, [r6, r2]
    1108:	00ab      	lsls	r3, r5, #2
    110a:	18c0      	adds	r0, r0, r3
    110c:	23c6      	movs	r3, #198	; 0xc6
    110e:	00db      	lsls	r3, r3, #3
    1110:	18f1      	adds	r1, r6, r3
    1112:	2204      	movs	r2, #4
    1114:	f003 fda3 	bl	4c5e <memcpy>
    1118:	4b48      	ldr	r3, [pc, #288]	; (123c <main+0x680>)
    111a:	3501      	adds	r5, #1
    111c:	5cf3      	ldrb	r3, [r6, r3]
    111e:	b2ed      	uxtb	r5, r5
    1120:	42ab      	cmp	r3, r5
    1122:	d8cb      	bhi.n	10bc <main+0x500>
    1124:	2201      	movs	r2, #1
    1126:	4b47      	ldr	r3, [pc, #284]	; (1244 <main+0x688>)
    1128:	54f2      	strb	r2, [r6, r3]
    112a:	e58d      	b.n	c48 <main+0x8c>
    112c:	1d63      	adds	r3, r4, #5
    112e:	33ff      	adds	r3, #255	; 0xff
    1130:	0018      	movs	r0, r3
    1132:	4698      	mov	r8, r3
    1134:	f003 f828 	bl	4188 <mbed::Timer::read_ms()>
    1138:	238a      	movs	r3, #138	; 0x8a
    113a:	005b      	lsls	r3, r3, #1
    113c:	58e3      	ldr	r3, [r4, r3]
    113e:	4a42      	ldr	r2, [pc, #264]	; (1248 <main+0x68c>)
    1140:	1ac7      	subs	r7, r0, r3
    1142:	2390      	movs	r3, #144	; 0x90
    1144:	4694      	mov	r12, r2
    1146:	005b      	lsls	r3, r3, #1
    1148:	58e5      	ldr	r5, [r4, r3]
    114a:	3304      	adds	r3, #4
    114c:	58e3      	ldr	r3, [r4, r3]
    114e:	4640      	mov	r0, r8
    1150:	4463      	add	r3, r12
    1152:	9301      	str	r3, [sp, #4]
    1154:	f003 f818 	bl	4188 <mbed::Timer::read_ms()>
    1158:	21fa      	movs	r1, #250	; 0xfa
    115a:	4681      	mov	r9, r0
    115c:	0089      	lsls	r1, r1, #2
    115e:	0038      	movs	r0, r7
    1160:	f003 f832 	bl	41c8 <__aeabi_uidiv>
    1164:	21fa      	movs	r1, #250	; 0xfa
    1166:	3d01      	subs	r5, #1
    1168:	1945      	adds	r5, r0, r5
    116a:	0089      	lsls	r1, r1, #2
    116c:	4648      	mov	r0, r9
    116e:	f003 f82b 	bl	41c8 <__aeabi_uidiv>
    1172:	238c      	movs	r3, #140	; 0x8c
    1174:	21fa      	movs	r1, #250	; 0xfa
    1176:	1a2d      	subs	r5, r5, r0
    1178:	005b      	lsls	r3, r3, #1
    117a:	50e5      	str	r5, [r4, r3]
    117c:	0038      	movs	r0, r7
    117e:	0089      	lsls	r1, r1, #2
    1180:	f003 f8a8 	bl	42d4 <__aeabi_uidivmod>
    1184:	4d31      	ldr	r5, [pc, #196]	; (124c <main+0x690>)
    1186:	9b01      	ldr	r3, [sp, #4]
    1188:	4369      	muls	r1, r5
    118a:	000f      	movs	r7, r1
    118c:	21fa      	movs	r1, #250	; 0xfa
    118e:	469c      	mov	r12, r3
    1190:	0089      	lsls	r1, r1, #2
    1192:	4648      	mov	r0, r9
    1194:	4467      	add	r7, r12
    1196:	f003 f89d 	bl	42d4 <__aeabi_uidivmod>
    119a:	238e      	movs	r3, #142	; 0x8e
    119c:	0020      	movs	r0, r4
    119e:	434d      	muls	r5, r1
    11a0:	005b      	lsls	r3, r3, #1
    11a2:	3019      	adds	r0, #25
    11a4:	18e1      	adds	r1, r4, r3
    11a6:	30ff      	adds	r0, #255	; 0xff
    11a8:	1b7d      	subs	r5, r7, r5
    11aa:	50e5      	str	r5, [r4, r3]
    11ac:	f001 f9fe 	bl	25ac <ros::normalizeSecNSec(unsigned long&, unsigned long&)>
    11b0:	4640      	mov	r0, r8
    11b2:	f002 ffe9 	bl	4188 <mbed::Timer::read_ms()>
    11b6:	465b      	mov	r3, r11
    11b8:	50e0      	str	r0, [r4, r3]
    11ba:	e545      	b.n	c48 <main+0x8c>
    11bc:	4924      	ldr	r1, [pc, #144]	; (1250 <main+0x694>)
    11be:	5472      	strb	r2, [r6, r1]
    11c0:	3101      	adds	r1, #1
    11c2:	5472      	strb	r2, [r6, r1]
    11c4:	4923      	ldr	r1, [pc, #140]	; (1254 <main+0x698>)
    11c6:	5472      	strb	r2, [r6, r1]
    11c8:	4923      	ldr	r1, [pc, #140]	; (1258 <main+0x69c>)
    11ca:	5472      	strb	r2, [r6, r1]
    11cc:	4923      	ldr	r1, [pc, #140]	; (125c <main+0x6a0>)
    11ce:	5472      	strb	r2, [r6, r1]
    11d0:	3101      	adds	r1, #1
    11d2:	5472      	strb	r2, [r6, r1]
    11d4:	4922      	ldr	r1, [pc, #136]	; (1260 <main+0x6a4>)
    11d6:	5472      	strb	r2, [r6, r1]
    11d8:	4922      	ldr	r1, [pc, #136]	; (1264 <main+0x6a8>)
    11da:	5472      	strb	r2, [r6, r1]
    11dc:	390e      	subs	r1, #14
    11de:	5473      	strb	r3, [r6, r1]
    11e0:	21fe      	movs	r1, #254	; 0xfe
    11e2:	4b21      	ldr	r3, [pc, #132]	; (1268 <main+0x6ac>)
    11e4:	54f1      	strb	r1, [r6, r3]
    11e6:	4b21      	ldr	r3, [pc, #132]	; (126c <main+0x6b0>)
    11e8:	3907      	subs	r1, #7
    11ea:	54f5      	strb	r5, [r6, r3]
    11ec:	4b20      	ldr	r3, [pc, #128]	; (1270 <main+0x6b4>)
    11ee:	54f2      	strb	r2, [r6, r3]
    11f0:	3301      	adds	r3, #1
    11f2:	54f1      	strb	r1, [r6, r3]
    11f4:	4b1f      	ldr	r3, [pc, #124]	; (1274 <main+0x6b8>)
    11f6:	39ed      	subs	r1, #237	; 0xed
    11f8:	54f1      	strb	r1, [r6, r3]
    11fa:	4b1f      	ldr	r3, [pc, #124]	; (1278 <main+0x6bc>)
    11fc:	54f2      	strb	r2, [r6, r3]
    11fe:	4b1f      	ldr	r3, [pc, #124]	; (127c <main+0x6c0>)
    1200:	469c      	mov	r12, r3
    1202:	4b1f      	ldr	r3, [pc, #124]	; (1280 <main+0x6c4>)
    1204:	4464      	add	r4, r12
    1206:	e001      	b.n	120c <main+0x650>
    1208:	7819      	ldrb	r1, [r3, #0]
    120a:	3301      	adds	r3, #1
    120c:	1852      	adds	r2, r2, r1
    120e:	429c      	cmp	r4, r3
    1210:	d1fa      	bne.n	1208 <main+0x64c>
    1212:	43d2      	mvns	r2, r2
    1214:	0035      	movs	r5, r6
    1216:	4b19      	ldr	r3, [pc, #100]	; (127c <main+0x6c0>)
    1218:	4c1a      	ldr	r4, [pc, #104]	; (1284 <main+0x6c8>)
    121a:	54f2      	strb	r2, [r6, r3]
    121c:	3301      	adds	r3, #1
    121e:	18f7      	adds	r7, r6, r3
    1220:	21ff      	movs	r1, #255	; 0xff
    1222:	3544      	adds	r5, #68	; 0x44
    1224:	e032      	b.n	128c <main+0x6d0>
    1226:	46c0      	nop			; (mov r8, r8)
    1228:	00000614 	.word	0x00000614
    122c:	0000061c 	.word	0x0000061c
    1230:	1ffff790 	.word	0x1ffff790
    1234:	1ffff79c 	.word	0x1ffff79c
    1238:	00000624 	.word	0x00000624
    123c:	0000062c 	.word	0x0000062c
    1240:	00000634 	.word	0x00000634
    1244:	0000060c 	.word	0x0000060c
    1248:	3b9aca00 	.word	0x3b9aca00
    124c:	000f4240 	.word	0x000f4240
    1250:	00000327 	.word	0x00000327
    1254:	00000329 	.word	0x00000329
    1258:	0000032a 	.word	0x0000032a
    125c:	0000032b 	.word	0x0000032b
    1260:	0000032d 	.word	0x0000032d
    1264:	0000032e 	.word	0x0000032e
    1268:	00000321 	.word	0x00000321
    126c:	00000322 	.word	0x00000322
    1270:	00000323 	.word	0x00000323
    1274:	00000325 	.word	0x00000325
    1278:	00000326 	.word	0x00000326
    127c:	0000032f 	.word	0x0000032f
    1280:	1ffff49e 	.word	0x1ffff49e
    1284:	1ffff499 	.word	0x1ffff499
    1288:	7821      	ldrb	r1, [r4, #0]
    128a:	3401      	adds	r4, #1
    128c:	0028      	movs	r0, r5
    128e:	f002 ff4b 	bl	4128 <mbed::Stream::putc(int)>
    1292:	42bc      	cmp	r4, r7
    1294:	d1f8      	bne.n	1288 <main+0x6cc>
    1296:	1d70      	adds	r0, r6, #5
    1298:	30ff      	adds	r0, #255	; 0xff
    129a:	f002 ff75 	bl	4188 <mbed::Timer::read_ms()>
    129e:	238a      	movs	r3, #138	; 0x8a
    12a0:	005b      	lsls	r3, r3, #1
    12a2:	50f0      	str	r0, [r6, r3]
    12a4:	23a4      	movs	r3, #164	; 0xa4
    12a6:	00db      	lsls	r3, r3, #3
    12a8:	4699      	mov	r9, r3
    12aa:	44b1      	add	r9, r6
    12ac:	46b0      	mov	r8, r6
    12ae:	464d      	mov	r5, r9
    12b0:	682b      	ldr	r3, [r5, #0]
    12b2:	2b00      	cmp	r3, #0
    12b4:	d100      	bne.n	12b8 <main+0x6fc>
    12b6:	e0b4      	b.n	1422 <main+0x866>
    12b8:	6858      	ldr	r0, [r3, #4]
    12ba:	689c      	ldr	r4, [r3, #8]
    12bc:	681f      	ldr	r7, [r3, #0]
    12be:	6803      	ldr	r3, [r0, #0]
    12c0:	689b      	ldr	r3, [r3, #8]
    12c2:	4798      	blx	r3
    12c4:	682b      	ldr	r3, [r5, #0]
    12c6:	9001      	str	r0, [sp, #4]
    12c8:	6858      	ldr	r0, [r3, #4]
    12ca:	6803      	ldr	r3, [r0, #0]
    12cc:	68db      	ldr	r3, [r3, #12]
    12ce:	4798      	blx	r3
    12d0:	682b      	ldr	r3, [r5, #0]
    12d2:	9002      	str	r0, [sp, #8]
    12d4:	691b      	ldr	r3, [r3, #16]
    12d6:	9303      	str	r3, [sp, #12]
    12d8:	2b63      	cmp	r3, #99	; 0x63
    12da:	dd04      	ble.n	12e6 <main+0x72a>
    12dc:	4be7      	ldr	r3, [pc, #924]	; (167c <main+0xac0>)
    12de:	5cf3      	ldrb	r3, [r6, r3]
    12e0:	2b00      	cmp	r3, #0
    12e2:	d100      	bne.n	12e6 <main+0x72a>
    12e4:	e09d      	b.n	1422 <main+0x866>
    12e6:	4be6      	ldr	r3, [pc, #920]	; (1680 <main+0xac4>)
    12e8:	0038      	movs	r0, r7
    12ea:	54f4      	strb	r4, [r6, r3]
    12ec:	3301      	adds	r3, #1
    12ee:	0a24      	lsrs	r4, r4, #8
    12f0:	54f4      	strb	r4, [r6, r3]
    12f2:	f004 fb89 	bl	5a08 <strlen>
    12f6:	0004      	movs	r4, r0
    12f8:	4be2      	ldr	r3, [pc, #904]	; (1684 <main+0xac8>)
    12fa:	9005      	str	r0, [sp, #20]
    12fc:	2204      	movs	r2, #4
    12fe:	18f0      	adds	r0, r6, r3
    1300:	a905      	add	r1, sp, #20
    1302:	f003 fcac 	bl	4c5e <memcpy>
    1306:	4be0      	ldr	r3, [pc, #896]	; (1688 <main+0xacc>)
    1308:	0022      	movs	r2, r4
    130a:	0039      	movs	r1, r7
    130c:	18f0      	adds	r0, r6, r3
    130e:	f003 fca6 	bl	4c5e <memcpy>
    1312:	9801      	ldr	r0, [sp, #4]
    1314:	f004 fb78 	bl	5a08 <strlen>
    1318:	4ad9      	ldr	r2, [pc, #868]	; (1680 <main+0xac4>)
    131a:	1da3      	adds	r3, r4, #6
    131c:	4691      	mov	r9, r2
    131e:	44b1      	add	r9, r6
    1320:	444b      	add	r3, r9
    1322:	0007      	movs	r7, r0
    1324:	9006      	str	r0, [sp, #24]
    1326:	0018      	movs	r0, r3
    1328:	ab06      	add	r3, sp, #24
    132a:	0019      	movs	r1, r3
    132c:	2204      	movs	r2, #4
    132e:	f003 fc96 	bl	4c5e <memcpy>
    1332:	464b      	mov	r3, r9
    1334:	340a      	adds	r4, #10
    1336:	1918      	adds	r0, r3, r4
    1338:	003a      	movs	r2, r7
    133a:	9901      	ldr	r1, [sp, #4]
    133c:	f003 fc8f 	bl	4c5e <memcpy>
    1340:	9802      	ldr	r0, [sp, #8]
    1342:	f004 fb61 	bl	5a08 <strlen>
    1346:	464b      	mov	r3, r9
    1348:	193c      	adds	r4, r7, r4
    134a:	9007      	str	r0, [sp, #28]
    134c:	0007      	movs	r7, r0
    134e:	1918      	adds	r0, r3, r4
    1350:	ab07      	add	r3, sp, #28
    1352:	0019      	movs	r1, r3
    1354:	2204      	movs	r2, #4
    1356:	f003 fc82 	bl	4c5e <memcpy>
    135a:	464b      	mov	r3, r9
    135c:	3404      	adds	r4, #4
    135e:	1918      	adds	r0, r3, r4
    1360:	003a      	movs	r2, r7
    1362:	9902      	ldr	r1, [sp, #8]
    1364:	f003 fc7b 	bl	4c5e <memcpy>
    1368:	193c      	adds	r4, r7, r4
    136a:	4ac5      	ldr	r2, [pc, #788]	; (1680 <main+0xac4>)
    136c:	1933      	adds	r3, r6, r4
    136e:	1899      	adds	r1, r3, r2
    1370:	2200      	movs	r2, #0
    1372:	700a      	strb	r2, [r1, #0]
    1374:	21ca      	movs	r1, #202	; 0xca
    1376:	2002      	movs	r0, #2
    1378:	0089      	lsls	r1, r1, #2
    137a:	1859      	adds	r1, r3, r1
    137c:	7008      	strb	r0, [r1, #0]
    137e:	49c1      	ldr	r1, [pc, #772]	; (1684 <main+0xac8>)
    1380:	3404      	adds	r4, #4
    1382:	1859      	adds	r1, r3, r1
    1384:	700a      	strb	r2, [r1, #0]
    1386:	49c1      	ldr	r1, [pc, #772]	; (168c <main+0xad0>)
    1388:	0420      	lsls	r0, r4, #16
    138a:	468c      	mov	r12, r1
    138c:	4463      	add	r3, r12
    138e:	701a      	strb	r2, [r3, #0]
    1390:	23c8      	movs	r3, #200	; 0xc8
    1392:	32ff      	adds	r2, #255	; 0xff
    1394:	009b      	lsls	r3, r3, #2
    1396:	54f2      	strb	r2, [r6, r3]
    1398:	4bbd      	ldr	r3, [pc, #756]	; (1690 <main+0xad4>)
    139a:	3a01      	subs	r2, #1
    139c:	54f2      	strb	r2, [r6, r3]
    139e:	4bbd      	ldr	r3, [pc, #756]	; (1694 <main+0xad8>)
    13a0:	b2e1      	uxtb	r1, r4
    13a2:	1222      	asrs	r2, r4, #8
    13a4:	54f1      	strb	r1, [r6, r3]
    13a6:	b2d3      	uxtb	r3, r2
    13a8:	4abb      	ldr	r2, [pc, #748]	; (1698 <main+0xadc>)
    13aa:	0c00      	lsrs	r0, r0, #16
    13ac:	54b3      	strb	r3, [r6, r2]
    13ae:	18cb      	adds	r3, r1, r3
    13b0:	43db      	mvns	r3, r3
    13b2:	3201      	adds	r2, #1
    13b4:	54b3      	strb	r3, [r6, r2]
    13b6:	9a03      	ldr	r2, [sp, #12]
    13b8:	4bb8      	ldr	r3, [pc, #736]	; (169c <main+0xae0>)
    13ba:	b2d1      	uxtb	r1, r2
    13bc:	54f1      	strb	r1, [r6, r3]
    13be:	0a13      	lsrs	r3, r2, #8
    13c0:	4ab7      	ldr	r2, [pc, #732]	; (16a0 <main+0xae4>)
    13c2:	b2a7      	uxth	r7, r4
    13c4:	54b3      	strb	r3, [r6, r2]
    13c6:	4bae      	ldr	r3, [pc, #696]	; (1680 <main+0xac4>)
    13c8:	2200      	movs	r2, #0
    13ca:	469c      	mov	r12, r3
    13cc:	4460      	add	r0, r12
    13ce:	1830      	adds	r0, r6, r0
    13d0:	4bb4      	ldr	r3, [pc, #720]	; (16a4 <main+0xae8>)
    13d2:	e001      	b.n	13d8 <main+0x81c>
    13d4:	7819      	ldrb	r1, [r3, #0]
    13d6:	3301      	adds	r3, #1
    13d8:	1852      	adds	r2, r2, r1
    13da:	4283      	cmp	r3, r0
    13dc:	d1fa      	bne.n	13d4 <main+0x818>
    13de:	21c8      	movs	r1, #200	; 0xc8
    13e0:	0089      	lsls	r1, r1, #2
    13e2:	468c      	mov	r12, r1
    13e4:	43d2      	mvns	r2, r2
    13e6:	1dfb      	adds	r3, r7, #7
    13e8:	b29b      	uxth	r3, r3
    13ea:	003c      	movs	r4, r7
    13ec:	18f3      	adds	r3, r6, r3
    13ee:	4463      	add	r3, r12
    13f0:	701a      	strb	r2, [r3, #0]
    13f2:	2380      	movs	r3, #128	; 0x80
    13f4:	3408      	adds	r4, #8
    13f6:	b2a4      	uxth	r4, r4
    13f8:	009b      	lsls	r3, r3, #2
    13fa:	429c      	cmp	r4, r3
    13fc:	d900      	bls.n	1400 <main+0x844>
    13fe:	e101      	b.n	1604 <main+0xa48>
    1400:	2c00      	cmp	r4, #0
    1402:	d00e      	beq.n	1422 <main+0x866>
    1404:	3bbd      	subs	r3, #189	; 0xbd
    1406:	3bff      	subs	r3, #255	; 0xff
    1408:	4699      	mov	r9, r3
    140a:	2700      	movs	r7, #0
    140c:	44b1      	add	r9, r6
    140e:	23c8      	movs	r3, #200	; 0xc8
    1410:	009b      	lsls	r3, r3, #2
    1412:	18fb      	adds	r3, r7, r3
    1414:	5cf1      	ldrb	r1, [r6, r3]
    1416:	4648      	mov	r0, r9
    1418:	3701      	adds	r7, #1
    141a:	f002 fe85 	bl	4128 <mbed::Stream::putc(int)>
    141e:	42bc      	cmp	r4, r7
    1420:	dcf5      	bgt.n	140e <main+0x852>
    1422:	4ba1      	ldr	r3, [pc, #644]	; (16a8 <main+0xaec>)
    1424:	3504      	adds	r5, #4
    1426:	429d      	cmp	r5, r3
    1428:	d000      	beq.n	142c <main+0x870>
    142a:	e741      	b.n	12b0 <main+0x6f4>
    142c:	46b0      	mov	r8, r6
    142e:	001d      	movs	r5, r3
    1430:	6828      	ldr	r0, [r5, #0]
    1432:	2800      	cmp	r0, #0
    1434:	d100      	bne.n	1438 <main+0x87c>
    1436:	e0bf      	b.n	15b8 <main+0x9fc>
    1438:	499c      	ldr	r1, [pc, #624]	; (16ac <main+0xaf0>)
    143a:	6803      	ldr	r3, [r0, #0]
    143c:	9101      	str	r1, [sp, #4]
    143e:	689a      	ldr	r2, [r3, #8]
    1440:	499b      	ldr	r1, [pc, #620]	; (16b0 <main+0xaf4>)
    1442:	6844      	ldr	r4, [r0, #4]
    1444:	6887      	ldr	r7, [r0, #8]
    1446:	428a      	cmp	r2, r1
    1448:	d000      	beq.n	144c <main+0x890>
    144a:	e0cc      	b.n	15e6 <main+0xa2a>
    144c:	4999      	ldr	r1, [pc, #612]	; (16b4 <main+0xaf8>)
    144e:	68da      	ldr	r2, [r3, #12]
    1450:	9102      	str	r1, [sp, #8]
    1452:	4999      	ldr	r1, [pc, #612]	; (16b8 <main+0xafc>)
    1454:	428a      	cmp	r2, r1
    1456:	d000      	beq.n	145a <main+0x89e>
    1458:	e0c0      	b.n	15dc <main+0xa20>
    145a:	685b      	ldr	r3, [r3, #4]
    145c:	4a97      	ldr	r2, [pc, #604]	; (16bc <main+0xb00>)
    145e:	4293      	cmp	r3, r2
    1460:	d000      	beq.n	1464 <main+0x8a8>
    1462:	e0b8      	b.n	15d6 <main+0xa1a>
    1464:	6943      	ldr	r3, [r0, #20]
    1466:	4699      	mov	r9, r3
    1468:	464b      	mov	r3, r9
    146a:	2b63      	cmp	r3, #99	; 0x63
    146c:	dd04      	ble.n	1478 <main+0x8bc>
    146e:	4b83      	ldr	r3, [pc, #524]	; (167c <main+0xac0>)
    1470:	5cf3      	ldrb	r3, [r6, r3]
    1472:	2b00      	cmp	r3, #0
    1474:	d100      	bne.n	1478 <main+0x8bc>
    1476:	e09f      	b.n	15b8 <main+0x9fc>
    1478:	4b81      	ldr	r3, [pc, #516]	; (1680 <main+0xac4>)
    147a:	0038      	movs	r0, r7
    147c:	54f4      	strb	r4, [r6, r3]
    147e:	3301      	adds	r3, #1
    1480:	0a24      	lsrs	r4, r4, #8
    1482:	54f4      	strb	r4, [r6, r3]
    1484:	f004 fac0 	bl	5a08 <strlen>
    1488:	0004      	movs	r4, r0
    148a:	4b7e      	ldr	r3, [pc, #504]	; (1684 <main+0xac8>)
    148c:	9005      	str	r0, [sp, #20]
    148e:	2204      	movs	r2, #4
    1490:	18f0      	adds	r0, r6, r3
    1492:	a905      	add	r1, sp, #20
    1494:	f003 fbe3 	bl	4c5e <memcpy>
    1498:	4b7b      	ldr	r3, [pc, #492]	; (1688 <main+0xacc>)
    149a:	0022      	movs	r2, r4
    149c:	0039      	movs	r1, r7
    149e:	18f0      	adds	r0, r6, r3
    14a0:	f003 fbdd 	bl	4c5e <memcpy>
    14a4:	9801      	ldr	r0, [sp, #4]
    14a6:	f004 faaf 	bl	5a08 <strlen>
    14aa:	4a85      	ldr	r2, [pc, #532]	; (16c0 <main+0xb04>)
    14ac:	0007      	movs	r7, r0
    14ae:	4694      	mov	r12, r2
    14b0:	1da3      	adds	r3, r4, #6
    14b2:	4463      	add	r3, r12
    14b4:	9006      	str	r0, [sp, #24]
    14b6:	0018      	movs	r0, r3
    14b8:	ab06      	add	r3, sp, #24
    14ba:	0019      	movs	r1, r3
    14bc:	2204      	movs	r2, #4
    14be:	f003 fbce 	bl	4c5e <memcpy>
    14c2:	4b7f      	ldr	r3, [pc, #508]	; (16c0 <main+0xb04>)
    14c4:	340a      	adds	r4, #10
    14c6:	1918      	adds	r0, r3, r4
    14c8:	003a      	movs	r2, r7
    14ca:	9901      	ldr	r1, [sp, #4]
    14cc:	f003 fbc7 	bl	4c5e <memcpy>
    14d0:	9802      	ldr	r0, [sp, #8]
    14d2:	f004 fa99 	bl	5a08 <strlen>
    14d6:	193c      	adds	r4, r7, r4
    14d8:	0007      	movs	r7, r0
    14da:	4b79      	ldr	r3, [pc, #484]	; (16c0 <main+0xb04>)
    14dc:	9007      	str	r0, [sp, #28]
    14de:	1918      	adds	r0, r3, r4
    14e0:	ab07      	add	r3, sp, #28
    14e2:	0019      	movs	r1, r3
    14e4:	2204      	movs	r2, #4
    14e6:	f003 fbba 	bl	4c5e <memcpy>
    14ea:	4b75      	ldr	r3, [pc, #468]	; (16c0 <main+0xb04>)
    14ec:	3404      	adds	r4, #4
    14ee:	1918      	adds	r0, r3, r4
    14f0:	003a      	movs	r2, r7
    14f2:	9902      	ldr	r1, [sp, #8]
    14f4:	f003 fbb3 	bl	4c5e <memcpy>
    14f8:	193c      	adds	r4, r7, r4
    14fa:	4a61      	ldr	r2, [pc, #388]	; (1680 <main+0xac4>)
    14fc:	1933      	adds	r3, r6, r4
    14fe:	1899      	adds	r1, r3, r2
    1500:	2200      	movs	r2, #0
    1502:	700a      	strb	r2, [r1, #0]
    1504:	21ca      	movs	r1, #202	; 0xca
    1506:	2002      	movs	r0, #2
    1508:	0089      	lsls	r1, r1, #2
    150a:	1859      	adds	r1, r3, r1
    150c:	7008      	strb	r0, [r1, #0]
    150e:	495d      	ldr	r1, [pc, #372]	; (1684 <main+0xac8>)
    1510:	3404      	adds	r4, #4
    1512:	1859      	adds	r1, r3, r1
    1514:	700a      	strb	r2, [r1, #0]
    1516:	495d      	ldr	r1, [pc, #372]	; (168c <main+0xad0>)
    1518:	0420      	lsls	r0, r4, #16
    151a:	468c      	mov	r12, r1
    151c:	4463      	add	r3, r12
    151e:	701a      	strb	r2, [r3, #0]
    1520:	23c8      	movs	r3, #200	; 0xc8
    1522:	32ff      	adds	r2, #255	; 0xff
    1524:	009b      	lsls	r3, r3, #2
    1526:	54f2      	strb	r2, [r6, r3]
    1528:	4b59      	ldr	r3, [pc, #356]	; (1690 <main+0xad4>)
    152a:	3a01      	subs	r2, #1
    152c:	54f2      	strb	r2, [r6, r3]
    152e:	4b59      	ldr	r3, [pc, #356]	; (1694 <main+0xad8>)
    1530:	b2e1      	uxtb	r1, r4
    1532:	1222      	asrs	r2, r4, #8
    1534:	54f1      	strb	r1, [r6, r3]
    1536:	b2d3      	uxtb	r3, r2
    1538:	4a57      	ldr	r2, [pc, #348]	; (1698 <main+0xadc>)
    153a:	0c00      	lsrs	r0, r0, #16
    153c:	54b3      	strb	r3, [r6, r2]
    153e:	18cb      	adds	r3, r1, r3
    1540:	43db      	mvns	r3, r3
    1542:	3201      	adds	r2, #1
    1544:	54b3      	strb	r3, [r6, r2]
    1546:	466a      	mov	r2, sp
    1548:	464b      	mov	r3, r9
    154a:	7113      	strb	r3, [r2, #4]
    154c:	7911      	ldrb	r1, [r2, #4]
    154e:	4b53      	ldr	r3, [pc, #332]	; (169c <main+0xae0>)
    1550:	4a53      	ldr	r2, [pc, #332]	; (16a0 <main+0xae4>)
    1552:	54f1      	strb	r1, [r6, r3]
    1554:	464b      	mov	r3, r9
    1556:	0a1b      	lsrs	r3, r3, #8
    1558:	54b3      	strb	r3, [r6, r2]
    155a:	4b49      	ldr	r3, [pc, #292]	; (1680 <main+0xac4>)
    155c:	b2a7      	uxth	r7, r4
    155e:	469c      	mov	r12, r3
    1560:	4460      	add	r0, r12
    1562:	1830      	adds	r0, r6, r0
    1564:	4b4f      	ldr	r3, [pc, #316]	; (16a4 <main+0xae8>)
    1566:	2200      	movs	r2, #0
    1568:	e001      	b.n	156e <main+0x9b2>
    156a:	7819      	ldrb	r1, [r3, #0]
    156c:	3301      	adds	r3, #1
    156e:	1852      	adds	r2, r2, r1
    1570:	4283      	cmp	r3, r0
    1572:	d1fa      	bne.n	156a <main+0x9ae>
    1574:	21c8      	movs	r1, #200	; 0xc8
    1576:	0089      	lsls	r1, r1, #2
    1578:	468c      	mov	r12, r1
    157a:	43d2      	mvns	r2, r2
    157c:	1dfb      	adds	r3, r7, #7
    157e:	b29b      	uxth	r3, r3
    1580:	003c      	movs	r4, r7
    1582:	18f3      	adds	r3, r6, r3
    1584:	4463      	add	r3, r12
    1586:	701a      	strb	r2, [r3, #0]
    1588:	2380      	movs	r3, #128	; 0x80
    158a:	3408      	adds	r4, #8
    158c:	b2a4      	uxth	r4, r4
    158e:	009b      	lsls	r3, r3, #2
    1590:	429c      	cmp	r4, r3
    1592:	d900      	bls.n	1596 <main+0x9da>
    1594:	e0af      	b.n	16f6 <main+0xb3a>
    1596:	2c00      	cmp	r4, #0
    1598:	d00e      	beq.n	15b8 <main+0x9fc>
    159a:	3bbd      	subs	r3, #189	; 0xbd
    159c:	3bff      	subs	r3, #255	; 0xff
    159e:	4699      	mov	r9, r3
    15a0:	2700      	movs	r7, #0
    15a2:	44b1      	add	r9, r6
    15a4:	23c8      	movs	r3, #200	; 0xc8
    15a6:	009b      	lsls	r3, r3, #2
    15a8:	18fb      	adds	r3, r7, r3
    15aa:	5cf1      	ldrb	r1, [r6, r3]
    15ac:	4648      	mov	r0, r9
    15ae:	3701      	adds	r7, #1
    15b0:	f002 fdba 	bl	4128 <mbed::Stream::putc(int)>
    15b4:	42bc      	cmp	r4, r7
    15b6:	dcf5      	bgt.n	15a4 <main+0x9e8>
    15b8:	4b42      	ldr	r3, [pc, #264]	; (16c4 <main+0xb08>)
    15ba:	3504      	adds	r5, #4
    15bc:	429d      	cmp	r5, r3
    15be:	d000      	beq.n	15c2 <main+0xa06>
    15c0:	e736      	b.n	1430 <main+0x874>
    15c2:	2201      	movs	r2, #1
    15c4:	4b2d      	ldr	r3, [pc, #180]	; (167c <main+0xac0>)
    15c6:	54f2      	strb	r2, [r6, r3]
    15c8:	4652      	mov	r2, r10
    15ca:	3304      	adds	r3, #4
    15cc:	50f2      	str	r2, [r6, r3]
    15ce:	465b      	mov	r3, r11
    15d0:	50f2      	str	r2, [r6, r3]
    15d2:	f7ff fb4c 	bl	c6e <main+0xb2>
    15d6:	4798      	blx	r3
    15d8:	4681      	mov	r9, r0
    15da:	e745      	b.n	1468 <main+0x8ac>
    15dc:	4790      	blx	r2
    15de:	9002      	str	r0, [sp, #8]
    15e0:	6828      	ldr	r0, [r5, #0]
    15e2:	6803      	ldr	r3, [r0, #0]
    15e4:	e739      	b.n	145a <main+0x89e>
    15e6:	4790      	blx	r2
    15e8:	9001      	str	r0, [sp, #4]
    15ea:	6828      	ldr	r0, [r5, #0]
    15ec:	6803      	ldr	r3, [r0, #0]
    15ee:	e72d      	b.n	144c <main+0x890>
    15f0:	4935      	ldr	r1, [pc, #212]	; (16c8 <main+0xb0c>)
    15f2:	0018      	movs	r0, r3
    15f4:	4790      	blx	r2
    15f6:	f7ff fb27 	bl	c48 <main+0x8c>
    15fa:	2308      	movs	r3, #8
    15fc:	2708      	movs	r7, #8
    15fe:	4698      	mov	r8, r3
    1600:	2504      	movs	r5, #4
    1602:	e4f9      	b.n	ff8 <main+0x43c>
    1604:	2303      	movs	r3, #3
    1606:	4642      	mov	r2, r8
    1608:	491d      	ldr	r1, [pc, #116]	; (1680 <main+0xac4>)
    160a:	4830      	ldr	r0, [pc, #192]	; (16cc <main+0xb10>)
    160c:	5453      	strb	r3, [r2, r1]
    160e:	23ca      	movs	r3, #202	; 0xca
    1610:	2238      	movs	r2, #56	; 0x38
    1612:	4641      	mov	r1, r8
    1614:	009b      	lsls	r3, r3, #2
    1616:	50ca      	str	r2, [r1, r3]
    1618:	492d      	ldr	r1, [pc, #180]	; (16d0 <main+0xb14>)
    161a:	f003 fb20 	bl	4c5e <memcpy>
    161e:	23c8      	movs	r3, #200	; 0xc8
    1620:	4641      	mov	r1, r8
    1622:	22ff      	movs	r2, #255	; 0xff
    1624:	009b      	lsls	r3, r3, #2
    1626:	54ca      	strb	r2, [r1, r3]
    1628:	4b19      	ldr	r3, [pc, #100]	; (1690 <main+0xad4>)
    162a:	3a01      	subs	r2, #1
    162c:	54ca      	strb	r2, [r1, r3]
    162e:	4b19      	ldr	r3, [pc, #100]	; (1694 <main+0xad8>)
    1630:	3ac1      	subs	r2, #193	; 0xc1
    1632:	54ca      	strb	r2, [r1, r3]
    1634:	2300      	movs	r3, #0
    1636:	4a18      	ldr	r2, [pc, #96]	; (1698 <main+0xadc>)
    1638:	4640      	mov	r0, r8
    163a:	548b      	strb	r3, [r1, r2]
    163c:	21c2      	movs	r1, #194	; 0xc2
    163e:	3201      	adds	r2, #1
    1640:	5481      	strb	r1, [r0, r2]
    1642:	4a16      	ldr	r2, [pc, #88]	; (169c <main+0xae0>)
    1644:	39bb      	subs	r1, #187	; 0xbb
    1646:	5481      	strb	r1, [r0, r2]
    1648:	4a15      	ldr	r2, [pc, #84]	; (16a0 <main+0xae4>)
    164a:	2107      	movs	r1, #7
    164c:	5483      	strb	r3, [r0, r2]
    164e:	20d9      	movs	r0, #217	; 0xd9
    1650:	0080      	lsls	r0, r0, #2
    1652:	4440      	add	r0, r8
    1654:	4a13      	ldr	r2, [pc, #76]	; (16a4 <main+0xae8>)
    1656:	e001      	b.n	165c <main+0xaa0>
    1658:	7811      	ldrb	r1, [r2, #0]
    165a:	3201      	adds	r2, #1
    165c:	185b      	adds	r3, r3, r1
    165e:	4290      	cmp	r0, r2
    1660:	d1fa      	bne.n	1658 <main+0xa9c>
    1662:	22d9      	movs	r2, #217	; 0xd9
    1664:	43db      	mvns	r3, r3
    1666:	0092      	lsls	r2, r2, #2
    1668:	54b3      	strb	r3, [r6, r2]
    166a:	4b1a      	ldr	r3, [pc, #104]	; (16d4 <main+0xb18>)
    166c:	0037      	movs	r7, r6
    166e:	4699      	mov	r9, r3
    1670:	4c19      	ldr	r4, [pc, #100]	; (16d8 <main+0xb1c>)
    1672:	44b1      	add	r9, r6
    1674:	21ff      	movs	r1, #255	; 0xff
    1676:	3744      	adds	r7, #68	; 0x44
    1678:	e032      	b.n	16e0 <main+0xb24>
    167a:	46c0      	nop			; (mov r8, r8)
    167c:	000005fc 	.word	0x000005fc
    1680:	00000327 	.word	0x00000327
    1684:	00000329 	.word	0x00000329
    1688:	0000032d 	.word	0x0000032d
    168c:	0000032a 	.word	0x0000032a
    1690:	00000321 	.word	0x00000321
    1694:	00000322 	.word	0x00000322
    1698:	00000323 	.word	0x00000323
    169c:	00000325 	.word	0x00000325
    16a0:	00000326 	.word	0x00000326
    16a4:	1ffff49e 	.word	0x1ffff49e
    16a8:	1ffff6fc 	.word	0x1ffff6fc
    16ac:	00006828 	.word	0x00006828
    16b0:	000005b5 	.word	0x000005b5
    16b4:	00006838 	.word	0x00006838
    16b8:	000005bd 	.word	0x000005bd
    16bc:	000005b1 	.word	0x000005b1
    16c0:	1ffff49f 	.word	0x1ffff49f
    16c4:	1ffff760 	.word	0x1ffff760
    16c8:	1ffff298 	.word	0x1ffff298
    16cc:	1ffff4a4 	.word	0x1ffff4a4
    16d0:	0000685c 	.word	0x0000685c
    16d4:	00000365 	.word	0x00000365
    16d8:	1ffff499 	.word	0x1ffff499
    16dc:	7821      	ldrb	r1, [r4, #0]
    16de:	3401      	adds	r4, #1
    16e0:	0038      	movs	r0, r7
    16e2:	f002 fd21 	bl	4128 <mbed::Stream::putc(int)>
    16e6:	454c      	cmp	r4, r9
    16e8:	d1f8      	bne.n	16dc <main+0xb20>
    16ea:	4b27      	ldr	r3, [pc, #156]	; (1788 <main+0xbcc>)
    16ec:	3504      	adds	r5, #4
    16ee:	429d      	cmp	r5, r3
    16f0:	d000      	beq.n	16f4 <main+0xb38>
    16f2:	e5dd      	b.n	12b0 <main+0x6f4>
    16f4:	e69a      	b.n	142c <main+0x870>
    16f6:	2303      	movs	r3, #3
    16f8:	4642      	mov	r2, r8
    16fa:	4924      	ldr	r1, [pc, #144]	; (178c <main+0xbd0>)
    16fc:	4824      	ldr	r0, [pc, #144]	; (1790 <main+0xbd4>)
    16fe:	5453      	strb	r3, [r2, r1]
    1700:	23ca      	movs	r3, #202	; 0xca
    1702:	2238      	movs	r2, #56	; 0x38
    1704:	4641      	mov	r1, r8
    1706:	009b      	lsls	r3, r3, #2
    1708:	50ca      	str	r2, [r1, r3]
    170a:	4922      	ldr	r1, [pc, #136]	; (1794 <main+0xbd8>)
    170c:	f003 faa7 	bl	4c5e <memcpy>
    1710:	23c8      	movs	r3, #200	; 0xc8
    1712:	4641      	mov	r1, r8
    1714:	22ff      	movs	r2, #255	; 0xff
    1716:	009b      	lsls	r3, r3, #2
    1718:	54ca      	strb	r2, [r1, r3]
    171a:	4b1f      	ldr	r3, [pc, #124]	; (1798 <main+0xbdc>)
    171c:	3a01      	subs	r2, #1
    171e:	54ca      	strb	r2, [r1, r3]
    1720:	4b1e      	ldr	r3, [pc, #120]	; (179c <main+0xbe0>)
    1722:	3ac1      	subs	r2, #193	; 0xc1
    1724:	54ca      	strb	r2, [r1, r3]
    1726:	2300      	movs	r3, #0
    1728:	4a1d      	ldr	r2, [pc, #116]	; (17a0 <main+0xbe4>)
    172a:	4640      	mov	r0, r8
    172c:	548b      	strb	r3, [r1, r2]
    172e:	21c2      	movs	r1, #194	; 0xc2
    1730:	3201      	adds	r2, #1
    1732:	5481      	strb	r1, [r0, r2]
    1734:	4a1b      	ldr	r2, [pc, #108]	; (17a4 <main+0xbe8>)
    1736:	39bb      	subs	r1, #187	; 0xbb
    1738:	5481      	strb	r1, [r0, r2]
    173a:	4a1b      	ldr	r2, [pc, #108]	; (17a8 <main+0xbec>)
    173c:	2107      	movs	r1, #7
    173e:	5483      	strb	r3, [r0, r2]
    1740:	20d9      	movs	r0, #217	; 0xd9
    1742:	0080      	lsls	r0, r0, #2
    1744:	4440      	add	r0, r8
    1746:	4a19      	ldr	r2, [pc, #100]	; (17ac <main+0xbf0>)
    1748:	e001      	b.n	174e <main+0xb92>
    174a:	7811      	ldrb	r1, [r2, #0]
    174c:	3201      	adds	r2, #1
    174e:	185b      	adds	r3, r3, r1
    1750:	4282      	cmp	r2, r0
    1752:	d1fa      	bne.n	174a <main+0xb8e>
    1754:	22d9      	movs	r2, #217	; 0xd9
    1756:	43db      	mvns	r3, r3
    1758:	0092      	lsls	r2, r2, #2
    175a:	54b3      	strb	r3, [r6, r2]
    175c:	4b14      	ldr	r3, [pc, #80]	; (17b0 <main+0xbf4>)
    175e:	0037      	movs	r7, r6
    1760:	4699      	mov	r9, r3
    1762:	4c14      	ldr	r4, [pc, #80]	; (17b4 <main+0xbf8>)
    1764:	44b1      	add	r9, r6
    1766:	21ff      	movs	r1, #255	; 0xff
    1768:	3744      	adds	r7, #68	; 0x44
    176a:	e001      	b.n	1770 <main+0xbb4>
    176c:	7821      	ldrb	r1, [r4, #0]
    176e:	3401      	adds	r4, #1
    1770:	0038      	movs	r0, r7
    1772:	f002 fcd9 	bl	4128 <mbed::Stream::putc(int)>
    1776:	454c      	cmp	r4, r9
    1778:	d1f8      	bne.n	176c <main+0xbb0>
    177a:	4b0f      	ldr	r3, [pc, #60]	; (17b8 <main+0xbfc>)
    177c:	3504      	adds	r5, #4
    177e:	429d      	cmp	r5, r3
    1780:	d000      	beq.n	1784 <main+0xbc8>
    1782:	e655      	b.n	1430 <main+0x874>
    1784:	e71d      	b.n	15c2 <main+0xa06>
    1786:	46c0      	nop			; (mov r8, r8)
    1788:	1ffff6fc 	.word	0x1ffff6fc
    178c:	00000327 	.word	0x00000327
    1790:	1ffff4a4 	.word	0x1ffff4a4
    1794:	0000685c 	.word	0x0000685c
    1798:	00000321 	.word	0x00000321
    179c:	00000322 	.word	0x00000322
    17a0:	00000323 	.word	0x00000323
    17a4:	00000325 	.word	0x00000325
    17a8:	00000326 	.word	0x00000326
    17ac:	1ffff49e 	.word	0x1ffff49e
    17b0:	00000365 	.word	0x00000365
    17b4:	1ffff499 	.word	0x1ffff499
    17b8:	1ffff760 	.word	0x1ffff760

000017bc <ros::NodeHandle_<MbedHardware, 25, 25, 512, 512>::negotiateTopics()>:
    17bc:	b5f0      	push	{r4, r5, r6, r7, lr}
    17be:	465f      	mov	r7, r11
    17c0:	4656      	mov	r6, r10
    17c2:	464d      	mov	r5, r9
    17c4:	4644      	mov	r4, r8
    17c6:	4683      	mov	r11, r0
    17c8:	b4f0      	push	{r4, r5, r6, r7}
    17ca:	26a4      	movs	r6, #164	; 0xa4
    17cc:	2200      	movs	r2, #0
    17ce:	0005      	movs	r5, r0
    17d0:	4bc6      	ldr	r3, [pc, #792]	; (1aec <ros::NodeHandle_<MbedHardware, 25, 25, 512, 512>::negotiateTopics()+0x330>)
    17d2:	b091      	sub	sp, #68	; 0x44
    17d4:	930a      	str	r3, [sp, #40]	; 0x28
    17d6:	4bc6      	ldr	r3, [pc, #792]	; (1af0 <ros::NodeHandle_<MbedHardware, 25, 25, 512, 512>::negotiateTopics()+0x334>)
    17d8:	af0a      	add	r7, sp, #40	; 0x28
    17da:	60bb      	str	r3, [r7, #8]
    17dc:	60fb      	str	r3, [r7, #12]
    17de:	613b      	str	r3, [r7, #16]
    17e0:	4bc4      	ldr	r3, [pc, #784]	; (1af4 <ros::NodeHandle_<MbedHardware, 25, 25, 512, 512>::negotiateTopics()+0x338>)
    17e2:	00f6      	lsls	r6, r6, #3
    17e4:	445b      	add	r3, r11
    17e6:	80ba      	strh	r2, [r7, #4]
    17e8:	617a      	str	r2, [r7, #20]
    17ea:	445e      	add	r6, r11
    17ec:	9302      	str	r3, [sp, #8]
    17ee:	6833      	ldr	r3, [r6, #0]
    17f0:	2b00      	cmp	r3, #0
    17f2:	d100      	bne.n	17f6 <ros::NodeHandle_<MbedHardware, 25, 25, 512, 512>::negotiateTopics()+0x3a>
    17f4:	e0c8      	b.n	1988 <ros::NodeHandle_<MbedHardware, 25, 25, 512, 512>::negotiateTopics()+0x1cc>
    17f6:	891a      	ldrh	r2, [r3, #8]
    17f8:	6858      	ldr	r0, [r3, #4]
    17fa:	80ba      	strh	r2, [r7, #4]
    17fc:	681a      	ldr	r2, [r3, #0]
    17fe:	6803      	ldr	r3, [r0, #0]
    1800:	60ba      	str	r2, [r7, #8]
    1802:	689b      	ldr	r3, [r3, #8]
    1804:	4798      	blx	r3
    1806:	6833      	ldr	r3, [r6, #0]
    1808:	60f8      	str	r0, [r7, #12]
    180a:	6858      	ldr	r0, [r3, #4]
    180c:	6803      	ldr	r3, [r0, #0]
    180e:	68db      	ldr	r3, [r3, #12]
    1810:	4798      	blx	r3
    1812:	2380      	movs	r3, #128	; 0x80
    1814:	009b      	lsls	r3, r3, #2
    1816:	617b      	str	r3, [r7, #20]
    1818:	6832      	ldr	r2, [r6, #0]
    181a:	682b      	ldr	r3, [r5, #0]
    181c:	6138      	str	r0, [r7, #16]
    181e:	6912      	ldr	r2, [r2, #16]
    1820:	681b      	ldr	r3, [r3, #0]
    1822:	49b5      	ldr	r1, [pc, #724]	; (1af8 <ros::NodeHandle_<MbedHardware, 25, 25, 512, 512>::negotiateTopics()+0x33c>)
    1824:	4680      	mov	r8, r0
    1826:	9201      	str	r2, [sp, #4]
    1828:	428b      	cmp	r3, r1
    182a:	d000      	beq.n	182e <ros::NodeHandle_<MbedHardware, 25, 25, 512, 512>::negotiateTopics()+0x72>
    182c:	e1bf      	b.n	1bae <ros::NodeHandle_<MbedHardware, 25, 25, 512, 512>::negotiateTopics()+0x3f2>
    182e:	2a63      	cmp	r2, #99	; 0x63
    1830:	dd04      	ble.n	183c <ros::NodeHandle_<MbedHardware, 25, 25, 512, 512>::negotiateTopics()+0x80>
    1832:	4bb2      	ldr	r3, [pc, #712]	; (1afc <ros::NodeHandle_<MbedHardware, 25, 25, 512, 512>::negotiateTopics()+0x340>)
    1834:	5ceb      	ldrb	r3, [r5, r3]
    1836:	2b00      	cmp	r3, #0
    1838:	d100      	bne.n	183c <ros::NodeHandle_<MbedHardware, 25, 25, 512, 512>::negotiateTopics()+0x80>
    183a:	e0a5      	b.n	1988 <ros::NodeHandle_<MbedHardware, 25, 25, 512, 512>::negotiateTopics()+0x1cc>
    183c:	88bb      	ldrh	r3, [r7, #4]
    183e:	4ab0      	ldr	r2, [pc, #704]	; (1b00 <ros::NodeHandle_<MbedHardware, 25, 25, 512, 512>::negotiateTopics()+0x344>)
    1840:	54ab      	strb	r3, [r5, r2]
    1842:	3201      	adds	r2, #1
    1844:	0a1b      	lsrs	r3, r3, #8
    1846:	54ab      	strb	r3, [r5, r2]
    1848:	68bb      	ldr	r3, [r7, #8]
    184a:	0018      	movs	r0, r3
    184c:	4699      	mov	r9, r3
    184e:	f004 f8db 	bl	5a08 <strlen>
    1852:	0004      	movs	r4, r0
    1854:	4bab      	ldr	r3, [pc, #684]	; (1b04 <ros::NodeHandle_<MbedHardware, 25, 25, 512, 512>::negotiateTopics()+0x348>)
    1856:	9005      	str	r0, [sp, #20]
    1858:	2204      	movs	r2, #4
    185a:	a905      	add	r1, sp, #20
    185c:	18e8      	adds	r0, r5, r3
    185e:	f003 f9fe 	bl	4c5e <memcpy>
    1862:	4ba9      	ldr	r3, [pc, #676]	; (1b08 <ros::NodeHandle_<MbedHardware, 25, 25, 512, 512>::negotiateTopics()+0x34c>)
    1864:	4649      	mov	r1, r9
    1866:	0022      	movs	r2, r4
    1868:	18e8      	adds	r0, r5, r3
    186a:	f003 f9f8 	bl	4c5e <memcpy>
    186e:	68fa      	ldr	r2, [r7, #12]
    1870:	0010      	movs	r0, r2
    1872:	4693      	mov	r11, r2
    1874:	f004 f8c8 	bl	5a08 <strlen>
    1878:	4aa1      	ldr	r2, [pc, #644]	; (1b00 <ros::NodeHandle_<MbedHardware, 25, 25, 512, 512>::negotiateTopics()+0x344>)
    187a:	1da3      	adds	r3, r4, #6
    187c:	4691      	mov	r9, r2
    187e:	44a9      	add	r9, r5
    1880:	444b      	add	r3, r9
    1882:	4682      	mov	r10, r0
    1884:	9006      	str	r0, [sp, #24]
    1886:	0018      	movs	r0, r3
    1888:	ab06      	add	r3, sp, #24
    188a:	0019      	movs	r1, r3
    188c:	2204      	movs	r2, #4
    188e:	9303      	str	r3, [sp, #12]
    1890:	f003 f9e5 	bl	4c5e <memcpy>
    1894:	464b      	mov	r3, r9
    1896:	340a      	adds	r4, #10
    1898:	1918      	adds	r0, r3, r4
    189a:	4652      	mov	r2, r10
    189c:	4659      	mov	r1, r11
    189e:	f003 f9de 	bl	4c5e <memcpy>
    18a2:	4640      	mov	r0, r8
    18a4:	f004 f8b0 	bl	5a08 <strlen>
    18a8:	464b      	mov	r3, r9
    18aa:	4454      	add	r4, r10
    18ac:	9007      	str	r0, [sp, #28]
    18ae:	4682      	mov	r10, r0
    18b0:	1918      	adds	r0, r3, r4
    18b2:	ab07      	add	r3, sp, #28
    18b4:	0019      	movs	r1, r3
    18b6:	2204      	movs	r2, #4
    18b8:	469b      	mov	r11, r3
    18ba:	f003 f9d0 	bl	4c5e <memcpy>
    18be:	464b      	mov	r3, r9
    18c0:	3404      	adds	r4, #4
    18c2:	1918      	adds	r0, r3, r4
    18c4:	4641      	mov	r1, r8
    18c6:	4652      	mov	r2, r10
    18c8:	f003 f9c9 	bl	4c5e <memcpy>
    18cc:	2200      	movs	r2, #0
    18ce:	464b      	mov	r3, r9
    18d0:	2102      	movs	r1, #2
    18d2:	4454      	add	r4, r10
    18d4:	551a      	strb	r2, [r3, r4]
    18d6:	191b      	adds	r3, r3, r4
    18d8:	709a      	strb	r2, [r3, #2]
    18da:	70da      	strb	r2, [r3, #3]
    18dc:	1d22      	adds	r2, r4, #4
    18de:	7059      	strb	r1, [r3, #1]
    18e0:	b293      	uxth	r3, r2
    18e2:	469c      	mov	r12, r3
    18e4:	23c8      	movs	r3, #200	; 0xc8
    18e6:	31fd      	adds	r1, #253	; 0xfd
    18e8:	009b      	lsls	r3, r3, #2
    18ea:	54e9      	strb	r1, [r5, r3]
    18ec:	4b87      	ldr	r3, [pc, #540]	; (1b0c <ros::NodeHandle_<MbedHardware, 25, 25, 512, 512>::negotiateTopics()+0x350>)
    18ee:	3901      	subs	r1, #1
    18f0:	54e9      	strb	r1, [r5, r3]
    18f2:	4b87      	ldr	r3, [pc, #540]	; (1b10 <ros::NodeHandle_<MbedHardware, 25, 25, 512, 512>::negotiateTopics()+0x354>)
    18f4:	b2d0      	uxtb	r0, r2
    18f6:	1211      	asrs	r1, r2, #8
    18f8:	54e8      	strb	r0, [r5, r3]
    18fa:	b2cb      	uxtb	r3, r1
    18fc:	4985      	ldr	r1, [pc, #532]	; (1b14 <ros::NodeHandle_<MbedHardware, 25, 25, 512, 512>::negotiateTopics()+0x358>)
    18fe:	546b      	strb	r3, [r5, r1]
    1900:	18c3      	adds	r3, r0, r3
    1902:	43db      	mvns	r3, r3
    1904:	3101      	adds	r1, #1
    1906:	9801      	ldr	r0, [sp, #4]
    1908:	546b      	strb	r3, [r5, r1]
    190a:	4b83      	ldr	r3, [pc, #524]	; (1b18 <ros::NodeHandle_<MbedHardware, 25, 25, 512, 512>::negotiateTopics()+0x35c>)
    190c:	b2c1      	uxtb	r1, r0
    190e:	54e9      	strb	r1, [r5, r3]
    1910:	4b82      	ldr	r3, [pc, #520]	; (1b1c <ros::NodeHandle_<MbedHardware, 25, 25, 512, 512>::negotiateTopics()+0x360>)
    1912:	0a00      	lsrs	r0, r0, #8
    1914:	54e8      	strb	r0, [r5, r3]
    1916:	0410      	lsls	r0, r2, #16
    1918:	4a79      	ldr	r2, [pc, #484]	; (1b00 <ros::NodeHandle_<MbedHardware, 25, 25, 512, 512>::negotiateTopics()+0x344>)
    191a:	0c00      	lsrs	r0, r0, #16
    191c:	4690      	mov	r8, r2
    191e:	18ec      	adds	r4, r5, r3
    1920:	4440      	add	r0, r8
    1922:	0023      	movs	r3, r4
    1924:	1828      	adds	r0, r5, r0
    1926:	2200      	movs	r2, #0
    1928:	e001      	b.n	192e <ros::NodeHandle_<MbedHardware, 25, 25, 512, 512>::negotiateTopics()+0x172>
    192a:	7819      	ldrb	r1, [r3, #0]
    192c:	3301      	adds	r3, #1
    192e:	1852      	adds	r2, r2, r1
    1930:	4298      	cmp	r0, r3
    1932:	d1fa      	bne.n	192a <ros::NodeHandle_<MbedHardware, 25, 25, 512, 512>::negotiateTopics()+0x16e>
    1934:	4663      	mov	r3, r12
    1936:	21c8      	movs	r1, #200	; 0xc8
    1938:	3308      	adds	r3, #8
    193a:	b29b      	uxth	r3, r3
    193c:	4698      	mov	r8, r3
    193e:	4663      	mov	r3, r12
    1940:	0089      	lsls	r1, r1, #2
    1942:	468c      	mov	r12, r1
    1944:	43d2      	mvns	r2, r2
    1946:	3307      	adds	r3, #7
    1948:	b29b      	uxth	r3, r3
    194a:	18eb      	adds	r3, r5, r3
    194c:	4463      	add	r3, r12
    194e:	701a      	strb	r2, [r3, #0]
    1950:	2380      	movs	r3, #128	; 0x80
    1952:	009b      	lsls	r3, r3, #2
    1954:	4598      	cmp	r8, r3
    1956:	d900      	bls.n	195a <ros::NodeHandle_<MbedHardware, 25, 25, 512, 512>::negotiateTopics()+0x19e>
    1958:	e142      	b.n	1be0 <ros::NodeHandle_<MbedHardware, 25, 25, 512, 512>::negotiateTopics()+0x424>
    195a:	4689      	mov	r9, r1
    195c:	4643      	mov	r3, r8
    195e:	44a9      	add	r9, r5
    1960:	2b00      	cmp	r3, #0
    1962:	d011      	beq.n	1988 <ros::NodeHandle_<MbedHardware, 25, 25, 512, 512>::negotiateTopics()+0x1cc>
    1964:	2344      	movs	r3, #68	; 0x44
    1966:	469a      	mov	r10, r3
    1968:	002b      	movs	r3, r5
    196a:	44aa      	add	r10, r5
    196c:	2400      	movs	r4, #0
    196e:	4645      	mov	r5, r8
    1970:	46b0      	mov	r8, r6
    1972:	464e      	mov	r6, r9
    1974:	4699      	mov	r9, r3
    1976:	5d31      	ldrb	r1, [r6, r4]
    1978:	4650      	mov	r0, r10
    197a:	3401      	adds	r4, #1
    197c:	f002 fbd4 	bl	4128 <mbed::Stream::putc(int)>
    1980:	42a5      	cmp	r5, r4
    1982:	dcf8      	bgt.n	1976 <ros::NodeHandle_<MbedHardware, 25, 25, 512, 512>::negotiateTopics()+0x1ba>
    1984:	4646      	mov	r6, r8
    1986:	464d      	mov	r5, r9
    1988:	9b02      	ldr	r3, [sp, #8]
    198a:	3604      	adds	r6, #4
    198c:	429e      	cmp	r6, r3
    198e:	d000      	beq.n	1992 <ros::NodeHandle_<MbedHardware, 25, 25, 512, 512>::negotiateTopics()+0x1d6>
    1990:	e72d      	b.n	17ee <ros::NodeHandle_<MbedHardware, 25, 25, 512, 512>::negotiateTopics()+0x32>
    1992:	469a      	mov	r10, r3
    1994:	23bd      	movs	r3, #189	; 0xbd
    1996:	46ab      	mov	r11, r5
    1998:	00db      	lsls	r3, r3, #3
    199a:	445b      	add	r3, r11
    199c:	9302      	str	r3, [sp, #8]
    199e:	4653      	mov	r3, r10
    19a0:	6818      	ldr	r0, [r3, #0]
    19a2:	2800      	cmp	r0, #0
    19a4:	d100      	bne.n	19a8 <ros::NodeHandle_<MbedHardware, 25, 25, 512, 512>::negotiateTopics()+0x1ec>
    19a6:	e0f1      	b.n	1b8c <ros::NodeHandle_<MbedHardware, 25, 25, 512, 512>::negotiateTopics()+0x3d0>
    19a8:	8883      	ldrh	r3, [r0, #4]
    19aa:	495d      	ldr	r1, [pc, #372]	; (1b20 <ros::NodeHandle_<MbedHardware, 25, 25, 512, 512>::negotiateTopics()+0x364>)
    19ac:	80bb      	strh	r3, [r7, #4]
    19ae:	6883      	ldr	r3, [r0, #8]
    19b0:	60bb      	str	r3, [r7, #8]
    19b2:	6803      	ldr	r3, [r0, #0]
    19b4:	689a      	ldr	r2, [r3, #8]
    19b6:	428a      	cmp	r2, r1
    19b8:	d000      	beq.n	19bc <ros::NodeHandle_<MbedHardware, 25, 25, 512, 512>::negotiateTopics()+0x200>
    19ba:	e10b      	b.n	1bd4 <ros::NodeHandle_<MbedHardware, 25, 25, 512, 512>::negotiateTopics()+0x418>
    19bc:	4a59      	ldr	r2, [pc, #356]	; (1b24 <ros::NodeHandle_<MbedHardware, 25, 25, 512, 512>::negotiateTopics()+0x368>)
    19be:	60fa      	str	r2, [r7, #12]
    19c0:	68da      	ldr	r2, [r3, #12]
    19c2:	4959      	ldr	r1, [pc, #356]	; (1b28 <ros::NodeHandle_<MbedHardware, 25, 25, 512, 512>::negotiateTopics()+0x36c>)
    19c4:	428a      	cmp	r2, r1
    19c6:	d000      	beq.n	19ca <ros::NodeHandle_<MbedHardware, 25, 25, 512, 512>::negotiateTopics()+0x20e>
    19c8:	e0fe      	b.n	1bc8 <ros::NodeHandle_<MbedHardware, 25, 25, 512, 512>::negotiateTopics()+0x40c>
    19ca:	4a58      	ldr	r2, [pc, #352]	; (1b2c <ros::NodeHandle_<MbedHardware, 25, 25, 512, 512>::negotiateTopics()+0x370>)
    19cc:	613a      	str	r2, [r7, #16]
    19ce:	2280      	movs	r2, #128	; 0x80
    19d0:	0092      	lsls	r2, r2, #2
    19d2:	617a      	str	r2, [r7, #20]
    19d4:	682a      	ldr	r2, [r5, #0]
    19d6:	685b      	ldr	r3, [r3, #4]
    19d8:	6814      	ldr	r4, [r2, #0]
    19da:	4a55      	ldr	r2, [pc, #340]	; (1b30 <ros::NodeHandle_<MbedHardware, 25, 25, 512, 512>::negotiateTopics()+0x374>)
    19dc:	4293      	cmp	r3, r2
    19de:	d000      	beq.n	19e2 <ros::NodeHandle_<MbedHardware, 25, 25, 512, 512>::negotiateTopics()+0x226>
    19e0:	e0ef      	b.n	1bc2 <ros::NodeHandle_<MbedHardware, 25, 25, 512, 512>::negotiateTopics()+0x406>
    19e2:	6943      	ldr	r3, [r0, #20]
    19e4:	9301      	str	r3, [sp, #4]
    19e6:	4b44      	ldr	r3, [pc, #272]	; (1af8 <ros::NodeHandle_<MbedHardware, 25, 25, 512, 512>::negotiateTopics()+0x33c>)
    19e8:	429c      	cmp	r4, r3
    19ea:	d000      	beq.n	19ee <ros::NodeHandle_<MbedHardware, 25, 25, 512, 512>::negotiateTopics()+0x232>
    19ec:	e0e4      	b.n	1bb8 <ros::NodeHandle_<MbedHardware, 25, 25, 512, 512>::negotiateTopics()+0x3fc>
    19ee:	9b01      	ldr	r3, [sp, #4]
    19f0:	2b63      	cmp	r3, #99	; 0x63
    19f2:	dd04      	ble.n	19fe <ros::NodeHandle_<MbedHardware, 25, 25, 512, 512>::negotiateTopics()+0x242>
    19f4:	4b41      	ldr	r3, [pc, #260]	; (1afc <ros::NodeHandle_<MbedHardware, 25, 25, 512, 512>::negotiateTopics()+0x340>)
    19f6:	5ceb      	ldrb	r3, [r5, r3]
    19f8:	2b00      	cmp	r3, #0
    19fa:	d100      	bne.n	19fe <ros::NodeHandle_<MbedHardware, 25, 25, 512, 512>::negotiateTopics()+0x242>
    19fc:	e0c6      	b.n	1b8c <ros::NodeHandle_<MbedHardware, 25, 25, 512, 512>::negotiateTopics()+0x3d0>
    19fe:	88bb      	ldrh	r3, [r7, #4]
    1a00:	4a3f      	ldr	r2, [pc, #252]	; (1b00 <ros::NodeHandle_<MbedHardware, 25, 25, 512, 512>::negotiateTopics()+0x344>)
    1a02:	68be      	ldr	r6, [r7, #8]
    1a04:	54ab      	strb	r3, [r5, r2]
    1a06:	0a1b      	lsrs	r3, r3, #8
    1a08:	3201      	adds	r2, #1
    1a0a:	54ab      	strb	r3, [r5, r2]
    1a0c:	0030      	movs	r0, r6
    1a0e:	f003 fffb 	bl	5a08 <strlen>
    1a12:	0004      	movs	r4, r0
    1a14:	4b3b      	ldr	r3, [pc, #236]	; (1b04 <ros::NodeHandle_<MbedHardware, 25, 25, 512, 512>::negotiateTopics()+0x348>)
    1a16:	9005      	str	r0, [sp, #20]
    1a18:	2204      	movs	r2, #4
    1a1a:	a905      	add	r1, sp, #20
    1a1c:	18e8      	adds	r0, r5, r3
    1a1e:	f003 f91e 	bl	4c5e <memcpy>
    1a22:	4b39      	ldr	r3, [pc, #228]	; (1b08 <ros::NodeHandle_<MbedHardware, 25, 25, 512, 512>::negotiateTopics()+0x34c>)
    1a24:	0022      	movs	r2, r4
    1a26:	0031      	movs	r1, r6
    1a28:	18e8      	adds	r0, r5, r3
    1a2a:	f003 f918 	bl	4c5e <memcpy>
    1a2e:	1da3      	adds	r3, r4, #6
    1a30:	4699      	mov	r9, r3
    1a32:	68fb      	ldr	r3, [r7, #12]
    1a34:	340a      	adds	r4, #10
    1a36:	0018      	movs	r0, r3
    1a38:	469b      	mov	r11, r3
    1a3a:	f003 ffe5 	bl	5a08 <strlen>
    1a3e:	4b30      	ldr	r3, [pc, #192]	; (1b00 <ros::NodeHandle_<MbedHardware, 25, 25, 512, 512>::negotiateTopics()+0x344>)
    1a40:	4680      	mov	r8, r0
    1a42:	18ee      	adds	r6, r5, r3
    1a44:	464b      	mov	r3, r9
    1a46:	9006      	str	r0, [sp, #24]
    1a48:	18f0      	adds	r0, r6, r3
    1a4a:	ab06      	add	r3, sp, #24
    1a4c:	0019      	movs	r1, r3
    1a4e:	2204      	movs	r2, #4
    1a50:	9303      	str	r3, [sp, #12]
    1a52:	f003 f904 	bl	4c5e <memcpy>
    1a56:	4642      	mov	r2, r8
    1a58:	4659      	mov	r1, r11
    1a5a:	1930      	adds	r0, r6, r4
    1a5c:	f003 f8ff 	bl	4c5e <memcpy>
    1a60:	693b      	ldr	r3, [r7, #16]
    1a62:	4444      	add	r4, r8
    1a64:	0018      	movs	r0, r3
    1a66:	469b      	mov	r11, r3
    1a68:	f003 ffce 	bl	5a08 <strlen>
    1a6c:	4681      	mov	r9, r0
    1a6e:	ab07      	add	r3, sp, #28
    1a70:	0019      	movs	r1, r3
    1a72:	9007      	str	r0, [sp, #28]
    1a74:	2204      	movs	r2, #4
    1a76:	1930      	adds	r0, r6, r4
    1a78:	3404      	adds	r4, #4
    1a7a:	4698      	mov	r8, r3
    1a7c:	f003 f8ef 	bl	4c5e <memcpy>
    1a80:	1930      	adds	r0, r6, r4
    1a82:	464a      	mov	r2, r9
    1a84:	4659      	mov	r1, r11
    1a86:	f003 f8ea 	bl	4c5e <memcpy>
    1a8a:	697b      	ldr	r3, [r7, #20]
    1a8c:	444c      	add	r4, r9
    1a8e:	5533      	strb	r3, [r6, r4]
    1a90:	0a1a      	lsrs	r2, r3, #8
    1a92:	1936      	adds	r6, r6, r4
    1a94:	7072      	strb	r2, [r6, #1]
    1a96:	3404      	adds	r4, #4
    1a98:	0c1a      	lsrs	r2, r3, #16
    1a9a:	0e1b      	lsrs	r3, r3, #24
    1a9c:	70f3      	strb	r3, [r6, #3]
    1a9e:	b2a3      	uxth	r3, r4
    1aa0:	469c      	mov	r12, r3
    1aa2:	23c8      	movs	r3, #200	; 0xc8
    1aa4:	70b2      	strb	r2, [r6, #2]
    1aa6:	22ff      	movs	r2, #255	; 0xff
    1aa8:	009b      	lsls	r3, r3, #2
    1aaa:	54ea      	strb	r2, [r5, r3]
    1aac:	4b17      	ldr	r3, [pc, #92]	; (1b0c <ros::NodeHandle_<MbedHardware, 25, 25, 512, 512>::negotiateTopics()+0x350>)
    1aae:	3a01      	subs	r2, #1
    1ab0:	54ea      	strb	r2, [r5, r3]
    1ab2:	4b17      	ldr	r3, [pc, #92]	; (1b10 <ros::NodeHandle_<MbedHardware, 25, 25, 512, 512>::negotiateTopics()+0x354>)
    1ab4:	b2e1      	uxtb	r1, r4
    1ab6:	1222      	asrs	r2, r4, #8
    1ab8:	54e9      	strb	r1, [r5, r3]
    1aba:	b2d3      	uxtb	r3, r2
    1abc:	4a15      	ldr	r2, [pc, #84]	; (1b14 <ros::NodeHandle_<MbedHardware, 25, 25, 512, 512>::negotiateTopics()+0x358>)
    1abe:	0420      	lsls	r0, r4, #16
    1ac0:	54ab      	strb	r3, [r5, r2]
    1ac2:	18cb      	adds	r3, r1, r3
    1ac4:	43db      	mvns	r3, r3
    1ac6:	3201      	adds	r2, #1
    1ac8:	54ab      	strb	r3, [r5, r2]
    1aca:	9a01      	ldr	r2, [sp, #4]
    1acc:	4b12      	ldr	r3, [pc, #72]	; (1b18 <ros::NodeHandle_<MbedHardware, 25, 25, 512, 512>::negotiateTopics()+0x35c>)
    1ace:	b2d1      	uxtb	r1, r2
    1ad0:	54e9      	strb	r1, [r5, r3]
    1ad2:	4b12      	ldr	r3, [pc, #72]	; (1b1c <ros::NodeHandle_<MbedHardware, 25, 25, 512, 512>::negotiateTopics()+0x360>)
    1ad4:	0a12      	lsrs	r2, r2, #8
    1ad6:	54ea      	strb	r2, [r5, r3]
    1ad8:	4a09      	ldr	r2, [pc, #36]	; (1b00 <ros::NodeHandle_<MbedHardware, 25, 25, 512, 512>::negotiateTopics()+0x344>)
    1ada:	0c00      	lsrs	r0, r0, #16
    1adc:	4691      	mov	r9, r2
    1ade:	18ee      	adds	r6, r5, r3
    1ae0:	4448      	add	r0, r9
    1ae2:	0033      	movs	r3, r6
    1ae4:	1828      	adds	r0, r5, r0
    1ae6:	2200      	movs	r2, #0
    1ae8:	e026      	b.n	1b38 <ros::NodeHandle_<MbedHardware, 25, 25, 512, 512>::negotiateTopics()+0x37c>
    1aea:	46c0      	nop			; (mov r8, r8)
    1aec:	000066d4 	.word	0x000066d4
    1af0:	00006894 	.word	0x00006894
    1af4:	00000584 	.word	0x00000584
    1af8:	00000a1d 	.word	0x00000a1d
    1afc:	000005fc 	.word	0x000005fc
    1b00:	00000327 	.word	0x00000327
    1b04:	00000329 	.word	0x00000329
    1b08:	0000032d 	.word	0x0000032d
    1b0c:	00000321 	.word	0x00000321
    1b10:	00000322 	.word	0x00000322
    1b14:	00000323 	.word	0x00000323
    1b18:	00000325 	.word	0x00000325
    1b1c:	00000326 	.word	0x00000326
    1b20:	000005b5 	.word	0x000005b5
    1b24:	00006828 	.word	0x00006828
    1b28:	000005bd 	.word	0x000005bd
    1b2c:	00006838 	.word	0x00006838
    1b30:	000005b1 	.word	0x000005b1
    1b34:	7819      	ldrb	r1, [r3, #0]
    1b36:	3301      	adds	r3, #1
    1b38:	1852      	adds	r2, r2, r1
    1b3a:	4298      	cmp	r0, r3
    1b3c:	d1fa      	bne.n	1b34 <ros::NodeHandle_<MbedHardware, 25, 25, 512, 512>::negotiateTopics()+0x378>
    1b3e:	21c8      	movs	r1, #200	; 0xc8
    1b40:	4663      	mov	r3, r12
    1b42:	0089      	lsls	r1, r1, #2
    1b44:	4664      	mov	r4, r12
    1b46:	468c      	mov	r12, r1
    1b48:	43d2      	mvns	r2, r2
    1b4a:	3307      	adds	r3, #7
    1b4c:	b29b      	uxth	r3, r3
    1b4e:	18eb      	adds	r3, r5, r3
    1b50:	4463      	add	r3, r12
    1b52:	701a      	strb	r2, [r3, #0]
    1b54:	2380      	movs	r3, #128	; 0x80
    1b56:	3408      	adds	r4, #8
    1b58:	b2a4      	uxth	r4, r4
    1b5a:	009b      	lsls	r3, r3, #2
    1b5c:	429c      	cmp	r4, r3
    1b5e:	d900      	bls.n	1b62 <ros::NodeHandle_<MbedHardware, 25, 25, 512, 512>::negotiateTopics()+0x3a6>
    1b60:	e094      	b.n	1c8c <ros::NodeHandle_<MbedHardware, 25, 25, 512, 512>::negotiateTopics()+0x4d0>
    1b62:	4688      	mov	r8, r1
    1b64:	44a8      	add	r8, r5
    1b66:	2c00      	cmp	r4, #0
    1b68:	d010      	beq.n	1b8c <ros::NodeHandle_<MbedHardware, 25, 25, 512, 512>::negotiateTopics()+0x3d0>
    1b6a:	2344      	movs	r3, #68	; 0x44
    1b6c:	4699      	mov	r9, r3
    1b6e:	002b      	movs	r3, r5
    1b70:	44a9      	add	r9, r5
    1b72:	2600      	movs	r6, #0
    1b74:	0025      	movs	r5, r4
    1b76:	464c      	mov	r4, r9
    1b78:	4699      	mov	r9, r3
    1b7a:	4643      	mov	r3, r8
    1b7c:	0020      	movs	r0, r4
    1b7e:	5d99      	ldrb	r1, [r3, r6]
    1b80:	3601      	adds	r6, #1
    1b82:	f002 fad1 	bl	4128 <mbed::Stream::putc(int)>
    1b86:	42b5      	cmp	r5, r6
    1b88:	dcf7      	bgt.n	1b7a <ros::NodeHandle_<MbedHardware, 25, 25, 512, 512>::negotiateTopics()+0x3be>
    1b8a:	464d      	mov	r5, r9
    1b8c:	2304      	movs	r3, #4
    1b8e:	469c      	mov	r12, r3
    1b90:	9b02      	ldr	r3, [sp, #8]
    1b92:	44e2      	add	r10, r12
    1b94:	4553      	cmp	r3, r10
    1b96:	d000      	beq.n	1b9a <ros::NodeHandle_<MbedHardware, 25, 25, 512, 512>::negotiateTopics()+0x3de>
    1b98:	e701      	b.n	199e <ros::NodeHandle_<MbedHardware, 25, 25, 512, 512>::negotiateTopics()+0x1e2>
    1b9a:	2201      	movs	r2, #1
    1b9c:	4b6b      	ldr	r3, [pc, #428]	; (1d4c <ros::NodeHandle_<MbedHardware, 25, 25, 512, 512>::negotiateTopics()+0x590>)
    1b9e:	54ea      	strb	r2, [r5, r3]
    1ba0:	b011      	add	sp, #68	; 0x44
    1ba2:	bc3c      	pop	{r2, r3, r4, r5}
    1ba4:	4690      	mov	r8, r2
    1ba6:	4699      	mov	r9, r3
    1ba8:	46a2      	mov	r10, r4
    1baa:	46ab      	mov	r11, r5
    1bac:	bdf0      	pop	{r4, r5, r6, r7, pc}
    1bae:	003a      	movs	r2, r7
    1bb0:	9901      	ldr	r1, [sp, #4]
    1bb2:	0028      	movs	r0, r5
    1bb4:	4798      	blx	r3
    1bb6:	e6e7      	b.n	1988 <ros::NodeHandle_<MbedHardware, 25, 25, 512, 512>::negotiateTopics()+0x1cc>
    1bb8:	003a      	movs	r2, r7
    1bba:	9901      	ldr	r1, [sp, #4]
    1bbc:	0028      	movs	r0, r5
    1bbe:	47a0      	blx	r4
    1bc0:	e7e4      	b.n	1b8c <ros::NodeHandle_<MbedHardware, 25, 25, 512, 512>::negotiateTopics()+0x3d0>
    1bc2:	4798      	blx	r3
    1bc4:	9001      	str	r0, [sp, #4]
    1bc6:	e70e      	b.n	19e6 <ros::NodeHandle_<MbedHardware, 25, 25, 512, 512>::negotiateTopics()+0x22a>
    1bc8:	4790      	blx	r2
    1bca:	4653      	mov	r3, r10
    1bcc:	0002      	movs	r2, r0
    1bce:	6818      	ldr	r0, [r3, #0]
    1bd0:	6803      	ldr	r3, [r0, #0]
    1bd2:	e6fb      	b.n	19cc <ros::NodeHandle_<MbedHardware, 25, 25, 512, 512>::negotiateTopics()+0x210>
    1bd4:	4790      	blx	r2
    1bd6:	4653      	mov	r3, r10
    1bd8:	0002      	movs	r2, r0
    1bda:	6818      	ldr	r0, [r3, #0]
    1bdc:	6803      	ldr	r3, [r0, #0]
    1bde:	e6ee      	b.n	19be <ros::NodeHandle_<MbedHardware, 25, 25, 512, 512>::negotiateTopics()+0x202>
    1be0:	465b      	mov	r3, r11
    1be2:	4a5b      	ldr	r2, [pc, #364]	; (1d50 <ros::NodeHandle_<MbedHardware, 25, 25, 512, 512>::negotiateTopics()+0x594>)
    1be4:	495b      	ldr	r1, [pc, #364]	; (1d54 <ros::NodeHandle_<MbedHardware, 25, 25, 512, 512>::negotiateTopics()+0x598>)
    1be6:	601a      	str	r2, [r3, #0]
    1be8:	2203      	movs	r2, #3
    1bea:	6099      	str	r1, [r3, #8]
    1bec:	711a      	strb	r2, [r3, #4]
    1bee:	682b      	ldr	r3, [r5, #0]
    1bf0:	4959      	ldr	r1, [pc, #356]	; (1d58 <ros::NodeHandle_<MbedHardware, 25, 25, 512, 512>::negotiateTopics()+0x59c>)
    1bf2:	681b      	ldr	r3, [r3, #0]
    1bf4:	428b      	cmp	r3, r1
    1bf6:	d000      	beq.n	1bfa <ros::NodeHandle_<MbedHardware, 25, 25, 512, 512>::negotiateTopics()+0x43e>
    1bf8:	e0a2      	b.n	1d40 <ros::NodeHandle_<MbedHardware, 25, 25, 512, 512>::negotiateTopics()+0x584>
    1bfa:	4b58      	ldr	r3, [pc, #352]	; (1d5c <ros::NodeHandle_<MbedHardware, 25, 25, 512, 512>::negotiateTopics()+0x5a0>)
    1bfc:	9903      	ldr	r1, [sp, #12]
    1bfe:	54ea      	strb	r2, [r5, r3]
    1c00:	2338      	movs	r3, #56	; 0x38
    1c02:	9306      	str	r3, [sp, #24]
    1c04:	23ca      	movs	r3, #202	; 0xca
    1c06:	009b      	lsls	r3, r3, #2
    1c08:	3201      	adds	r2, #1
    1c0a:	18e8      	adds	r0, r5, r3
    1c0c:	f003 f827 	bl	4c5e <memcpy>
    1c10:	23cb      	movs	r3, #203	; 0xcb
    1c12:	009b      	lsls	r3, r3, #2
    1c14:	2238      	movs	r2, #56	; 0x38
    1c16:	494f      	ldr	r1, [pc, #316]	; (1d54 <ros::NodeHandle_<MbedHardware, 25, 25, 512, 512>::negotiateTopics()+0x598>)
    1c18:	18e8      	adds	r0, r5, r3
    1c1a:	f003 f820 	bl	4c5e <memcpy>
    1c1e:	23c8      	movs	r3, #200	; 0xc8
    1c20:	22ff      	movs	r2, #255	; 0xff
    1c22:	009b      	lsls	r3, r3, #2
    1c24:	54ea      	strb	r2, [r5, r3]
    1c26:	4b4e      	ldr	r3, [pc, #312]	; (1d60 <ros::NodeHandle_<MbedHardware, 25, 25, 512, 512>::negotiateTopics()+0x5a4>)
    1c28:	3a01      	subs	r2, #1
    1c2a:	54ea      	strb	r2, [r5, r3]
    1c2c:	4b4d      	ldr	r3, [pc, #308]	; (1d64 <ros::NodeHandle_<MbedHardware, 25, 25, 512, 512>::negotiateTopics()+0x5a8>)
    1c2e:	3ac1      	subs	r2, #193	; 0xc1
    1c30:	54ea      	strb	r2, [r5, r3]
    1c32:	2300      	movs	r3, #0
    1c34:	21c2      	movs	r1, #194	; 0xc2
    1c36:	4a4c      	ldr	r2, [pc, #304]	; (1d68 <ros::NodeHandle_<MbedHardware, 25, 25, 512, 512>::negotiateTopics()+0x5ac>)
    1c38:	54ab      	strb	r3, [r5, r2]
    1c3a:	3201      	adds	r2, #1
    1c3c:	54a9      	strb	r1, [r5, r2]
    1c3e:	4a4b      	ldr	r2, [pc, #300]	; (1d6c <ros::NodeHandle_<MbedHardware, 25, 25, 512, 512>::negotiateTopics()+0x5b0>)
    1c40:	39bb      	subs	r1, #187	; 0xbb
    1c42:	54a9      	strb	r1, [r5, r2]
    1c44:	4a4a      	ldr	r2, [pc, #296]	; (1d70 <ros::NodeHandle_<MbedHardware, 25, 25, 512, 512>::negotiateTopics()+0x5b4>)
    1c46:	54ab      	strb	r3, [r5, r2]
    1c48:	23d9      	movs	r3, #217	; 0xd9
    1c4a:	009b      	lsls	r3, r3, #2
    1c4c:	18e9      	adds	r1, r5, r3
    1c4e:	2207      	movs	r2, #7
    1c50:	2300      	movs	r3, #0
    1c52:	189b      	adds	r3, r3, r2
    1c54:	42a1      	cmp	r1, r4
    1c56:	d004      	beq.n	1c62 <ros::NodeHandle_<MbedHardware, 25, 25, 512, 512>::negotiateTopics()+0x4a6>
    1c58:	7822      	ldrb	r2, [r4, #0]
    1c5a:	3401      	adds	r4, #1
    1c5c:	189b      	adds	r3, r3, r2
    1c5e:	42a1      	cmp	r1, r4
    1c60:	d1fa      	bne.n	1c58 <ros::NodeHandle_<MbedHardware, 25, 25, 512, 512>::negotiateTopics()+0x49c>
    1c62:	22d9      	movs	r2, #217	; 0xd9
    1c64:	43db      	mvns	r3, r3
    1c66:	0092      	lsls	r2, r2, #2
    1c68:	54ab      	strb	r3, [r5, r2]
    1c6a:	2344      	movs	r3, #68	; 0x44
    1c6c:	4699      	mov	r9, r3
    1c6e:	23c8      	movs	r3, #200	; 0xc8
    1c70:	009b      	lsls	r3, r3, #2
    1c72:	18ec      	adds	r4, r5, r3
    1c74:	4b3f      	ldr	r3, [pc, #252]	; (1d74 <ros::NodeHandle_<MbedHardware, 25, 25, 512, 512>::negotiateTopics()+0x5b8>)
    1c76:	44a9      	add	r9, r5
    1c78:	4698      	mov	r8, r3
    1c7a:	44a8      	add	r8, r5
    1c7c:	7821      	ldrb	r1, [r4, #0]
    1c7e:	4648      	mov	r0, r9
    1c80:	3401      	adds	r4, #1
    1c82:	f002 fa51 	bl	4128 <mbed::Stream::putc(int)>
    1c86:	45a0      	cmp	r8, r4
    1c88:	d1f8      	bne.n	1c7c <ros::NodeHandle_<MbedHardware, 25, 25, 512, 512>::negotiateTopics()+0x4c0>
    1c8a:	e67d      	b.n	1988 <ros::NodeHandle_<MbedHardware, 25, 25, 512, 512>::negotiateTopics()+0x1cc>
    1c8c:	4642      	mov	r2, r8
    1c8e:	4b30      	ldr	r3, [pc, #192]	; (1d50 <ros::NodeHandle_<MbedHardware, 25, 25, 512, 512>::negotiateTopics()+0x594>)
    1c90:	4c30      	ldr	r4, [pc, #192]	; (1d54 <ros::NodeHandle_<MbedHardware, 25, 25, 512, 512>::negotiateTopics()+0x598>)
    1c92:	6013      	str	r3, [r2, #0]
    1c94:	4643      	mov	r3, r8
    1c96:	2203      	movs	r2, #3
    1c98:	609c      	str	r4, [r3, #8]
    1c9a:	711a      	strb	r2, [r3, #4]
    1c9c:	682b      	ldr	r3, [r5, #0]
    1c9e:	492e      	ldr	r1, [pc, #184]	; (1d58 <ros::NodeHandle_<MbedHardware, 25, 25, 512, 512>::negotiateTopics()+0x59c>)
    1ca0:	681b      	ldr	r3, [r3, #0]
    1ca2:	428b      	cmp	r3, r1
    1ca4:	d147      	bne.n	1d36 <ros::NodeHandle_<MbedHardware, 25, 25, 512, 512>::negotiateTopics()+0x57a>
    1ca6:	4b2d      	ldr	r3, [pc, #180]	; (1d5c <ros::NodeHandle_<MbedHardware, 25, 25, 512, 512>::negotiateTopics()+0x5a0>)
    1ca8:	9903      	ldr	r1, [sp, #12]
    1caa:	54ea      	strb	r2, [r5, r3]
    1cac:	2338      	movs	r3, #56	; 0x38
    1cae:	9306      	str	r3, [sp, #24]
    1cb0:	23ca      	movs	r3, #202	; 0xca
    1cb2:	009b      	lsls	r3, r3, #2
    1cb4:	3201      	adds	r2, #1
    1cb6:	18e8      	adds	r0, r5, r3
    1cb8:	f002 ffd1 	bl	4c5e <memcpy>
    1cbc:	23cb      	movs	r3, #203	; 0xcb
    1cbe:	009b      	lsls	r3, r3, #2
    1cc0:	2238      	movs	r2, #56	; 0x38
    1cc2:	0021      	movs	r1, r4
    1cc4:	18e8      	adds	r0, r5, r3
    1cc6:	f002 ffca 	bl	4c5e <memcpy>
    1cca:	23c8      	movs	r3, #200	; 0xc8
    1ccc:	22ff      	movs	r2, #255	; 0xff
    1cce:	009b      	lsls	r3, r3, #2
    1cd0:	54ea      	strb	r2, [r5, r3]
    1cd2:	4b23      	ldr	r3, [pc, #140]	; (1d60 <ros::NodeHandle_<MbedHardware, 25, 25, 512, 512>::negotiateTopics()+0x5a4>)
    1cd4:	3a01      	subs	r2, #1
    1cd6:	54ea      	strb	r2, [r5, r3]
    1cd8:	4b22      	ldr	r3, [pc, #136]	; (1d64 <ros::NodeHandle_<MbedHardware, 25, 25, 512, 512>::negotiateTopics()+0x5a8>)
    1cda:	3ac1      	subs	r2, #193	; 0xc1
    1cdc:	54ea      	strb	r2, [r5, r3]
    1cde:	2300      	movs	r3, #0
    1ce0:	21c2      	movs	r1, #194	; 0xc2
    1ce2:	4a21      	ldr	r2, [pc, #132]	; (1d68 <ros::NodeHandle_<MbedHardware, 25, 25, 512, 512>::negotiateTopics()+0x5ac>)
    1ce4:	54ab      	strb	r3, [r5, r2]
    1ce6:	3201      	adds	r2, #1
    1ce8:	54a9      	strb	r1, [r5, r2]
    1cea:	4a20      	ldr	r2, [pc, #128]	; (1d6c <ros::NodeHandle_<MbedHardware, 25, 25, 512, 512>::negotiateTopics()+0x5b0>)
    1cec:	39bb      	subs	r1, #187	; 0xbb
    1cee:	54a9      	strb	r1, [r5, r2]
    1cf0:	4a1f      	ldr	r2, [pc, #124]	; (1d70 <ros::NodeHandle_<MbedHardware, 25, 25, 512, 512>::negotiateTopics()+0x5b4>)
    1cf2:	54ab      	strb	r3, [r5, r2]
    1cf4:	23d9      	movs	r3, #217	; 0xd9
    1cf6:	009b      	lsls	r3, r3, #2
    1cf8:	18e9      	adds	r1, r5, r3
    1cfa:	2207      	movs	r2, #7
    1cfc:	2300      	movs	r3, #0
    1cfe:	189b      	adds	r3, r3, r2
    1d00:	428e      	cmp	r6, r1
    1d02:	d004      	beq.n	1d0e <ros::NodeHandle_<MbedHardware, 25, 25, 512, 512>::negotiateTopics()+0x552>
    1d04:	7832      	ldrb	r2, [r6, #0]
    1d06:	3601      	adds	r6, #1
    1d08:	189b      	adds	r3, r3, r2
    1d0a:	428e      	cmp	r6, r1
    1d0c:	d1fa      	bne.n	1d04 <ros::NodeHandle_<MbedHardware, 25, 25, 512, 512>::negotiateTopics()+0x548>
    1d0e:	22d9      	movs	r2, #217	; 0xd9
    1d10:	43db      	mvns	r3, r3
    1d12:	0092      	lsls	r2, r2, #2
    1d14:	54ab      	strb	r3, [r5, r2]
    1d16:	2344      	movs	r3, #68	; 0x44
    1d18:	4698      	mov	r8, r3
    1d1a:	23c8      	movs	r3, #200	; 0xc8
    1d1c:	009b      	lsls	r3, r3, #2
    1d1e:	18ec      	adds	r4, r5, r3
    1d20:	4b14      	ldr	r3, [pc, #80]	; (1d74 <ros::NodeHandle_<MbedHardware, 25, 25, 512, 512>::negotiateTopics()+0x5b8>)
    1d22:	44a8      	add	r8, r5
    1d24:	18ee      	adds	r6, r5, r3
    1d26:	7821      	ldrb	r1, [r4, #0]
    1d28:	4640      	mov	r0, r8
    1d2a:	3401      	adds	r4, #1
    1d2c:	f002 f9fc 	bl	4128 <mbed::Stream::putc(int)>
    1d30:	42b4      	cmp	r4, r6
    1d32:	d1f8      	bne.n	1d26 <ros::NodeHandle_<MbedHardware, 25, 25, 512, 512>::negotiateTopics()+0x56a>
    1d34:	e72a      	b.n	1b8c <ros::NodeHandle_<MbedHardware, 25, 25, 512, 512>::negotiateTopics()+0x3d0>
    1d36:	4642      	mov	r2, r8
    1d38:	2107      	movs	r1, #7
    1d3a:	0028      	movs	r0, r5
    1d3c:	4798      	blx	r3
    1d3e:	e725      	b.n	1b8c <ros::NodeHandle_<MbedHardware, 25, 25, 512, 512>::negotiateTopics()+0x3d0>
    1d40:	465a      	mov	r2, r11
    1d42:	2107      	movs	r1, #7
    1d44:	0028      	movs	r0, r5
    1d46:	4798      	blx	r3
    1d48:	e61e      	b.n	1988 <ros::NodeHandle_<MbedHardware, 25, 25, 512, 512>::negotiateTopics()+0x1cc>
    1d4a:	46c0      	nop			; (mov r8, r8)
    1d4c:	000005fc 	.word	0x000005fc
    1d50:	000066ec 	.word	0x000066ec
    1d54:	0000685c 	.word	0x0000685c
    1d58:	00000a1d 	.word	0x00000a1d
    1d5c:	00000327 	.word	0x00000327
    1d60:	00000321 	.word	0x00000321
    1d64:	00000322 	.word	0x00000322
    1d68:	00000323 	.word	0x00000323
    1d6c:	00000325 	.word	0x00000325
    1d70:	00000326 	.word	0x00000326
    1d74:	00000365 	.word	0x00000365

00001d78 <ros::NodeHandle_<MbedHardware, 25, 25, 512, 512>::spinOnce()>:
    1d78:	b5f0      	push	{r4, r5, r6, r7, lr}
    1d7a:	465f      	mov	r7, r11
    1d7c:	464d      	mov	r5, r9
    1d7e:	4644      	mov	r4, r8
    1d80:	4656      	mov	r6, r10
    1d82:	b4f0      	push	{r4, r5, r6, r7}
    1d84:	1d43      	adds	r3, r0, #5
    1d86:	33ff      	adds	r3, #255	; 0xff
    1d88:	0004      	movs	r4, r0
    1d8a:	b089      	sub	sp, #36	; 0x24
    1d8c:	0018      	movs	r0, r3
    1d8e:	4699      	mov	r9, r3
    1d90:	f002 f9fa 	bl	4188 <mbed::Timer::read_ms()>
    1d94:	4bcf      	ldr	r3, [pc, #828]	; (20d4 <ros::NodeHandle_<MbedHardware, 25, 25, 512, 512>::spinOnce()+0x35c>)
    1d96:	4ad0      	ldr	r2, [pc, #832]	; (20d8 <ros::NodeHandle_<MbedHardware, 25, 25, 512, 512>::spinOnce()+0x360>)
    1d98:	58e3      	ldr	r3, [r4, r3]
    1d9a:	4683      	mov	r11, r0
    1d9c:	1ac3      	subs	r3, r0, r3
    1d9e:	4293      	cmp	r3, r2
    1da0:	d902      	bls.n	1da8 <ros::NodeHandle_<MbedHardware, 25, 25, 512, 512>::spinOnce()+0x30>
    1da2:	2200      	movs	r2, #0
    1da4:	4bcd      	ldr	r3, [pc, #820]	; (20dc <ros::NodeHandle_<MbedHardware, 25, 25, 512, 512>::spinOnce()+0x364>)
    1da6:	54e2      	strb	r2, [r4, r3]
    1da8:	23bd      	movs	r3, #189	; 0xbd
    1daa:	00db      	lsls	r3, r3, #3
    1dac:	58e2      	ldr	r2, [r4, r3]
    1dae:	2a00      	cmp	r2, #0
    1db0:	d005      	beq.n	1dbe <ros::NodeHandle_<MbedHardware, 25, 25, 512, 512>::spinOnce()+0x46>
    1db2:	22c1      	movs	r2, #193	; 0xc1
    1db4:	00d2      	lsls	r2, r2, #3
    1db6:	58a2      	ldr	r2, [r4, r2]
    1db8:	455a      	cmp	r2, r11
    1dba:	d200      	bcs.n	1dbe <ros::NodeHandle_<MbedHardware, 25, 25, 512, 512>::spinOnce()+0x46>
    1dbc:	e12b      	b.n	2016 <ros::NodeHandle_<MbedHardware, 25, 25, 512, 512>::spinOnce()+0x29e>
    1dbe:	1d25      	adds	r5, r4, #4
    1dc0:	0028      	movs	r0, r5
    1dc2:	f000 fda3 	bl	290c <AjK::MODSERIAL::rxBufferEmpty()>
    1dc6:	1e07      	subs	r7, r0, #0
    1dc8:	d014      	beq.n	1df4 <ros::NodeHandle_<MbedHardware, 25, 25, 512, 512>::spinOnce()+0x7c>
    1dca:	4bc4      	ldr	r3, [pc, #784]	; (20dc <ros::NodeHandle_<MbedHardware, 25, 25, 512, 512>::spinOnce()+0x364>)
    1dcc:	2000      	movs	r0, #0
    1dce:	5ce3      	ldrb	r3, [r4, r3]
    1dd0:	2b00      	cmp	r3, #0
    1dd2:	d008      	beq.n	1de6 <ros::NodeHandle_<MbedHardware, 25, 25, 512, 512>::spinOnce()+0x6e>
    1dd4:	23c0      	movs	r3, #192	; 0xc0
    1dd6:	465a      	mov	r2, r11
    1dd8:	00db      	lsls	r3, r3, #3
    1dda:	58e3      	ldr	r3, [r4, r3]
    1ddc:	1ad3      	subs	r3, r2, r3
    1dde:	4ac0      	ldr	r2, [pc, #768]	; (20e0 <ros::NodeHandle_<MbedHardware, 25, 25, 512, 512>::spinOnce()+0x368>)
    1de0:	4293      	cmp	r3, r2
    1de2:	d900      	bls.n	1de6 <ros::NodeHandle_<MbedHardware, 25, 25, 512, 512>::spinOnce()+0x6e>
    1de4:	e11a      	b.n	201c <ros::NodeHandle_<MbedHardware, 25, 25, 512, 512>::spinOnce()+0x2a4>
    1de6:	b009      	add	sp, #36	; 0x24
    1de8:	bc3c      	pop	{r2, r3, r4, r5}
    1dea:	4690      	mov	r8, r2
    1dec:	4699      	mov	r9, r3
    1dee:	46a2      	mov	r10, r4
    1df0:	46ab      	mov	r11, r5
    1df2:	bdf0      	pop	{r4, r5, r6, r7, pc}
    1df4:	2101      	movs	r1, #1
    1df6:	0028      	movs	r0, r5
    1df8:	f000 fbec 	bl	25d4 <AjK::MODSERIAL::__getc(bool)>
    1dfc:	2800      	cmp	r0, #0
    1dfe:	dbe4      	blt.n	1dca <ros::NodeHandle_<MbedHardware, 25, 25, 512, 512>::spinOnce()+0x52>
    1e00:	22bf      	movs	r2, #191	; 0xbf
    1e02:	21bd      	movs	r1, #189	; 0xbd
    1e04:	00d2      	lsls	r2, r2, #3
    1e06:	58a3      	ldr	r3, [r4, r2]
    1e08:	00c9      	lsls	r1, r1, #3
    1e0a:	5866      	ldr	r6, [r4, r1]
    1e0c:	18c3      	adds	r3, r0, r3
    1e0e:	50a3      	str	r3, [r4, r2]
    1e10:	2e07      	cmp	r6, #7
    1e12:	d04a      	beq.n	1eaa <ros::NodeHandle_<MbedHardware, 25, 25, 512, 512>::spinOnce()+0x132>
    1e14:	2e00      	cmp	r6, #0
    1e16:	d109      	bne.n	1e2c <ros::NodeHandle_<MbedHardware, 25, 25, 512, 512>::spinOnce()+0xb4>
    1e18:	28ff      	cmp	r0, #255	; 0xff
    1e1a:	d15a      	bne.n	1ed2 <ros::NodeHandle_<MbedHardware, 25, 25, 512, 512>::spinOnce()+0x15a>
    1e1c:	2301      	movs	r3, #1
    1e1e:	22c1      	movs	r2, #193	; 0xc1
    1e20:	5063      	str	r3, [r4, r1]
    1e22:	465b      	mov	r3, r11
    1e24:	00d2      	lsls	r2, r2, #3
    1e26:	3314      	adds	r3, #20
    1e28:	50a3      	str	r3, [r4, r2]
    1e2a:	e7c9      	b.n	1dc0 <ros::NodeHandle_<MbedHardware, 25, 25, 512, 512>::spinOnce()+0x48>
    1e2c:	2e01      	cmp	r6, #1
    1e2e:	d05d      	beq.n	1eec <ros::NodeHandle_<MbedHardware, 25, 25, 512, 512>::spinOnce()+0x174>
    1e30:	2e02      	cmp	r6, #2
    1e32:	d100      	bne.n	1e36 <ros::NodeHandle_<MbedHardware, 25, 25, 512, 512>::spinOnce()+0xbe>
    1e34:	e0ba      	b.n	1fac <ros::NodeHandle_<MbedHardware, 25, 25, 512, 512>::spinOnce()+0x234>
    1e36:	2e03      	cmp	r6, #3
    1e38:	d100      	bne.n	1e3c <ros::NodeHandle_<MbedHardware, 25, 25, 512, 512>::spinOnce()+0xc4>
    1e3a:	e0bf      	b.n	1fbc <ros::NodeHandle_<MbedHardware, 25, 25, 512, 512>::spinOnce()+0x244>
    1e3c:	2e04      	cmp	r6, #4
    1e3e:	d100      	bne.n	1e42 <ros::NodeHandle_<MbedHardware, 25, 25, 512, 512>::spinOnce()+0xca>
    1e40:	e0c5      	b.n	1fce <ros::NodeHandle_<MbedHardware, 25, 25, 512, 512>::spinOnce()+0x256>
    1e42:	2e05      	cmp	r6, #5
    1e44:	d100      	bne.n	1e48 <ros::NodeHandle_<MbedHardware, 25, 25, 512, 512>::spinOnce()+0xd0>
    1e46:	e0cf      	b.n	1fe8 <ros::NodeHandle_<MbedHardware, 25, 25, 512, 512>::spinOnce()+0x270>
    1e48:	2e06      	cmp	r6, #6
    1e4a:	d100      	bne.n	1e4e <ros::NodeHandle_<MbedHardware, 25, 25, 512, 512>::spinOnce()+0xd6>
    1e4c:	e0d3      	b.n	1ff6 <ros::NodeHandle_<MbedHardware, 25, 25, 512, 512>::spinOnce()+0x27e>
    1e4e:	2e08      	cmp	r6, #8
    1e50:	d1b6      	bne.n	1dc0 <ros::NodeHandle_<MbedHardware, 25, 25, 512, 512>::spinOnce()+0x48>
    1e52:	22bd      	movs	r2, #189	; 0xbd
    1e54:	2100      	movs	r1, #0
    1e56:	20ff      	movs	r0, #255	; 0xff
    1e58:	00d2      	lsls	r2, r2, #3
    1e5a:	50a1      	str	r1, [r4, r2]
    1e5c:	17da      	asrs	r2, r3, #31
    1e5e:	0e12      	lsrs	r2, r2, #24
    1e60:	189b      	adds	r3, r3, r2
    1e62:	4003      	ands	r3, r0
    1e64:	1a9b      	subs	r3, r3, r2
    1e66:	2bff      	cmp	r3, #255	; 0xff
    1e68:	d1aa      	bne.n	1dc0 <ros::NodeHandle_<MbedHardware, 25, 25, 512, 512>::spinOnce()+0x48>
    1e6a:	23be      	movs	r3, #190	; 0xbe
    1e6c:	00db      	lsls	r3, r3, #3
    1e6e:	58e3      	ldr	r3, [r4, r3]
    1e70:	2b00      	cmp	r3, #0
    1e72:	d100      	bne.n	1e76 <ros::NodeHandle_<MbedHardware, 25, 25, 512, 512>::spinOnce()+0xfe>
    1e74:	e2a4      	b.n	23c0 <ros::NodeHandle_<MbedHardware, 25, 25, 512, 512>::spinOnce()+0x648>
    1e76:	2b0a      	cmp	r3, #10
    1e78:	d100      	bne.n	1e7c <ros::NodeHandle_<MbedHardware, 25, 25, 512, 512>::spinOnce()+0x104>
    1e7a:	e15d      	b.n	2138 <ros::NodeHandle_<MbedHardware, 25, 25, 512, 512>::spinOnce()+0x3c0>
    1e7c:	2b06      	cmp	r3, #6
    1e7e:	d100      	bne.n	1e82 <ros::NodeHandle_<MbedHardware, 25, 25, 512, 512>::spinOnce()+0x10a>
    1e80:	e1b5      	b.n	21ee <ros::NodeHandle_<MbedHardware, 25, 25, 512, 512>::spinOnce()+0x476>
    1e82:	2b0b      	cmp	r3, #11
    1e84:	d100      	bne.n	1e88 <ros::NodeHandle_<MbedHardware, 25, 25, 512, 512>::spinOnce()+0x110>
    1e86:	e154      	b.n	2132 <ros::NodeHandle_<MbedHardware, 25, 25, 512, 512>::spinOnce()+0x3ba>
    1e88:	33fc      	adds	r3, #252	; 0xfc
    1e8a:	009b      	lsls	r3, r3, #2
    1e8c:	18e3      	adds	r3, r4, r3
    1e8e:	685b      	ldr	r3, [r3, #4]
    1e90:	2b00      	cmp	r3, #0
    1e92:	d095      	beq.n	1dc0 <ros::NodeHandle_<MbedHardware, 25, 25, 512, 512>::spinOnce()+0x48>
    1e94:	681a      	ldr	r2, [r3, #0]
    1e96:	4993      	ldr	r1, [pc, #588]	; (20e4 <ros::NodeHandle_<MbedHardware, 25, 25, 512, 512>::spinOnce()+0x36c>)
    1e98:	6812      	ldr	r2, [r2, #0]
    1e9a:	428a      	cmp	r2, r1
    1e9c:	d000      	beq.n	1ea0 <ros::NodeHandle_<MbedHardware, 25, 25, 512, 512>::spinOnce()+0x128>
    1e9e:	e289      	b.n	23b4 <ros::NodeHandle_<MbedHardware, 25, 25, 512, 512>::spinOnce()+0x63c>
    1ea0:	0018      	movs	r0, r3
    1ea2:	691b      	ldr	r3, [r3, #16]
    1ea4:	300c      	adds	r0, #12
    1ea6:	4798      	blx	r3
    1ea8:	e78a      	b.n	1dc0 <ros::NodeHandle_<MbedHardware, 25, 25, 512, 512>::spinOnce()+0x48>
    1eaa:	4a8f      	ldr	r2, [pc, #572]	; (20e8 <ros::NodeHandle_<MbedHardware, 25, 25, 512, 512>::spinOnce()+0x370>)
    1eac:	58a3      	ldr	r3, [r4, r2]
    1eae:	1c59      	adds	r1, r3, #1
    1eb0:	18e3      	adds	r3, r4, r3
    1eb2:	3321      	adds	r3, #33	; 0x21
    1eb4:	50a1      	str	r1, [r4, r2]
    1eb6:	33ff      	adds	r3, #255	; 0xff
    1eb8:	4a8c      	ldr	r2, [pc, #560]	; (20ec <ros::NodeHandle_<MbedHardware, 25, 25, 512, 512>::spinOnce()+0x374>)
    1eba:	7018      	strb	r0, [r3, #0]
    1ebc:	58a3      	ldr	r3, [r4, r2]
    1ebe:	3b01      	subs	r3, #1
    1ec0:	50a3      	str	r3, [r4, r2]
    1ec2:	2b00      	cmp	r3, #0
    1ec4:	d000      	beq.n	1ec8 <ros::NodeHandle_<MbedHardware, 25, 25, 512, 512>::spinOnce()+0x150>
    1ec6:	e77b      	b.n	1dc0 <ros::NodeHandle_<MbedHardware, 25, 25, 512, 512>::spinOnce()+0x48>
    1ec8:	23bd      	movs	r3, #189	; 0xbd
    1eca:	2208      	movs	r2, #8
    1ecc:	00db      	lsls	r3, r3, #3
    1ece:	50e2      	str	r2, [r4, r3]
    1ed0:	e776      	b.n	1dc0 <ros::NodeHandle_<MbedHardware, 25, 25, 512, 512>::spinOnce()+0x48>
    1ed2:	4648      	mov	r0, r9
    1ed4:	f002 f958 	bl	4188 <mbed::Timer::read_ms()>
    1ed8:	465b      	mov	r3, r11
    1eda:	1ac0      	subs	r0, r0, r3
    1edc:	2805      	cmp	r0, #5
    1ede:	d800      	bhi.n	1ee2 <ros::NodeHandle_<MbedHardware, 25, 25, 512, 512>::spinOnce()+0x16a>
    1ee0:	e76e      	b.n	1dc0 <ros::NodeHandle_<MbedHardware, 25, 25, 512, 512>::spinOnce()+0x48>
    1ee2:	2002      	movs	r0, #2
    1ee4:	4b7d      	ldr	r3, [pc, #500]	; (20dc <ros::NodeHandle_<MbedHardware, 25, 25, 512, 512>::spinOnce()+0x364>)
    1ee6:	4240      	negs	r0, r0
    1ee8:	54e6      	strb	r6, [r4, r3]
    1eea:	e77c      	b.n	1de6 <ros::NodeHandle_<MbedHardware, 25, 25, 512, 512>::spinOnce()+0x6e>
    1eec:	28fe      	cmp	r0, #254	; 0xfe
    1eee:	d078      	beq.n	1fe2 <ros::NodeHandle_<MbedHardware, 25, 25, 512, 512>::spinOnce()+0x26a>
    1ef0:	4b7a      	ldr	r3, [pc, #488]	; (20dc <ros::NodeHandle_<MbedHardware, 25, 25, 512, 512>::spinOnce()+0x364>)
    1ef2:	5067      	str	r7, [r4, r1]
    1ef4:	5ce3      	ldrb	r3, [r4, r3]
    1ef6:	2b00      	cmp	r3, #0
    1ef8:	d000      	beq.n	1efc <ros::NodeHandle_<MbedHardware, 25, 25, 512, 512>::spinOnce()+0x184>
    1efa:	e761      	b.n	1dc0 <ros::NodeHandle_<MbedHardware, 25, 25, 512, 512>::spinOnce()+0x48>
    1efc:	aa05      	add	r2, sp, #20
    1efe:	4690      	mov	r8, r2
    1f00:	4a7b      	ldr	r2, [pc, #492]	; (20f0 <ros::NodeHandle_<MbedHardware, 25, 25, 512, 512>::spinOnce()+0x378>)
    1f02:	9205      	str	r2, [sp, #20]
    1f04:	4642      	mov	r2, r8
    1f06:	6053      	str	r3, [r2, #4]
    1f08:	6093      	str	r3, [r2, #8]
    1f0a:	6822      	ldr	r2, [r4, #0]
    1f0c:	6816      	ldr	r6, [r2, #0]
    1f0e:	4a79      	ldr	r2, [pc, #484]	; (20f4 <ros::NodeHandle_<MbedHardware, 25, 25, 512, 512>::spinOnce()+0x37c>)
    1f10:	4296      	cmp	r6, r2
    1f12:	d000      	beq.n	1f16 <ros::NodeHandle_<MbedHardware, 25, 25, 512, 512>::spinOnce()+0x19e>
    1f14:	e0d8      	b.n	20c8 <ros::NodeHandle_<MbedHardware, 25, 25, 512, 512>::spinOnce()+0x350>
    1f16:	21ff      	movs	r1, #255	; 0xff
    1f18:	4a77      	ldr	r2, [pc, #476]	; (20f8 <ros::NodeHandle_<MbedHardware, 25, 25, 512, 512>::spinOnce()+0x380>)
    1f1a:	54a3      	strb	r3, [r4, r2]
    1f1c:	3201      	adds	r2, #1
    1f1e:	54a3      	strb	r3, [r4, r2]
    1f20:	4a76      	ldr	r2, [pc, #472]	; (20fc <ros::NodeHandle_<MbedHardware, 25, 25, 512, 512>::spinOnce()+0x384>)
    1f22:	54a3      	strb	r3, [r4, r2]
    1f24:	4a76      	ldr	r2, [pc, #472]	; (2100 <ros::NodeHandle_<MbedHardware, 25, 25, 512, 512>::spinOnce()+0x388>)
    1f26:	54a3      	strb	r3, [r4, r2]
    1f28:	4a76      	ldr	r2, [pc, #472]	; (2104 <ros::NodeHandle_<MbedHardware, 25, 25, 512, 512>::spinOnce()+0x38c>)
    1f2a:	54a3      	strb	r3, [r4, r2]
    1f2c:	3201      	adds	r2, #1
    1f2e:	54a3      	strb	r3, [r4, r2]
    1f30:	4a75      	ldr	r2, [pc, #468]	; (2108 <ros::NodeHandle_<MbedHardware, 25, 25, 512, 512>::spinOnce()+0x390>)
    1f32:	54a3      	strb	r3, [r4, r2]
    1f34:	4a75      	ldr	r2, [pc, #468]	; (210c <ros::NodeHandle_<MbedHardware, 25, 25, 512, 512>::spinOnce()+0x394>)
    1f36:	54a3      	strb	r3, [r4, r2]
    1f38:	3a0e      	subs	r2, #14
    1f3a:	54a1      	strb	r1, [r4, r2]
    1f3c:	4a74      	ldr	r2, [pc, #464]	; (2110 <ros::NodeHandle_<MbedHardware, 25, 25, 512, 512>::spinOnce()+0x398>)
    1f3e:	3901      	subs	r1, #1
    1f40:	54a1      	strb	r1, [r4, r2]
    1f42:	4a74      	ldr	r2, [pc, #464]	; (2114 <ros::NodeHandle_<MbedHardware, 25, 25, 512, 512>::spinOnce()+0x39c>)
    1f44:	39f6      	subs	r1, #246	; 0xf6
    1f46:	54a1      	strb	r1, [r4, r2]
    1f48:	4a73      	ldr	r2, [pc, #460]	; (2118 <ros::NodeHandle_<MbedHardware, 25, 25, 512, 512>::spinOnce()+0x3a0>)
    1f4a:	31ef      	adds	r1, #239	; 0xef
    1f4c:	54a3      	strb	r3, [r4, r2]
    1f4e:	3201      	adds	r2, #1
    1f50:	54a1      	strb	r1, [r4, r2]
    1f52:	4a72      	ldr	r2, [pc, #456]	; (211c <ros::NodeHandle_<MbedHardware, 25, 25, 512, 512>::spinOnce()+0x3a4>)
    1f54:	39ed      	subs	r1, #237	; 0xed
    1f56:	54a1      	strb	r1, [r4, r2]
    1f58:	4a71      	ldr	r2, [pc, #452]	; (2120 <ros::NodeHandle_<MbedHardware, 25, 25, 512, 512>::spinOnce()+0x3a8>)
    1f5a:	54a3      	strb	r3, [r4, r2]
    1f5c:	18a3      	adds	r3, r4, r2
    1f5e:	4a71      	ldr	r2, [pc, #452]	; (2124 <ros::NodeHandle_<MbedHardware, 25, 25, 512, 512>::spinOnce()+0x3ac>)
    1f60:	18a0      	adds	r0, r4, r2
    1f62:	2200      	movs	r2, #0
    1f64:	e001      	b.n	1f6a <ros::NodeHandle_<MbedHardware, 25, 25, 512, 512>::spinOnce()+0x1f2>
    1f66:	7819      	ldrb	r1, [r3, #0]
    1f68:	3301      	adds	r3, #1
    1f6a:	1852      	adds	r2, r2, r1
    1f6c:	4298      	cmp	r0, r3
    1f6e:	d1fa      	bne.n	1f66 <ros::NodeHandle_<MbedHardware, 25, 25, 512, 512>::spinOnce()+0x1ee>
    1f70:	43d2      	mvns	r2, r2
    1f72:	4b6c      	ldr	r3, [pc, #432]	; (2124 <ros::NodeHandle_<MbedHardware, 25, 25, 512, 512>::spinOnce()+0x3ac>)
    1f74:	54e2      	strb	r2, [r4, r3]
    1f76:	2344      	movs	r3, #68	; 0x44
    1f78:	4698      	mov	r8, r3
    1f7a:	23c8      	movs	r3, #200	; 0xc8
    1f7c:	009b      	lsls	r3, r3, #2
    1f7e:	18e6      	adds	r6, r4, r3
    1f80:	3310      	adds	r3, #16
    1f82:	18e7      	adds	r7, r4, r3
    1f84:	0023      	movs	r3, r4
    1f86:	44a0      	add	r8, r4
    1f88:	003c      	movs	r4, r7
    1f8a:	4647      	mov	r7, r8
    1f8c:	4698      	mov	r8, r3
    1f8e:	7831      	ldrb	r1, [r6, #0]
    1f90:	0038      	movs	r0, r7
    1f92:	3601      	adds	r6, #1
    1f94:	f002 f8c8 	bl	4128 <mbed::Stream::putc(int)>
    1f98:	42a6      	cmp	r6, r4
    1f9a:	d1f8      	bne.n	1f8e <ros::NodeHandle_<MbedHardware, 25, 25, 512, 512>::spinOnce()+0x216>
    1f9c:	4644      	mov	r4, r8
    1f9e:	4648      	mov	r0, r9
    1fa0:	f002 f8f2 	bl	4188 <mbed::Timer::read_ms()>
    1fa4:	238a      	movs	r3, #138	; 0x8a
    1fa6:	005b      	lsls	r3, r3, #1
    1fa8:	50e0      	str	r0, [r4, r3]
    1faa:	e709      	b.n	1dc0 <ros::NodeHandle_<MbedHardware, 25, 25, 512, 512>::spinOnce()+0x48>
    1fac:	4b4f      	ldr	r3, [pc, #316]	; (20ec <ros::NodeHandle_<MbedHardware, 25, 25, 512, 512>::spinOnce()+0x374>)
    1fae:	50e0      	str	r0, [r4, r3]
    1fb0:	4b4d      	ldr	r3, [pc, #308]	; (20e8 <ros::NodeHandle_<MbedHardware, 25, 25, 512, 512>::spinOnce()+0x370>)
    1fb2:	50e7      	str	r7, [r4, r3]
    1fb4:	2303      	movs	r3, #3
    1fb6:	5063      	str	r3, [r4, r1]
    1fb8:	50a0      	str	r0, [r4, r2]
    1fba:	e701      	b.n	1dc0 <ros::NodeHandle_<MbedHardware, 25, 25, 512, 512>::spinOnce()+0x48>
    1fbc:	4b4b      	ldr	r3, [pc, #300]	; (20ec <ros::NodeHandle_<MbedHardware, 25, 25, 512, 512>::spinOnce()+0x374>)
    1fbe:	0200      	lsls	r0, r0, #8
    1fc0:	58e2      	ldr	r2, [r4, r3]
    1fc2:	4694      	mov	r12, r2
    1fc4:	4460      	add	r0, r12
    1fc6:	50e0      	str	r0, [r4, r3]
    1fc8:	2304      	movs	r3, #4
    1fca:	5063      	str	r3, [r4, r1]
    1fcc:	e6f8      	b.n	1dc0 <ros::NodeHandle_<MbedHardware, 25, 25, 512, 512>::spinOnce()+0x48>
    1fce:	20ff      	movs	r0, #255	; 0xff
    1fd0:	17da      	asrs	r2, r3, #31
    1fd2:	0e12      	lsrs	r2, r2, #24
    1fd4:	189b      	adds	r3, r3, r2
    1fd6:	4003      	ands	r3, r0
    1fd8:	1a9b      	subs	r3, r3, r2
    1fda:	2bff      	cmp	r3, #255	; 0xff
    1fdc:	d071      	beq.n	20c2 <ros::NodeHandle_<MbedHardware, 25, 25, 512, 512>::spinOnce()+0x34a>
    1fde:	5067      	str	r7, [r4, r1]
    1fe0:	e6ee      	b.n	1dc0 <ros::NodeHandle_<MbedHardware, 25, 25, 512, 512>::spinOnce()+0x48>
    1fe2:	2302      	movs	r3, #2
    1fe4:	5063      	str	r3, [r4, r1]
    1fe6:	e6eb      	b.n	1dc0 <ros::NodeHandle_<MbedHardware, 25, 25, 512, 512>::spinOnce()+0x48>
    1fe8:	23be      	movs	r3, #190	; 0xbe
    1fea:	00db      	lsls	r3, r3, #3
    1fec:	50e0      	str	r0, [r4, r3]
    1fee:	2306      	movs	r3, #6
    1ff0:	5063      	str	r3, [r4, r1]
    1ff2:	50a0      	str	r0, [r4, r2]
    1ff4:	e6e4      	b.n	1dc0 <ros::NodeHandle_<MbedHardware, 25, 25, 512, 512>::spinOnce()+0x48>
    1ff6:	23be      	movs	r3, #190	; 0xbe
    1ff8:	00db      	lsls	r3, r3, #3
    1ffa:	58e2      	ldr	r2, [r4, r3]
    1ffc:	0200      	lsls	r0, r0, #8
    1ffe:	4694      	mov	r12, r2
    2000:	2207      	movs	r2, #7
    2002:	4460      	add	r0, r12
    2004:	50e0      	str	r0, [r4, r3]
    2006:	3b08      	subs	r3, #8
    2008:	50e2      	str	r2, [r4, r3]
    200a:	4b38      	ldr	r3, [pc, #224]	; (20ec <ros::NodeHandle_<MbedHardware, 25, 25, 512, 512>::spinOnce()+0x374>)
    200c:	58e3      	ldr	r3, [r4, r3]
    200e:	2b00      	cmp	r3, #0
    2010:	d100      	bne.n	2014 <ros::NodeHandle_<MbedHardware, 25, 25, 512, 512>::spinOnce()+0x29c>
    2012:	e759      	b.n	1ec8 <ros::NodeHandle_<MbedHardware, 25, 25, 512, 512>::spinOnce()+0x150>
    2014:	e6d4      	b.n	1dc0 <ros::NodeHandle_<MbedHardware, 25, 25, 512, 512>::spinOnce()+0x48>
    2016:	2200      	movs	r2, #0
    2018:	50e2      	str	r2, [r4, r3]
    201a:	e6d0      	b.n	1dbe <ros::NodeHandle_<MbedHardware, 25, 25, 512, 512>::spinOnce()+0x46>
    201c:	4b34      	ldr	r3, [pc, #208]	; (20f0 <ros::NodeHandle_<MbedHardware, 25, 25, 512, 512>::spinOnce()+0x378>)
    201e:	4a35      	ldr	r2, [pc, #212]	; (20f4 <ros::NodeHandle_<MbedHardware, 25, 25, 512, 512>::spinOnce()+0x37c>)
    2020:	9305      	str	r3, [sp, #20]
    2022:	6823      	ldr	r3, [r4, #0]
    2024:	9006      	str	r0, [sp, #24]
    2026:	681b      	ldr	r3, [r3, #0]
    2028:	9007      	str	r0, [sp, #28]
    202a:	4293      	cmp	r3, r2
    202c:	d17c      	bne.n	2128 <ros::NodeHandle_<MbedHardware, 25, 25, 512, 512>::spinOnce()+0x3b0>
    202e:	22ff      	movs	r2, #255	; 0xff
    2030:	4b31      	ldr	r3, [pc, #196]	; (20f8 <ros::NodeHandle_<MbedHardware, 25, 25, 512, 512>::spinOnce()+0x380>)
    2032:	210a      	movs	r1, #10
    2034:	54e0      	strb	r0, [r4, r3]
    2036:	3301      	adds	r3, #1
    2038:	54e0      	strb	r0, [r4, r3]
    203a:	4b30      	ldr	r3, [pc, #192]	; (20fc <ros::NodeHandle_<MbedHardware, 25, 25, 512, 512>::spinOnce()+0x384>)
    203c:	54e0      	strb	r0, [r4, r3]
    203e:	4b30      	ldr	r3, [pc, #192]	; (2100 <ros::NodeHandle_<MbedHardware, 25, 25, 512, 512>::spinOnce()+0x388>)
    2040:	54e0      	strb	r0, [r4, r3]
    2042:	4b30      	ldr	r3, [pc, #192]	; (2104 <ros::NodeHandle_<MbedHardware, 25, 25, 512, 512>::spinOnce()+0x38c>)
    2044:	54e0      	strb	r0, [r4, r3]
    2046:	3301      	adds	r3, #1
    2048:	54e0      	strb	r0, [r4, r3]
    204a:	4b2f      	ldr	r3, [pc, #188]	; (2108 <ros::NodeHandle_<MbedHardware, 25, 25, 512, 512>::spinOnce()+0x390>)
    204c:	54e0      	strb	r0, [r4, r3]
    204e:	4b2f      	ldr	r3, [pc, #188]	; (210c <ros::NodeHandle_<MbedHardware, 25, 25, 512, 512>::spinOnce()+0x394>)
    2050:	54e0      	strb	r0, [r4, r3]
    2052:	3b0e      	subs	r3, #14
    2054:	54e2      	strb	r2, [r4, r3]
    2056:	4b2e      	ldr	r3, [pc, #184]	; (2110 <ros::NodeHandle_<MbedHardware, 25, 25, 512, 512>::spinOnce()+0x398>)
    2058:	3a01      	subs	r2, #1
    205a:	54e2      	strb	r2, [r4, r3]
    205c:	4b2d      	ldr	r3, [pc, #180]	; (2114 <ros::NodeHandle_<MbedHardware, 25, 25, 512, 512>::spinOnce()+0x39c>)
    205e:	3af6      	subs	r2, #246	; 0xf6
    2060:	54e2      	strb	r2, [r4, r3]
    2062:	4b2d      	ldr	r3, [pc, #180]	; (2118 <ros::NodeHandle_<MbedHardware, 25, 25, 512, 512>::spinOnce()+0x3a0>)
    2064:	32ef      	adds	r2, #239	; 0xef
    2066:	54e0      	strb	r0, [r4, r3]
    2068:	3301      	adds	r3, #1
    206a:	54e2      	strb	r2, [r4, r3]
    206c:	4b2b      	ldr	r3, [pc, #172]	; (211c <ros::NodeHandle_<MbedHardware, 25, 25, 512, 512>::spinOnce()+0x3a4>)
    206e:	3aed      	subs	r2, #237	; 0xed
    2070:	54e2      	strb	r2, [r4, r3]
    2072:	4b2b      	ldr	r3, [pc, #172]	; (2120 <ros::NodeHandle_<MbedHardware, 25, 25, 512, 512>::spinOnce()+0x3a8>)
    2074:	4a2b      	ldr	r2, [pc, #172]	; (2124 <ros::NodeHandle_<MbedHardware, 25, 25, 512, 512>::spinOnce()+0x3ac>)
    2076:	54e0      	strb	r0, [r4, r3]
    2078:	18a0      	adds	r0, r4, r2
    207a:	18e3      	adds	r3, r4, r3
    207c:	2200      	movs	r2, #0
    207e:	e001      	b.n	2084 <ros::NodeHandle_<MbedHardware, 25, 25, 512, 512>::spinOnce()+0x30c>
    2080:	7819      	ldrb	r1, [r3, #0]
    2082:	3301      	adds	r3, #1
    2084:	1852      	adds	r2, r2, r1
    2086:	4283      	cmp	r3, r0
    2088:	d1fa      	bne.n	2080 <ros::NodeHandle_<MbedHardware, 25, 25, 512, 512>::spinOnce()+0x308>
    208a:	43d2      	mvns	r2, r2
    208c:	0027      	movs	r7, r4
    208e:	4b25      	ldr	r3, [pc, #148]	; (2124 <ros::NodeHandle_<MbedHardware, 25, 25, 512, 512>::spinOnce()+0x3ac>)
    2090:	3744      	adds	r7, #68	; 0x44
    2092:	54e2      	strb	r2, [r4, r3]
    2094:	3b0f      	subs	r3, #15
    2096:	18e5      	adds	r5, r4, r3
    2098:	3310      	adds	r3, #16
    209a:	18e6      	adds	r6, r4, r3
    209c:	7829      	ldrb	r1, [r5, #0]
    209e:	0038      	movs	r0, r7
    20a0:	3501      	adds	r5, #1
    20a2:	f002 f841 	bl	4128 <mbed::Stream::putc(int)>
    20a6:	42ae      	cmp	r6, r5
    20a8:	d1f8      	bne.n	209c <ros::NodeHandle_<MbedHardware, 25, 25, 512, 512>::spinOnce()+0x324>
    20aa:	4648      	mov	r0, r9
    20ac:	f002 f86c 	bl	4188 <mbed::Timer::read_ms()>
    20b0:	238a      	movs	r3, #138	; 0x8a
    20b2:	005b      	lsls	r3, r3, #1
    20b4:	50e0      	str	r0, [r4, r3]
    20b6:	23c0      	movs	r3, #192	; 0xc0
    20b8:	465a      	mov	r2, r11
    20ba:	00db      	lsls	r3, r3, #3
    20bc:	50e2      	str	r2, [r4, r3]
    20be:	2000      	movs	r0, #0
    20c0:	e691      	b.n	1de6 <ros::NodeHandle_<MbedHardware, 25, 25, 512, 512>::spinOnce()+0x6e>
    20c2:	3bfa      	subs	r3, #250	; 0xfa
    20c4:	5063      	str	r3, [r4, r1]
    20c6:	e67b      	b.n	1dc0 <ros::NodeHandle_<MbedHardware, 25, 25, 512, 512>::spinOnce()+0x48>
    20c8:	4642      	mov	r2, r8
    20ca:	210a      	movs	r1, #10
    20cc:	0020      	movs	r0, r4
    20ce:	47b0      	blx	r6
    20d0:	e765      	b.n	1f9e <ros::NodeHandle_<MbedHardware, 25, 25, 512, 512>::spinOnce()+0x226>
    20d2:	46c0      	nop			; (mov r8, r8)
    20d4:	00000604 	.word	0x00000604
    20d8:	00002af8 	.word	0x00002af8
    20dc:	000005fc 	.word	0x000005fc
    20e0:	000009c4 	.word	0x000009c4
    20e4:	000005a5 	.word	0x000005a5
    20e8:	000005f4 	.word	0x000005f4
    20ec:	000005ec 	.word	0x000005ec
    20f0:	000066bc 	.word	0x000066bc
    20f4:	00000a1d 	.word	0x00000a1d
    20f8:	00000327 	.word	0x00000327
    20fc:	00000329 	.word	0x00000329
    2100:	0000032a 	.word	0x0000032a
    2104:	0000032b 	.word	0x0000032b
    2108:	0000032d 	.word	0x0000032d
    210c:	0000032e 	.word	0x0000032e
    2110:	00000321 	.word	0x00000321
    2114:	00000322 	.word	0x00000322
    2118:	00000323 	.word	0x00000323
    211c:	00000325 	.word	0x00000325
    2120:	00000326 	.word	0x00000326
    2124:	0000032f 	.word	0x0000032f
    2128:	aa05      	add	r2, sp, #20
    212a:	210a      	movs	r1, #10
    212c:	0020      	movs	r0, r4
    212e:	4798      	blx	r3
    2130:	e7bb      	b.n	20aa <ros::NodeHandle_<MbedHardware, 25, 25, 512, 512>::spinOnce()+0x332>
    2132:	4bb4      	ldr	r3, [pc, #720]	; (2404 <ros::NodeHandle_<MbedHardware, 25, 25, 512, 512>::spinOnce()+0x68c>)
    2134:	54e1      	strb	r1, [r4, r3]
    2136:	e643      	b.n	1dc0 <ros::NodeHandle_<MbedHardware, 25, 25, 512, 512>::spinOnce()+0x48>
    2138:	4648      	mov	r0, r9
    213a:	f002 f825 	bl	4188 <mbed::Timer::read_ms()>
    213e:	238a      	movs	r3, #138	; 0x8a
    2140:	005b      	lsls	r3, r3, #1
    2142:	58e3      	ldr	r3, [r4, r3]
    2144:	1ac3      	subs	r3, r0, r3
    2146:	469a      	mov	r10, r3
    2148:	2390      	movs	r3, #144	; 0x90
    214a:	005b      	lsls	r3, r3, #1
    214c:	18e0      	adds	r0, r4, r3
    214e:	5ce1      	ldrb	r1, [r4, r3]
    2150:	7843      	ldrb	r3, [r0, #1]
    2152:	7887      	ldrb	r7, [r0, #2]
    2154:	021b      	lsls	r3, r3, #8
    2156:	430b      	orrs	r3, r1
    2158:	043f      	lsls	r7, r7, #16
    215a:	001a      	movs	r2, r3
    215c:	003b      	movs	r3, r7
    215e:	78c7      	ldrb	r7, [r0, #3]
    2160:	4313      	orrs	r3, r2
    2162:	063f      	lsls	r7, r7, #24
    2164:	431f      	orrs	r7, r3
    2166:	2392      	movs	r3, #146	; 0x92
    2168:	005b      	lsls	r3, r3, #1
    216a:	18e0      	adds	r0, r4, r3
    216c:	5ce1      	ldrb	r1, [r4, r3]
    216e:	7843      	ldrb	r3, [r0, #1]
    2170:	7886      	ldrb	r6, [r0, #2]
    2172:	021b      	lsls	r3, r3, #8
    2174:	430b      	orrs	r3, r1
    2176:	0436      	lsls	r6, r6, #16
    2178:	001a      	movs	r2, r3
    217a:	0033      	movs	r3, r6
    217c:	78c6      	ldrb	r6, [r0, #3]
    217e:	4313      	orrs	r3, r2
    2180:	0636      	lsls	r6, r6, #24
    2182:	431e      	orrs	r6, r3
    2184:	4ba0      	ldr	r3, [pc, #640]	; (2408 <ros::NodeHandle_<MbedHardware, 25, 25, 512, 512>::spinOnce()+0x690>)
    2186:	4648      	mov	r0, r9
    2188:	469c      	mov	r12, r3
    218a:	4466      	add	r6, r12
    218c:	f001 fffc 	bl	4188 <mbed::Timer::read_ms()>
    2190:	21fa      	movs	r1, #250	; 0xfa
    2192:	4680      	mov	r8, r0
    2194:	0089      	lsls	r1, r1, #2
    2196:	4650      	mov	r0, r10
    2198:	f002 f816 	bl	41c8 <__aeabi_uidiv>
    219c:	21fa      	movs	r1, #250	; 0xfa
    219e:	3f01      	subs	r7, #1
    21a0:	19c7      	adds	r7, r0, r7
    21a2:	0089      	lsls	r1, r1, #2
    21a4:	4640      	mov	r0, r8
    21a6:	f002 f80f 	bl	41c8 <__aeabi_uidiv>
    21aa:	238c      	movs	r3, #140	; 0x8c
    21ac:	21fa      	movs	r1, #250	; 0xfa
    21ae:	005b      	lsls	r3, r3, #1
    21b0:	1a3f      	subs	r7, r7, r0
    21b2:	50e7      	str	r7, [r4, r3]
    21b4:	0089      	lsls	r1, r1, #2
    21b6:	4650      	mov	r0, r10
    21b8:	f002 f88c 	bl	42d4 <__aeabi_uidivmod>
    21bc:	4f93      	ldr	r7, [pc, #588]	; (240c <ros::NodeHandle_<MbedHardware, 25, 25, 512, 512>::spinOnce()+0x694>)
    21be:	4640      	mov	r0, r8
    21c0:	4379      	muls	r1, r7
    21c2:	198e      	adds	r6, r1, r6
    21c4:	21fa      	movs	r1, #250	; 0xfa
    21c6:	0089      	lsls	r1, r1, #2
    21c8:	f002 f884 	bl	42d4 <__aeabi_uidivmod>
    21cc:	238e      	movs	r3, #142	; 0x8e
    21ce:	0020      	movs	r0, r4
    21d0:	4379      	muls	r1, r7
    21d2:	005b      	lsls	r3, r3, #1
    21d4:	1a76      	subs	r6, r6, r1
    21d6:	3019      	adds	r0, #25
    21d8:	50e6      	str	r6, [r4, r3]
    21da:	18e1      	adds	r1, r4, r3
    21dc:	30ff      	adds	r0, #255	; 0xff
    21de:	f000 f9e5 	bl	25ac <ros::normalizeSecNSec(unsigned long&, unsigned long&)>
    21e2:	4648      	mov	r0, r9
    21e4:	f001 ffd0 	bl	4188 <mbed::Timer::read_ms()>
    21e8:	4b89      	ldr	r3, [pc, #548]	; (2410 <ros::NodeHandle_<MbedHardware, 25, 25, 512, 512>::spinOnce()+0x698>)
    21ea:	50e0      	str	r0, [r4, r3]
    21ec:	e5e8      	b.n	1dc0 <ros::NodeHandle_<MbedHardware, 25, 25, 512, 512>::spinOnce()+0x48>
    21ee:	331b      	adds	r3, #27
    21f0:	33ff      	adds	r3, #255	; 0xff
    21f2:	469c      	mov	r12, r3
    21f4:	44a4      	add	r12, r4
    21f6:	4663      	mov	r3, r12
    21f8:	9301      	str	r3, [sp, #4]
    21fa:	2390      	movs	r3, #144	; 0x90
    21fc:	005b      	lsls	r3, r3, #1
    21fe:	5ce6      	ldrb	r6, [r4, r3]
    2200:	23c2      	movs	r3, #194	; 0xc2
    2202:	00db      	lsls	r3, r3, #3
    2204:	469a      	mov	r10, r3
    2206:	44a2      	add	r10, r4
    2208:	4653      	mov	r3, r10
    220a:	791b      	ldrb	r3, [r3, #4]
    220c:	42b3      	cmp	r3, r6
    220e:	d206      	bcs.n	221e <ros::NodeHandle_<MbedHardware, 25, 25, 512, 512>::spinOnce()+0x4a6>
    2210:	4653      	mov	r3, r10
    2212:	00b1      	lsls	r1, r6, #2
    2214:	68d8      	ldr	r0, [r3, #12]
    2216:	f000 f9b9 	bl	258c <__wrap_realloc>
    221a:	4653      	mov	r3, r10
    221c:	60d8      	str	r0, [r3, #12]
    221e:	4653      	mov	r3, r10
    2220:	711e      	strb	r6, [r3, #4]
    2222:	2e00      	cmp	r6, #0
    2224:	d100      	bne.n	2228 <ros::NodeHandle_<MbedHardware, 25, 25, 512, 512>::spinOnce()+0x4b0>
    2226:	e0e7      	b.n	23f8 <ros::NodeHandle_<MbedHardware, 25, 25, 512, 512>::spinOnce()+0x680>
    2228:	23c3      	movs	r3, #195	; 0xc3
    222a:	00db      	lsls	r3, r3, #3
    222c:	469c      	mov	r12, r3
    222e:	44a4      	add	r12, r4
    2230:	4663      	mov	r3, r12
    2232:	9302      	str	r3, [sp, #8]
    2234:	2304      	movs	r3, #4
    2236:	9a01      	ldr	r2, [sp, #4]
    2238:	0026      	movs	r6, r4
    223a:	1a9b      	subs	r3, r3, r2
    223c:	9303      	str	r3, [sp, #12]
    223e:	4653      	mov	r3, r10
    2240:	2700      	movs	r7, #0
    2242:	46a2      	mov	r10, r4
    2244:	001c      	movs	r4, r3
    2246:	3625      	adds	r6, #37	; 0x25
    2248:	36ff      	adds	r6, #255	; 0xff
    224a:	7873      	ldrb	r3, [r6, #1]
    224c:	00b8      	lsls	r0, r7, #2
    224e:	021a      	lsls	r2, r3, #8
    2250:	78b3      	ldrb	r3, [r6, #2]
    2252:	9902      	ldr	r1, [sp, #8]
    2254:	041b      	lsls	r3, r3, #16
    2256:	4313      	orrs	r3, r2
    2258:	7832      	ldrb	r2, [r6, #0]
    225a:	3701      	adds	r7, #1
    225c:	431a      	orrs	r2, r3
    225e:	78f3      	ldrb	r3, [r6, #3]
    2260:	b2ff      	uxtb	r7, r7
    2262:	061b      	lsls	r3, r3, #24
    2264:	4313      	orrs	r3, r2
    2266:	60a3      	str	r3, [r4, #8]
    2268:	9b03      	ldr	r3, [sp, #12]
    226a:	2204      	movs	r2, #4
    226c:	4698      	mov	r8, r3
    226e:	68e3      	ldr	r3, [r4, #12]
    2270:	44b0      	add	r8, r6
    2272:	469c      	mov	r12, r3
    2274:	4460      	add	r0, r12
    2276:	f002 fcf2 	bl	4c5e <memcpy>
    227a:	7923      	ldrb	r3, [r4, #4]
    227c:	3604      	adds	r6, #4
    227e:	42bb      	cmp	r3, r7
    2280:	d8e3      	bhi.n	224a <ros::NodeHandle_<MbedHardware, 25, 25, 512, 512>::spinOnce()+0x4d2>
    2282:	0023      	movs	r3, r4
    2284:	4654      	mov	r4, r10
    2286:	469a      	mov	r10, r3
    2288:	4643      	mov	r3, r8
    228a:	1d1e      	adds	r6, r3, #4
    228c:	46b0      	mov	r8, r6
    228e:	9a01      	ldr	r2, [sp, #4]
    2290:	5cd7      	ldrb	r7, [r2, r3]
    2292:	4653      	mov	r3, r10
    2294:	7c1b      	ldrb	r3, [r3, #16]
    2296:	42bb      	cmp	r3, r7
    2298:	d206      	bcs.n	22a8 <ros::NodeHandle_<MbedHardware, 25, 25, 512, 512>::spinOnce()+0x530>
    229a:	4653      	mov	r3, r10
    229c:	00b9      	lsls	r1, r7, #2
    229e:	6998      	ldr	r0, [r3, #24]
    22a0:	f000 f974 	bl	258c <__wrap_realloc>
    22a4:	4653      	mov	r3, r10
    22a6:	6198      	str	r0, [r3, #24]
    22a8:	4653      	mov	r3, r10
    22aa:	741f      	strb	r7, [r3, #16]
    22ac:	2f00      	cmp	r7, #0
    22ae:	d02f      	beq.n	2310 <ros::NodeHandle_<MbedHardware, 25, 25, 512, 512>::spinOnce()+0x598>
    22b0:	4b58      	ldr	r3, [pc, #352]	; (2414 <ros::NodeHandle_<MbedHardware, 25, 25, 512, 512>::spinOnce()+0x69c>)
    22b2:	4652      	mov	r2, r10
    22b4:	469c      	mov	r12, r3
    22b6:	44a4      	add	r12, r4
    22b8:	4663      	mov	r3, r12
    22ba:	9302      	str	r3, [sp, #8]
    22bc:	9b01      	ldr	r3, [sp, #4]
    22be:	46a2      	mov	r10, r4
    22c0:	4443      	add	r3, r8
    22c2:	001f      	movs	r7, r3
    22c4:	4643      	mov	r3, r8
    22c6:	2600      	movs	r6, #0
    22c8:	46a8      	mov	r8, r5
    22ca:	0014      	movs	r4, r2
    22cc:	001d      	movs	r5, r3
    22ce:	787b      	ldrb	r3, [r7, #1]
    22d0:	00b0      	lsls	r0, r6, #2
    22d2:	021a      	lsls	r2, r3, #8
    22d4:	78bb      	ldrb	r3, [r7, #2]
    22d6:	9902      	ldr	r1, [sp, #8]
    22d8:	041b      	lsls	r3, r3, #16
    22da:	4313      	orrs	r3, r2
    22dc:	783a      	ldrb	r2, [r7, #0]
    22de:	3601      	adds	r6, #1
    22e0:	431a      	orrs	r2, r3
    22e2:	78fb      	ldrb	r3, [r7, #3]
    22e4:	b2f6      	uxtb	r6, r6
    22e6:	061b      	lsls	r3, r3, #24
    22e8:	4313      	orrs	r3, r2
    22ea:	6163      	str	r3, [r4, #20]
    22ec:	69a3      	ldr	r3, [r4, #24]
    22ee:	2204      	movs	r2, #4
    22f0:	469c      	mov	r12, r3
    22f2:	4460      	add	r0, r12
    22f4:	f002 fcb3 	bl	4c5e <memcpy>
    22f8:	7c23      	ldrb	r3, [r4, #16]
    22fa:	3504      	adds	r5, #4
    22fc:	3704      	adds	r7, #4
    22fe:	42b3      	cmp	r3, r6
    2300:	d8e5      	bhi.n	22ce <ros::NodeHandle_<MbedHardware, 25, 25, 512, 512>::spinOnce()+0x556>
    2302:	002a      	movs	r2, r5
    2304:	0023      	movs	r3, r4
    2306:	4645      	mov	r5, r8
    2308:	4654      	mov	r4, r10
    230a:	4690      	mov	r8, r2
    230c:	469a      	mov	r10, r3
    230e:	0016      	movs	r6, r2
    2310:	9b01      	ldr	r3, [sp, #4]
    2312:	5d9e      	ldrb	r6, [r3, r6]
    2314:	4653      	mov	r3, r10
    2316:	7f1b      	ldrb	r3, [r3, #28]
    2318:	42b3      	cmp	r3, r6
    231a:	d206      	bcs.n	232a <ros::NodeHandle_<MbedHardware, 25, 25, 512, 512>::spinOnce()+0x5b2>
    231c:	4653      	mov	r3, r10
    231e:	00b1      	lsls	r1, r6, #2
    2320:	6a58      	ldr	r0, [r3, #36]	; 0x24
    2322:	f000 f933 	bl	258c <__wrap_realloc>
    2326:	4653      	mov	r3, r10
    2328:	6258      	str	r0, [r3, #36]	; 0x24
    232a:	4647      	mov	r7, r8
    232c:	4653      	mov	r3, r10
    232e:	3704      	adds	r7, #4
    2330:	771e      	strb	r6, [r3, #28]
    2332:	2e00      	cmp	r6, #0
    2334:	d03a      	beq.n	23ac <ros::NodeHandle_<MbedHardware, 25, 25, 512, 512>::spinOnce()+0x634>
    2336:	23c6      	movs	r3, #198	; 0xc6
    2338:	00db      	lsls	r3, r3, #3
    233a:	469c      	mov	r12, r3
    233c:	44a4      	add	r12, r4
    233e:	4663      	mov	r3, r12
    2340:	9303      	str	r3, [sp, #12]
    2342:	2300      	movs	r3, #0
    2344:	9302      	str	r3, [sp, #8]
    2346:	ab05      	add	r3, sp, #20
    2348:	4698      	mov	r8, r3
    234a:	4653      	mov	r3, r10
    234c:	46a2      	mov	r10, r4
    234e:	001c      	movs	r4, r3
    2350:	9b01      	ldr	r3, [sp, #4]
    2352:	2204      	movs	r2, #4
    2354:	19de      	adds	r6, r3, r7
    2356:	0031      	movs	r1, r6
    2358:	4640      	mov	r0, r8
    235a:	f002 fc80 	bl	4c5e <memcpy>
    235e:	9b05      	ldr	r3, [sp, #20]
    2360:	1d39      	adds	r1, r7, #4
    2362:	18cf      	adds	r7, r1, r3
    2364:	1e0b      	subs	r3, r1, #0
    2366:	42bb      	cmp	r3, r7
    2368:	d205      	bcs.n	2376 <ros::NodeHandle_<MbedHardware, 25, 25, 512, 512>::spinOnce()+0x5fe>
    236a:	7932      	ldrb	r2, [r6, #4]
    236c:	3301      	adds	r3, #1
    236e:	70f2      	strb	r2, [r6, #3]
    2370:	3601      	adds	r6, #1
    2372:	42bb      	cmp	r3, r7
    2374:	d3f9      	bcc.n	236a <ros::NodeHandle_<MbedHardware, 25, 25, 512, 512>::spinOnce()+0x5f2>
    2376:	2000      	movs	r0, #0
    2378:	9a01      	ldr	r2, [sp, #4]
    237a:	3901      	subs	r1, #1
    237c:	4694      	mov	r12, r2
    237e:	19d3      	adds	r3, r2, r7
    2380:	3b01      	subs	r3, #1
    2382:	7018      	strb	r0, [r3, #0]
    2384:	6a63      	ldr	r3, [r4, #36]	; 0x24
    2386:	4461      	add	r1, r12
    2388:	469c      	mov	r12, r3
    238a:	9e02      	ldr	r6, [sp, #8]
    238c:	6221      	str	r1, [r4, #32]
    238e:	00b0      	lsls	r0, r6, #2
    2390:	2204      	movs	r2, #4
    2392:	4460      	add	r0, r12
    2394:	9903      	ldr	r1, [sp, #12]
    2396:	f002 fc62 	bl	4c5e <memcpy>
    239a:	0033      	movs	r3, r6
    239c:	3301      	adds	r3, #1
    239e:	b2db      	uxtb	r3, r3
    23a0:	9302      	str	r3, [sp, #8]
    23a2:	001a      	movs	r2, r3
    23a4:	7f23      	ldrb	r3, [r4, #28]
    23a6:	4293      	cmp	r3, r2
    23a8:	d8d2      	bhi.n	2350 <ros::NodeHandle_<MbedHardware, 25, 25, 512, 512>::spinOnce()+0x5d8>
    23aa:	4654      	mov	r4, r10
    23ac:	2201      	movs	r2, #1
    23ae:	4b1a      	ldr	r3, [pc, #104]	; (2418 <ros::NodeHandle_<MbedHardware, 25, 25, 512, 512>::spinOnce()+0x6a0>)
    23b0:	54e2      	strb	r2, [r4, r3]
    23b2:	e505      	b.n	1dc0 <ros::NodeHandle_<MbedHardware, 25, 25, 512, 512>::spinOnce()+0x48>
    23b4:	0021      	movs	r1, r4
    23b6:	3121      	adds	r1, #33	; 0x21
    23b8:	31ff      	adds	r1, #255	; 0xff
    23ba:	0018      	movs	r0, r3
    23bc:	4790      	blx	r2
    23be:	e4ff      	b.n	1dc0 <ros::NodeHandle_<MbedHardware, 25, 25, 512, 512>::spinOnce()+0x48>
    23c0:	4a16      	ldr	r2, [pc, #88]	; (241c <ros::NodeHandle_<MbedHardware, 25, 25, 512, 512>::spinOnce()+0x6a4>)
    23c2:	9306      	str	r3, [sp, #24]
    23c4:	9307      	str	r3, [sp, #28]
    23c6:	6823      	ldr	r3, [r4, #0]
    23c8:	9205      	str	r2, [sp, #20]
    23ca:	681b      	ldr	r3, [r3, #0]
    23cc:	aa05      	add	r2, sp, #20
    23ce:	310a      	adds	r1, #10
    23d0:	0020      	movs	r0, r4
    23d2:	4798      	blx	r3
    23d4:	4648      	mov	r0, r9
    23d6:	f001 fed7 	bl	4188 <mbed::Timer::read_ms()>
    23da:	238a      	movs	r3, #138	; 0x8a
    23dc:	005b      	lsls	r3, r3, #1
    23de:	50e0      	str	r0, [r4, r3]
    23e0:	0020      	movs	r0, r4
    23e2:	f7ff f9eb 	bl	17bc <ros::NodeHandle_<MbedHardware, 25, 25, 512, 512>::negotiateTopics()>
    23e6:	23c0      	movs	r3, #192	; 0xc0
    23e8:	465a      	mov	r2, r11
    23ea:	2001      	movs	r0, #1
    23ec:	00db      	lsls	r3, r3, #3
    23ee:	50e2      	str	r2, [r4, r3]
    23f0:	4b07      	ldr	r3, [pc, #28]	; (2410 <ros::NodeHandle_<MbedHardware, 25, 25, 512, 512>::spinOnce()+0x698>)
    23f2:	4240      	negs	r0, r0
    23f4:	50e2      	str	r2, [r4, r3]
    23f6:	e4f6      	b.n	1de6 <ros::NodeHandle_<MbedHardware, 25, 25, 512, 512>::spinOnce()+0x6e>
    23f8:	2308      	movs	r3, #8
    23fa:	2608      	movs	r6, #8
    23fc:	4698      	mov	r8, r3
    23fe:	3b04      	subs	r3, #4
    2400:	e745      	b.n	228e <ros::NodeHandle_<MbedHardware, 25, 25, 512, 512>::spinOnce()+0x516>
    2402:	46c0      	nop			; (mov r8, r8)
    2404:	000005fc 	.word	0x000005fc
    2408:	3b9aca00 	.word	0x3b9aca00
    240c:	000f4240 	.word	0x000f4240
    2410:	00000604 	.word	0x00000604
    2414:	00000624 	.word	0x00000624
    2418:	0000060c 	.word	0x0000060c
    241c:	000066bc 	.word	0x000066bc

00002420 <_GLOBAL__sub_I_nh>:
    2420:	b570      	push	{r4, r5, r6, lr}
    2422:	4c32      	ldr	r4, [pc, #200]	; (24ec <_GLOBAL__sub_I_nh+0xcc>)
    2424:	4b32      	ldr	r3, [pc, #200]	; (24f0 <_GLOBAL__sub_I_nh+0xd0>)
    2426:	0020      	movs	r0, r4
    2428:	1d65      	adds	r5, r4, #5
    242a:	2108      	movs	r1, #8
    242c:	2204      	movs	r2, #4
    242e:	c008      	stmia	r0!, {r3}
    2430:	35ff      	adds	r5, #255	; 0xff
    2432:	2300      	movs	r3, #0
    2434:	f000 fa42 	bl	28bc <AjK::MODSERIAL::MODSERIAL(PinName, PinName, char const*)>
    2438:	0028      	movs	r0, r5
    243a:	f001 fe89 	bl	4150 <mbed::Timer::Timer()>
    243e:	22e1      	movs	r2, #225	; 0xe1
    2440:	2380      	movs	r3, #128	; 0x80
    2442:	0212      	lsls	r2, r2, #8
    2444:	005b      	lsls	r3, r3, #1
    2446:	50e2      	str	r2, [r4, r3]
    2448:	0028      	movs	r0, r5
    244a:	f001 fe91 	bl	4170 <mbed::Timer::start()>
    244e:	2300      	movs	r3, #0
    2450:	4a28      	ldr	r2, [pc, #160]	; (24f4 <_GLOBAL__sub_I_nh+0xd4>)
    2452:	4929      	ldr	r1, [pc, #164]	; (24f8 <_GLOBAL__sub_I_nh+0xd8>)
    2454:	54a3      	strb	r3, [r4, r2]
    2456:	3214      	adds	r2, #20
    2458:	50a1      	str	r1, [r4, r2]
    245a:	4a28      	ldr	r2, [pc, #160]	; (24fc <_GLOBAL__sub_I_nh+0xdc>)
    245c:	2000      	movs	r0, #0
    245e:	54a3      	strb	r3, [r4, r2]
    2460:	4a27      	ldr	r2, [pc, #156]	; (2500 <_GLOBAL__sub_I_nh+0xe0>)
    2462:	50a3      	str	r3, [r4, r2]
    2464:	3204      	adds	r2, #4
    2466:	54a3      	strb	r3, [r4, r2]
    2468:	3208      	adds	r2, #8
    246a:	50a3      	str	r3, [r4, r2]
    246c:	4a25      	ldr	r2, [pc, #148]	; (2504 <_GLOBAL__sub_I_nh+0xe4>)
    246e:	54a3      	strb	r3, [r4, r2]
    2470:	4a25      	ldr	r2, [pc, #148]	; (2508 <_GLOBAL__sub_I_nh+0xe8>)
    2472:	50a3      	str	r3, [r4, r2]
    2474:	23a4      	movs	r3, #164	; 0xa4
    2476:	00db      	lsls	r3, r3, #3
    2478:	18e1      	adds	r1, r4, r3
    247a:	000a      	movs	r2, r1
    247c:	4b23      	ldr	r3, [pc, #140]	; (250c <_GLOBAL__sub_I_nh+0xec>)
    247e:	18e3      	adds	r3, r4, r3
    2480:	c201      	stmia	r2!, {r0}
    2482:	4293      	cmp	r3, r2
    2484:	d1fc      	bne.n	2480 <_GLOBAL__sub_I_nh+0x60>
    2486:	22bd      	movs	r2, #189	; 0xbd
    2488:	00d2      	lsls	r2, r2, #3
    248a:	18a0      	adds	r0, r4, r2
    248c:	2200      	movs	r2, #0
    248e:	c304      	stmia	r3!, {r2}
    2490:	4298      	cmp	r0, r3
    2492:	d1fc      	bne.n	248e <_GLOBAL__sub_I_nh+0x6e>
    2494:	0022      	movs	r2, r4
    2496:	23c8      	movs	r3, #200	; 0xc8
    2498:	2000      	movs	r0, #0
    249a:	3221      	adds	r2, #33	; 0x21
    249c:	009b      	lsls	r3, r3, #2
    249e:	32ff      	adds	r2, #255	; 0xff
    24a0:	18e3      	adds	r3, r4, r3
    24a2:	7010      	strb	r0, [r2, #0]
    24a4:	3201      	adds	r2, #1
    24a6:	4293      	cmp	r3, r2
    24a8:	d1fb      	bne.n	24a2 <_GLOBAL__sub_I_nh+0x82>
    24aa:	2200      	movs	r2, #0
    24ac:	701a      	strb	r2, [r3, #0]
    24ae:	3301      	adds	r3, #1
    24b0:	428b      	cmp	r3, r1
    24b2:	d1fb      	bne.n	24ac <_GLOBAL__sub_I_nh+0x8c>
    24b4:	4a16      	ldr	r2, [pc, #88]	; (2510 <_GLOBAL__sub_I_nh+0xf0>)
    24b6:	4917      	ldr	r1, [pc, #92]	; (2514 <_GLOBAL__sub_I_nh+0xf4>)
    24b8:	0020      	movs	r0, r4
    24ba:	f001 fe79 	bl	41b0 <__aeabi_atexit>
    24be:	4c16      	ldr	r4, [pc, #88]	; (2518 <_GLOBAL__sub_I_nh+0xf8>)
    24c0:	2218      	movs	r2, #24
    24c2:	2100      	movs	r1, #0
    24c4:	0020      	movs	r0, r4
    24c6:	f002 fbe8 	bl	4c9a <memset>
    24ca:	4914      	ldr	r1, [pc, #80]	; (251c <_GLOBAL__sub_I_nh+0xfc>)
    24cc:	0020      	movs	r0, r4
    24ce:	f000 fc3d 	bl	2d4c <gpio_init_out>
    24d2:	4b13      	ldr	r3, [pc, #76]	; (2520 <_GLOBAL__sub_I_nh+0x100>)
    24d4:	4a13      	ldr	r2, [pc, #76]	; (2524 <_GLOBAL__sub_I_nh+0x104>)
    24d6:	601a      	str	r2, [r3, #0]
    24d8:	4a13      	ldr	r2, [pc, #76]	; (2528 <_GLOBAL__sub_I_nh+0x108>)
    24da:	60da      	str	r2, [r3, #12]
    24dc:	4a13      	ldr	r2, [pc, #76]	; (252c <_GLOBAL__sub_I_nh+0x10c>)
    24de:	611a      	str	r2, [r3, #16]
    24e0:	2201      	movs	r2, #1
    24e2:	615a      	str	r2, [r3, #20]
    24e4:	4a12      	ldr	r2, [pc, #72]	; (2530 <_GLOBAL__sub_I_nh+0x110>)
    24e6:	609a      	str	r2, [r3, #8]
    24e8:	bd70      	pop	{r4, r5, r6, pc}
    24ea:	46c0      	nop			; (mov r8, r8)
    24ec:	1ffff178 	.word	0x1ffff178
    24f0:	00006734 	.word	0x00006734
    24f4:	000005fc 	.word	0x000005fc
    24f8:	00006704 	.word	0x00006704
    24fc:	00000614 	.word	0x00000614
    2500:	0000061c 	.word	0x0000061c
    2504:	0000062c 	.word	0x0000062c
    2508:	00000634 	.word	0x00000634
    250c:	00000584 	.word	0x00000584
    2510:	1ffff0c0 	.word	0x1ffff0c0
    2514:	00002535 	.word	0x00002535
    2518:	1ffff160 	.word	0x1ffff160
    251c:	00001048 	.word	0x00001048
    2520:	1ffff7b0 	.word	0x1ffff7b0
    2524:	00006748 	.word	0x00006748
    2528:	0000671c 	.word	0x0000671c
    252c:	00000589 	.word	0x00000589
    2530:	00006898 	.word	0x00006898

00002534 <ros::NodeHandle_<MbedHardware, 25, 25, 512, 512>::~NodeHandle_()>:
    2534:	b510      	push	{r4, lr}
    2536:	0004      	movs	r4, r0
    2538:	4b02      	ldr	r3, [pc, #8]	; (2544 <ros::NodeHandle_<MbedHardware, 25, 25, 512, 512>::~NodeHandle_()+0x10>)
    253a:	c008      	stmia	r0!, {r3}
    253c:	f000 f946 	bl	27cc <AjK::MODSERIAL::~MODSERIAL()>
    2540:	0020      	movs	r0, r4
    2542:	bd10      	pop	{r4, pc}
    2544:	00006734 	.word	0x00006734

00002548 <_start>:
    2548:	4807      	ldr	r0, [pc, #28]	; (2568 <_start+0x20>)
    254a:	4a08      	ldr	r2, [pc, #32]	; (256c <_start+0x24>)
    254c:	b510      	push	{r4, lr}
    254e:	1a12      	subs	r2, r2, r0
    2550:	2100      	movs	r1, #0
    2552:	f002 fba2 	bl	4c9a <memset>
    2556:	e000      	b.n	255a <_start+0x12>
    2558:	bf00      	nop
    255a:	f002 fae9 	bl	4b30 <__libc_init_array>
    255e:	f001 fc77 	bl	3e50 <__wrap_main>
    2562:	f001 ffbb 	bl	44dc <exit>
    2566:	46c0      	nop			; (mov r8, r8)
    2568:	1ffff144 	.word	0x1ffff144
    256c:	1ffff908 	.word	0x1ffff908

00002570 <__wrap__isatty>:
    2570:	b510      	push	{r4, lr}
    2572:	2301      	movs	r3, #1
    2574:	2802      	cmp	r0, #2
    2576:	dd02      	ble.n	257e <__wrap__isatty+0xe>
    2578:	f001 fc2e 	bl	3dd8 <_isatty>
    257c:	0003      	movs	r3, r0
    257e:	0018      	movs	r0, r3
    2580:	bd10      	pop	{r4, pc}
    2582:	46c0      	nop			; (mov r8, r8)

00002584 <__wrap_malloc>:
    2584:	b510      	push	{r4, lr}
    2586:	f002 fb4b 	bl	4c20 <malloc>
    258a:	bd10      	pop	{r4, pc}

0000258c <__wrap_realloc>:
    258c:	b510      	push	{r4, lr}
    258e:	f003 f8bb 	bl	5708 <realloc>
    2592:	bd10      	pop	{r4, pc}

00002594 <__wrap_free>:
    2594:	b510      	push	{r4, lr}
    2596:	f002 fb4d 	bl	4c34 <free>
    259a:	bd10      	pop	{r4, pc}

0000259c <abort>:
    259c:	b510      	push	{r4, lr}
    259e:	2001      	movs	r0, #1
    25a0:	f001 ff9c 	bl	44dc <exit>

000025a4 <__cxa_pure_virtual>:
    25a4:	b510      	push	{r4, lr}
    25a6:	f7ff fff9 	bl	259c <abort>
    25aa:	46c0      	nop			; (mov r8, r8)

000025ac <ros::normalizeSecNSec(unsigned long&, unsigned long&)>:
    25ac:	b570      	push	{r4, r5, r6, lr}
    25ae:	0006      	movs	r6, r0
    25b0:	680d      	ldr	r5, [r1, #0]
    25b2:	000c      	movs	r4, r1
    25b4:	0028      	movs	r0, r5
    25b6:	4906      	ldr	r1, [pc, #24]	; (25d0 <ros::normalizeSecNSec(unsigned long&, unsigned long&)+0x24>)
    25b8:	f001 fe06 	bl	41c8 <__aeabi_uidiv>
    25bc:	6833      	ldr	r3, [r6, #0]
    25be:	4904      	ldr	r1, [pc, #16]	; (25d0 <ros::normalizeSecNSec(unsigned long&, unsigned long&)+0x24>)
    25c0:	469c      	mov	r12, r3
    25c2:	4460      	add	r0, r12
    25c4:	6030      	str	r0, [r6, #0]
    25c6:	0028      	movs	r0, r5
    25c8:	f001 fe84 	bl	42d4 <__aeabi_uidivmod>
    25cc:	6021      	str	r1, [r4, #0]
    25ce:	bd70      	pop	{r4, r5, r6, pc}
    25d0:	3b9aca00 	.word	0x3b9aca00

000025d4 <AjK::MODSERIAL::__getc(bool)>:
    25d4:	6fc3      	ldr	r3, [r0, #124]	; 0x7c
    25d6:	b570      	push	{r4, r5, r6, lr}
    25d8:	0004      	movs	r4, r0
    25da:	2b00      	cmp	r3, #0
    25dc:	d02e      	beq.n	263c <AjK::MODSERIAL::__getc(bool)+0x68>
    25de:	6e40      	ldr	r0, [r0, #100]	; 0x64
    25e0:	2800      	cmp	r0, #0
    25e2:	d02b      	beq.n	263c <AjK::MODSERIAL::__getc(bool)+0x68>
    25e4:	2900      	cmp	r1, #0
    25e6:	d131      	bne.n	264c <AjK::MODSERIAL::__getc(bool)+0x78>
    25e8:	2384      	movs	r3, #132	; 0x84
    25ea:	58e3      	ldr	r3, [r4, r3]
    25ec:	2b00      	cmp	r3, #0
    25ee:	d032      	beq.n	2656 <AjK::MODSERIAL::__getc(bool)+0x82>
    25f0:	6f63      	ldr	r3, [r4, #116]	; 0x74
    25f2:	18c3      	adds	r3, r0, r3
    25f4:	7818      	ldrb	r0, [r3, #0]
    25f6:	6f63      	ldr	r3, [r4, #116]	; 0x74
    25f8:	b2c5      	uxtb	r5, r0
    25fa:	3301      	adds	r3, #1
    25fc:	6763      	str	r3, [r4, #116]	; 0x74
    25fe:	6f62      	ldr	r2, [r4, #116]	; 0x74
    2600:	6fe3      	ldr	r3, [r4, #124]	; 0x7c
    2602:	429a      	cmp	r2, r3
    2604:	db01      	blt.n	260a <AjK::MODSERIAL::__getc(bool)+0x36>
    2606:	2300      	movs	r3, #0
    2608:	6763      	str	r3, [r4, #116]	; 0x74
    260a:	2384      	movs	r3, #132	; 0x84
    260c:	58e2      	ldr	r2, [r4, r3]
    260e:	6fe3      	ldr	r3, [r4, #124]	; 0x7c
    2610:	429a      	cmp	r2, r3
    2612:	d00b      	beq.n	262c <AjK::MODSERIAL::__getc(bool)+0x58>
    2614:	2120      	movs	r1, #32
    2616:	6de3      	ldr	r3, [r4, #92]	; 0x5c
    2618:	0020      	movs	r0, r4
    261a:	78de      	ldrb	r6, [r3, #3]
    261c:	78da      	ldrb	r2, [r3, #3]
    261e:	b2f6      	uxtb	r6, r6
    2620:	438a      	bics	r2, r1
    2622:	70da      	strb	r2, [r3, #3]
    2624:	f000 f81a 	bl	265c <AjK::MODSERIAL::isr_rx()>
    2628:	6de3      	ldr	r3, [r4, #92]	; 0x5c
    262a:	70de      	strb	r6, [r3, #3]
    262c:	b672      	cpsid	i
    262e:	2284      	movs	r2, #132	; 0x84
    2630:	58a3      	ldr	r3, [r4, r2]
    2632:	3b01      	subs	r3, #1
    2634:	50a3      	str	r3, [r4, r2]
    2636:	b662      	cpsie	i
    2638:	0028      	movs	r0, r5
    263a:	e006      	b.n	264a <AjK::MODSERIAL::__getc(bool)+0x76>
    263c:	2120      	movs	r1, #32
    263e:	6de2      	ldr	r2, [r4, #92]	; 0x5c
    2640:	7913      	ldrb	r3, [r2, #4]
    2642:	4219      	tst	r1, r3
    2644:	d0fc      	beq.n	2640 <AjK::MODSERIAL::__getc(bool)+0x6c>
    2646:	79d0      	ldrb	r0, [r2, #7]
    2648:	b2c0      	uxtb	r0, r0
    264a:	bd70      	pop	{r4, r5, r6, pc}
    264c:	2284      	movs	r2, #132	; 0x84
    264e:	58a3      	ldr	r3, [r4, r2]
    2650:	2b00      	cmp	r3, #0
    2652:	d0fc      	beq.n	264e <AjK::MODSERIAL::__getc(bool)+0x7a>
    2654:	e7cc      	b.n	25f0 <AjK::MODSERIAL::__getc(bool)+0x1c>
    2656:	2001      	movs	r0, #1
    2658:	4240      	negs	r0, r0
    265a:	e7f6      	b.n	264a <AjK::MODSERIAL::__getc(bool)+0x76>

0000265c <AjK::MODSERIAL::isr_rx()>:
    265c:	b5f0      	push	{r4, r5, r6, r7, lr}
    265e:	4647      	mov	r7, r8
    2660:	b480      	push	{r7}
    2662:	6dc3      	ldr	r3, [r0, #92]	; 0x5c
    2664:	0004      	movs	r4, r0
    2666:	78da      	ldrb	r2, [r3, #3]
    2668:	0692      	lsls	r2, r2, #26
    266a:	d53a      	bpl.n	26e2 <AjK::MODSERIAL::isr_rx()+0x86>
    266c:	2b00      	cmp	r3, #0
    266e:	d03b      	beq.n	26e8 <AjK::MODSERIAL::isr_rx()+0x8c>
    2670:	6fc2      	ldr	r2, [r0, #124]	; 0x7c
    2672:	2a00      	cmp	r2, #0
    2674:	d038      	beq.n	26e8 <AjK::MODSERIAL::isr_rx()+0x8c>
    2676:	6e42      	ldr	r2, [r0, #100]	; 0x64
    2678:	2a00      	cmp	r2, #0
    267a:	d035      	beq.n	26e8 <AjK::MODSERIAL::isr_rx()+0x8c>
    267c:	2720      	movs	r7, #32
    267e:	791a      	ldrb	r2, [r3, #4]
    2680:	2561      	movs	r5, #97	; 0x61
    2682:	2684      	movs	r6, #132	; 0x84
    2684:	4217      	tst	r7, r2
    2686:	d02c      	beq.n	26e2 <AjK::MODSERIAL::isr_rx()+0x86>
    2688:	79db      	ldrb	r3, [r3, #7]
    268a:	b2db      	uxtb	r3, r3
    268c:	5563      	strb	r3, [r4, r5]
    268e:	59a2      	ldr	r2, [r4, r6]
    2690:	6fe3      	ldr	r3, [r4, #124]	; 0x7c
    2692:	429a      	cmp	r2, r3
    2694:	d038      	beq.n	2708 <AjK::MODSERIAL::isr_rx()+0xac>
    2696:	6e62      	ldr	r2, [r4, #100]	; 0x64
    2698:	2a00      	cmp	r2, #0
    269a:	d010      	beq.n	26be <AjK::MODSERIAL::isr_rx()+0x62>
    269c:	6ee3      	ldr	r3, [r4, #108]	; 0x6c
    269e:	18d3      	adds	r3, r2, r3
    26a0:	5d62      	ldrb	r2, [r4, r5]
    26a2:	b2d2      	uxtb	r2, r2
    26a4:	701a      	strb	r2, [r3, #0]
    26a6:	59a3      	ldr	r3, [r4, r6]
    26a8:	3301      	adds	r3, #1
    26aa:	51a3      	str	r3, [r4, r6]
    26ac:	6ee3      	ldr	r3, [r4, #108]	; 0x6c
    26ae:	3301      	adds	r3, #1
    26b0:	66e3      	str	r3, [r4, #108]	; 0x6c
    26b2:	6ee2      	ldr	r2, [r4, #108]	; 0x6c
    26b4:	6fe3      	ldr	r3, [r4, #124]	; 0x7c
    26b6:	429a      	cmp	r2, r3
    26b8:	db01      	blt.n	26be <AjK::MODSERIAL::isr_rx()+0x62>
    26ba:	2300      	movs	r3, #0
    26bc:	66e3      	str	r3, [r4, #108]	; 0x6c
    26be:	2358      	movs	r3, #88	; 0x58
    26c0:	4698      	mov	r8, r3
    26c2:	3340      	adds	r3, #64	; 0x40
    26c4:	58e3      	ldr	r3, [r4, r3]
    26c6:	44a0      	add	r8, r4
    26c8:	2b00      	cmp	r3, #0
    26ca:	d038      	beq.n	273e <AjK::MODSERIAL::isr_rx()+0xe2>
    26cc:	4640      	mov	r0, r8
    26ce:	4798      	blx	r3
    26d0:	2394      	movs	r3, #148	; 0x94
    26d2:	5ce2      	ldrb	r2, [r4, r3]
    26d4:	5d63      	ldrb	r3, [r4, r5]
    26d6:	429a      	cmp	r2, r3
    26d8:	d00e      	beq.n	26f8 <AjK::MODSERIAL::isr_rx()+0x9c>
    26da:	6de3      	ldr	r3, [r4, #92]	; 0x5c
    26dc:	791a      	ldrb	r2, [r3, #4]
    26de:	4217      	tst	r7, r2
    26e0:	d1d2      	bne.n	2688 <AjK::MODSERIAL::isr_rx()+0x2c>
    26e2:	bc04      	pop	{r2}
    26e4:	4690      	mov	r8, r2
    26e6:	bdf0      	pop	{r4, r5, r6, r7, pc}
    26e8:	2398      	movs	r3, #152	; 0x98
    26ea:	0020      	movs	r0, r4
    26ec:	58e3      	ldr	r3, [r4, r3]
    26ee:	3058      	adds	r0, #88	; 0x58
    26f0:	2b00      	cmp	r3, #0
    26f2:	d034      	beq.n	275e <AjK::MODSERIAL::isr_rx()+0x102>
    26f4:	4798      	blx	r3
    26f6:	e7f4      	b.n	26e2 <AjK::MODSERIAL::isr_rx()+0x86>
    26f8:	23e8      	movs	r3, #232	; 0xe8
    26fa:	58e3      	ldr	r3, [r4, r3]
    26fc:	2b00      	cmp	r3, #0
    26fe:	d03e      	beq.n	277e <AjK::MODSERIAL::isr_rx()+0x122>
    2700:	4640      	mov	r0, r8
    2702:	4798      	blx	r3
    2704:	6de3      	ldr	r3, [r4, #92]	; 0x5c
    2706:	e7e9      	b.n	26dc <AjK::MODSERIAL::isr_rx()+0x80>
    2708:	228c      	movs	r2, #140	; 0x8c
    270a:	5d63      	ldrb	r3, [r4, r5]
    270c:	b2db      	uxtb	r3, r3
    270e:	50a3      	str	r3, [r4, r2]
    2710:	2358      	movs	r3, #88	; 0x58
    2712:	4698      	mov	r8, r3
    2714:	3360      	adds	r3, #96	; 0x60
    2716:	58e3      	ldr	r3, [r4, r3]
    2718:	44a0      	add	r8, r4
    271a:	2b00      	cmp	r3, #0
    271c:	d1d6      	bne.n	26cc <AjK::MODSERIAL::isr_rx()+0x70>
    271e:	0021      	movs	r1, r4
    2720:	31b8      	adds	r1, #184	; 0xb8
    2722:	684b      	ldr	r3, [r1, #4]
    2724:	2b00      	cmp	r3, #0
    2726:	d0d3      	beq.n	26d0 <AjK::MODSERIAL::isr_rx()+0x74>
    2728:	688a      	ldr	r2, [r1, #8]
    272a:	68c8      	ldr	r0, [r1, #12]
    272c:	2a00      	cmp	r2, #0
    272e:	d00f      	beq.n	2750 <AjK::MODSERIAL::isr_rx()+0xf4>
    2730:	07c1      	lsls	r1, r0, #31
    2732:	d40f      	bmi.n	2754 <AjK::MODSERIAL::isr_rx()+0xf8>
    2734:	1040      	asrs	r0, r0, #1
    2736:	1818      	adds	r0, r3, r0
    2738:	4641      	mov	r1, r8
    273a:	4790      	blx	r2
    273c:	e7c8      	b.n	26d0 <AjK::MODSERIAL::isr_rx()+0x74>
    273e:	0021      	movs	r1, r4
    2740:	3198      	adds	r1, #152	; 0x98
    2742:	684b      	ldr	r3, [r1, #4]
    2744:	2b00      	cmp	r3, #0
    2746:	d0c3      	beq.n	26d0 <AjK::MODSERIAL::isr_rx()+0x74>
    2748:	688a      	ldr	r2, [r1, #8]
    274a:	68c8      	ldr	r0, [r1, #12]
    274c:	2a00      	cmp	r2, #0
    274e:	d1ef      	bne.n	2730 <AjK::MODSERIAL::isr_rx()+0xd4>
    2750:	07c1      	lsls	r1, r0, #31
    2752:	d5bd      	bpl.n	26d0 <AjK::MODSERIAL::isr_rx()+0x74>
    2754:	1040      	asrs	r0, r0, #1
    2756:	1818      	adds	r0, r3, r0
    2758:	6803      	ldr	r3, [r0, #0]
    275a:	589a      	ldr	r2, [r3, r2]
    275c:	e7ec      	b.n	2738 <AjK::MODSERIAL::isr_rx()+0xdc>
    275e:	3498      	adds	r4, #152	; 0x98
    2760:	6863      	ldr	r3, [r4, #4]
    2762:	2b00      	cmp	r3, #0
    2764:	d0bd      	beq.n	26e2 <AjK::MODSERIAL::isr_rx()+0x86>
    2766:	68a5      	ldr	r5, [r4, #8]
    2768:	68e2      	ldr	r2, [r4, #12]
    276a:	2d00      	cmp	r5, #0
    276c:	d018      	beq.n	27a0 <AjK::MODSERIAL::isr_rx()+0x144>
    276e:	07d1      	lsls	r1, r2, #31
    2770:	d418      	bmi.n	27a4 <AjK::MODSERIAL::isr_rx()+0x148>
    2772:	1052      	asrs	r2, r2, #1
    2774:	189b      	adds	r3, r3, r2
    2776:	0001      	movs	r1, r0
    2778:	0018      	movs	r0, r3
    277a:	47a8      	blx	r5
    277c:	e7b1      	b.n	26e2 <AjK::MODSERIAL::isr_rx()+0x86>
    277e:	0023      	movs	r3, r4
    2780:	33e8      	adds	r3, #232	; 0xe8
    2782:	6858      	ldr	r0, [r3, #4]
    2784:	2800      	cmp	r0, #0
    2786:	d0a8      	beq.n	26da <AjK::MODSERIAL::isr_rx()+0x7e>
    2788:	689a      	ldr	r2, [r3, #8]
    278a:	68db      	ldr	r3, [r3, #12]
    278c:	2a00      	cmp	r2, #0
    278e:	d00e      	beq.n	27ae <AjK::MODSERIAL::isr_rx()+0x152>
    2790:	07d9      	lsls	r1, r3, #31
    2792:	d40e      	bmi.n	27b2 <AjK::MODSERIAL::isr_rx()+0x156>
    2794:	105b      	asrs	r3, r3, #1
    2796:	18c0      	adds	r0, r0, r3
    2798:	4641      	mov	r1, r8
    279a:	4790      	blx	r2
    279c:	6de3      	ldr	r3, [r4, #92]	; 0x5c
    279e:	e79d      	b.n	26dc <AjK::MODSERIAL::isr_rx()+0x80>
    27a0:	07d1      	lsls	r1, r2, #31
    27a2:	d59e      	bpl.n	26e2 <AjK::MODSERIAL::isr_rx()+0x86>
    27a4:	1052      	asrs	r2, r2, #1
    27a6:	189b      	adds	r3, r3, r2
    27a8:	681a      	ldr	r2, [r3, #0]
    27aa:	5955      	ldr	r5, [r2, r5]
    27ac:	e7e3      	b.n	2776 <AjK::MODSERIAL::isr_rx()+0x11a>
    27ae:	07d9      	lsls	r1, r3, #31
    27b0:	d593      	bpl.n	26da <AjK::MODSERIAL::isr_rx()+0x7e>
    27b2:	105b      	asrs	r3, r3, #1
    27b4:	18c0      	adds	r0, r0, r3
    27b6:	6803      	ldr	r3, [r0, #0]
    27b8:	589a      	ldr	r2, [r3, r2]
    27ba:	e7ed      	b.n	2798 <AjK::MODSERIAL::isr_rx()+0x13c>

000027bc <mbed::SerialBase::~SerialBase()>:
    27bc:	4770      	bx	lr
    27be:	46c0      	nop			; (mov r8, r8)

000027c0 <mbed::SerialBase::~SerialBase()>:
    27c0:	b510      	push	{r4, lr}
    27c2:	0004      	movs	r4, r0
    27c4:	f001 fcfb 	bl	41be <operator delete(void*)>
    27c8:	0020      	movs	r0, r4
    27ca:	bd10      	pop	{r4, pc}

000027cc <AjK::MODSERIAL::~MODSERIAL()>:
    27cc:	4b15      	ldr	r3, [pc, #84]	; (2824 <AjK::MODSERIAL::~MODSERIAL()+0x58>)
    27ce:	b510      	push	{r4, lr}
    27d0:	001a      	movs	r2, r3
    27d2:	3208      	adds	r2, #8
    27d4:	6002      	str	r2, [r0, #0]
    27d6:	001a      	movs	r2, r3
    27d8:	3354      	adds	r3, #84	; 0x54
    27da:	6443      	str	r3, [r0, #68]	; 0x44
    27dc:	23f8      	movs	r3, #248	; 0xf8
    27de:	3220      	adds	r2, #32
    27e0:	6402      	str	r2, [r0, #64]	; 0x40
    27e2:	221f      	movs	r2, #31
    27e4:	5cc3      	ldrb	r3, [r0, r3]
    27e6:	0004      	movs	r4, r0
    27e8:	401a      	ands	r2, r3
    27ea:	2301      	movs	r3, #1
    27ec:	4093      	lsls	r3, r2
    27ee:	2280      	movs	r2, #128	; 0x80
    27f0:	490d      	ldr	r1, [pc, #52]	; (2828 <AjK::MODSERIAL::~MODSERIAL()+0x5c>)
    27f2:	6e40      	ldr	r0, [r0, #100]	; 0x64
    27f4:	508b      	str	r3, [r1, r2]
    27f6:	2800      	cmp	r0, #0
    27f8:	d001      	beq.n	27fe <AjK::MODSERIAL::~MODSERIAL()+0x32>
    27fa:	f7ff fecb 	bl	2594 <__wrap_free>
    27fe:	6ea0      	ldr	r0, [r4, #104]	; 0x68
    2800:	2800      	cmp	r0, #0
    2802:	d001      	beq.n	2808 <AjK::MODSERIAL::~MODSERIAL()+0x3c>
    2804:	f7ff fec6 	bl	2594 <__wrap_free>
    2808:	4b08      	ldr	r3, [pc, #32]	; (282c <AjK::MODSERIAL::~MODSERIAL()+0x60>)
    280a:	0020      	movs	r0, r4
    280c:	001a      	movs	r2, r3
    280e:	6023      	str	r3, [r4, #0]
    2810:	3218      	adds	r2, #24
    2812:	334c      	adds	r3, #76	; 0x4c
    2814:	6422      	str	r2, [r4, #64]	; 0x40
    2816:	6463      	str	r3, [r4, #68]	; 0x44
    2818:	3040      	adds	r0, #64	; 0x40
    281a:	f001 fc73 	bl	4104 <mbed::Stream::~Stream()>
    281e:	0020      	movs	r0, r4
    2820:	bd10      	pop	{r4, pc}
    2822:	46c0      	nop			; (mov r8, r8)
    2824:	000068c0 	.word	0x000068c0
    2828:	e000e100 	.word	0xe000e100
    282c:	00006b60 	.word	0x00006b60

00002830 <non-virtual thunk to AjK::MODSERIAL::~MODSERIAL()>:
    2830:	b408      	push	{r3}
    2832:	4b02      	ldr	r3, [pc, #8]	; (283c <non-virtual thunk to AjK::MODSERIAL::~MODSERIAL()+0xc>)
    2834:	469c      	mov	r12, r3
    2836:	3840      	subs	r0, #64	; 0x40
    2838:	bc08      	pop	{r3}
    283a:	4760      	bx	r12
    283c:	000027cd 	.word	0x000027cd

00002840 <non-virtual thunk to AjK::MODSERIAL::~MODSERIAL()>:
    2840:	b408      	push	{r3}
    2842:	4b02      	ldr	r3, [pc, #8]	; (284c <non-virtual thunk to AjK::MODSERIAL::~MODSERIAL()+0xc>)
    2844:	469c      	mov	r12, r3
    2846:	3844      	subs	r0, #68	; 0x44
    2848:	bc08      	pop	{r3}
    284a:	4760      	bx	r12
    284c:	000027cd 	.word	0x000027cd

00002850 <AjK::MODSERIAL::~MODSERIAL()>:
    2850:	b510      	push	{r4, lr}
    2852:	0004      	movs	r4, r0
    2854:	f7ff ffba 	bl	27cc <AjK::MODSERIAL::~MODSERIAL()>
    2858:	0020      	movs	r0, r4
    285a:	f001 fcb0 	bl	41be <operator delete(void*)>
    285e:	0020      	movs	r0, r4
    2860:	bd10      	pop	{r4, pc}
    2862:	46c0      	nop			; (mov r8, r8)

00002864 <non-virtual thunk to AjK::MODSERIAL::~MODSERIAL()>:
    2864:	b408      	push	{r3}
    2866:	4b02      	ldr	r3, [pc, #8]	; (2870 <non-virtual thunk to AjK::MODSERIAL::~MODSERIAL()+0xc>)
    2868:	469c      	mov	r12, r3
    286a:	3844      	subs	r0, #68	; 0x44
    286c:	bc08      	pop	{r3}
    286e:	4760      	bx	r12
    2870:	00002851 	.word	0x00002851

00002874 <non-virtual thunk to AjK::MODSERIAL::~MODSERIAL()>:
    2874:	b408      	push	{r3}
    2876:	4b02      	ldr	r3, [pc, #8]	; (2880 <non-virtual thunk to AjK::MODSERIAL::~MODSERIAL()+0xc>)
    2878:	469c      	mov	r12, r3
    287a:	3840      	subs	r0, #64	; 0x40
    287c:	bc08      	pop	{r3}
    287e:	4760      	bx	r12
    2880:	00002851 	.word	0x00002851

00002884 <AjK::MODSERIAL::_getc()>:
    2884:	b510      	push	{r4, lr}
    2886:	2101      	movs	r1, #1
    2888:	f7ff fea4 	bl	25d4 <AjK::MODSERIAL::__getc(bool)>
    288c:	bd10      	pop	{r4, pc}
    288e:	46c0      	nop			; (mov r8, r8)

00002890 <non-virtual thunk to AjK::MODSERIAL::_getc()>:
    2890:	b408      	push	{r3}
    2892:	4b02      	ldr	r3, [pc, #8]	; (289c <non-virtual thunk to AjK::MODSERIAL::_getc()+0xc>)
    2894:	469c      	mov	r12, r3
    2896:	3840      	subs	r0, #64	; 0x40
    2898:	bc08      	pop	{r3}
    289a:	4760      	bx	r12
    289c:	00002885 	.word	0x00002885

000028a0 <AjK::MODSERIAL::_putc(int)>:
    28a0:	b510      	push	{r4, lr}
    28a2:	2201      	movs	r2, #1
    28a4:	f000 f838 	bl	2918 <AjK::MODSERIAL::__putc(int, bool)>
    28a8:	bd10      	pop	{r4, pc}
    28aa:	46c0      	nop			; (mov r8, r8)

000028ac <non-virtual thunk to AjK::MODSERIAL::_putc(int)>:
    28ac:	b408      	push	{r3}
    28ae:	4b02      	ldr	r3, [pc, #8]	; (28b8 <non-virtual thunk to AjK::MODSERIAL::_putc(int)+0xc>)
    28b0:	469c      	mov	r12, r3
    28b2:	3840      	subs	r0, #64	; 0x40
    28b4:	bc08      	pop	{r3}
    28b6:	4760      	bx	r12
    28b8:	000028a1 	.word	0x000028a1

000028bc <AjK::MODSERIAL::MODSERIAL(PinName, PinName, char const*)>:
    28bc:	b570      	push	{r4, r5, r6, lr}
    28be:	0004      	movs	r4, r0
    28c0:	0015      	movs	r5, r2
    28c2:	f001 fbb3 	bl	402c <mbed::Serial::Serial(PinName, PinName, char const*)>
    28c6:	4b10      	ldr	r3, [pc, #64]	; (2908 <AjK::MODSERIAL::MODSERIAL(PinName, PinName, char const*)+0x4c>)
    28c8:	0021      	movs	r1, r4
    28ca:	001a      	movs	r2, r3
    28cc:	3208      	adds	r2, #8
    28ce:	6022      	str	r2, [r4, #0]
    28d0:	001a      	movs	r2, r3
    28d2:	3354      	adds	r3, #84	; 0x54
    28d4:	6463      	str	r3, [r4, #68]	; 0x44
    28d6:	2300      	movs	r3, #0
    28d8:	3220      	adds	r2, #32
    28da:	65a3      	str	r3, [r4, #88]	; 0x58
    28dc:	0023      	movs	r3, r4
    28de:	6422      	str	r2, [r4, #64]	; 0x40
    28e0:	2200      	movs	r2, #0
    28e2:	3398      	adds	r3, #152	; 0x98
    28e4:	31f8      	adds	r1, #248	; 0xf8
    28e6:	601a      	str	r2, [r3, #0]
    28e8:	605a      	str	r2, [r3, #4]
    28ea:	609a      	str	r2, [r3, #8]
    28ec:	60da      	str	r2, [r3, #12]
    28ee:	3310      	adds	r3, #16
    28f0:	428b      	cmp	r3, r1
    28f2:	d1f8      	bne.n	28e6 <AjK::MODSERIAL::MODSERIAL(PinName, PinName, char const*)+0x2a>
    28f4:	2280      	movs	r2, #128	; 0x80
    28f6:	0052      	lsls	r2, r2, #1
    28f8:	002b      	movs	r3, r5
    28fa:	0020      	movs	r0, r4
    28fc:	0011      	movs	r1, r2
    28fe:	f000 f8b1 	bl	2a64 <AjK::MODSERIAL::init(int, int, PinName)>
    2902:	0020      	movs	r0, r4
    2904:	bd70      	pop	{r4, r5, r6, pc}
    2906:	46c0      	nop			; (mov r8, r8)
    2908:	000068c0 	.word	0x000068c0

0000290c <AjK::MODSERIAL::rxBufferEmpty()>:
    290c:	2384      	movs	r3, #132	; 0x84
    290e:	58c0      	ldr	r0, [r0, r3]
    2910:	4243      	negs	r3, r0
    2912:	4158      	adcs	r0, r3
    2914:	b2c0      	uxtb	r0, r0
    2916:	4770      	bx	lr

00002918 <AjK::MODSERIAL::__putc(int, bool)>:
    2918:	b5f0      	push	{r4, r5, r6, r7, lr}
    291a:	4647      	mov	r7, r8
    291c:	6e83      	ldr	r3, [r0, #104]	; 0x68
    291e:	b480      	push	{r7}
    2920:	0004      	movs	r4, r0
    2922:	000d      	movs	r5, r1
    2924:	2b00      	cmp	r3, #0
    2926:	d003      	beq.n	2930 <AjK::MODSERIAL::__putc(int, bool)+0x18>
    2928:	2380      	movs	r3, #128	; 0x80
    292a:	58c3      	ldr	r3, [r0, r3]
    292c:	2b00      	cmp	r3, #0
    292e:	d10a      	bne.n	2946 <AjK::MODSERIAL::__putc(int, bool)+0x2e>
    2930:	6de2      	ldr	r2, [r4, #92]	; 0x5c
    2932:	7913      	ldrb	r3, [r2, #4]
    2934:	b25b      	sxtb	r3, r3
    2936:	2b00      	cmp	r3, #0
    2938:	dafb      	bge.n	2932 <AjK::MODSERIAL::__putc(int, bool)+0x1a>
    293a:	2000      	movs	r0, #0
    293c:	b2ed      	uxtb	r5, r5
    293e:	71d5      	strb	r5, [r2, #7]
    2940:	bc04      	pop	{r2}
    2942:	4690      	mov	r8, r2
    2944:	bdf0      	pop	{r4, r5, r6, r7, pc}
    2946:	6dc3      	ldr	r3, [r0, #92]	; 0x5c
    2948:	7919      	ldrb	r1, [r3, #4]
    294a:	b249      	sxtb	r1, r1
    294c:	2900      	cmp	r1, #0
    294e:	db3d      	blt.n	29cc <AjK::MODSERIAL::__putc(int, bool)+0xb4>
    2950:	2a00      	cmp	r2, #0
    2952:	d042      	beq.n	29da <AjK::MODSERIAL::__putc(int, bool)+0xc2>
    2954:	217f      	movs	r1, #127	; 0x7f
    2956:	78da      	ldrb	r2, [r3, #3]
    2958:	2788      	movs	r7, #136	; 0x88
    295a:	b2d2      	uxtb	r2, r2
    295c:	4690      	mov	r8, r2
    295e:	78da      	ldrb	r2, [r3, #3]
    2960:	2680      	movs	r6, #128	; 0x80
    2962:	400a      	ands	r2, r1
    2964:	70da      	strb	r2, [r3, #3]
    2966:	2388      	movs	r3, #136	; 0x88
    2968:	58e2      	ldr	r2, [r4, r3]
    296a:	3b08      	subs	r3, #8
    296c:	58e3      	ldr	r3, [r4, r3]
    296e:	429a      	cmp	r2, r3
    2970:	d107      	bne.n	2982 <AjK::MODSERIAL::__putc(int, bool)+0x6a>
    2972:	2100      	movs	r1, #0
    2974:	0020      	movs	r0, r4
    2976:	f000 f8f3 	bl	2b60 <AjK::MODSERIAL::isr_tx(bool)>
    297a:	59e2      	ldr	r2, [r4, r7]
    297c:	59a3      	ldr	r3, [r4, r6]
    297e:	429a      	cmp	r2, r3
    2980:	d0f7      	beq.n	2972 <AjK::MODSERIAL::__putc(int, bool)+0x5a>
    2982:	4642      	mov	r2, r8
    2984:	6de3      	ldr	r3, [r4, #92]	; 0x5c
    2986:	70da      	strb	r2, [r3, #3]
    2988:	6de3      	ldr	r3, [r4, #92]	; 0x5c
    298a:	217f      	movs	r1, #127	; 0x7f
    298c:	78da      	ldrb	r2, [r3, #3]
    298e:	b2ed      	uxtb	r5, r5
    2990:	400a      	ands	r2, r1
    2992:	70da      	strb	r2, [r3, #3]
    2994:	6ea2      	ldr	r2, [r4, #104]	; 0x68
    2996:	6f23      	ldr	r3, [r4, #112]	; 0x70
    2998:	4694      	mov	r12, r2
    299a:	4463      	add	r3, r12
    299c:	701d      	strb	r5, [r3, #0]
    299e:	b672      	cpsid	i
    29a0:	2288      	movs	r2, #136	; 0x88
    29a2:	58a3      	ldr	r3, [r4, r2]
    29a4:	3301      	adds	r3, #1
    29a6:	50a3      	str	r3, [r4, r2]
    29a8:	b662      	cpsie	i
    29aa:	6f23      	ldr	r3, [r4, #112]	; 0x70
    29ac:	3301      	adds	r3, #1
    29ae:	6723      	str	r3, [r4, #112]	; 0x70
    29b0:	2380      	movs	r3, #128	; 0x80
    29b2:	6f22      	ldr	r2, [r4, #112]	; 0x70
    29b4:	58e3      	ldr	r3, [r4, r3]
    29b6:	429a      	cmp	r2, r3
    29b8:	db01      	blt.n	29be <AjK::MODSERIAL::__putc(int, bool)+0xa6>
    29ba:	2300      	movs	r3, #0
    29bc:	6723      	str	r3, [r4, #112]	; 0x70
    29be:	2380      	movs	r3, #128	; 0x80
    29c0:	6de2      	ldr	r2, [r4, #92]	; 0x5c
    29c2:	2000      	movs	r0, #0
    29c4:	78d1      	ldrb	r1, [r2, #3]
    29c6:	430b      	orrs	r3, r1
    29c8:	70d3      	strb	r3, [r2, #3]
    29ca:	e7b9      	b.n	2940 <AjK::MODSERIAL::__putc(int, bool)+0x28>
    29cc:	2188      	movs	r1, #136	; 0x88
    29ce:	5840      	ldr	r0, [r0, r1]
    29d0:	2800      	cmp	r0, #0
    29d2:	d1bd      	bne.n	2950 <AjK::MODSERIAL::__putc(int, bool)+0x38>
    29d4:	b2ed      	uxtb	r5, r5
    29d6:	71dd      	strb	r5, [r3, #7]
    29d8:	e7b2      	b.n	2940 <AjK::MODSERIAL::__putc(int, bool)+0x28>
    29da:	2288      	movs	r2, #136	; 0x88
    29dc:	58a1      	ldr	r1, [r4, r2]
    29de:	3a08      	subs	r2, #8
    29e0:	58a2      	ldr	r2, [r4, r2]
    29e2:	4291      	cmp	r1, r2
    29e4:	d1d1      	bne.n	298a <AjK::MODSERIAL::__putc(int, bool)+0x72>
    29e6:	2390      	movs	r3, #144	; 0x90
    29e8:	0020      	movs	r0, r4
    29ea:	50e5      	str	r5, [r4, r3]
    29ec:	3338      	adds	r3, #56	; 0x38
    29ee:	58e3      	ldr	r3, [r4, r3]
    29f0:	3058      	adds	r0, #88	; 0x58
    29f2:	2b00      	cmp	r3, #0
    29f4:	d003      	beq.n	29fe <AjK::MODSERIAL::__putc(int, bool)+0xe6>
    29f6:	4798      	blx	r3
    29f8:	2001      	movs	r0, #1
    29fa:	4240      	negs	r0, r0
    29fc:	e7a0      	b.n	2940 <AjK::MODSERIAL::__putc(int, bool)+0x28>
    29fe:	34c8      	adds	r4, #200	; 0xc8
    2a00:	6862      	ldr	r2, [r4, #4]
    2a02:	2a00      	cmp	r2, #0
    2a04:	d014      	beq.n	2a30 <AjK::MODSERIAL::__putc(int, bool)+0x118>
    2a06:	68a5      	ldr	r5, [r4, #8]
    2a08:	68e3      	ldr	r3, [r4, #12]
    2a0a:	2d00      	cmp	r5, #0
    2a0c:	d00e      	beq.n	2a2c <AjK::MODSERIAL::__putc(int, bool)+0x114>
    2a0e:	07d9      	lsls	r1, r3, #31
    2a10:	d407      	bmi.n	2a22 <AjK::MODSERIAL::__putc(int, bool)+0x10a>
    2a12:	105b      	asrs	r3, r3, #1
    2a14:	18d3      	adds	r3, r2, r3
    2a16:	0001      	movs	r1, r0
    2a18:	0018      	movs	r0, r3
    2a1a:	47a8      	blx	r5
    2a1c:	2001      	movs	r0, #1
    2a1e:	4240      	negs	r0, r0
    2a20:	e78e      	b.n	2940 <AjK::MODSERIAL::__putc(int, bool)+0x28>
    2a22:	105b      	asrs	r3, r3, #1
    2a24:	18d3      	adds	r3, r2, r3
    2a26:	681a      	ldr	r2, [r3, #0]
    2a28:	5955      	ldr	r5, [r2, r5]
    2a2a:	e7f4      	b.n	2a16 <AjK::MODSERIAL::__putc(int, bool)+0xfe>
    2a2c:	07d9      	lsls	r1, r3, #31
    2a2e:	d4f8      	bmi.n	2a22 <AjK::MODSERIAL::__putc(int, bool)+0x10a>
    2a30:	2001      	movs	r0, #1
    2a32:	4240      	negs	r0, r0
    2a34:	e784      	b.n	2940 <AjK::MODSERIAL::__putc(int, bool)+0x28>
    2a36:	46c0      	nop			; (mov r8, r8)

00002a38 <void mbed::FunctionPointerArg1<void, void>::membercaller<AjK::MODSERIAL>(void*, unsigned int*)>:
    2a38:	684b      	ldr	r3, [r1, #4]
    2a3a:	b510      	push	{r4, lr}
    2a3c:	07da      	lsls	r2, r3, #31
    2a3e:	d506      	bpl.n	2a4e <void mbed::FunctionPointerArg1<void, void>::membercaller<AjK::MODSERIAL>(void*, unsigned int*)+0x16>
    2a40:	105b      	asrs	r3, r3, #1
    2a42:	18c0      	adds	r0, r0, r3
    2a44:	6802      	ldr	r2, [r0, #0]
    2a46:	680b      	ldr	r3, [r1, #0]
    2a48:	58d2      	ldr	r2, [r2, r3]
    2a4a:	4790      	blx	r2
    2a4c:	bd10      	pop	{r4, pc}
    2a4e:	105b      	asrs	r3, r3, #1
    2a50:	680a      	ldr	r2, [r1, #0]
    2a52:	18c0      	adds	r0, r0, r3
    2a54:	e7f9      	b.n	2a4a <void mbed::FunctionPointerArg1<void, void>::membercaller<AjK::MODSERIAL>(void*, unsigned int*)+0x12>
    2a56:	46c0      	nop			; (mov r8, r8)

00002a58 <AjK::MODSERIAL::isr_tx()>:
    2a58:	b510      	push	{r4, lr}
    2a5a:	2101      	movs	r1, #1
    2a5c:	f000 f880 	bl	2b60 <AjK::MODSERIAL::isr_tx(bool)>
    2a60:	bd10      	pop	{r4, pc}
    2a62:	46c0      	nop			; (mov r8, r8)

00002a64 <AjK::MODSERIAL::init(int, int, PinName)>:
    2a64:	23f8      	movs	r3, #248	; 0xf8
    2a66:	b570      	push	{r4, r5, r6, lr}
    2a68:	0016      	movs	r6, r2
    2a6a:	221f      	movs	r2, #31
    2a6c:	5cc3      	ldrb	r3, [r0, r3]
    2a6e:	0004      	movs	r4, r0
    2a70:	401a      	ands	r2, r3
    2a72:	2301      	movs	r3, #1
    2a74:	4093      	lsls	r3, r2
    2a76:	2280      	movs	r2, #128	; 0x80
    2a78:	000d      	movs	r5, r1
    2a7a:	4934      	ldr	r1, [pc, #208]	; (2b4c <AjK::MODSERIAL::init(int, int, PinName)+0xe8>)
    2a7c:	508b      	str	r3, [r1, r2]
    2a7e:	f000 f907 	bl	2c90 <AjK::MODSERIAL::setBase()>
    2a82:	6de3      	ldr	r3, [r4, #92]	; 0x5c
    2a84:	65a4      	str	r4, [r4, #88]	; 0x58
    2a86:	2b00      	cmp	r3, #0
    2a88:	d05b      	beq.n	2b42 <AjK::MODSERIAL::init(int, int, PinName)+0xde>
    2a8a:	67e6      	str	r6, [r4, #124]	; 0x7c
    2a8c:	2000      	movs	r0, #0
    2a8e:	2e00      	cmp	r6, #0
    2a90:	dd02      	ble.n	2a98 <AjK::MODSERIAL::init(int, int, PinName)+0x34>
    2a92:	6fe0      	ldr	r0, [r4, #124]	; 0x7c
    2a94:	f7ff fd76 	bl	2584 <__wrap_malloc>
    2a98:	2300      	movs	r3, #0
    2a9a:	2284      	movs	r2, #132	; 0x84
    2a9c:	66e3      	str	r3, [r4, #108]	; 0x6c
    2a9e:	6660      	str	r0, [r4, #100]	; 0x64
    2aa0:	6763      	str	r3, [r4, #116]	; 0x74
    2aa2:	50a3      	str	r3, [r4, r2]
    2aa4:	3208      	adds	r2, #8
    2aa6:	50a3      	str	r3, [r4, r2]
    2aa8:	2c00      	cmp	r4, #0
    2aaa:	d03e      	beq.n	2b2a <AjK::MODSERIAL::init(int, int, PinName)+0xc6>
    2aac:	4a28      	ldr	r2, [pc, #160]	; (2b50 <AjK::MODSERIAL::init(int, int, PinName)+0xec>)
    2aae:	6163      	str	r3, [r4, #20]
    2ab0:	4b28      	ldr	r3, [pc, #160]	; (2b54 <AjK::MODSERIAL::init(int, int, PinName)+0xf0>)
    2ab2:	1d26      	adds	r6, r4, #4
    2ab4:	6122      	str	r2, [r4, #16]
    2ab6:	6223      	str	r3, [r4, #32]
    2ab8:	60e4      	str	r4, [r4, #12]
    2aba:	2201      	movs	r2, #1
    2abc:	2100      	movs	r1, #0
    2abe:	0030      	movs	r0, r6
    2ac0:	f000 feec 	bl	389c <serial_irq_set>
    2ac4:	2380      	movs	r3, #128	; 0x80
    2ac6:	50e5      	str	r5, [r4, r3]
    2ac8:	2d00      	cmp	r5, #0
    2aca:	dd38      	ble.n	2b3e <AjK::MODSERIAL::init(int, int, PinName)+0xda>
    2acc:	58e0      	ldr	r0, [r4, r3]
    2ace:	f7ff fd59 	bl	2584 <__wrap_malloc>
    2ad2:	2300      	movs	r3, #0
    2ad4:	2288      	movs	r2, #136	; 0x88
    2ad6:	6723      	str	r3, [r4, #112]	; 0x70
    2ad8:	66a0      	str	r0, [r4, #104]	; 0x68
    2ada:	67a3      	str	r3, [r4, #120]	; 0x78
    2adc:	50a3      	str	r3, [r4, r2]
    2ade:	3208      	adds	r2, #8
    2ae0:	50a3      	str	r3, [r4, r2]
    2ae2:	4a1d      	ldr	r2, [pc, #116]	; (2b58 <AjK::MODSERIAL::init(int, int, PinName)+0xf4>)
    2ae4:	2a00      	cmp	r2, #0
    2ae6:	d01a      	beq.n	2b1e <AjK::MODSERIAL::init(int, int, PinName)+0xba>
    2ae8:	2c00      	cmp	r4, #0
    2aea:	d018      	beq.n	2b1e <AjK::MODSERIAL::init(int, int, PinName)+0xba>
    2aec:	62e3      	str	r3, [r4, #44]	; 0x2c
    2aee:	4b19      	ldr	r3, [pc, #100]	; (2b54 <AjK::MODSERIAL::init(int, int, PinName)+0xf0>)
    2af0:	62a2      	str	r2, [r4, #40]	; 0x28
    2af2:	6264      	str	r4, [r4, #36]	; 0x24
    2af4:	63a3      	str	r3, [r4, #56]	; 0x38
    2af6:	2201      	movs	r2, #1
    2af8:	2101      	movs	r1, #1
    2afa:	0030      	movs	r0, r6
    2afc:	f000 fece 	bl	389c <serial_irq_set>
    2b00:	0020      	movs	r0, r4
    2b02:	f000 f8e9 	bl	2cd8 <AjK::MODSERIAL::initDevice()>
    2b06:	2200      	movs	r2, #0
    2b08:	2394      	movs	r3, #148	; 0x94
    2b0a:	54e2      	strb	r2, [r4, r3]
    2b0c:	3364      	adds	r3, #100	; 0x64
    2b0e:	5ce3      	ldrb	r3, [r4, r3]
    2b10:	321f      	adds	r2, #31
    2b12:	401a      	ands	r2, r3
    2b14:	2301      	movs	r3, #1
    2b16:	4093      	lsls	r3, r2
    2b18:	4a0c      	ldr	r2, [pc, #48]	; (2b4c <AjK::MODSERIAL::init(int, int, PinName)+0xe8>)
    2b1a:	6013      	str	r3, [r2, #0]
    2b1c:	bd70      	pop	{r4, r5, r6, pc}
    2b1e:	2200      	movs	r2, #0
    2b20:	2101      	movs	r1, #1
    2b22:	0030      	movs	r0, r6
    2b24:	f000 feba 	bl	389c <serial_irq_set>
    2b28:	e7ea      	b.n	2b00 <AjK::MODSERIAL::init(int, int, PinName)+0x9c>
    2b2a:	2200      	movs	r2, #0
    2b2c:	2100      	movs	r1, #0
    2b2e:	2004      	movs	r0, #4
    2b30:	f000 feb4 	bl	389c <serial_irq_set>
    2b34:	2380      	movs	r3, #128	; 0x80
    2b36:	2604      	movs	r6, #4
    2b38:	50e5      	str	r5, [r4, r3]
    2b3a:	2d00      	cmp	r5, #0
    2b3c:	dcc6      	bgt.n	2acc <AjK::MODSERIAL::init(int, int, PinName)+0x68>
    2b3e:	2000      	movs	r0, #0
    2b40:	e7c7      	b.n	2ad2 <AjK::MODSERIAL::init(int, int, PinName)+0x6e>
    2b42:	4806      	ldr	r0, [pc, #24]	; (2b5c <AjK::MODSERIAL::init(int, int, PinName)+0xf8>)
    2b44:	f000 f8e2 	bl	2d0c <error>
    2b48:	e7da      	b.n	2b00 <AjK::MODSERIAL::init(int, int, PinName)+0x9c>
    2b4a:	46c0      	nop			; (mov r8, r8)
    2b4c:	e000e100 	.word	0xe000e100
    2b50:	0000265d 	.word	0x0000265d
    2b54:	00002a39 	.word	0x00002a39
    2b58:	00002a59 	.word	0x00002a59
    2b5c:	0000691c 	.word	0x0000691c

00002b60 <AjK::MODSERIAL::isr_tx(bool)>:
    2b60:	b5f8      	push	{r3, r4, r5, r6, r7, lr}
    2b62:	4646      	mov	r6, r8
    2b64:	464f      	mov	r7, r9
    2b66:	b4c0      	push	{r6, r7}
    2b68:	6dc2      	ldr	r2, [r0, #92]	; 0x5c
    2b6a:	0004      	movs	r4, r0
    2b6c:	78d3      	ldrb	r3, [r2, #3]
    2b6e:	000e      	movs	r6, r1
    2b70:	b25b      	sxtb	r3, r3
    2b72:	2b00      	cmp	r3, #0
    2b74:	db09      	blt.n	2b8a <AjK::MODSERIAL::isr_tx(bool)+0x2a>
    2b76:	2388      	movs	r3, #136	; 0x88
    2b78:	58c1      	ldr	r1, [r0, r3]
    2b7a:	3b08      	subs	r3, #8
    2b7c:	58c3      	ldr	r3, [r0, r3]
    2b7e:	4299      	cmp	r1, r3
    2b80:	d003      	beq.n	2b8a <AjK::MODSERIAL::isr_tx(bool)+0x2a>
    2b82:	bc0c      	pop	{r2, r3}
    2b84:	4690      	mov	r8, r2
    2b86:	4699      	mov	r9, r3
    2b88:	bdf8      	pop	{r3, r4, r5, r6, r7, pc}
    2b8a:	2a00      	cmp	r2, #0
    2b8c:	d024      	beq.n	2bd8 <AjK::MODSERIAL::isr_tx(bool)+0x78>
    2b8e:	2380      	movs	r3, #128	; 0x80
    2b90:	58e3      	ldr	r3, [r4, r3]
    2b92:	2b00      	cmp	r3, #0
    2b94:	d020      	beq.n	2bd8 <AjK::MODSERIAL::isr_tx(bool)+0x78>
    2b96:	6ea3      	ldr	r3, [r4, #104]	; 0x68
    2b98:	2b00      	cmp	r3, #0
    2b9a:	d01d      	beq.n	2bd8 <AjK::MODSERIAL::isr_tx(bool)+0x78>
    2b9c:	2360      	movs	r3, #96	; 0x60
    2b9e:	2588      	movs	r5, #136	; 0x88
    2ba0:	4698      	mov	r8, r3
    2ba2:	2780      	movs	r7, #128	; 0x80
    2ba4:	2200      	movs	r2, #0
    2ba6:	5963      	ldr	r3, [r4, r5]
    2ba8:	2b00      	cmp	r3, #0
    2baa:	d004      	beq.n	2bb6 <AjK::MODSERIAL::isr_tx(bool)+0x56>
    2bac:	6de1      	ldr	r1, [r4, #92]	; 0x5c
    2bae:	790b      	ldrb	r3, [r1, #4]
    2bb0:	b25b      	sxtb	r3, r3
    2bb2:	2b00      	cmp	r3, #0
    2bb4:	db26      	blt.n	2c04 <AjK::MODSERIAL::isr_tx(bool)+0xa4>
    2bb6:	2388      	movs	r3, #136	; 0x88
    2bb8:	58e3      	ldr	r3, [r4, r3]
    2bba:	2b00      	cmp	r3, #0
    2bbc:	d1e1      	bne.n	2b82 <AjK::MODSERIAL::isr_tx(bool)+0x22>
    2bbe:	217f      	movs	r1, #127	; 0x7f
    2bc0:	6de2      	ldr	r2, [r4, #92]	; 0x5c
    2bc2:	0020      	movs	r0, r4
    2bc4:	78d3      	ldrb	r3, [r2, #3]
    2bc6:	3058      	adds	r0, #88	; 0x58
    2bc8:	400b      	ands	r3, r1
    2bca:	70d3      	strb	r3, [r2, #3]
    2bcc:	23d8      	movs	r3, #216	; 0xd8
    2bce:	58e3      	ldr	r3, [r4, r3]
    2bd0:	2b00      	cmp	r3, #0
    2bd2:	d035      	beq.n	2c40 <AjK::MODSERIAL::isr_tx(bool)+0xe0>
    2bd4:	4798      	blx	r3
    2bd6:	e7d4      	b.n	2b82 <AjK::MODSERIAL::isr_tx(bool)+0x22>
    2bd8:	23a8      	movs	r3, #168	; 0xa8
    2bda:	0020      	movs	r0, r4
    2bdc:	58e3      	ldr	r3, [r4, r3]
    2bde:	3058      	adds	r0, #88	; 0x58
    2be0:	2b00      	cmp	r3, #0
    2be2:	d1f7      	bne.n	2bd4 <AjK::MODSERIAL::isr_tx(bool)+0x74>
    2be4:	34a8      	adds	r4, #168	; 0xa8
    2be6:	6863      	ldr	r3, [r4, #4]
    2be8:	2b00      	cmp	r3, #0
    2bea:	d0ca      	beq.n	2b82 <AjK::MODSERIAL::isr_tx(bool)+0x22>
    2bec:	68a5      	ldr	r5, [r4, #8]
    2bee:	68e2      	ldr	r2, [r4, #12]
    2bf0:	2d00      	cmp	r5, #0
    2bf2:	d03c      	beq.n	2c6e <AjK::MODSERIAL::isr_tx(bool)+0x10e>
    2bf4:	07d1      	lsls	r1, r2, #31
    2bf6:	d43d      	bmi.n	2c74 <AjK::MODSERIAL::isr_tx(bool)+0x114>
    2bf8:	1052      	asrs	r2, r2, #1
    2bfa:	189b      	adds	r3, r3, r2
    2bfc:	0001      	movs	r1, r0
    2bfe:	0018      	movs	r0, r3
    2c00:	47a8      	blx	r5
    2c02:	e7be      	b.n	2b82 <AjK::MODSERIAL::isr_tx(bool)+0x22>
    2c04:	6ea0      	ldr	r0, [r4, #104]	; 0x68
    2c06:	6fa3      	ldr	r3, [r4, #120]	; 0x78
    2c08:	4684      	mov	r12, r0
    2c0a:	4640      	mov	r0, r8
    2c0c:	4463      	add	r3, r12
    2c0e:	781b      	ldrb	r3, [r3, #0]
    2c10:	b2db      	uxtb	r3, r3
    2c12:	5423      	strb	r3, [r4, r0]
    2c14:	71cb      	strb	r3, [r1, #7]
    2c16:	5963      	ldr	r3, [r4, r5]
    2c18:	3b01      	subs	r3, #1
    2c1a:	5163      	str	r3, [r4, r5]
    2c1c:	6fa3      	ldr	r3, [r4, #120]	; 0x78
    2c1e:	3301      	adds	r3, #1
    2c20:	67a3      	str	r3, [r4, #120]	; 0x78
    2c22:	6fa1      	ldr	r1, [r4, #120]	; 0x78
    2c24:	59e3      	ldr	r3, [r4, r7]
    2c26:	4299      	cmp	r1, r3
    2c28:	db00      	blt.n	2c2c <AjK::MODSERIAL::isr_tx(bool)+0xcc>
    2c2a:	67a2      	str	r2, [r4, #120]	; 0x78
    2c2c:	2e00      	cmp	r6, #0
    2c2e:	d0ba      	beq.n	2ba6 <AjK::MODSERIAL::isr_tx(bool)+0x46>
    2c30:	23a8      	movs	r3, #168	; 0xa8
    2c32:	0020      	movs	r0, r4
    2c34:	58e3      	ldr	r3, [r4, r3]
    2c36:	3058      	adds	r0, #88	; 0x58
    2c38:	2b00      	cmp	r3, #0
    2c3a:	d006      	beq.n	2c4a <AjK::MODSERIAL::isr_tx(bool)+0xea>
    2c3c:	4798      	blx	r3
    2c3e:	e7b1      	b.n	2ba4 <AjK::MODSERIAL::isr_tx(bool)+0x44>
    2c40:	34d8      	adds	r4, #216	; 0xd8
    2c42:	6863      	ldr	r3, [r4, #4]
    2c44:	2b00      	cmp	r3, #0
    2c46:	d1d1      	bne.n	2bec <AjK::MODSERIAL::isr_tx(bool)+0x8c>
    2c48:	e79b      	b.n	2b82 <AjK::MODSERIAL::isr_tx(bool)+0x22>
    2c4a:	0022      	movs	r2, r4
    2c4c:	32a8      	adds	r2, #168	; 0xa8
    2c4e:	6853      	ldr	r3, [r2, #4]
    2c50:	2b00      	cmp	r3, #0
    2c52:	d0a7      	beq.n	2ba4 <AjK::MODSERIAL::isr_tx(bool)+0x44>
    2c54:	6891      	ldr	r1, [r2, #8]
    2c56:	68d2      	ldr	r2, [r2, #12]
    2c58:	4689      	mov	r9, r1
    2c5a:	2900      	cmp	r1, #0
    2c5c:	d00f      	beq.n	2c7e <AjK::MODSERIAL::isr_tx(bool)+0x11e>
    2c5e:	07d1      	lsls	r1, r2, #31
    2c60:	d40f      	bmi.n	2c82 <AjK::MODSERIAL::isr_tx(bool)+0x122>
    2c62:	1052      	asrs	r2, r2, #1
    2c64:	189b      	adds	r3, r3, r2
    2c66:	0001      	movs	r1, r0
    2c68:	0018      	movs	r0, r3
    2c6a:	47c8      	blx	r9
    2c6c:	e79a      	b.n	2ba4 <AjK::MODSERIAL::isr_tx(bool)+0x44>
    2c6e:	07d1      	lsls	r1, r2, #31
    2c70:	d400      	bmi.n	2c74 <AjK::MODSERIAL::isr_tx(bool)+0x114>
    2c72:	e786      	b.n	2b82 <AjK::MODSERIAL::isr_tx(bool)+0x22>
    2c74:	1052      	asrs	r2, r2, #1
    2c76:	189b      	adds	r3, r3, r2
    2c78:	681a      	ldr	r2, [r3, #0]
    2c7a:	5955      	ldr	r5, [r2, r5]
    2c7c:	e7be      	b.n	2bfc <AjK::MODSERIAL::isr_tx(bool)+0x9c>
    2c7e:	07d1      	lsls	r1, r2, #31
    2c80:	d590      	bpl.n	2ba4 <AjK::MODSERIAL::isr_tx(bool)+0x44>
    2c82:	4649      	mov	r1, r9
    2c84:	1052      	asrs	r2, r2, #1
    2c86:	189b      	adds	r3, r3, r2
    2c88:	681a      	ldr	r2, [r3, #0]
    2c8a:	5852      	ldr	r2, [r2, r1]
    2c8c:	4691      	mov	r9, r2
    2c8e:	e7ea      	b.n	2c66 <AjK::MODSERIAL::isr_tx(bool)+0x106>

00002c90 <AjK::MODSERIAL::setBase()>:
    2c90:	6883      	ldr	r3, [r0, #8]
    2c92:	2b01      	cmp	r3, #1
    2c94:	d014      	beq.n	2cc0 <AjK::MODSERIAL::setBase()+0x30>
    2c96:	2b02      	cmp	r3, #2
    2c98:	d00c      	beq.n	2cb4 <AjK::MODSERIAL::setBase()+0x24>
    2c9a:	2b00      	cmp	r3, #0
    2c9c:	d004      	beq.n	2ca8 <AjK::MODSERIAL::setBase()+0x18>
    2c9e:	2300      	movs	r3, #0
    2ca0:	22f8      	movs	r2, #248	; 0xf8
    2ca2:	65c3      	str	r3, [r0, #92]	; 0x5c
    2ca4:	5483      	strb	r3, [r0, r2]
    2ca6:	4770      	bx	lr
    2ca8:	4b08      	ldr	r3, [pc, #32]	; (2ccc <AjK::MODSERIAL::setBase()+0x3c>)
    2caa:	220c      	movs	r2, #12
    2cac:	65c3      	str	r3, [r0, #92]	; 0x5c
    2cae:	23f8      	movs	r3, #248	; 0xf8
    2cb0:	54c2      	strb	r2, [r0, r3]
    2cb2:	e7f8      	b.n	2ca6 <AjK::MODSERIAL::setBase()+0x16>
    2cb4:	4b06      	ldr	r3, [pc, #24]	; (2cd0 <AjK::MODSERIAL::setBase()+0x40>)
    2cb6:	220e      	movs	r2, #14
    2cb8:	65c3      	str	r3, [r0, #92]	; 0x5c
    2cba:	23f8      	movs	r3, #248	; 0xf8
    2cbc:	54c2      	strb	r2, [r0, r3]
    2cbe:	e7f2      	b.n	2ca6 <AjK::MODSERIAL::setBase()+0x16>
    2cc0:	4b04      	ldr	r3, [pc, #16]	; (2cd4 <AjK::MODSERIAL::setBase()+0x44>)
    2cc2:	220d      	movs	r2, #13
    2cc4:	65c3      	str	r3, [r0, #92]	; 0x5c
    2cc6:	23f8      	movs	r3, #248	; 0xf8
    2cc8:	54c2      	strb	r2, [r0, r3]
    2cca:	e7ec      	b.n	2ca6 <AjK::MODSERIAL::setBase()+0x16>
    2ccc:	4006a000 	.word	0x4006a000
    2cd0:	4006c000 	.word	0x4006c000
    2cd4:	4006b000 	.word	0x4006b000

00002cd8 <AjK::MODSERIAL::initDevice()>:
    2cd8:	4770      	bx	lr
    2cda:	46c0      	nop			; (mov r8, r8)

00002cdc <mbed_die>:
    2cdc:	b500      	push	{lr}
    2cde:	b089      	sub	sp, #36	; 0x24
    2ce0:	b672      	cpsid	i
    2ce2:	4909      	ldr	r1, [pc, #36]	; (2d08 <mbed_die+0x2c>)
    2ce4:	a802      	add	r0, sp, #8
    2ce6:	f000 f831 	bl	2d4c <gpio_init_out>
    2cea:	9a03      	ldr	r2, [sp, #12]
    2cec:	9b05      	ldr	r3, [sp, #20]
    2cee:	2096      	movs	r0, #150	; 0x96
    2cf0:	601a      	str	r2, [r3, #0]
    2cf2:	9201      	str	r2, [sp, #4]
    2cf4:	f000 f8de 	bl	2eb4 <wait_ms>
    2cf8:	9a03      	ldr	r2, [sp, #12]
    2cfa:	9b06      	ldr	r3, [sp, #24]
    2cfc:	2096      	movs	r0, #150	; 0x96
    2cfe:	601a      	str	r2, [r3, #0]
    2d00:	9201      	str	r2, [sp, #4]
    2d02:	f000 f8d7 	bl	2eb4 <wait_ms>
    2d06:	e7f0      	b.n	2cea <mbed_die+0xe>
    2d08:	00001048 	.word	0x00001048

00002d0c <error>:
    2d0c:	b40f      	push	{r0, r1, r2, r3}
    2d0e:	b500      	push	{lr}
    2d10:	4b05      	ldr	r3, [pc, #20]	; (2d28 <error+0x1c>)
    2d12:	b083      	sub	sp, #12
    2d14:	aa04      	add	r2, sp, #16
    2d16:	681b      	ldr	r3, [r3, #0]
    2d18:	ca02      	ldmia	r2!, {r1}
    2d1a:	68d8      	ldr	r0, [r3, #12]
    2d1c:	9201      	str	r2, [sp, #4]
    2d1e:	f002 f9a5 	bl	506c <vfiprintf>
    2d22:	2001      	movs	r0, #1
    2d24:	f001 fbda 	bl	44dc <exit>
    2d28:	1ffff130 	.word	0x1ffff130

00002d2c <gpio_init_in>:
    2d2c:	b570      	push	{r4, r5, r6, lr}
    2d2e:	000d      	movs	r5, r1
    2d30:	0004      	movs	r4, r0
    2d32:	f000 f939 	bl	2fa8 <gpio_init>
    2d36:	1c6b      	adds	r3, r5, #1
    2d38:	d007      	beq.n	2d4a <gpio_init_in+0x1e>
    2d3a:	2100      	movs	r1, #0
    2d3c:	0020      	movs	r0, r4
    2d3e:	f000 f959 	bl	2ff4 <gpio_dir>
    2d42:	2102      	movs	r1, #2
    2d44:	0020      	movs	r0, r4
    2d46:	f000 f94f 	bl	2fe8 <gpio_mode>
    2d4a:	bd70      	pop	{r4, r5, r6, pc}

00002d4c <gpio_init_out>:
    2d4c:	b570      	push	{r4, r5, r6, lr}
    2d4e:	000d      	movs	r5, r1
    2d50:	0004      	movs	r4, r0
    2d52:	f000 f929 	bl	2fa8 <gpio_init>
    2d56:	1c6b      	adds	r3, r5, #1
    2d58:	d00a      	beq.n	2d70 <gpio_init_out+0x24>
    2d5a:	6923      	ldr	r3, [r4, #16]
    2d5c:	6862      	ldr	r2, [r4, #4]
    2d5e:	2101      	movs	r1, #1
    2d60:	0020      	movs	r0, r4
    2d62:	601a      	str	r2, [r3, #0]
    2d64:	f000 f946 	bl	2ff4 <gpio_dir>
    2d68:	2100      	movs	r1, #0
    2d6a:	0020      	movs	r0, r4
    2d6c:	f000 f93c 	bl	2fe8 <gpio_mode>
    2d70:	bd70      	pop	{r4, r5, r6, pc}
    2d72:	46c0      	nop			; (mov r8, r8)

00002d74 <mbed_interface_connected>:
    2d74:	b510      	push	{r4, lr}
    2d76:	f000 f853 	bl	2e20 <semihost_connected>
    2d7a:	bd10      	pop	{r4, pc}

00002d7c <pinmap_pinout>:
    2d7c:	b510      	push	{r4, lr}
    2d7e:	0004      	movs	r4, r0
    2d80:	1c43      	adds	r3, r0, #1
    2d82:	d103      	bne.n	2d8c <pinmap_pinout+0x10>
    2d84:	e009      	b.n	2d9a <pinmap_pinout+0x1e>
    2d86:	429c      	cmp	r4, r3
    2d88:	d008      	beq.n	2d9c <pinmap_pinout+0x20>
    2d8a:	310c      	adds	r1, #12
    2d8c:	2200      	movs	r2, #0
    2d8e:	5e8b      	ldrsh	r3, [r1, r2]
    2d90:	1c5a      	adds	r2, r3, #1
    2d92:	d1f8      	bne.n	2d86 <pinmap_pinout+0xa>
    2d94:	4806      	ldr	r0, [pc, #24]	; (2db0 <pinmap_pinout+0x34>)
    2d96:	f7ff ffb9 	bl	2d0c <error>
    2d9a:	bd10      	pop	{r4, pc}
    2d9c:	0020      	movs	r0, r4
    2d9e:	6889      	ldr	r1, [r1, #8]
    2da0:	f000 f938 	bl	3014 <pin_function>
    2da4:	2100      	movs	r1, #0
    2da6:	0020      	movs	r0, r4
    2da8:	f000 f956 	bl	3058 <pin_mode>
    2dac:	e7f5      	b.n	2d9a <pinmap_pinout+0x1e>
    2dae:	46c0      	nop			; (mov r8, r8)
    2db0:	0000694c 	.word	0x0000694c

00002db4 <pinmap_merge>:
    2db4:	b510      	push	{r4, lr}
    2db6:	4288      	cmp	r0, r1
    2db8:	d008      	beq.n	2dcc <pinmap_merge+0x18>
    2dba:	1c43      	adds	r3, r0, #1
    2dbc:	d007      	beq.n	2dce <pinmap_merge+0x1a>
    2dbe:	1c4b      	adds	r3, r1, #1
    2dc0:	d004      	beq.n	2dcc <pinmap_merge+0x18>
    2dc2:	4804      	ldr	r0, [pc, #16]	; (2dd4 <pinmap_merge+0x20>)
    2dc4:	f7ff ffa2 	bl	2d0c <error>
    2dc8:	2001      	movs	r0, #1
    2dca:	4240      	negs	r0, r0
    2dcc:	bd10      	pop	{r4, pc}
    2dce:	0008      	movs	r0, r1
    2dd0:	e7fc      	b.n	2dcc <pinmap_merge+0x18>
    2dd2:	46c0      	nop			; (mov r8, r8)
    2dd4:	00006960 	.word	0x00006960

00002dd8 <pinmap_peripheral>:
    2dd8:	b510      	push	{r4, lr}
    2dda:	0002      	movs	r2, r0
    2ddc:	1c43      	adds	r3, r0, #1
    2dde:	d103      	bne.n	2de8 <pinmap_peripheral+0x10>
    2de0:	e00b      	b.n	2dfa <pinmap_peripheral+0x22>
    2de2:	429a      	cmp	r2, r3
    2de4:	d00a      	beq.n	2dfc <pinmap_peripheral+0x24>
    2de6:	310c      	adds	r1, #12
    2de8:	2000      	movs	r0, #0
    2dea:	5e0b      	ldrsh	r3, [r1, r0]
    2dec:	1c58      	adds	r0, r3, #1
    2dee:	d1f8      	bne.n	2de2 <pinmap_peripheral+0xa>
    2df0:	4804      	ldr	r0, [pc, #16]	; (2e04 <pinmap_peripheral+0x2c>)
    2df2:	f7ff ff8b 	bl	2d0c <error>
    2df6:	2001      	movs	r0, #1
    2df8:	4240      	negs	r0, r0
    2dfa:	bd10      	pop	{r4, pc}
    2dfc:	6848      	ldr	r0, [r1, #4]
    2dfe:	1c43      	adds	r3, r0, #1
    2e00:	d1fb      	bne.n	2dfa <pinmap_peripheral+0x22>
    2e02:	e7f5      	b.n	2df0 <pinmap_peripheral+0x18>
    2e04:	00006974 	.word	0x00006974

00002e08 <semihost_exit>:
    2e08:	b530      	push	{r4, r5, lr}
    2e0a:	b085      	sub	sp, #20
    2e0c:	466d      	mov	r5, sp
    2e0e:	2418      	movs	r4, #24
    2e10:	1c20      	adds	r0, r4, #0
    2e12:	1c29      	adds	r1, r5, #0
    2e14:	beab      	bkpt	0x00ab
    2e16:	1c04      	adds	r4, r0, #0
    2e18:	0020      	movs	r0, r4
    2e1a:	b005      	add	sp, #20
    2e1c:	bd30      	pop	{r4, r5, pc}
    2e1e:	46c0      	nop			; (mov r8, r8)

00002e20 <semihost_connected>:
    2e20:	4b01      	ldr	r3, [pc, #4]	; (2e28 <semihost_connected+0x8>)
    2e22:	6818      	ldr	r0, [r3, #0]
    2e24:	4770      	bx	lr
    2e26:	46c0      	nop			; (mov r8, r8)
    2e28:	1ffff0c4 	.word	0x1ffff0c4

00002e2c <ticker_irq_handler>:
    2e2c:	6803      	ldr	r3, [r0, #0]
    2e2e:	b570      	push	{r4, r5, r6, lr}
    2e30:	68db      	ldr	r3, [r3, #12]
    2e32:	0005      	movs	r5, r0
    2e34:	4798      	blx	r3
    2e36:	686b      	ldr	r3, [r5, #4]
    2e38:	685b      	ldr	r3, [r3, #4]
    2e3a:	e00d      	b.n	2e58 <ticker_irq_handler+0x2c>
    2e3c:	681c      	ldr	r4, [r3, #0]
    2e3e:	682b      	ldr	r3, [r5, #0]
    2e40:	685b      	ldr	r3, [r3, #4]
    2e42:	4798      	blx	r3
    2e44:	1a24      	subs	r4, r4, r0
    2e46:	2c00      	cmp	r4, #0
    2e48:	dc0c      	bgt.n	2e64 <ticker_irq_handler+0x38>
    2e4a:	686a      	ldr	r2, [r5, #4]
    2e4c:	6851      	ldr	r1, [r2, #4]
    2e4e:	688b      	ldr	r3, [r1, #8]
    2e50:	6053      	str	r3, [r2, #4]
    2e52:	6812      	ldr	r2, [r2, #0]
    2e54:	2a00      	cmp	r2, #0
    2e56:	d10c      	bne.n	2e72 <ticker_irq_handler+0x46>
    2e58:	2b00      	cmp	r3, #0
    2e5a:	d1ef      	bne.n	2e3c <ticker_irq_handler+0x10>
    2e5c:	682b      	ldr	r3, [r5, #0]
    2e5e:	689b      	ldr	r3, [r3, #8]
    2e60:	4798      	blx	r3
    2e62:	bd70      	pop	{r4, r5, r6, pc}
    2e64:	686b      	ldr	r3, [r5, #4]
    2e66:	685b      	ldr	r3, [r3, #4]
    2e68:	6818      	ldr	r0, [r3, #0]
    2e6a:	682b      	ldr	r3, [r5, #0]
    2e6c:	691b      	ldr	r3, [r3, #16]
    2e6e:	4798      	blx	r3
    2e70:	e7f7      	b.n	2e62 <ticker_irq_handler+0x36>
    2e72:	6848      	ldr	r0, [r1, #4]
    2e74:	4790      	blx	r2
    2e76:	e7de      	b.n	2e36 <ticker_irq_handler+0xa>

00002e78 <ticker_read>:
    2e78:	b510      	push	{r4, lr}
    2e7a:	6803      	ldr	r3, [r0, #0]
    2e7c:	685b      	ldr	r3, [r3, #4]
    2e7e:	4798      	blx	r3
    2e80:	bd10      	pop	{r4, pc}
    2e82:	46c0      	nop			; (mov r8, r8)

00002e84 <get_us_ticker_data>:
    2e84:	4800      	ldr	r0, [pc, #0]	; (2e88 <get_us_ticker_data+0x4>)
    2e86:	4770      	bx	lr
    2e88:	000069c8 	.word	0x000069c8

00002e8c <us_ticker_irq_handler>:
    2e8c:	b510      	push	{r4, lr}
    2e8e:	4802      	ldr	r0, [pc, #8]	; (2e98 <us_ticker_irq_handler+0xc>)
    2e90:	f7ff ffcc 	bl	2e2c <ticker_irq_handler>
    2e94:	bd10      	pop	{r4, pc}
    2e96:	46c0      	nop			; (mov r8, r8)
    2e98:	000069c8 	.word	0x000069c8

00002e9c <wait_us>:
    2e9c:	b570      	push	{r4, r5, r6, lr}
    2e9e:	0005      	movs	r5, r0
    2ea0:	f000 fa3c 	bl	331c <us_ticker_read>
    2ea4:	0004      	movs	r4, r0
    2ea6:	f000 fa39 	bl	331c <us_ticker_read>
    2eaa:	1b00      	subs	r0, r0, r4
    2eac:	42a8      	cmp	r0, r5
    2eae:	d3fa      	bcc.n	2ea6 <wait_us+0xa>
    2eb0:	bd70      	pop	{r4, r5, r6, pc}
    2eb2:	46c0      	nop			; (mov r8, r8)

00002eb4 <wait_ms>:
    2eb4:	23fa      	movs	r3, #250	; 0xfa
    2eb6:	b510      	push	{r4, lr}
    2eb8:	009b      	lsls	r3, r3, #2
    2eba:	4358      	muls	r0, r3
    2ebc:	f7ff ffee 	bl	2e9c <wait_us>
    2ec0:	bd10      	pop	{r4, pc}
    2ec2:	46c0      	nop			; (mov r8, r8)

00002ec4 <NVIC_SetVector>:
    2ec4:	4a0a      	ldr	r2, [pc, #40]	; (2ef0 <NVIC_SetVector+0x2c>)
    2ec6:	b530      	push	{r4, r5, lr}
    2ec8:	6894      	ldr	r4, [r2, #8]
    2eca:	6892      	ldr	r2, [r2, #8]
    2ecc:	0023      	movs	r3, r4
    2ece:	2a00      	cmp	r2, #0
    2ed0:	d10a      	bne.n	2ee8 <NVIC_SetVector+0x24>
    2ed2:	2300      	movs	r3, #0
    2ed4:	4a07      	ldr	r2, [pc, #28]	; (2ef4 <NVIC_SetVector+0x30>)
    2ed6:	591d      	ldr	r5, [r3, r4]
    2ed8:	189a      	adds	r2, r3, r2
    2eda:	3304      	adds	r3, #4
    2edc:	6015      	str	r5, [r2, #0]
    2ede:	2bc0      	cmp	r3, #192	; 0xc0
    2ee0:	d1f8      	bne.n	2ed4 <NVIC_SetVector+0x10>
    2ee2:	4b04      	ldr	r3, [pc, #16]	; (2ef4 <NVIC_SetVector+0x30>)
    2ee4:	4a02      	ldr	r2, [pc, #8]	; (2ef0 <NVIC_SetVector+0x2c>)
    2ee6:	6093      	str	r3, [r2, #8]
    2ee8:	3010      	adds	r0, #16
    2eea:	0080      	lsls	r0, r0, #2
    2eec:	50c1      	str	r1, [r0, r3]
    2eee:	bd30      	pop	{r4, r5, pc}
    2ef0:	e000ed00 	.word	0xe000ed00
    2ef4:	1ffff000 	.word	0x1ffff000

00002ef8 <SystemInit>:
    2ef8:	2288      	movs	r2, #136	; 0x88
    2efa:	2000      	movs	r0, #0
    2efc:	b510      	push	{r4, lr}
    2efe:	2480      	movs	r4, #128	; 0x80
    2f00:	4b21      	ldr	r3, [pc, #132]	; (2f88 <SystemInit+0x90>)
    2f02:	4922      	ldr	r1, [pc, #136]	; (2f8c <SystemInit+0x94>)
    2f04:	0152      	lsls	r2, r2, #5
    2f06:	5098      	str	r0, [r3, r2]
    2f08:	585a      	ldr	r2, [r3, r1]
    2f0a:	00a4      	lsls	r4, r4, #2
    2f0c:	4322      	orrs	r2, r4
    2f0e:	505a      	str	r2, [r3, r1]
    2f10:	491f      	ldr	r1, [pc, #124]	; (2f90 <SystemInit+0x98>)
    2f12:	4a20      	ldr	r2, [pc, #128]	; (2f94 <SystemInit+0x9c>)
    2f14:	5099      	str	r1, [r3, r2]
    2f16:	4b20      	ldr	r3, [pc, #128]	; (2f98 <SystemInit+0xa0>)
    2f18:	4a20      	ldr	r2, [pc, #128]	; (2f9c <SystemInit+0xa4>)
    2f1a:	6c99      	ldr	r1, [r3, #72]	; 0x48
    2f1c:	4011      	ands	r1, r2
    2f1e:	6499      	str	r1, [r3, #72]	; 0x48
    2f20:	6cd9      	ldr	r1, [r3, #76]	; 0x4c
    2f22:	400a      	ands	r2, r1
    2f24:	64da      	str	r2, [r3, #76]	; 0x4c
    2f26:	2289      	movs	r2, #137	; 0x89
    2f28:	4b1d      	ldr	r3, [pc, #116]	; (2fa0 <SystemInit+0xa8>)
    2f2a:	211f      	movs	r1, #31
    2f2c:	701a      	strb	r2, [r3, #0]
    2f2e:	2324      	movs	r3, #36	; 0x24
    2f30:	4a1c      	ldr	r2, [pc, #112]	; (2fa4 <SystemInit+0xac>)
    2f32:	7053      	strb	r3, [r2, #1]
    2f34:	3376      	adds	r3, #118	; 0x76
    2f36:	7013      	strb	r3, [r2, #0]
    2f38:	78d3      	ldrb	r3, [r2, #3]
    2f3a:	400b      	ands	r3, r1
    2f3c:	70d3      	strb	r3, [r2, #3]
    2f3e:	2301      	movs	r3, #1
    2f40:	390f      	subs	r1, #15
    2f42:	7113      	strb	r3, [r2, #4]
    2f44:	7150      	strb	r0, [r2, #5]
    2f46:	7993      	ldrb	r3, [r2, #6]
    2f48:	4219      	tst	r1, r3
    2f4a:	d1fc      	bne.n	2f46 <SystemInit+0x4e>
    2f4c:	210c      	movs	r1, #12
    2f4e:	4815      	ldr	r0, [pc, #84]	; (2fa4 <SystemInit+0xac>)
    2f50:	7983      	ldrb	r3, [r0, #6]
    2f52:	4a14      	ldr	r2, [pc, #80]	; (2fa4 <SystemInit+0xac>)
    2f54:	400b      	ands	r3, r1
    2f56:	2b08      	cmp	r3, #8
    2f58:	d1fa      	bne.n	2f50 <SystemInit+0x58>
    2f5a:	210c      	movs	r1, #12
    2f5c:	3338      	adds	r3, #56	; 0x38
    2f5e:	7153      	strb	r3, [r2, #5]
    2f60:	7993      	ldrb	r3, [r2, #6]
    2f62:	400b      	ands	r3, r1
    2f64:	2b08      	cmp	r3, #8
    2f66:	d1fb      	bne.n	2f60 <SystemInit+0x68>
    2f68:	2140      	movs	r1, #64	; 0x40
    2f6a:	480e      	ldr	r0, [pc, #56]	; (2fa4 <SystemInit+0xac>)
    2f6c:	7982      	ldrb	r2, [r0, #6]
    2f6e:	4b0d      	ldr	r3, [pc, #52]	; (2fa4 <SystemInit+0xac>)
    2f70:	4211      	tst	r1, r2
    2f72:	d0fb      	beq.n	2f6c <SystemInit+0x74>
    2f74:	221a      	movs	r2, #26
    2f76:	210c      	movs	r1, #12
    2f78:	701a      	strb	r2, [r3, #0]
    2f7a:	001a      	movs	r2, r3
    2f7c:	7993      	ldrb	r3, [r2, #6]
    2f7e:	400b      	ands	r3, r1
    2f80:	2b0c      	cmp	r3, #12
    2f82:	d1fb      	bne.n	2f7c <SystemInit+0x84>
    2f84:	bd10      	pop	{r4, pc}
    2f86:	46c0      	nop			; (mov r8, r8)
    2f88:	40047000 	.word	0x40047000
    2f8c:	00001038 	.word	0x00001038
    2f90:	10010000 	.word	0x10010000
    2f94:	00001044 	.word	0x00001044
    2f98:	40049000 	.word	0x40049000
    2f9c:	fefff8ff 	.word	0xfefff8ff
    2fa0:	40065000 	.word	0x40065000
    2fa4:	40064000 	.word	0x40064000

00002fa8 <gpio_init>:
    2fa8:	b570      	push	{r4, r5, r6, lr}
    2faa:	0005      	movs	r5, r0
    2fac:	000c      	movs	r4, r1
    2fae:	8029      	strh	r1, [r5, #0]
    2fb0:	1c4b      	adds	r3, r1, #1
    2fb2:	d015      	beq.n	2fe0 <gpio_init+0x38>
    2fb4:	0020      	movs	r0, r4
    2fb6:	2101      	movs	r1, #1
    2fb8:	f000 f82c 	bl	3014 <pin_function>
    2fbc:	2301      	movs	r3, #1
    2fbe:	0662      	lsls	r2, r4, #25
    2fc0:	0ed2      	lsrs	r2, r2, #27
    2fc2:	4093      	lsls	r3, r2
    2fc4:	606b      	str	r3, [r5, #4]
    2fc6:	4b07      	ldr	r3, [pc, #28]	; (2fe4 <gpio_init+0x3c>)
    2fc8:	0b24      	lsrs	r4, r4, #12
    2fca:	469c      	mov	r12, r3
    2fcc:	4464      	add	r4, r12
    2fce:	01a4      	lsls	r4, r4, #6
    2fd0:	1d23      	adds	r3, r4, #4
    2fd2:	60eb      	str	r3, [r5, #12]
    2fd4:	3304      	adds	r3, #4
    2fd6:	612b      	str	r3, [r5, #16]
    2fd8:	3414      	adds	r4, #20
    2fda:	3308      	adds	r3, #8
    2fdc:	616b      	str	r3, [r5, #20]
    2fde:	60ac      	str	r4, [r5, #8]
    2fe0:	bd70      	pop	{r4, r5, r6, pc}
    2fe2:	46c0      	nop			; (mov r8, r8)
    2fe4:	03e03fc0 	.word	0x03e03fc0

00002fe8 <gpio_mode>:
    2fe8:	b510      	push	{r4, lr}
    2fea:	2300      	movs	r3, #0
    2fec:	5ec0      	ldrsh	r0, [r0, r3]
    2fee:	f000 f833 	bl	3058 <pin_mode>
    2ff2:	bd10      	pop	{r4, pc}

00002ff4 <gpio_dir>:
    2ff4:	2900      	cmp	r1, #0
    2ff6:	d007      	beq.n	3008 <gpio_dir+0x14>
    2ff8:	2901      	cmp	r1, #1
    2ffa:	d104      	bne.n	3006 <gpio_dir+0x12>
    2ffc:	6882      	ldr	r2, [r0, #8]
    2ffe:	6843      	ldr	r3, [r0, #4]
    3000:	6811      	ldr	r1, [r2, #0]
    3002:	430b      	orrs	r3, r1
    3004:	6013      	str	r3, [r2, #0]
    3006:	4770      	bx	lr
    3008:	6882      	ldr	r2, [r0, #8]
    300a:	6841      	ldr	r1, [r0, #4]
    300c:	6813      	ldr	r3, [r2, #0]
    300e:	438b      	bics	r3, r1
    3010:	6013      	str	r3, [r2, #0]
    3012:	e7f8      	b.n	3006 <gpio_dir+0x12>

00003014 <pin_function>:
    3014:	0b03      	lsrs	r3, r0, #12
    3016:	b5f0      	push	{r4, r5, r6, r7, lr}
    3018:	001f      	movs	r7, r3
    301a:	2201      	movs	r2, #1
    301c:	3709      	adds	r7, #9
    301e:	40ba      	lsls	r2, r7
    3020:	4e09      	ldr	r6, [pc, #36]	; (3048 <pin_function+0x34>)
    3022:	4d0a      	ldr	r5, [pc, #40]	; (304c <pin_function+0x38>)
    3024:	0209      	lsls	r1, r1, #8
    3026:	5974      	ldr	r4, [r6, r5]
    3028:	4322      	orrs	r2, r4
    302a:	5172      	str	r2, [r6, r5]
    302c:	4a08      	ldr	r2, [pc, #32]	; (3050 <pin_function+0x3c>)
    302e:	4694      	mov	r12, r2
    3030:	4463      	add	r3, r12
    3032:	031a      	lsls	r2, r3, #12
    3034:	237c      	movs	r3, #124	; 0x7c
    3036:	4018      	ands	r0, r3
    3038:	1810      	adds	r0, r2, r0
    303a:	6802      	ldr	r2, [r0, #0]
    303c:	4b05      	ldr	r3, [pc, #20]	; (3054 <pin_function+0x40>)
    303e:	4013      	ands	r3, r2
    3040:	4319      	orrs	r1, r3
    3042:	6001      	str	r1, [r0, #0]
    3044:	bdf0      	pop	{r4, r5, r6, r7, pc}
    3046:	46c0      	nop			; (mov r8, r8)
    3048:	40047000 	.word	0x40047000
    304c:	00001038 	.word	0x00001038
    3050:	00040049 	.word	0x00040049
    3054:	fffff8ff 	.word	0xfffff8ff

00003058 <pin_mode>:
    3058:	4b04      	ldr	r3, [pc, #16]	; (306c <pin_mode+0x14>)
    305a:	2203      	movs	r2, #3
    305c:	469c      	mov	r12, r3
    305e:	4460      	add	r0, r12
    3060:	6803      	ldr	r3, [r0, #0]
    3062:	4393      	bics	r3, r2
    3064:	4319      	orrs	r1, r3
    3066:	6001      	str	r1, [r0, #0]
    3068:	4770      	bx	lr
    306a:	46c0      	nop			; (mov r8, r8)
    306c:	40049000 	.word	0x40049000

00003070 <pit_init>:
    3070:	2080      	movs	r0, #128	; 0x80
    3072:	4b16      	ldr	r3, [pc, #88]	; (30cc <pit_init+0x5c>)
    3074:	4916      	ldr	r1, [pc, #88]	; (30d0 <pit_init+0x60>)
    3076:	0400      	lsls	r0, r0, #16
    3078:	585a      	ldr	r2, [r3, r1]
    307a:	b570      	push	{r4, r5, r6, lr}
    307c:	4302      	orrs	r2, r0
    307e:	505a      	str	r2, [r3, r1]
    3080:	2200      	movs	r2, #0
    3082:	2101      	movs	r1, #1
    3084:	2501      	movs	r5, #1
    3086:	4c13      	ldr	r4, [pc, #76]	; (30d4 <pit_init+0x64>)
    3088:	4249      	negs	r1, r1
    308a:	6022      	str	r2, [r4, #0]
    308c:	3211      	adds	r2, #17
    308e:	32ff      	adds	r2, #255	; 0xff
    3090:	50a1      	str	r1, [r4, r2]
    3092:	3208      	adds	r2, #8
    3094:	3105      	adds	r1, #5
    3096:	50a1      	str	r1, [r4, r2]
    3098:	58a1      	ldr	r1, [r4, r2]
    309a:	4329      	orrs	r1, r5
    309c:	50a1      	str	r1, [r4, r2]
    309e:	4a0e      	ldr	r2, [pc, #56]	; (30d8 <pit_init+0x68>)
    30a0:	5899      	ldr	r1, [r3, r2]
    30a2:	4b0e      	ldr	r3, [pc, #56]	; (30dc <pit_init+0x6c>)
    30a4:	0349      	lsls	r1, r1, #13
    30a6:	0f49      	lsrs	r1, r1, #29
    30a8:	6818      	ldr	r0, [r3, #0]
    30aa:	3101      	adds	r1, #1
    30ac:	f001 f88c 	bl	41c8 <__aeabi_uidiv>
    30b0:	4b0b      	ldr	r3, [pc, #44]	; (30e0 <pit_init+0x70>)
    30b2:	490c      	ldr	r1, [pc, #48]	; (30e4 <pit_init+0x74>)
    30b4:	469c      	mov	r12, r3
    30b6:	4460      	add	r0, r12
    30b8:	f001 f886 	bl	41c8 <__aeabi_uidiv>
    30bc:	2380      	movs	r3, #128	; 0x80
    30be:	3801      	subs	r0, #1
    30c0:	005b      	lsls	r3, r3, #1
    30c2:	50e0      	str	r0, [r4, r3]
    30c4:	3308      	adds	r3, #8
    30c6:	50e5      	str	r5, [r4, r3]
    30c8:	bd70      	pop	{r4, r5, r6, pc}
    30ca:	46c0      	nop			; (mov r8, r8)
    30cc:	40047000 	.word	0x40047000
    30d0:	0000103c 	.word	0x0000103c
    30d4:	40037000 	.word	0x40037000
    30d8:	00001044 	.word	0x00001044
    30dc:	1ffff0c8 	.word	0x1ffff0c8
    30e0:	0007a120 	.word	0x0007a120
    30e4:	000f4240 	.word	0x000f4240

000030e8 <lptmr_init>:
    30e8:	b570      	push	{r4, r5, r6, lr}
    30ea:	2401      	movs	r4, #1
    30ec:	4d5f      	ldr	r5, [pc, #380]	; (326c <lptmr_init+0x184>)
    30ee:	4b60      	ldr	r3, [pc, #384]	; (3270 <lptmr_init+0x188>)
    30f0:	4960      	ldr	r1, [pc, #384]	; (3274 <lptmr_init+0x18c>)
    30f2:	58ea      	ldr	r2, [r5, r3]
    30f4:	201c      	movs	r0, #28
    30f6:	4322      	orrs	r2, r4
    30f8:	50ea      	str	r2, [r5, r3]
    30fa:	2200      	movs	r2, #0
    30fc:	4b5e      	ldr	r3, [pc, #376]	; (3278 <lptmr_init+0x190>)
    30fe:	263f      	movs	r6, #63	; 0x3f
    3100:	601a      	str	r2, [r3, #0]
    3102:	f7ff fedf 	bl	2ec4 <NVIC_SetVector>
    3106:	2280      	movs	r2, #128	; 0x80
    3108:	4b5c      	ldr	r3, [pc, #368]	; (327c <lptmr_init+0x194>)
    310a:	0552      	lsls	r2, r2, #21
    310c:	601a      	str	r2, [r3, #0]
    310e:	4a5c      	ldr	r2, [pc, #368]	; (3280 <lptmr_init+0x198>)
    3110:	4b5c      	ldr	r3, [pc, #368]	; (3284 <lptmr_init+0x19c>)
    3112:	6810      	ldr	r0, [r2, #0]
    3114:	58eb      	ldr	r3, [r5, r3]
    3116:	4a5c      	ldr	r2, [pc, #368]	; (3288 <lptmr_init+0x1a0>)
    3118:	0f1b      	lsrs	r3, r3, #28
    311a:	7811      	ldrb	r1, [r2, #0]
    311c:	3301      	adds	r3, #1
    311e:	4358      	muls	r0, r3
    3120:	43b1      	bics	r1, r6
    3122:	2980      	cmp	r1, #128	; 0x80
    3124:	d100      	bne.n	3128 <lptmr_init+0x40>
    3126:	e07a      	b.n	321e <lptmr_init+0x136>
    3128:	7811      	ldrb	r1, [r2, #0]
    312a:	43b1      	bics	r1, r6
    312c:	d122      	bne.n	3174 <lptmr_init+0x8c>
    312e:	7953      	ldrb	r3, [r2, #5]
    3130:	065b      	lsls	r3, r3, #25
    3132:	d445      	bmi.n	31c0 <lptmr_init+0xd8>
    3134:	7993      	ldrb	r3, [r2, #6]
    3136:	06db      	lsls	r3, r3, #27
    3138:	d41c      	bmi.n	3174 <lptmr_init+0x8c>
    313a:	7813      	ldrb	r3, [r2, #0]
    313c:	069b      	lsls	r3, r3, #26
    313e:	0f5b      	lsrs	r3, r3, #29
    3140:	409c      	lsls	r4, r3
    3142:	7853      	ldrb	r3, [r2, #1]
    3144:	2230      	movs	r2, #48	; 0x30
    3146:	0025      	movs	r5, r4
    3148:	421a      	tst	r2, r3
    314a:	d000      	beq.n	314e <lptmr_init+0x66>
    314c:	0165      	lsls	r5, r4, #5
    314e:	221f      	movs	r2, #31
    3150:	4b4d      	ldr	r3, [pc, #308]	; (3288 <lptmr_init+0x1a0>)
    3152:	78db      	ldrb	r3, [r3, #3]
    3154:	4393      	bics	r3, r2
    3156:	2b60      	cmp	r3, #96	; 0x60
    3158:	d100      	bne.n	315c <lptmr_init+0x74>
    315a:	e07e      	b.n	325a <lptmr_init+0x172>
    315c:	d861      	bhi.n	3222 <lptmr_init+0x13a>
    315e:	2b20      	cmp	r3, #32
    3160:	d100      	bne.n	3164 <lptmr_init+0x7c>
    3162:	e072      	b.n	324a <lptmr_init+0x162>
    3164:	2b40      	cmp	r3, #64	; 0x40
    3166:	d100      	bne.n	316a <lptmr_init+0x82>
    3168:	e07a      	b.n	3260 <lptmr_init+0x178>
    316a:	2b00      	cmp	r3, #0
    316c:	d100      	bne.n	3170 <lptmr_init+0x88>
    316e:	e06f      	b.n	3250 <lptmr_init+0x168>
    3170:	4946      	ldr	r1, [pc, #280]	; (328c <lptmr_init+0x1a4>)
    3172:	e065      	b.n	3240 <lptmr_init+0x158>
    3174:	2202      	movs	r2, #2
    3176:	4b44      	ldr	r3, [pc, #272]	; (3288 <lptmr_init+0x1a0>)
    3178:	200e      	movs	r0, #14
    317a:	7819      	ldrb	r1, [r3, #0]
    317c:	430a      	orrs	r2, r1
    317e:	701a      	strb	r2, [r3, #0]
    3180:	2201      	movs	r2, #1
    3182:	7859      	ldrb	r1, [r3, #1]
    3184:	430a      	orrs	r2, r1
    3186:	705a      	strb	r2, [r3, #1]
    3188:	2200      	movs	r2, #0
    318a:	493b      	ldr	r1, [pc, #236]	; (3278 <lptmr_init+0x190>)
    318c:	604a      	str	r2, [r1, #4]
    318e:	7a1a      	ldrb	r2, [r3, #8]
    3190:	4002      	ands	r2, r0
    3192:	d010      	beq.n	31b6 <lptmr_init+0xce>
    3194:	2a02      	cmp	r2, #2
    3196:	d00b      	beq.n	31b0 <lptmr_init+0xc8>
    3198:	7a1a      	ldrb	r2, [r3, #8]
    319a:	4382      	bics	r2, r0
    319c:	721a      	strb	r2, [r3, #8]
    319e:	2204      	movs	r2, #4
    31a0:	7a18      	ldrb	r0, [r3, #8]
    31a2:	4302      	orrs	r2, r0
    31a4:	721a      	strb	r2, [r3, #8]
    31a6:	2304      	movs	r3, #4
    31a8:	684a      	ldr	r2, [r1, #4]
    31aa:	4313      	orrs	r3, r2
    31ac:	604b      	str	r3, [r1, #4]
    31ae:	bd70      	pop	{r4, r5, r6, pc}
    31b0:	684b      	ldr	r3, [r1, #4]
    31b2:	604b      	str	r3, [r1, #4]
    31b4:	e7fb      	b.n	31ae <lptmr_init+0xc6>
    31b6:	2308      	movs	r3, #8
    31b8:	684a      	ldr	r2, [r1, #4]
    31ba:	4313      	orrs	r3, r2
    31bc:	604b      	str	r3, [r1, #4]
    31be:	e7f6      	b.n	31ae <lptmr_init+0xc6>
    31c0:	211f      	movs	r1, #31
    31c2:	7914      	ldrb	r4, [r2, #4]
    31c4:	7953      	ldrb	r3, [r2, #5]
    31c6:	400c      	ands	r4, r1
    31c8:	3401      	adds	r4, #1
    31ca:	4019      	ands	r1, r3
    31cc:	4360      	muls	r0, r4
    31ce:	3118      	adds	r1, #24
    31d0:	f000 fffa 	bl	41c8 <__aeabi_uidiv>
    31d4:	0004      	movs	r4, r0
    31d6:	2c00      	cmp	r4, #0
    31d8:	d0cc      	beq.n	3174 <lptmr_init+0x8c>
    31da:	492d      	ldr	r1, [pc, #180]	; (3290 <lptmr_init+0x1a8>)
    31dc:	0020      	movs	r0, r4
    31de:	f001 f879 	bl	42d4 <__aeabi_uidivmod>
    31e2:	2900      	cmp	r1, #0
    31e4:	d1c6      	bne.n	3174 <lptmr_init+0x8c>
    31e6:	492a      	ldr	r1, [pc, #168]	; (3290 <lptmr_init+0x1a8>)
    31e8:	0020      	movs	r0, r4
    31ea:	f000 ffed 	bl	41c8 <__aeabi_uidiv>
    31ee:	2801      	cmp	r0, #1
    31f0:	d020      	beq.n	3234 <lptmr_init+0x14c>
    31f2:	0840      	lsrs	r0, r0, #1
    31f4:	2801      	cmp	r0, #1
    31f6:	d02e      	beq.n	3256 <lptmr_init+0x16e>
    31f8:	07c3      	lsls	r3, r0, #31
    31fa:	d4bb      	bmi.n	3174 <lptmr_init+0x8c>
    31fc:	2300      	movs	r3, #0
    31fe:	2201      	movs	r2, #1
    3200:	e001      	b.n	3206 <lptmr_init+0x11e>
    3202:	4202      	tst	r2, r0
    3204:	d1b6      	bne.n	3174 <lptmr_init+0x8c>
    3206:	3301      	adds	r3, #1
    3208:	0840      	lsrs	r0, r0, #1
    320a:	2801      	cmp	r0, #1
    320c:	d1f9      	bne.n	3202 <lptmr_init+0x11a>
    320e:	2278      	movs	r2, #120	; 0x78
    3210:	00db      	lsls	r3, r3, #3
    3212:	4013      	ands	r3, r2
    3214:	3a75      	subs	r2, #117	; 0x75
    3216:	4313      	orrs	r3, r2
    3218:	4a17      	ldr	r2, [pc, #92]	; (3278 <lptmr_init+0x190>)
    321a:	6053      	str	r3, [r2, #4]
    321c:	e7c7      	b.n	31ae <lptmr_init+0xc6>
    321e:	0004      	movs	r4, r0
    3220:	e7d9      	b.n	31d6 <lptmr_init+0xee>
    3222:	2ba0      	cmp	r3, #160	; 0xa0
    3224:	d00a      	beq.n	323c <lptmr_init+0x154>
    3226:	2bc0      	cmp	r3, #192	; 0xc0
    3228:	d01d      	beq.n	3266 <lptmr_init+0x17e>
    322a:	2b80      	cmp	r3, #128	; 0x80
    322c:	d1a0      	bne.n	3170 <lptmr_init+0x88>
    322e:	21b7      	movs	r1, #183	; 0xb7
    3230:	0089      	lsls	r1, r1, #2
    3232:	e005      	b.n	3240 <lptmr_init+0x158>
    3234:	2207      	movs	r2, #7
    3236:	4b10      	ldr	r3, [pc, #64]	; (3278 <lptmr_init+0x190>)
    3238:	605a      	str	r2, [r3, #4]
    323a:	e7b8      	b.n	31ae <lptmr_init+0xc6>
    323c:	21b7      	movs	r1, #183	; 0xb7
    323e:	00c9      	lsls	r1, r1, #3
    3240:	4368      	muls	r0, r5
    3242:	f000 ffc1 	bl	41c8 <__aeabi_uidiv>
    3246:	0004      	movs	r4, r0
    3248:	e7c5      	b.n	31d6 <lptmr_init+0xee>
    324a:	21a0      	movs	r1, #160	; 0xa0
    324c:	00c9      	lsls	r1, r1, #3
    324e:	e7f7      	b.n	3240 <lptmr_init+0x158>
    3250:	21a0      	movs	r1, #160	; 0xa0
    3252:	0089      	lsls	r1, r1, #2
    3254:	e7f4      	b.n	3240 <lptmr_init+0x158>
    3256:	2303      	movs	r3, #3
    3258:	e7de      	b.n	3218 <lptmr_init+0x130>
    325a:	21a0      	movs	r1, #160	; 0xa0
    325c:	0109      	lsls	r1, r1, #4
    325e:	e7ef      	b.n	3240 <lptmr_init+0x158>
    3260:	21f0      	movs	r1, #240	; 0xf0
    3262:	00c9      	lsls	r1, r1, #3
    3264:	e7ec      	b.n	3240 <lptmr_init+0x158>
    3266:	490b      	ldr	r1, [pc, #44]	; (3294 <lptmr_init+0x1ac>)
    3268:	e7ea      	b.n	3240 <lptmr_init+0x158>
    326a:	46c0      	nop			; (mov r8, r8)
    326c:	40047000 	.word	0x40047000
    3270:	00001038 	.word	0x00001038
    3274:	00003299 	.word	0x00003299
    3278:	40040000 	.word	0x40040000
    327c:	e000e100 	.word	0xe000e100
    3280:	1ffff0c8 	.word	0x1ffff0c8
    3284:	00001044 	.word	0x00001044
    3288:	40064000 	.word	0x40064000
    328c:	00000b71 	.word	0x00000b71
    3290:	000f4240 	.word	0x000f4240
    3294:	00000895 	.word	0x00000895

00003298 <lptmr_isr>:
    3298:	2280      	movs	r2, #128	; 0x80
    329a:	4b15      	ldr	r3, [pc, #84]	; (32f0 <lptmr_isr+0x58>)
    329c:	b510      	push	{r4, lr}
    329e:	6819      	ldr	r1, [r3, #0]
    32a0:	430a      	orrs	r2, r1
    32a2:	4914      	ldr	r1, [pc, #80]	; (32f4 <lptmr_isr+0x5c>)
    32a4:	601a      	str	r2, [r3, #0]
    32a6:	680a      	ldr	r2, [r1, #0]
    32a8:	2a00      	cmp	r2, #0
    32aa:	d112      	bne.n	32d2 <lptmr_isr+0x3a>
    32ac:	4912      	ldr	r1, [pc, #72]	; (32f8 <lptmr_isr+0x60>)
    32ae:	8808      	ldrh	r0, [r1, #0]
    32b0:	2800      	cmp	r0, #0
    32b2:	d00b      	beq.n	32cc <lptmr_isr+0x34>
    32b4:	601a      	str	r2, [r3, #0]
    32b6:	6098      	str	r0, [r3, #8]
    32b8:	2040      	movs	r0, #64	; 0x40
    32ba:	681c      	ldr	r4, [r3, #0]
    32bc:	4320      	orrs	r0, r4
    32be:	6018      	str	r0, [r3, #0]
    32c0:	2001      	movs	r0, #1
    32c2:	681c      	ldr	r4, [r3, #0]
    32c4:	4320      	orrs	r0, r4
    32c6:	6018      	str	r0, [r3, #0]
    32c8:	800a      	strh	r2, [r1, #0]
    32ca:	bd10      	pop	{r4, pc}
    32cc:	f7ff fdde 	bl	2e8c <us_ticker_irq_handler>
    32d0:	e7fb      	b.n	32ca <lptmr_isr+0x32>
    32d2:	2000      	movs	r0, #0
    32d4:	6018      	str	r0, [r3, #0]
    32d6:	4809      	ldr	r0, [pc, #36]	; (32fc <lptmr_isr+0x64>)
    32d8:	3a01      	subs	r2, #1
    32da:	6098      	str	r0, [r3, #8]
    32dc:	2040      	movs	r0, #64	; 0x40
    32de:	681c      	ldr	r4, [r3, #0]
    32e0:	4320      	orrs	r0, r4
    32e2:	6018      	str	r0, [r3, #0]
    32e4:	2001      	movs	r0, #1
    32e6:	681c      	ldr	r4, [r3, #0]
    32e8:	4320      	orrs	r0, r4
    32ea:	6018      	str	r0, [r3, #0]
    32ec:	600a      	str	r2, [r1, #0]
    32ee:	e7ec      	b.n	32ca <lptmr_isr+0x32>
    32f0:	40040000 	.word	0x40040000
    32f4:	1ffff7d0 	.word	0x1ffff7d0
    32f8:	1ffff7d8 	.word	0x1ffff7d8
    32fc:	0000ffff 	.word	0x0000ffff

00003300 <us_ticker_init>:
    3300:	4b05      	ldr	r3, [pc, #20]	; (3318 <us_ticker_init+0x18>)
    3302:	b510      	push	{r4, lr}
    3304:	681a      	ldr	r2, [r3, #0]
    3306:	2a00      	cmp	r2, #0
    3308:	d105      	bne.n	3316 <us_ticker_init+0x16>
    330a:	3201      	adds	r2, #1
    330c:	601a      	str	r2, [r3, #0]
    330e:	f7ff feaf 	bl	3070 <pit_init>
    3312:	f7ff fee9 	bl	30e8 <lptmr_init>
    3316:	bd10      	pop	{r4, pc}
    3318:	1ffff7d4 	.word	0x1ffff7d4

0000331c <us_ticker_read>:
    331c:	4b08      	ldr	r3, [pc, #32]	; (3340 <us_ticker_read+0x24>)
    331e:	b510      	push	{r4, lr}
    3320:	681a      	ldr	r2, [r3, #0]
    3322:	2a00      	cmp	r2, #0
    3324:	d105      	bne.n	3332 <us_ticker_read+0x16>
    3326:	3201      	adds	r2, #1
    3328:	601a      	str	r2, [r3, #0]
    332a:	f7ff fea1 	bl	3070 <pit_init>
    332e:	f7ff fedb 	bl	30e8 <lptmr_init>
    3332:	238a      	movs	r3, #138	; 0x8a
    3334:	4a03      	ldr	r2, [pc, #12]	; (3344 <us_ticker_read+0x28>)
    3336:	005b      	lsls	r3, r3, #1
    3338:	58d0      	ldr	r0, [r2, r3]
    333a:	43c0      	mvns	r0, r0
    333c:	bd10      	pop	{r4, pc}
    333e:	46c0      	nop			; (mov r8, r8)
    3340:	1ffff7d4 	.word	0x1ffff7d4
    3344:	40037000 	.word	0x40037000

00003348 <us_ticker_disable_interrupt>:
    3348:	2140      	movs	r1, #64	; 0x40
    334a:	4a02      	ldr	r2, [pc, #8]	; (3354 <us_ticker_disable_interrupt+0xc>)
    334c:	6813      	ldr	r3, [r2, #0]
    334e:	438b      	bics	r3, r1
    3350:	6013      	str	r3, [r2, #0]
    3352:	4770      	bx	lr
    3354:	40040000 	.word	0x40040000

00003358 <us_ticker_clear_interrupt>:
    3358:	4770      	bx	lr
    335a:	46c0      	nop			; (mov r8, r8)

0000335c <us_ticker_set_interrupt>:
    335c:	4b1d      	ldr	r3, [pc, #116]	; (33d4 <us_ticker_set_interrupt+0x78>)
    335e:	b510      	push	{r4, lr}
    3360:	681a      	ldr	r2, [r3, #0]
    3362:	0004      	movs	r4, r0
    3364:	2a00      	cmp	r2, #0
    3366:	d105      	bne.n	3374 <us_ticker_set_interrupt+0x18>
    3368:	3201      	adds	r2, #1
    336a:	601a      	str	r2, [r3, #0]
    336c:	f7ff fe80 	bl	3070 <pit_init>
    3370:	f7ff feba 	bl	30e8 <lptmr_init>
    3374:	238a      	movs	r3, #138	; 0x8a
    3376:	4a18      	ldr	r2, [pc, #96]	; (33d8 <us_ticker_set_interrupt+0x7c>)
    3378:	005b      	lsls	r3, r3, #1
    337a:	58d0      	ldr	r0, [r2, r3]
    337c:	43c0      	mvns	r0, r0
    337e:	1a20      	subs	r0, r4, r0
    3380:	2800      	cmp	r0, #0
    3382:	dd23      	ble.n	33cc <us_ticker_set_interrupt+0x70>
    3384:	4c15      	ldr	r4, [pc, #84]	; (33dc <us_ticker_set_interrupt+0x80>)
    3386:	4916      	ldr	r1, [pc, #88]	; (33e0 <us_ticker_set_interrupt+0x84>)
    3388:	1403      	asrs	r3, r0, #16
    338a:	6023      	str	r3, [r4, #0]
    338c:	8008      	strh	r0, [r1, #0]
    338e:	4a15      	ldr	r2, [pc, #84]	; (33e4 <us_ticker_set_interrupt+0x88>)
    3390:	d10d      	bne.n	33ae <us_ticker_set_interrupt+0x52>
    3392:	0400      	lsls	r0, r0, #16
    3394:	0c00      	lsrs	r0, r0, #16
    3396:	6013      	str	r3, [r2, #0]
    3398:	6090      	str	r0, [r2, #8]
    339a:	2040      	movs	r0, #64	; 0x40
    339c:	6814      	ldr	r4, [r2, #0]
    339e:	4320      	orrs	r0, r4
    33a0:	6010      	str	r0, [r2, #0]
    33a2:	2001      	movs	r0, #1
    33a4:	6814      	ldr	r4, [r2, #0]
    33a6:	4320      	orrs	r0, r4
    33a8:	6010      	str	r0, [r2, #0]
    33aa:	800b      	strh	r3, [r1, #0]
    33ac:	bd10      	pop	{r4, pc}
    33ae:	2100      	movs	r1, #0
    33b0:	6011      	str	r1, [r2, #0]
    33b2:	490d      	ldr	r1, [pc, #52]	; (33e8 <us_ticker_set_interrupt+0x8c>)
    33b4:	3b01      	subs	r3, #1
    33b6:	6091      	str	r1, [r2, #8]
    33b8:	2140      	movs	r1, #64	; 0x40
    33ba:	6810      	ldr	r0, [r2, #0]
    33bc:	4301      	orrs	r1, r0
    33be:	6011      	str	r1, [r2, #0]
    33c0:	2101      	movs	r1, #1
    33c2:	6810      	ldr	r0, [r2, #0]
    33c4:	4301      	orrs	r1, r0
    33c6:	6011      	str	r1, [r2, #0]
    33c8:	6023      	str	r3, [r4, #0]
    33ca:	e7ef      	b.n	33ac <us_ticker_set_interrupt+0x50>
    33cc:	f7ff fd5e 	bl	2e8c <us_ticker_irq_handler>
    33d0:	e7ec      	b.n	33ac <us_ticker_set_interrupt+0x50>
    33d2:	46c0      	nop			; (mov r8, r8)
    33d4:	1ffff7d4 	.word	0x1ffff7d4
    33d8:	40037000 	.word	0x40037000
    33dc:	1ffff7d0 	.word	0x1ffff7d0
    33e0:	1ffff7d8 	.word	0x1ffff7d8
    33e4:	40040000 	.word	0x40040000
    33e8:	0000ffff 	.word	0x0000ffff

000033ec <NMI_Handler>:
    33ec:	b500      	push	{lr}
    33ee:	b087      	sub	sp, #28
    33f0:	2110      	movs	r1, #16
    33f2:	4668      	mov	r0, sp
    33f4:	f7ff fc9a 	bl	2d2c <gpio_init_in>
    33f8:	b007      	add	sp, #28
    33fa:	bd00      	pop	{pc}

000033fc <mcgpllfll_frequency.part.0>:
    33fc:	4b0c      	ldr	r3, [pc, #48]	; (3430 <mcgpllfll_frequency.part.0+0x34>)
    33fe:	4a0d      	ldr	r2, [pc, #52]	; (3434 <mcgpllfll_frequency.part.0+0x38>)
    3400:	b510      	push	{r4, lr}
    3402:	58d0      	ldr	r0, [r2, r3]
    3404:	4b0c      	ldr	r3, [pc, #48]	; (3438 <mcgpllfll_frequency.part.0+0x3c>)
    3406:	0f00      	lsrs	r0, r0, #28
    3408:	681b      	ldr	r3, [r3, #0]
    340a:	3001      	adds	r0, #1
    340c:	4358      	muls	r0, r3
    340e:	4b0b      	ldr	r3, [pc, #44]	; (343c <mcgpllfll_frequency.part.0+0x40>)
    3410:	490b      	ldr	r1, [pc, #44]	; (3440 <mcgpllfll_frequency.part.0+0x44>)
    3412:	795b      	ldrb	r3, [r3, #5]
    3414:	065b      	lsls	r3, r3, #25
    3416:	d506      	bpl.n	3426 <mcgpllfll_frequency.part.0+0x2a>
    3418:	2480      	movs	r4, #128	; 0x80
    341a:	5853      	ldr	r3, [r2, r1]
    341c:	0264      	lsls	r4, r4, #9
    341e:	4323      	orrs	r3, r4
    3420:	5053      	str	r3, [r2, r1]
    3422:	0840      	lsrs	r0, r0, #1
    3424:	bd10      	pop	{r4, pc}
    3426:	5854      	ldr	r4, [r2, r1]
    3428:	4b06      	ldr	r3, [pc, #24]	; (3444 <mcgpllfll_frequency.part.0+0x48>)
    342a:	4023      	ands	r3, r4
    342c:	5053      	str	r3, [r2, r1]
    342e:	e7f9      	b.n	3424 <mcgpllfll_frequency.part.0+0x28>
    3430:	00001044 	.word	0x00001044
    3434:	40047000 	.word	0x40047000
    3438:	1ffff0c8 	.word	0x1ffff0c8
    343c:	40064000 	.word	0x40064000
    3440:	00001004 	.word	0x00001004
    3444:	fffeffff 	.word	0xfffeffff

00003448 <uart0_irq>:
    3448:	b570      	push	{r4, r5, r6, lr}
    344a:	4b10      	ldr	r3, [pc, #64]	; (348c <uart0_irq+0x44>)
    344c:	4d10      	ldr	r5, [pc, #64]	; (3490 <uart0_irq+0x48>)
    344e:	791c      	ldrb	r4, [r3, #4]
    3450:	6828      	ldr	r0, [r5, #0]
    3452:	b2e4      	uxtb	r4, r4
    3454:	2800      	cmp	r0, #0
    3456:	d004      	beq.n	3462 <uart0_irq+0x1a>
    3458:	b263      	sxtb	r3, r4
    345a:	2b00      	cmp	r3, #0
    345c:	db11      	blt.n	3482 <uart0_irq+0x3a>
    345e:	06a3      	lsls	r3, r4, #26
    3460:	d409      	bmi.n	3476 <uart0_irq+0x2e>
    3462:	4a0a      	ldr	r2, [pc, #40]	; (348c <uart0_irq+0x44>)
    3464:	7913      	ldrb	r3, [r2, #4]
    3466:	071b      	lsls	r3, r3, #28
    3468:	d504      	bpl.n	3474 <uart0_irq+0x2c>
    346a:	2308      	movs	r3, #8
    346c:	7911      	ldrb	r1, [r2, #4]
    346e:	430b      	orrs	r3, r1
    3470:	b2db      	uxtb	r3, r3
    3472:	7113      	strb	r3, [r2, #4]
    3474:	bd70      	pop	{r4, r5, r6, pc}
    3476:	4b07      	ldr	r3, [pc, #28]	; (3494 <uart0_irq+0x4c>)
    3478:	6828      	ldr	r0, [r5, #0]
    347a:	681b      	ldr	r3, [r3, #0]
    347c:	2100      	movs	r1, #0
    347e:	4798      	blx	r3
    3480:	e7ef      	b.n	3462 <uart0_irq+0x1a>
    3482:	4b04      	ldr	r3, [pc, #16]	; (3494 <uart0_irq+0x4c>)
    3484:	2101      	movs	r1, #1
    3486:	681b      	ldr	r3, [r3, #0]
    3488:	4798      	blx	r3
    348a:	e7e8      	b.n	345e <uart0_irq+0x16>
    348c:	4006a000 	.word	0x4006a000
    3490:	1ffff7dc 	.word	0x1ffff7dc
    3494:	1ffff7e8 	.word	0x1ffff7e8

00003498 <uart2_irq>:
    3498:	b570      	push	{r4, r5, r6, lr}
    349a:	4b0c      	ldr	r3, [pc, #48]	; (34cc <uart2_irq+0x34>)
    349c:	4d0c      	ldr	r5, [pc, #48]	; (34d0 <uart2_irq+0x38>)
    349e:	791c      	ldrb	r4, [r3, #4]
    34a0:	68a8      	ldr	r0, [r5, #8]
    34a2:	b2e4      	uxtb	r4, r4
    34a4:	2800      	cmp	r0, #0
    34a6:	d004      	beq.n	34b2 <uart2_irq+0x1a>
    34a8:	b263      	sxtb	r3, r4
    34aa:	2b00      	cmp	r3, #0
    34ac:	db08      	blt.n	34c0 <uart2_irq+0x28>
    34ae:	06a3      	lsls	r3, r4, #26
    34b0:	d400      	bmi.n	34b4 <uart2_irq+0x1c>
    34b2:	bd70      	pop	{r4, r5, r6, pc}
    34b4:	4b07      	ldr	r3, [pc, #28]	; (34d4 <uart2_irq+0x3c>)
    34b6:	68a8      	ldr	r0, [r5, #8]
    34b8:	681b      	ldr	r3, [r3, #0]
    34ba:	2100      	movs	r1, #0
    34bc:	4798      	blx	r3
    34be:	e7f8      	b.n	34b2 <uart2_irq+0x1a>
    34c0:	4b04      	ldr	r3, [pc, #16]	; (34d4 <uart2_irq+0x3c>)
    34c2:	2101      	movs	r1, #1
    34c4:	681b      	ldr	r3, [r3, #0]
    34c6:	4798      	blx	r3
    34c8:	e7f1      	b.n	34ae <uart2_irq+0x16>
    34ca:	46c0      	nop			; (mov r8, r8)
    34cc:	4006c000 	.word	0x4006c000
    34d0:	1ffff7dc 	.word	0x1ffff7dc
    34d4:	1ffff7e8 	.word	0x1ffff7e8

000034d8 <uart1_irq>:
    34d8:	b570      	push	{r4, r5, r6, lr}
    34da:	4b0c      	ldr	r3, [pc, #48]	; (350c <uart1_irq+0x34>)
    34dc:	4d0c      	ldr	r5, [pc, #48]	; (3510 <uart1_irq+0x38>)
    34de:	791c      	ldrb	r4, [r3, #4]
    34e0:	6868      	ldr	r0, [r5, #4]
    34e2:	b2e4      	uxtb	r4, r4
    34e4:	2800      	cmp	r0, #0
    34e6:	d004      	beq.n	34f2 <uart1_irq+0x1a>
    34e8:	b263      	sxtb	r3, r4
    34ea:	2b00      	cmp	r3, #0
    34ec:	db08      	blt.n	3500 <uart1_irq+0x28>
    34ee:	06a3      	lsls	r3, r4, #26
    34f0:	d400      	bmi.n	34f4 <uart1_irq+0x1c>
    34f2:	bd70      	pop	{r4, r5, r6, pc}
    34f4:	4b07      	ldr	r3, [pc, #28]	; (3514 <uart1_irq+0x3c>)
    34f6:	6868      	ldr	r0, [r5, #4]
    34f8:	681b      	ldr	r3, [r3, #0]
    34fa:	2100      	movs	r1, #0
    34fc:	4798      	blx	r3
    34fe:	e7f8      	b.n	34f2 <uart1_irq+0x1a>
    3500:	4b04      	ldr	r3, [pc, #16]	; (3514 <uart1_irq+0x3c>)
    3502:	2101      	movs	r1, #1
    3504:	681b      	ldr	r3, [r3, #0]
    3506:	4798      	blx	r3
    3508:	e7f1      	b.n	34ee <uart1_irq+0x16>
    350a:	46c0      	nop			; (mov r8, r8)
    350c:	4006b000 	.word	0x4006b000
    3510:	1ffff7dc 	.word	0x1ffff7dc
    3514:	1ffff7e8 	.word	0x1ffff7e8

00003518 <serial_baud>:
    3518:	b5f8      	push	{r3, r4, r5, r6, r7, lr}
    351a:	464f      	mov	r7, r9
    351c:	4646      	mov	r6, r8
    351e:	b4c0      	push	{r6, r7}
    3520:	000f      	movs	r7, r1
    3522:	210c      	movs	r1, #12
    3524:	6803      	ldr	r3, [r0, #0]
    3526:	0004      	movs	r4, r0
    3528:	78de      	ldrb	r6, [r3, #3]
    352a:	78da      	ldrb	r2, [r3, #3]
    352c:	400e      	ands	r6, r1
    352e:	438a      	bics	r2, r1
    3530:	70da      	strb	r2, [r3, #3]
    3532:	6805      	ldr	r5, [r0, #0]
    3534:	4b4b      	ldr	r3, [pc, #300]	; (3664 <serial_baud+0x14c>)
    3536:	429d      	cmp	r5, r3
    3538:	d01f      	beq.n	357a <serial_baud+0x62>
    353a:	4b4b      	ldr	r3, [pc, #300]	; (3668 <serial_baud+0x150>)
    353c:	4a4b      	ldr	r2, [pc, #300]	; (366c <serial_baud+0x154>)
    353e:	58d1      	ldr	r1, [r2, r3]
    3540:	4b4b      	ldr	r3, [pc, #300]	; (3670 <serial_baud+0x158>)
    3542:	0349      	lsls	r1, r1, #13
    3544:	0f49      	lsrs	r1, r1, #29
    3546:	3101      	adds	r1, #1
    3548:	6818      	ldr	r0, [r3, #0]
    354a:	f000 fe3d 	bl	41c8 <__aeabi_uidiv>
    354e:	0139      	lsls	r1, r7, #4
    3550:	f000 fe3a 	bl	41c8 <__aeabi_uidiv>
    3554:	211f      	movs	r1, #31
    3556:	782b      	ldrb	r3, [r5, #0]
    3558:	0a02      	lsrs	r2, r0, #8
    355a:	400a      	ands	r2, r1
    355c:	438b      	bics	r3, r1
    355e:	4313      	orrs	r3, r2
    3560:	702b      	strb	r3, [r5, #0]
    3562:	6823      	ldr	r3, [r4, #0]
    3564:	b2c0      	uxtb	r0, r0
    3566:	785a      	ldrb	r2, [r3, #1]
    3568:	7058      	strb	r0, [r3, #1]
    356a:	6822      	ldr	r2, [r4, #0]
    356c:	78d3      	ldrb	r3, [r2, #3]
    356e:	431e      	orrs	r6, r3
    3570:	70d6      	strb	r6, [r2, #3]
    3572:	bc0c      	pop	{r2, r3}
    3574:	4690      	mov	r8, r2
    3576:	4699      	mov	r9, r3
    3578:	bdf8      	pop	{r3, r4, r5, r6, r7, pc}
    357a:	223f      	movs	r2, #63	; 0x3f
    357c:	4b3d      	ldr	r3, [pc, #244]	; (3674 <serial_baud+0x15c>)
    357e:	4690      	mov	r8, r2
    3580:	4699      	mov	r9, r3
    3582:	781b      	ldrb	r3, [r3, #0]
    3584:	4393      	bics	r3, r2
    3586:	d035      	beq.n	35f4 <serial_baud+0xdc>
    3588:	213f      	movs	r1, #63	; 0x3f
    358a:	4b37      	ldr	r3, [pc, #220]	; (3668 <serial_baud+0x150>)
    358c:	4a37      	ldr	r2, [pc, #220]	; (366c <serial_baud+0x154>)
    358e:	58d0      	ldr	r0, [r2, r3]
    3590:	4b37      	ldr	r3, [pc, #220]	; (3670 <serial_baud+0x158>)
    3592:	0f00      	lsrs	r0, r0, #28
    3594:	681b      	ldr	r3, [r3, #0]
    3596:	3001      	adds	r0, #1
    3598:	4358      	muls	r0, r3
    359a:	4b36      	ldr	r3, [pc, #216]	; (3674 <serial_baud+0x15c>)
    359c:	781a      	ldrb	r2, [r3, #0]
    359e:	438a      	bics	r2, r1
    35a0:	2a80      	cmp	r2, #128	; 0x80
    35a2:	d0d4      	beq.n	354e <serial_baud+0x36>
    35a4:	781a      	ldrb	r2, [r3, #0]
    35a6:	438a      	bics	r2, r1
    35a8:	d134      	bne.n	3614 <serial_baud+0xfc>
    35aa:	795a      	ldrb	r2, [r3, #5]
    35ac:	0652      	lsls	r2, r2, #25
    35ae:	d433      	bmi.n	3618 <serial_baud+0x100>
    35b0:	799a      	ldrb	r2, [r3, #6]
    35b2:	06d2      	lsls	r2, r2, #27
    35b4:	d42e      	bmi.n	3614 <serial_baud+0xfc>
    35b6:	2201      	movs	r2, #1
    35b8:	7819      	ldrb	r1, [r3, #0]
    35ba:	785b      	ldrb	r3, [r3, #1]
    35bc:	0689      	lsls	r1, r1, #26
    35be:	0f49      	lsrs	r1, r1, #29
    35c0:	408a      	lsls	r2, r1
    35c2:	2130      	movs	r1, #48	; 0x30
    35c4:	4219      	tst	r1, r3
    35c6:	d000      	beq.n	35ca <serial_baud+0xb2>
    35c8:	0152      	lsls	r2, r2, #5
    35ca:	211f      	movs	r1, #31
    35cc:	4b29      	ldr	r3, [pc, #164]	; (3674 <serial_baud+0x15c>)
    35ce:	78db      	ldrb	r3, [r3, #3]
    35d0:	438b      	bics	r3, r1
    35d2:	2b60      	cmp	r3, #96	; 0x60
    35d4:	d036      	beq.n	3644 <serial_baud+0x12c>
    35d6:	d82c      	bhi.n	3632 <serial_baud+0x11a>
    35d8:	2b20      	cmp	r3, #32
    35da:	d036      	beq.n	364a <serial_baud+0x132>
    35dc:	2b40      	cmp	r3, #64	; 0x40
    35de:	d037      	beq.n	3650 <serial_baud+0x138>
    35e0:	2b00      	cmp	r3, #0
    35e2:	d004      	beq.n	35ee <serial_baud+0xd6>
    35e4:	4924      	ldr	r1, [pc, #144]	; (3678 <serial_baud+0x160>)
    35e6:	4350      	muls	r0, r2
    35e8:	f000 fdee 	bl	41c8 <__aeabi_uidiv>
    35ec:	e7af      	b.n	354e <serial_baud+0x36>
    35ee:	21a0      	movs	r1, #160	; 0xa0
    35f0:	0089      	lsls	r1, r1, #2
    35f2:	e7f8      	b.n	35e6 <serial_baud+0xce>
    35f4:	f7ff ff02 	bl	33fc <mcgpllfll_frequency.part.0>
    35f8:	2800      	cmp	r0, #0
    35fa:	d031      	beq.n	3660 <serial_baud+0x148>
    35fc:	464b      	mov	r3, r9
    35fe:	4642      	mov	r2, r8
    3600:	781b      	ldrb	r3, [r3, #0]
    3602:	4393      	bics	r3, r2
    3604:	d002      	beq.n	360c <serial_baud+0xf4>
    3606:	6825      	ldr	r5, [r4, #0]
    3608:	2000      	movs	r0, #0
    360a:	e7a0      	b.n	354e <serial_baud+0x36>
    360c:	f7ff fef6 	bl	33fc <mcgpllfll_frequency.part.0>
    3610:	6825      	ldr	r5, [r4, #0]
    3612:	e79c      	b.n	354e <serial_baud+0x36>
    3614:	2000      	movs	r0, #0
    3616:	e79a      	b.n	354e <serial_baud+0x36>
    3618:	791a      	ldrb	r2, [r3, #4]
    361a:	7959      	ldrb	r1, [r3, #5]
    361c:	231f      	movs	r3, #31
    361e:	469c      	mov	r12, r3
    3620:	4013      	ands	r3, r2
    3622:	3301      	adds	r3, #1
    3624:	4358      	muls	r0, r3
    3626:	4663      	mov	r3, r12
    3628:	4019      	ands	r1, r3
    362a:	3118      	adds	r1, #24
    362c:	f000 fdcc 	bl	41c8 <__aeabi_uidiv>
    3630:	e78d      	b.n	354e <serial_baud+0x36>
    3632:	2ba0      	cmp	r3, #160	; 0xa0
    3634:	d011      	beq.n	365a <serial_baud+0x142>
    3636:	2bc0      	cmp	r3, #192	; 0xc0
    3638:	d00d      	beq.n	3656 <serial_baud+0x13e>
    363a:	2b80      	cmp	r3, #128	; 0x80
    363c:	d1d2      	bne.n	35e4 <serial_baud+0xcc>
    363e:	21b7      	movs	r1, #183	; 0xb7
    3640:	0089      	lsls	r1, r1, #2
    3642:	e7d0      	b.n	35e6 <serial_baud+0xce>
    3644:	21a0      	movs	r1, #160	; 0xa0
    3646:	0109      	lsls	r1, r1, #4
    3648:	e7cd      	b.n	35e6 <serial_baud+0xce>
    364a:	21a0      	movs	r1, #160	; 0xa0
    364c:	00c9      	lsls	r1, r1, #3
    364e:	e7ca      	b.n	35e6 <serial_baud+0xce>
    3650:	21f0      	movs	r1, #240	; 0xf0
    3652:	00c9      	lsls	r1, r1, #3
    3654:	e7c7      	b.n	35e6 <serial_baud+0xce>
    3656:	4909      	ldr	r1, [pc, #36]	; (367c <serial_baud+0x164>)
    3658:	e7c5      	b.n	35e6 <serial_baud+0xce>
    365a:	21b7      	movs	r1, #183	; 0xb7
    365c:	00c9      	lsls	r1, r1, #3
    365e:	e7c2      	b.n	35e6 <serial_baud+0xce>
    3660:	6825      	ldr	r5, [r4, #0]
    3662:	e791      	b.n	3588 <serial_baud+0x70>
    3664:	4006a000 	.word	0x4006a000
    3668:	00001044 	.word	0x00001044
    366c:	40047000 	.word	0x40047000
    3670:	1ffff0c8 	.word	0x1ffff0c8
    3674:	40064000 	.word	0x40064000
    3678:	00000b71 	.word	0x00000b71
    367c:	00000895 	.word	0x00000895

00003680 <serial_format>:
    3680:	b570      	push	{r4, r5, r6, lr}
    3682:	260c      	movs	r6, #12
    3684:	6801      	ldr	r1, [r0, #0]
    3686:	78cc      	ldrb	r4, [r1, #3]
    3688:	78cd      	ldrb	r5, [r1, #3]
    368a:	4034      	ands	r4, r6
    368c:	43b5      	bics	r5, r6
    368e:	70cd      	strb	r5, [r1, #3]
    3690:	2a01      	cmp	r2, #1
    3692:	d019      	beq.n	36c8 <serial_format+0x48>
    3694:	2a00      	cmp	r2, #0
    3696:	d019      	beq.n	36cc <serial_format+0x4c>
    3698:	3a02      	subs	r2, #2
    369a:	4255      	negs	r5, r2
    369c:	4155      	adcs	r5, r2
    369e:	0069      	lsls	r1, r5, #1
    36a0:	2520      	movs	r5, #32
    36a2:	6802      	ldr	r2, [r0, #0]
    36a4:	3b01      	subs	r3, #1
    36a6:	7091      	strb	r1, [r2, #2]
    36a8:	6801      	ldr	r1, [r0, #0]
    36aa:	015b      	lsls	r3, r3, #5
    36ac:	780a      	ldrb	r2, [r1, #0]
    36ae:	43aa      	bics	r2, r5
    36b0:	700a      	strb	r2, [r1, #0]
    36b2:	6801      	ldr	r1, [r0, #0]
    36b4:	780a      	ldrb	r2, [r1, #0]
    36b6:	4313      	orrs	r3, r2
    36b8:	b2db      	uxtb	r3, r3
    36ba:	700b      	strb	r3, [r1, #0]
    36bc:	0023      	movs	r3, r4
    36be:	6801      	ldr	r1, [r0, #0]
    36c0:	78ca      	ldrb	r2, [r1, #3]
    36c2:	4313      	orrs	r3, r2
    36c4:	70cb      	strb	r3, [r1, #3]
    36c6:	bd70      	pop	{r4, r5, r6, pc}
    36c8:	2103      	movs	r1, #3
    36ca:	e7e9      	b.n	36a0 <serial_format+0x20>
    36cc:	2100      	movs	r1, #0
    36ce:	e7e7      	b.n	36a0 <serial_format+0x20>

000036d0 <serial_init>:
    36d0:	b5f8      	push	{r3, r4, r5, r6, r7, lr}
    36d2:	464d      	mov	r5, r9
    36d4:	4644      	mov	r4, r8
    36d6:	465f      	mov	r7, r11
    36d8:	4656      	mov	r6, r10
    36da:	b4f0      	push	{r4, r5, r6, r7}
    36dc:	000f      	movs	r7, r1
    36de:	4b5e      	ldr	r3, [pc, #376]	; (3858 <serial_init+0x188>)
    36e0:	0005      	movs	r5, r0
    36e2:	0019      	movs	r1, r3
    36e4:	0038      	movs	r0, r7
    36e6:	0016      	movs	r6, r2
    36e8:	4699      	mov	r9, r3
    36ea:	f7ff fb75 	bl	2dd8 <pinmap_peripheral>
    36ee:	4b5b      	ldr	r3, [pc, #364]	; (385c <serial_init+0x18c>)
    36f0:	0004      	movs	r4, r0
    36f2:	0019      	movs	r1, r3
    36f4:	0030      	movs	r0, r6
    36f6:	4698      	mov	r8, r3
    36f8:	f7ff fb6e 	bl	2dd8 <pinmap_peripheral>
    36fc:	0001      	movs	r1, r0
    36fe:	0020      	movs	r0, r4
    3700:	f7ff fb58 	bl	2db4 <pinmap_merge>
    3704:	4b56      	ldr	r3, [pc, #344]	; (3860 <serial_init+0x190>)
    3706:	0004      	movs	r4, r0
    3708:	1e02      	subs	r2, r0, #0
    370a:	6028      	str	r0, [r5, #0]
    370c:	429a      	cmp	r2, r3
    370e:	d100      	bne.n	3712 <serial_init+0x42>
    3710:	e081      	b.n	3816 <serial_init+0x146>
    3712:	4b54      	ldr	r3, [pc, #336]	; (3864 <serial_init+0x194>)
    3714:	4298      	cmp	r0, r3
    3716:	d06b      	beq.n	37f0 <serial_init+0x120>
    3718:	4b53      	ldr	r3, [pc, #332]	; (3868 <serial_init+0x198>)
    371a:	4298      	cmp	r0, r3
    371c:	d04f      	beq.n	37be <serial_init+0xee>
    371e:	210c      	movs	r1, #12
    3720:	78d3      	ldrb	r3, [r2, #3]
    3722:	438b      	bics	r3, r1
    3724:	70d3      	strb	r3, [r2, #3]
    3726:	2308      	movs	r3, #8
    3728:	682a      	ldr	r2, [r5, #0]
    372a:	78d1      	ldrb	r1, [r2, #3]
    372c:	430b      	orrs	r3, r1
    372e:	2140      	movs	r1, #64	; 0x40
    3730:	70d3      	strb	r3, [r2, #3]
    3732:	682a      	ldr	r2, [r5, #0]
    3734:	7913      	ldrb	r3, [r2, #4]
    3736:	4219      	tst	r1, r3
    3738:	d0fc      	beq.n	3734 <serial_init+0x64>
    373a:	210c      	movs	r1, #12
    373c:	78d3      	ldrb	r3, [r2, #3]
    373e:	438b      	bics	r3, r1
    3740:	70d3      	strb	r3, [r2, #3]
    3742:	4b47      	ldr	r3, [pc, #284]	; (3860 <serial_init+0x190>)
    3744:	429c      	cmp	r4, r3
    3746:	d063      	beq.n	3810 <serial_init+0x140>
    3748:	4b46      	ldr	r3, [pc, #280]	; (3864 <serial_init+0x194>)
    374a:	429c      	cmp	r4, r3
    374c:	d05d      	beq.n	380a <serial_init+0x13a>
    374e:	4b46      	ldr	r3, [pc, #280]	; (3868 <serial_init+0x198>)
    3750:	429c      	cmp	r4, r3
    3752:	d031      	beq.n	37b8 <serial_init+0xe8>
    3754:	2196      	movs	r1, #150	; 0x96
    3756:	0028      	movs	r0, r5
    3758:	0189      	lsls	r1, r1, #6
    375a:	f7ff fedd 	bl	3518 <serial_baud>
    375e:	2301      	movs	r3, #1
    3760:	2200      	movs	r2, #0
    3762:	2108      	movs	r1, #8
    3764:	0028      	movs	r0, r5
    3766:	f7ff ff8b 	bl	3680 <serial_format>
    376a:	4649      	mov	r1, r9
    376c:	0038      	movs	r0, r7
    376e:	f7ff fb05 	bl	2d7c <pinmap_pinout>
    3772:	4641      	mov	r1, r8
    3774:	0030      	movs	r0, r6
    3776:	f7ff fb01 	bl	2d7c <pinmap_pinout>
    377a:	1c7b      	adds	r3, r7, #1
    377c:	d008      	beq.n	3790 <serial_init+0xc0>
    377e:	2308      	movs	r3, #8
    3780:	682a      	ldr	r2, [r5, #0]
    3782:	0038      	movs	r0, r7
    3784:	78d1      	ldrb	r1, [r2, #3]
    3786:	430b      	orrs	r3, r1
    3788:	70d3      	strb	r3, [r2, #3]
    378a:	2102      	movs	r1, #2
    378c:	f7ff fc64 	bl	3058 <pin_mode>
    3790:	1c73      	adds	r3, r6, #1
    3792:	d008      	beq.n	37a6 <serial_init+0xd6>
    3794:	2304      	movs	r3, #4
    3796:	682a      	ldr	r2, [r5, #0]
    3798:	0030      	movs	r0, r6
    379a:	78d1      	ldrb	r1, [r2, #3]
    379c:	430b      	orrs	r3, r1
    379e:	70d3      	strb	r3, [r2, #3]
    37a0:	2102      	movs	r1, #2
    37a2:	f7ff fc59 	bl	3058 <pin_mode>
    37a6:	4b30      	ldr	r3, [pc, #192]	; (3868 <serial_init+0x198>)
    37a8:	429c      	cmp	r4, r3
    37aa:	d049      	beq.n	3840 <serial_init+0x170>
    37ac:	bc3c      	pop	{r2, r3, r4, r5}
    37ae:	4690      	mov	r8, r2
    37b0:	4699      	mov	r9, r3
    37b2:	46a2      	mov	r10, r4
    37b4:	46ab      	mov	r11, r5
    37b6:	bdf8      	pop	{r3, r4, r5, r6, r7, pc}
    37b8:	2300      	movs	r3, #0
    37ba:	606b      	str	r3, [r5, #4]
    37bc:	e7ca      	b.n	3754 <serial_init+0x84>
    37be:	213f      	movs	r1, #63	; 0x3f
    37c0:	4b2a      	ldr	r3, [pc, #168]	; (386c <serial_init+0x19c>)
    37c2:	781b      	ldrb	r3, [r3, #0]
    37c4:	438b      	bics	r3, r1
    37c6:	d02e      	beq.n	3826 <serial_init+0x156>
    37c8:	4829      	ldr	r0, [pc, #164]	; (3870 <serial_init+0x1a0>)
    37ca:	4b2a      	ldr	r3, [pc, #168]	; (3874 <serial_init+0x1a4>)
    37cc:	469b      	mov	r11, r3
    37ce:	58c3      	ldr	r3, [r0, r3]
    37d0:	469a      	mov	r10, r3
    37d2:	2380      	movs	r3, #128	; 0x80
    37d4:	4651      	mov	r1, r10
    37d6:	051b      	lsls	r3, r3, #20
    37d8:	4319      	orrs	r1, r3
    37da:	000b      	movs	r3, r1
    37dc:	4659      	mov	r1, r11
    37de:	5043      	str	r3, [r0, r1]
    37e0:	4b25      	ldr	r3, [pc, #148]	; (3878 <serial_init+0x1a8>)
    37e2:	4823      	ldr	r0, [pc, #140]	; (3870 <serial_init+0x1a0>)
    37e4:	469b      	mov	r11, r3
    37e6:	58c3      	ldr	r3, [r0, r3]
    37e8:	469a      	mov	r10, r3
    37ea:	2380      	movs	r3, #128	; 0x80
    37ec:	00db      	lsls	r3, r3, #3
    37ee:	e006      	b.n	37fe <serial_init+0x12e>
    37f0:	4b21      	ldr	r3, [pc, #132]	; (3878 <serial_init+0x1a8>)
    37f2:	481f      	ldr	r0, [pc, #124]	; (3870 <serial_init+0x1a0>)
    37f4:	469b      	mov	r11, r3
    37f6:	58c3      	ldr	r3, [r0, r3]
    37f8:	469a      	mov	r10, r3
    37fa:	2380      	movs	r3, #128	; 0x80
    37fc:	015b      	lsls	r3, r3, #5
    37fe:	4651      	mov	r1, r10
    3800:	4319      	orrs	r1, r3
    3802:	000b      	movs	r3, r1
    3804:	4659      	mov	r1, r11
    3806:	5043      	str	r3, [r0, r1]
    3808:	e789      	b.n	371e <serial_init+0x4e>
    380a:	2302      	movs	r3, #2
    380c:	606b      	str	r3, [r5, #4]
    380e:	e7a1      	b.n	3754 <serial_init+0x84>
    3810:	2301      	movs	r3, #1
    3812:	606b      	str	r3, [r5, #4]
    3814:	e79e      	b.n	3754 <serial_init+0x84>
    3816:	4b18      	ldr	r3, [pc, #96]	; (3878 <serial_init+0x1a8>)
    3818:	4815      	ldr	r0, [pc, #84]	; (3870 <serial_init+0x1a0>)
    381a:	469b      	mov	r11, r3
    381c:	58c3      	ldr	r3, [r0, r3]
    381e:	469a      	mov	r10, r3
    3820:	2380      	movs	r3, #128	; 0x80
    3822:	011b      	lsls	r3, r3, #4
    3824:	e7eb      	b.n	37fe <serial_init+0x12e>
    3826:	f7ff fde9 	bl	33fc <mcgpllfll_frequency.part.0>
    382a:	2800      	cmp	r0, #0
    382c:	d011      	beq.n	3852 <serial_init+0x182>
    382e:	2080      	movs	r0, #128	; 0x80
    3830:	4a10      	ldr	r2, [pc, #64]	; (3874 <serial_init+0x1a4>)
    3832:	490f      	ldr	r1, [pc, #60]	; (3870 <serial_init+0x1a0>)
    3834:	04c0      	lsls	r0, r0, #19
    3836:	588b      	ldr	r3, [r1, r2]
    3838:	4303      	orrs	r3, r0
    383a:	508b      	str	r3, [r1, r2]
    383c:	682a      	ldr	r2, [r5, #0]
    383e:	e7cf      	b.n	37e0 <serial_init+0x110>
    3840:	2201      	movs	r2, #1
    3842:	4b0e      	ldr	r3, [pc, #56]	; (387c <serial_init+0x1ac>)
    3844:	0029      	movs	r1, r5
    3846:	601a      	str	r2, [r3, #0]
    3848:	480d      	ldr	r0, [pc, #52]	; (3880 <serial_init+0x1b0>)
    384a:	3207      	adds	r2, #7
    384c:	f001 fa07 	bl	4c5e <memcpy>
    3850:	e7ac      	b.n	37ac <serial_init+0xdc>
    3852:	682a      	ldr	r2, [r5, #0]
    3854:	e7b8      	b.n	37c8 <serial_init+0xf8>
    3856:	46c0      	nop			; (mov r8, r8)
    3858:	00006a3c 	.word	0x00006a3c
    385c:	000069d0 	.word	0x000069d0
    3860:	4006b000 	.word	0x4006b000
    3864:	4006c000 	.word	0x4006c000
    3868:	4006a000 	.word	0x4006a000
    386c:	40064000 	.word	0x40064000
    3870:	40047000 	.word	0x40047000
    3874:	00001004 	.word	0x00001004
    3878:	00001034 	.word	0x00001034
    387c:	1ffff7ec 	.word	0x1ffff7ec
    3880:	1ffff8fc 	.word	0x1ffff8fc

00003884 <serial_irq_handler>:
    3884:	4b03      	ldr	r3, [pc, #12]	; (3894 <serial_irq_handler+0x10>)
    3886:	6019      	str	r1, [r3, #0]
    3888:	6843      	ldr	r3, [r0, #4]
    388a:	4903      	ldr	r1, [pc, #12]	; (3898 <serial_irq_handler+0x14>)
    388c:	009b      	lsls	r3, r3, #2
    388e:	505a      	str	r2, [r3, r1]
    3890:	4770      	bx	lr
    3892:	46c0      	nop			; (mov r8, r8)
    3894:	1ffff7e8 	.word	0x1ffff7e8
    3898:	1ffff7dc 	.word	0x1ffff7dc

0000389c <serial_irq_set>:
    389c:	b570      	push	{r4, r5, r6, lr}
    389e:	6803      	ldr	r3, [r0, #0]
    38a0:	4c2b      	ldr	r4, [pc, #172]	; (3950 <serial_irq_set+0xb4>)
    38a2:	42a3      	cmp	r3, r4
    38a4:	d033      	beq.n	390e <serial_irq_set+0x72>
    38a6:	4c2b      	ldr	r4, [pc, #172]	; (3954 <serial_irq_set+0xb8>)
    38a8:	42a3      	cmp	r3, r4
    38aa:	d02d      	beq.n	3908 <serial_irq_set+0x6c>
    38ac:	4c2a      	ldr	r4, [pc, #168]	; (3958 <serial_irq_set+0xbc>)
    38ae:	42a3      	cmp	r3, r4
    38b0:	d011      	beq.n	38d6 <serial_irq_set+0x3a>
    38b2:	2500      	movs	r5, #0
    38b4:	2400      	movs	r4, #0
    38b6:	2a00      	cmp	r2, #0
    38b8:	d011      	beq.n	38de <serial_irq_set+0x42>
    38ba:	2900      	cmp	r1, #0
    38bc:	d042      	beq.n	3944 <serial_irq_set+0xa8>
    38be:	2901      	cmp	r1, #1
    38c0:	d035      	beq.n	392e <serial_irq_set+0x92>
    38c2:	b264      	sxtb	r4, r4
    38c4:	0029      	movs	r1, r5
    38c6:	0020      	movs	r0, r4
    38c8:	f7ff fafc 	bl	2ec4 <NVIC_SetVector>
    38cc:	2301      	movs	r3, #1
    38ce:	40a3      	lsls	r3, r4
    38d0:	4a22      	ldr	r2, [pc, #136]	; (395c <serial_irq_set+0xc0>)
    38d2:	6013      	str	r3, [r2, #0]
    38d4:	bd70      	pop	{r4, r5, r6, pc}
    38d6:	4d22      	ldr	r5, [pc, #136]	; (3960 <serial_irq_set+0xc4>)
    38d8:	240c      	movs	r4, #12
    38da:	2a00      	cmp	r2, #0
    38dc:	d1ed      	bne.n	38ba <serial_irq_set+0x1e>
    38de:	424a      	negs	r2, r1
    38e0:	414a      	adcs	r2, r1
    38e2:	b2d2      	uxtb	r2, r2
    38e4:	2900      	cmp	r1, #0
    38e6:	d027      	beq.n	3938 <serial_irq_set+0x9c>
    38e8:	2901      	cmp	r1, #1
    38ea:	d013      	beq.n	3914 <serial_irq_set+0x78>
    38ec:	2a01      	cmp	r2, #1
    38ee:	d118      	bne.n	3922 <serial_irq_set+0x86>
    38f0:	78db      	ldrb	r3, [r3, #3]
    38f2:	b25b      	sxtb	r3, r3
    38f4:	43db      	mvns	r3, r3
    38f6:	0fdb      	lsrs	r3, r3, #31
    38f8:	2b00      	cmp	r3, #0
    38fa:	d0eb      	beq.n	38d4 <serial_irq_set+0x38>
    38fc:	2301      	movs	r3, #1
    38fe:	2280      	movs	r2, #128	; 0x80
    3900:	40a3      	lsls	r3, r4
    3902:	4916      	ldr	r1, [pc, #88]	; (395c <serial_irq_set+0xc0>)
    3904:	508b      	str	r3, [r1, r2]
    3906:	e7e5      	b.n	38d4 <serial_irq_set+0x38>
    3908:	4d16      	ldr	r5, [pc, #88]	; (3964 <serial_irq_set+0xc8>)
    390a:	240e      	movs	r4, #14
    390c:	e7d3      	b.n	38b6 <serial_irq_set+0x1a>
    390e:	4d16      	ldr	r5, [pc, #88]	; (3968 <serial_irq_set+0xcc>)
    3910:	240d      	movs	r4, #13
    3912:	e7d0      	b.n	38b6 <serial_irq_set+0x1a>
    3914:	257f      	movs	r5, #127	; 0x7f
    3916:	78d9      	ldrb	r1, [r3, #3]
    3918:	4029      	ands	r1, r5
    391a:	70d9      	strb	r1, [r3, #3]
    391c:	6803      	ldr	r3, [r0, #0]
    391e:	2a01      	cmp	r2, #1
    3920:	d0e6      	beq.n	38f0 <serial_irq_set+0x54>
    3922:	2201      	movs	r2, #1
    3924:	78db      	ldrb	r3, [r3, #3]
    3926:	095b      	lsrs	r3, r3, #5
    3928:	4053      	eors	r3, r2
    392a:	4013      	ands	r3, r2
    392c:	e7e4      	b.n	38f8 <serial_irq_set+0x5c>
    392e:	2280      	movs	r2, #128	; 0x80
    3930:	78d9      	ldrb	r1, [r3, #3]
    3932:	430a      	orrs	r2, r1
    3934:	70da      	strb	r2, [r3, #3]
    3936:	e7c4      	b.n	38c2 <serial_irq_set+0x26>
    3938:	2520      	movs	r5, #32
    393a:	78d9      	ldrb	r1, [r3, #3]
    393c:	43a9      	bics	r1, r5
    393e:	70d9      	strb	r1, [r3, #3]
    3940:	6803      	ldr	r3, [r0, #0]
    3942:	e7d3      	b.n	38ec <serial_irq_set+0x50>
    3944:	2220      	movs	r2, #32
    3946:	78d9      	ldrb	r1, [r3, #3]
    3948:	430a      	orrs	r2, r1
    394a:	70da      	strb	r2, [r3, #3]
    394c:	e7b9      	b.n	38c2 <serial_irq_set+0x26>
    394e:	46c0      	nop			; (mov r8, r8)
    3950:	4006b000 	.word	0x4006b000
    3954:	4006c000 	.word	0x4006c000
    3958:	4006a000 	.word	0x4006a000
    395c:	e000e100 	.word	0xe000e100
    3960:	00003449 	.word	0x00003449
    3964:	00003499 	.word	0x00003499
    3968:	000034d9 	.word	0x000034d9

0000396c <serial_getc>:
    396c:	b530      	push	{r4, r5, lr}
    396e:	2120      	movs	r1, #32
    3970:	2508      	movs	r5, #8
    3972:	2408      	movs	r4, #8
    3974:	6803      	ldr	r3, [r0, #0]
    3976:	791a      	ldrb	r2, [r3, #4]
    3978:	4214      	tst	r4, r2
    397a:	d004      	beq.n	3986 <serial_getc+0x1a>
    397c:	791a      	ldrb	r2, [r3, #4]
    397e:	432a      	orrs	r2, r5
    3980:	b2d2      	uxtb	r2, r2
    3982:	711a      	strb	r2, [r3, #4]
    3984:	6803      	ldr	r3, [r0, #0]
    3986:	791a      	ldrb	r2, [r3, #4]
    3988:	4211      	tst	r1, r2
    398a:	d0f4      	beq.n	3976 <serial_getc+0xa>
    398c:	79d8      	ldrb	r0, [r3, #7]
    398e:	b2c0      	uxtb	r0, r0
    3990:	bd30      	pop	{r4, r5, pc}
    3992:	46c0      	nop			; (mov r8, r8)

00003994 <serial_putc>:
    3994:	b570      	push	{r4, r5, r6, lr}
    3996:	2608      	movs	r6, #8
    3998:	2508      	movs	r5, #8
    399a:	247f      	movs	r4, #127	; 0x7f
    399c:	6802      	ldr	r2, [r0, #0]
    399e:	7913      	ldrb	r3, [r2, #4]
    39a0:	421d      	tst	r5, r3
    39a2:	d004      	beq.n	39ae <serial_putc+0x1a>
    39a4:	7913      	ldrb	r3, [r2, #4]
    39a6:	4333      	orrs	r3, r6
    39a8:	b2db      	uxtb	r3, r3
    39aa:	7113      	strb	r3, [r2, #4]
    39ac:	6802      	ldr	r2, [r0, #0]
    39ae:	7913      	ldrb	r3, [r2, #4]
    39b0:	43a3      	bics	r3, r4
    39b2:	d0f4      	beq.n	399e <serial_putc+0xa>
    39b4:	b2c9      	uxtb	r1, r1
    39b6:	71d1      	strb	r1, [r2, #7]
    39b8:	bd70      	pop	{r4, r5, r6, pc}
    39ba:	46c0      	nop			; (mov r8, r8)

000039bc <mbed::FileBase::~FileBase()>:
    39bc:	4b0a      	ldr	r3, [pc, #40]	; (39e8 <mbed::FileBase::~FileBase()+0x2c>)
    39be:	3308      	adds	r3, #8
    39c0:	6003      	str	r3, [r0, #0]
    39c2:	6883      	ldr	r3, [r0, #8]
    39c4:	2b00      	cmp	r3, #0
    39c6:	d00a      	beq.n	39de <mbed::FileBase::~FileBase()+0x22>
    39c8:	4b08      	ldr	r3, [pc, #32]	; (39ec <mbed::FileBase::~FileBase()+0x30>)
    39ca:	681a      	ldr	r2, [r3, #0]
    39cc:	4290      	cmp	r0, r2
    39ce:	d101      	bne.n	39d4 <mbed::FileBase::~FileBase()+0x18>
    39d0:	e006      	b.n	39e0 <mbed::FileBase::~FileBase()+0x24>
    39d2:	001a      	movs	r2, r3
    39d4:	6853      	ldr	r3, [r2, #4]
    39d6:	4298      	cmp	r0, r3
    39d8:	d1fb      	bne.n	39d2 <mbed::FileBase::~FileBase()+0x16>
    39da:	6843      	ldr	r3, [r0, #4]
    39dc:	6053      	str	r3, [r2, #4]
    39de:	4770      	bx	lr
    39e0:	6842      	ldr	r2, [r0, #4]
    39e2:	601a      	str	r2, [r3, #0]
    39e4:	e7fb      	b.n	39de <mbed::FileBase::~FileBase()+0x22>
    39e6:	46c0      	nop			; (mov r8, r8)
    39e8:	00006aa8 	.word	0x00006aa8
    39ec:	1ffff7f0 	.word	0x1ffff7f0

000039f0 <mbed::FileBase::~FileBase()>:
    39f0:	4b0d      	ldr	r3, [pc, #52]	; (3a28 <mbed::FileBase::~FileBase()+0x38>)
    39f2:	b510      	push	{r4, lr}
    39f4:	3308      	adds	r3, #8
    39f6:	6003      	str	r3, [r0, #0]
    39f8:	6883      	ldr	r3, [r0, #8]
    39fa:	0004      	movs	r4, r0
    39fc:	2b00      	cmp	r3, #0
    39fe:	d00a      	beq.n	3a16 <mbed::FileBase::~FileBase()+0x26>
    3a00:	4b0a      	ldr	r3, [pc, #40]	; (3a2c <mbed::FileBase::~FileBase()+0x3c>)
    3a02:	681a      	ldr	r2, [r3, #0]
    3a04:	4290      	cmp	r0, r2
    3a06:	d101      	bne.n	3a0c <mbed::FileBase::~FileBase()+0x1c>
    3a08:	e00a      	b.n	3a20 <mbed::FileBase::~FileBase()+0x30>
    3a0a:	001a      	movs	r2, r3
    3a0c:	6853      	ldr	r3, [r2, #4]
    3a0e:	429c      	cmp	r4, r3
    3a10:	d1fb      	bne.n	3a0a <mbed::FileBase::~FileBase()+0x1a>
    3a12:	6863      	ldr	r3, [r4, #4]
    3a14:	6053      	str	r3, [r2, #4]
    3a16:	0020      	movs	r0, r4
    3a18:	f000 fbd1 	bl	41be <operator delete(void*)>
    3a1c:	0020      	movs	r0, r4
    3a1e:	bd10      	pop	{r4, pc}
    3a20:	6842      	ldr	r2, [r0, #4]
    3a22:	601a      	str	r2, [r3, #0]
    3a24:	e7f7      	b.n	3a16 <mbed::FileBase::~FileBase()+0x26>
    3a26:	46c0      	nop			; (mov r8, r8)
    3a28:	00006aa8 	.word	0x00006aa8
    3a2c:	1ffff7f0 	.word	0x1ffff7f0

00003a30 <mbed::FileBase::FileBase(char const*, mbed::PathType)>:
    3a30:	4b06      	ldr	r3, [pc, #24]	; (3a4c <mbed::FileBase::FileBase(char const*, mbed::PathType)+0x1c>)
    3a32:	6081      	str	r1, [r0, #8]
    3a34:	3308      	adds	r3, #8
    3a36:	6003      	str	r3, [r0, #0]
    3a38:	2300      	movs	r3, #0
    3a3a:	7302      	strb	r2, [r0, #12]
    3a3c:	6043      	str	r3, [r0, #4]
    3a3e:	2900      	cmp	r1, #0
    3a40:	d003      	beq.n	3a4a <mbed::FileBase::FileBase(char const*, mbed::PathType)+0x1a>
    3a42:	4b03      	ldr	r3, [pc, #12]	; (3a50 <mbed::FileBase::FileBase(char const*, mbed::PathType)+0x20>)
    3a44:	681a      	ldr	r2, [r3, #0]
    3a46:	6018      	str	r0, [r3, #0]
    3a48:	6042      	str	r2, [r0, #4]
    3a4a:	4770      	bx	lr
    3a4c:	00006aa8 	.word	0x00006aa8
    3a50:	1ffff7f0 	.word	0x1ffff7f0

00003a54 <mbed::FileBase::lookup(char const*, unsigned int)>:
    3a54:	b5f8      	push	{r3, r4, r5, r6, r7, lr}
    3a56:	4b0e      	ldr	r3, [pc, #56]	; (3a90 <mbed::FileBase::lookup(char const*, unsigned int)+0x3c>)
    3a58:	0007      	movs	r7, r0
    3a5a:	681c      	ldr	r4, [r3, #0]
    3a5c:	000e      	movs	r6, r1
    3a5e:	2c00      	cmp	r4, #0
    3a60:	d011      	beq.n	3a86 <mbed::FileBase::lookup(char const*, unsigned int)+0x32>
    3a62:	68a5      	ldr	r5, [r4, #8]
    3a64:	2d00      	cmp	r5, #0
    3a66:	d00b      	beq.n	3a80 <mbed::FileBase::lookup(char const*, unsigned int)+0x2c>
    3a68:	0032      	movs	r2, r6
    3a6a:	0039      	movs	r1, r7
    3a6c:	0028      	movs	r0, r5
    3a6e:	f001 ffd2 	bl	5a16 <strncmp>
    3a72:	2800      	cmp	r0, #0
    3a74:	d104      	bne.n	3a80 <mbed::FileBase::lookup(char const*, unsigned int)+0x2c>
    3a76:	0028      	movs	r0, r5
    3a78:	f001 ffc6 	bl	5a08 <strlen>
    3a7c:	4286      	cmp	r6, r0
    3a7e:	d004      	beq.n	3a8a <mbed::FileBase::lookup(char const*, unsigned int)+0x36>
    3a80:	6864      	ldr	r4, [r4, #4]
    3a82:	2c00      	cmp	r4, #0
    3a84:	d1ed      	bne.n	3a62 <mbed::FileBase::lookup(char const*, unsigned int)+0xe>
    3a86:	2000      	movs	r0, #0
    3a88:	bdf8      	pop	{r3, r4, r5, r6, r7, pc}
    3a8a:	0020      	movs	r0, r4
    3a8c:	e7fc      	b.n	3a88 <mbed::FileBase::lookup(char const*, unsigned int)+0x34>
    3a8e:	46c0      	nop			; (mov r8, r8)
    3a90:	1ffff7f0 	.word	0x1ffff7f0

00003a94 <mbed::FileBase::getPathType()>:
    3a94:	7b00      	ldrb	r0, [r0, #12]
    3a96:	4770      	bx	lr

00003a98 <mbed::FileHandle::flen()>:
    3a98:	6803      	ldr	r3, [r0, #0]
    3a9a:	b570      	push	{r4, r5, r6, lr}
    3a9c:	691b      	ldr	r3, [r3, #16]
    3a9e:	2201      	movs	r2, #1
    3aa0:	2100      	movs	r1, #0
    3aa2:	0004      	movs	r4, r0
    3aa4:	4798      	blx	r3
    3aa6:	0006      	movs	r6, r0
    3aa8:	1c43      	adds	r3, r0, #1
    3aaa:	d00e      	beq.n	3aca <mbed::FileHandle::flen()+0x32>
    3aac:	6823      	ldr	r3, [r4, #0]
    3aae:	2202      	movs	r2, #2
    3ab0:	691b      	ldr	r3, [r3, #16]
    3ab2:	2100      	movs	r1, #0
    3ab4:	0020      	movs	r0, r4
    3ab6:	4798      	blx	r3
    3ab8:	0005      	movs	r5, r0
    3aba:	6823      	ldr	r3, [r4, #0]
    3abc:	2200      	movs	r2, #0
    3abe:	691b      	ldr	r3, [r3, #16]
    3ac0:	0031      	movs	r1, r6
    3ac2:	0020      	movs	r0, r4
    3ac4:	4798      	blx	r3
    3ac6:	0028      	movs	r0, r5
    3ac8:	bd70      	pop	{r4, r5, r6, pc}
    3aca:	e7fd      	b.n	3ac8 <mbed::FileHandle::flen()+0x30>

00003acc <mbed::FileLike::FileLike(char const*)>:
    3acc:	4b07      	ldr	r3, [pc, #28]	; (3aec <mbed::FileLike::FileLike(char const*)+0x20>)
    3ace:	b510      	push	{r4, lr}
    3ad0:	2200      	movs	r2, #0
    3ad2:	0004      	movs	r4, r0
    3ad4:	c008      	stmia	r0!, {r3}
    3ad6:	f7ff ffab 	bl	3a30 <mbed::FileBase::FileBase(char const*, mbed::PathType)>
    3ada:	4b05      	ldr	r3, [pc, #20]	; (3af0 <mbed::FileLike::FileLike(char const*)+0x24>)
    3adc:	0020      	movs	r0, r4
    3ade:	001a      	movs	r2, r3
    3ae0:	3334      	adds	r3, #52	; 0x34
    3ae2:	3208      	adds	r2, #8
    3ae4:	6022      	str	r2, [r4, #0]
    3ae6:	6063      	str	r3, [r4, #4]
    3ae8:	bd10      	pop	{r4, pc}
    3aea:	46c0      	nop			; (mov r8, r8)
    3aec:	00006b14 	.word	0x00006b14
    3af0:	00006ab8 	.word	0x00006ab8

00003af4 <mbed::FileLike::~FileLike()>:
    3af4:	4b07      	ldr	r3, [pc, #28]	; (3b14 <mbed::FileLike::~FileLike()+0x20>)
    3af6:	b510      	push	{r4, lr}
    3af8:	001a      	movs	r2, r3
    3afa:	0004      	movs	r4, r0
    3afc:	3208      	adds	r2, #8
    3afe:	3334      	adds	r3, #52	; 0x34
    3b00:	6002      	str	r2, [r0, #0]
    3b02:	6043      	str	r3, [r0, #4]
    3b04:	3004      	adds	r0, #4
    3b06:	f7ff ff59 	bl	39bc <mbed::FileBase::~FileBase()>
    3b0a:	0020      	movs	r0, r4
    3b0c:	f000 f86c 	bl	3be8 <mbed::FileHandle::~FileHandle()>
    3b10:	0020      	movs	r0, r4
    3b12:	bd10      	pop	{r4, pc}
    3b14:	00006ab8 	.word	0x00006ab8

00003b18 <mbed::FilePath::FilePath(char const*)>:
    3b18:	2300      	movs	r3, #0
    3b1a:	b570      	push	{r4, r5, r6, lr}
    3b1c:	6003      	str	r3, [r0, #0]
    3b1e:	6043      	str	r3, [r0, #4]
    3b20:	780b      	ldrb	r3, [r1, #0]
    3b22:	0004      	movs	r4, r0
    3b24:	2b2f      	cmp	r3, #47	; 0x2f
    3b26:	d001      	beq.n	3b2c <mbed::FilePath::FilePath(char const*)+0x14>
    3b28:	0020      	movs	r0, r4
    3b2a:	bd70      	pop	{r4, r5, r6, pc}
    3b2c:	784b      	ldrb	r3, [r1, #1]
    3b2e:	2b00      	cmp	r3, #0
    3b30:	d0fa      	beq.n	3b28 <mbed::FilePath::FilePath(char const*)+0x10>
    3b32:	1c48      	adds	r0, r1, #1
    3b34:	6020      	str	r0, [r4, #0]
    3b36:	784b      	ldrb	r3, [r1, #1]
    3b38:	2b2f      	cmp	r3, #47	; 0x2f
    3b3a:	d014      	beq.n	3b66 <mbed::FilePath::FilePath(char const*)+0x4e>
    3b3c:	2b00      	cmp	r3, #0
    3b3e:	d015      	beq.n	3b6c <mbed::FilePath::FilePath(char const*)+0x54>
    3b40:	0003      	movs	r3, r0
    3b42:	e001      	b.n	3b48 <mbed::FilePath::FilePath(char const*)+0x30>
    3b44:	2a00      	cmp	r2, #0
    3b46:	d00c      	beq.n	3b62 <mbed::FilePath::FilePath(char const*)+0x4a>
    3b48:	1a5d      	subs	r5, r3, r1
    3b4a:	3301      	adds	r3, #1
    3b4c:	6023      	str	r3, [r4, #0]
    3b4e:	781a      	ldrb	r2, [r3, #0]
    3b50:	2a2f      	cmp	r2, #47	; 0x2f
    3b52:	d1f7      	bne.n	3b44 <mbed::FilePath::FilePath(char const*)+0x2c>
    3b54:	0029      	movs	r1, r5
    3b56:	3301      	adds	r3, #1
    3b58:	6023      	str	r3, [r4, #0]
    3b5a:	f7ff ff7b 	bl	3a54 <mbed::FileBase::lookup(char const*, unsigned int)>
    3b5e:	6060      	str	r0, [r4, #4]
    3b60:	e7e2      	b.n	3b28 <mbed::FilePath::FilePath(char const*)+0x10>
    3b62:	0029      	movs	r1, r5
    3b64:	e7f9      	b.n	3b5a <mbed::FilePath::FilePath(char const*)+0x42>
    3b66:	0003      	movs	r3, r0
    3b68:	2100      	movs	r1, #0
    3b6a:	e7f4      	b.n	3b56 <mbed::FilePath::FilePath(char const*)+0x3e>
    3b6c:	2100      	movs	r1, #0
    3b6e:	e7f4      	b.n	3b5a <mbed::FilePath::FilePath(char const*)+0x42>

00003b70 <mbed::FilePath::fileName()>:
    3b70:	6800      	ldr	r0, [r0, #0]
    3b72:	4770      	bx	lr

00003b74 <mbed::FilePath::fileSystem()>:
    3b74:	b510      	push	{r4, lr}
    3b76:	0004      	movs	r4, r0
    3b78:	6840      	ldr	r0, [r0, #4]
    3b7a:	2800      	cmp	r0, #0
    3b7c:	d005      	beq.n	3b8a <mbed::FilePath::fileSystem()+0x16>
    3b7e:	f7ff ff89 	bl	3a94 <mbed::FileBase::getPathType()>
    3b82:	2801      	cmp	r0, #1
    3b84:	d101      	bne.n	3b8a <mbed::FilePath::fileSystem()+0x16>
    3b86:	6860      	ldr	r0, [r4, #4]
    3b88:	bd10      	pop	{r4, pc}
    3b8a:	2000      	movs	r0, #0
    3b8c:	e7fc      	b.n	3b88 <mbed::FilePath::fileSystem()+0x14>
    3b8e:	46c0      	nop			; (mov r8, r8)

00003b90 <mbed::FilePath::isFile()>:
    3b90:	6840      	ldr	r0, [r0, #4]
    3b92:	b510      	push	{r4, lr}
    3b94:	2800      	cmp	r0, #0
    3b96:	d005      	beq.n	3ba4 <mbed::FilePath::isFile()+0x14>
    3b98:	f7ff ff7c 	bl	3a94 <mbed::FileBase::getPathType()>
    3b9c:	4243      	negs	r3, r0
    3b9e:	4158      	adcs	r0, r3
    3ba0:	b2c0      	uxtb	r0, r0
    3ba2:	bd10      	pop	{r4, pc}
    3ba4:	2000      	movs	r0, #0
    3ba6:	e7fc      	b.n	3ba2 <mbed::FilePath::isFile()+0x12>

00003ba8 <mbed::FilePath::file()>:
    3ba8:	b510      	push	{r4, lr}
    3baa:	0004      	movs	r4, r0
    3bac:	6840      	ldr	r0, [r0, #4]
    3bae:	2800      	cmp	r0, #0
    3bb0:	d008      	beq.n	3bc4 <mbed::FilePath::file()+0x1c>
    3bb2:	f7ff ff6f 	bl	3a94 <mbed::FileBase::getPathType()>
    3bb6:	2800      	cmp	r0, #0
    3bb8:	d104      	bne.n	3bc4 <mbed::FilePath::file()+0x1c>
    3bba:	6860      	ldr	r0, [r4, #4]
    3bbc:	2800      	cmp	r0, #0
    3bbe:	d001      	beq.n	3bc4 <mbed::FilePath::file()+0x1c>
    3bc0:	3804      	subs	r0, #4
    3bc2:	bd10      	pop	{r4, pc}
    3bc4:	2000      	movs	r0, #0
    3bc6:	e7fc      	b.n	3bc2 <mbed::FilePath::file()+0x1a>

00003bc8 <mbed::FilePath::exists()>:
    3bc8:	6840      	ldr	r0, [r0, #4]
    3bca:	1e43      	subs	r3, r0, #1
    3bcc:	4198      	sbcs	r0, r3
    3bce:	b2c0      	uxtb	r0, r0
    3bd0:	4770      	bx	lr
    3bd2:	46c0      	nop			; (mov r8, r8)

00003bd4 <init_serial() [clone .part.0]>:
    3bd4:	b510      	push	{r4, lr}
    3bd6:	2204      	movs	r2, #4
    3bd8:	2108      	movs	r1, #8
    3bda:	4802      	ldr	r0, [pc, #8]	; (3be4 <init_serial() [clone .part.0]+0x10>)
    3bdc:	f7ff fd78 	bl	36d0 <serial_init>
    3be0:	bd10      	pop	{r4, pc}
    3be2:	46c0      	nop			; (mov r8, r8)
    3be4:	1ffff8fc 	.word	0x1ffff8fc

00003be8 <mbed::FileHandle::~FileHandle()>:
    3be8:	4b09      	ldr	r3, [pc, #36]	; (3c10 <mbed::FileHandle::~FileHandle()+0x28>)
    3bea:	b510      	push	{r4, lr}
    3bec:	3308      	adds	r3, #8
    3bee:	6003      	str	r3, [r0, #0]
    3bf0:	4b08      	ldr	r3, [pc, #32]	; (3c14 <mbed::FileHandle::~FileHandle()+0x2c>)
    3bf2:	2100      	movs	r1, #0
    3bf4:	1c5a      	adds	r2, r3, #1
    3bf6:	32ff      	adds	r2, #255	; 0xff
    3bf8:	e002      	b.n	3c00 <mbed::FileHandle::~FileHandle()+0x18>
    3bfa:	3304      	adds	r3, #4
    3bfc:	4293      	cmp	r3, r2
    3bfe:	d006      	beq.n	3c0e <mbed::FileHandle::~FileHandle()+0x26>
    3c00:	681c      	ldr	r4, [r3, #0]
    3c02:	42a0      	cmp	r0, r4
    3c04:	d1f9      	bne.n	3bfa <mbed::FileHandle::~FileHandle()+0x12>
    3c06:	6019      	str	r1, [r3, #0]
    3c08:	3304      	adds	r3, #4
    3c0a:	4293      	cmp	r3, r2
    3c0c:	d1f8      	bne.n	3c00 <mbed::FileHandle::~FileHandle()+0x18>
    3c0e:	bd10      	pop	{r4, pc}
    3c10:	00006b0c 	.word	0x00006b0c
    3c14:	1ffff7f4 	.word	0x1ffff7f4

00003c18 <_open>:
    3c18:	b5f0      	push	{r4, r5, r6, r7, lr}
    3c1a:	4647      	mov	r7, r8
    3c1c:	b480      	push	{r7}
    3c1e:	000e      	movs	r6, r1
    3c20:	b082      	sub	sp, #8
    3c22:	4934      	ldr	r1, [pc, #208]	; (3cf4 <_open+0xdc>)
    3c24:	0005      	movs	r5, r0
    3c26:	f001 fee5 	bl	59f4 <strcmp>
    3c2a:	1e04      	subs	r4, r0, #0
    3c2c:	d108      	bne.n	3c40 <_open+0x28>
    3c2e:	4b32      	ldr	r3, [pc, #200]	; (3cf8 <_open+0xe0>)
    3c30:	681b      	ldr	r3, [r3, #0]
    3c32:	2b00      	cmp	r3, #0
    3c34:	d00f      	beq.n	3c56 <_open+0x3e>
    3c36:	0020      	movs	r0, r4
    3c38:	b002      	add	sp, #8
    3c3a:	bc04      	pop	{r2}
    3c3c:	4690      	mov	r8, r2
    3c3e:	bdf0      	pop	{r4, r5, r6, r7, pc}
    3c40:	492e      	ldr	r1, [pc, #184]	; (3cfc <_open+0xe4>)
    3c42:	0028      	movs	r0, r5
    3c44:	f001 fed6 	bl	59f4 <strcmp>
    3c48:	2800      	cmp	r0, #0
    3c4a:	d107      	bne.n	3c5c <_open+0x44>
    3c4c:	4b2a      	ldr	r3, [pc, #168]	; (3cf8 <_open+0xe0>)
    3c4e:	2401      	movs	r4, #1
    3c50:	681b      	ldr	r3, [r3, #0]
    3c52:	2b00      	cmp	r3, #0
    3c54:	d1ef      	bne.n	3c36 <_open+0x1e>
    3c56:	f7ff ffbd 	bl	3bd4 <init_serial() [clone .part.0]>
    3c5a:	e7ec      	b.n	3c36 <_open+0x1e>
    3c5c:	4928      	ldr	r1, [pc, #160]	; (3d00 <_open+0xe8>)
    3c5e:	0028      	movs	r0, r5
    3c60:	f001 fec8 	bl	59f4 <strcmp>
    3c64:	2800      	cmp	r0, #0
    3c66:	d030      	beq.n	3cca <_open+0xb2>
    3c68:	4f26      	ldr	r7, [pc, #152]	; (3d04 <_open+0xec>)
    3c6a:	2400      	movs	r4, #0
    3c6c:	003b      	movs	r3, r7
    3c6e:	e003      	b.n	3c78 <_open+0x60>
    3c70:	3401      	adds	r4, #1
    3c72:	3304      	adds	r3, #4
    3c74:	2c40      	cmp	r4, #64	; 0x40
    3c76:	d032      	beq.n	3cde <_open+0xc6>
    3c78:	681a      	ldr	r2, [r3, #0]
    3c7a:	2a00      	cmp	r2, #0
    3c7c:	d1f8      	bne.n	3c70 <_open+0x58>
    3c7e:	782b      	ldrb	r3, [r5, #0]
    3c80:	2b3a      	cmp	r3, #58	; 0x3a
    3c82:	d02f      	beq.n	3ce4 <_open+0xcc>
    3c84:	0029      	movs	r1, r5
    3c86:	4668      	mov	r0, sp
    3c88:	f7ff ff46 	bl	3b18 <mbed::FilePath::FilePath(char const*)>
    3c8c:	4668      	mov	r0, sp
    3c8e:	f7ff ff9b 	bl	3bc8 <mbed::FilePath::exists()>
    3c92:	2800      	cmp	r0, #0
    3c94:	d023      	beq.n	3cde <_open+0xc6>
    3c96:	4668      	mov	r0, sp
    3c98:	f7ff ff7a 	bl	3b90 <mbed::FilePath::isFile()>
    3c9c:	2800      	cmp	r0, #0
    3c9e:	d11a      	bne.n	3cd6 <_open+0xbe>
    3ca0:	4668      	mov	r0, sp
    3ca2:	f7ff ff67 	bl	3b74 <mbed::FilePath::fileSystem()>
    3ca6:	1e05      	subs	r5, r0, #0
    3ca8:	d019      	beq.n	3cde <_open+0xc6>
    3caa:	6803      	ldr	r3, [r0, #0]
    3cac:	4668      	mov	r0, sp
    3cae:	689b      	ldr	r3, [r3, #8]
    3cb0:	4698      	mov	r8, r3
    3cb2:	f7ff ff5d 	bl	3b70 <mbed::FilePath::fileName()>
    3cb6:	0032      	movs	r2, r6
    3cb8:	0001      	movs	r1, r0
    3cba:	0028      	movs	r0, r5
    3cbc:	47c0      	blx	r8
    3cbe:	2800      	cmp	r0, #0
    3cc0:	d00d      	beq.n	3cde <_open+0xc6>
    3cc2:	00a3      	lsls	r3, r4, #2
    3cc4:	50f8      	str	r0, [r7, r3]
    3cc6:	3403      	adds	r4, #3
    3cc8:	e7b5      	b.n	3c36 <_open+0x1e>
    3cca:	4b0b      	ldr	r3, [pc, #44]	; (3cf8 <_open+0xe0>)
    3ccc:	2402      	movs	r4, #2
    3cce:	681b      	ldr	r3, [r3, #0]
    3cd0:	2b00      	cmp	r3, #0
    3cd2:	d1b0      	bne.n	3c36 <_open+0x1e>
    3cd4:	e7bf      	b.n	3c56 <_open+0x3e>
    3cd6:	4668      	mov	r0, sp
    3cd8:	f7ff ff66 	bl	3ba8 <mbed::FilePath::file()>
    3cdc:	e7ef      	b.n	3cbe <_open+0xa6>
    3cde:	2401      	movs	r4, #1
    3ce0:	4264      	negs	r4, r4
    3ce2:	e7a8      	b.n	3c36 <_open+0x1e>
    3ce4:	466a      	mov	r2, sp
    3ce6:	4908      	ldr	r1, [pc, #32]	; (3d08 <_open+0xf0>)
    3ce8:	0028      	movs	r0, r5
    3cea:	f001 fe0d 	bl	5908 <siscanf>
    3cee:	9800      	ldr	r0, [sp, #0]
    3cf0:	e7e5      	b.n	3cbe <_open+0xa6>
    3cf2:	46c0      	nop			; (mov r8, r8)
    3cf4:	00006af4 	.word	0x00006af4
    3cf8:	1ffff7ec 	.word	0x1ffff7ec
    3cfc:	00006b04 	.word	0x00006b04
    3d00:	00006afc 	.word	0x00006afc
    3d04:	1ffff7f4 	.word	0x1ffff7f4
    3d08:	00006b38 	.word	0x00006b38

00003d0c <_close>:
    3d0c:	0003      	movs	r3, r0
    3d0e:	b510      	push	{r4, lr}
    3d10:	2000      	movs	r0, #0
    3d12:	2b02      	cmp	r3, #2
    3d14:	dd0a      	ble.n	3d2c <_close+0x20>
    3d16:	4907      	ldr	r1, [pc, #28]	; (3d34 <_close+0x28>)
    3d18:	3b03      	subs	r3, #3
    3d1a:	009b      	lsls	r3, r3, #2
    3d1c:	585a      	ldr	r2, [r3, r1]
    3d1e:	5058      	str	r0, [r3, r1]
    3d20:	2a00      	cmp	r2, #0
    3d22:	d004      	beq.n	3d2e <_close+0x22>
    3d24:	6813      	ldr	r3, [r2, #0]
    3d26:	0010      	movs	r0, r2
    3d28:	685b      	ldr	r3, [r3, #4]
    3d2a:	4798      	blx	r3
    3d2c:	bd10      	pop	{r4, pc}
    3d2e:	2001      	movs	r0, #1
    3d30:	4240      	negs	r0, r0
    3d32:	e7fb      	b.n	3d2c <_close+0x20>
    3d34:	1ffff7f4 	.word	0x1ffff7f4

00003d38 <_write>:
    3d38:	b5f8      	push	{r3, r4, r5, r6, r7, lr}
    3d3a:	000c      	movs	r4, r1
    3d3c:	0017      	movs	r7, r2
    3d3e:	2802      	cmp	r0, #2
    3d40:	dc12      	bgt.n	3d68 <_write+0x30>
    3d42:	4b10      	ldr	r3, [pc, #64]	; (3d84 <_write+0x4c>)
    3d44:	681b      	ldr	r3, [r3, #0]
    3d46:	2b00      	cmp	r3, #0
    3d48:	d101      	bne.n	3d4e <_write+0x16>
    3d4a:	f7ff ff43 	bl	3bd4 <init_serial() [clone .part.0]>
    3d4e:	2f00      	cmp	r7, #0
    3d50:	d008      	beq.n	3d64 <_write+0x2c>
    3d52:	4d0d      	ldr	r5, [pc, #52]	; (3d88 <_write+0x50>)
    3d54:	19e6      	adds	r6, r4, r7
    3d56:	7821      	ldrb	r1, [r4, #0]
    3d58:	0028      	movs	r0, r5
    3d5a:	3401      	adds	r4, #1
    3d5c:	f7ff fe1a 	bl	3994 <serial_putc>
    3d60:	42b4      	cmp	r4, r6
    3d62:	d1f8      	bne.n	3d56 <_write+0x1e>
    3d64:	0038      	movs	r0, r7
    3d66:	bdf8      	pop	{r3, r4, r5, r6, r7, pc}
    3d68:	3803      	subs	r0, #3
    3d6a:	4b08      	ldr	r3, [pc, #32]	; (3d8c <_write+0x54>)
    3d6c:	0080      	lsls	r0, r0, #2
    3d6e:	58c0      	ldr	r0, [r0, r3]
    3d70:	2800      	cmp	r0, #0
    3d72:	d003      	beq.n	3d7c <_write+0x44>
    3d74:	6803      	ldr	r3, [r0, #0]
    3d76:	681b      	ldr	r3, [r3, #0]
    3d78:	4798      	blx	r3
    3d7a:	e7f4      	b.n	3d66 <_write+0x2e>
    3d7c:	2001      	movs	r0, #1
    3d7e:	4240      	negs	r0, r0
    3d80:	e7f1      	b.n	3d66 <_write+0x2e>
    3d82:	46c0      	nop			; (mov r8, r8)
    3d84:	1ffff7ec 	.word	0x1ffff7ec
    3d88:	1ffff8fc 	.word	0x1ffff8fc
    3d8c:	1ffff7f4 	.word	0x1ffff7f4

00003d90 <_read>:
    3d90:	b510      	push	{r4, lr}
    3d92:	000c      	movs	r4, r1
    3d94:	2802      	cmp	r0, #2
    3d96:	dc0b      	bgt.n	3db0 <_read+0x20>
    3d98:	4b0c      	ldr	r3, [pc, #48]	; (3dcc <_read+0x3c>)
    3d9a:	681b      	ldr	r3, [r3, #0]
    3d9c:	2b00      	cmp	r3, #0
    3d9e:	d101      	bne.n	3da4 <_read+0x14>
    3da0:	f7ff ff18 	bl	3bd4 <init_serial() [clone .part.0]>
    3da4:	480a      	ldr	r0, [pc, #40]	; (3dd0 <_read+0x40>)
    3da6:	f7ff fde1 	bl	396c <serial_getc>
    3daa:	7020      	strb	r0, [r4, #0]
    3dac:	2001      	movs	r0, #1
    3dae:	bd10      	pop	{r4, pc}
    3db0:	3803      	subs	r0, #3
    3db2:	4b08      	ldr	r3, [pc, #32]	; (3dd4 <_read+0x44>)
    3db4:	0080      	lsls	r0, r0, #2
    3db6:	58c0      	ldr	r0, [r0, r3]
    3db8:	2800      	cmp	r0, #0
    3dba:	d003      	beq.n	3dc4 <_read+0x34>
    3dbc:	6803      	ldr	r3, [r0, #0]
    3dbe:	689b      	ldr	r3, [r3, #8]
    3dc0:	4798      	blx	r3
    3dc2:	e7f4      	b.n	3dae <_read+0x1e>
    3dc4:	2001      	movs	r0, #1
    3dc6:	4240      	negs	r0, r0
    3dc8:	e7f1      	b.n	3dae <_read+0x1e>
    3dca:	46c0      	nop			; (mov r8, r8)
    3dcc:	1ffff7ec 	.word	0x1ffff7ec
    3dd0:	1ffff8fc 	.word	0x1ffff8fc
    3dd4:	1ffff7f4 	.word	0x1ffff7f4

00003dd8 <_isatty>:
    3dd8:	0003      	movs	r3, r0
    3dda:	b510      	push	{r4, lr}
    3ddc:	2001      	movs	r0, #1
    3dde:	2b02      	cmp	r3, #2
    3de0:	dd08      	ble.n	3df4 <_isatty+0x1c>
    3de2:	3b03      	subs	r3, #3
    3de4:	4a05      	ldr	r2, [pc, #20]	; (3dfc <_isatty+0x24>)
    3de6:	009b      	lsls	r3, r3, #2
    3de8:	5898      	ldr	r0, [r3, r2]
    3dea:	2800      	cmp	r0, #0
    3dec:	d003      	beq.n	3df6 <_isatty+0x1e>
    3dee:	6803      	ldr	r3, [r0, #0]
    3df0:	68db      	ldr	r3, [r3, #12]
    3df2:	4798      	blx	r3
    3df4:	bd10      	pop	{r4, pc}
    3df6:	2001      	movs	r0, #1
    3df8:	4240      	negs	r0, r0
    3dfa:	e7fb      	b.n	3df4 <_isatty+0x1c>
    3dfc:	1ffff7f4 	.word	0x1ffff7f4

00003e00 <_lseek>:
    3e00:	0003      	movs	r3, r0
    3e02:	b510      	push	{r4, lr}
    3e04:	2000      	movs	r0, #0
    3e06:	2b02      	cmp	r3, #2
    3e08:	dd08      	ble.n	3e1c <_lseek+0x1c>
    3e0a:	3b03      	subs	r3, #3
    3e0c:	4805      	ldr	r0, [pc, #20]	; (3e24 <_lseek+0x24>)
    3e0e:	009b      	lsls	r3, r3, #2
    3e10:	5818      	ldr	r0, [r3, r0]
    3e12:	2800      	cmp	r0, #0
    3e14:	d003      	beq.n	3e1e <_lseek+0x1e>
    3e16:	6803      	ldr	r3, [r0, #0]
    3e18:	691b      	ldr	r3, [r3, #16]
    3e1a:	4798      	blx	r3
    3e1c:	bd10      	pop	{r4, pc}
    3e1e:	2001      	movs	r0, #1
    3e20:	4240      	negs	r0, r0
    3e22:	e7fb      	b.n	3e1c <_lseek+0x1c>
    3e24:	1ffff7f4 	.word	0x1ffff7f4

00003e28 <_fstat>:
    3e28:	b510      	push	{r4, lr}
    3e2a:	2802      	cmp	r0, #2
    3e2c:	d804      	bhi.n	3e38 <_fstat+0x10>
    3e2e:	2380      	movs	r3, #128	; 0x80
    3e30:	2000      	movs	r0, #0
    3e32:	019b      	lsls	r3, r3, #6
    3e34:	604b      	str	r3, [r1, #4]
    3e36:	bd10      	pop	{r4, pc}
    3e38:	f000 fb4a 	bl	44d0 <__errno>
    3e3c:	2309      	movs	r3, #9
    3e3e:	6003      	str	r3, [r0, #0]
    3e40:	2001      	movs	r0, #1
    3e42:	4240      	negs	r0, r0
    3e44:	e7f7      	b.n	3e36 <_fstat+0xe>
    3e46:	46c0      	nop			; (mov r8, r8)

00003e48 <mbed_main>:
    3e48:	4770      	bx	lr
    3e4a:	46c0      	nop			; (mov r8, r8)

00003e4c <mbed_sdk_init>:
    3e4c:	4770      	bx	lr
    3e4e:	46c0      	nop			; (mov r8, r8)

00003e50 <__wrap_main>:
    3e50:	b510      	push	{r4, lr}
    3e52:	f7ff fffb 	bl	3e4c <mbed_sdk_init>
    3e56:	f7ff fff7 	bl	3e48 <mbed_main>
    3e5a:	f7fc feaf 	bl	bbc <main>
    3e5e:	bd10      	pop	{r4, pc}

00003e60 <_sbrk>:
    3e60:	4a07      	ldr	r2, [pc, #28]	; (3e80 <_sbrk+0x20>)
    3e62:	6813      	ldr	r3, [r2, #0]
    3e64:	1818      	adds	r0, r3, r0
    3e66:	f3ef 8108 	mrs	r1, MSP
    3e6a:	4288      	cmp	r0, r1
    3e6c:	d202      	bcs.n	3e74 <_sbrk+0x14>
    3e6e:	6010      	str	r0, [r2, #0]
    3e70:	0018      	movs	r0, r3
    3e72:	4770      	bx	lr
    3e74:	220c      	movs	r2, #12
    3e76:	2001      	movs	r0, #1
    3e78:	4b02      	ldr	r3, [pc, #8]	; (3e84 <_sbrk+0x24>)
    3e7a:	4240      	negs	r0, r0
    3e7c:	601a      	str	r2, [r3, #0]
    3e7e:	e7f8      	b.n	3e72 <_sbrk+0x12>
    3e80:	1ffff0cc 	.word	0x1ffff0cc
    3e84:	1ffff904 	.word	0x1ffff904

00003e88 <_exit>:
    3e88:	b570      	push	{r4, r5, r6, lr}
    3e8a:	4c0b      	ldr	r4, [pc, #44]	; (3eb8 <_exit+0x30>)
    3e8c:	0005      	movs	r5, r0
    3e8e:	6823      	ldr	r3, [r4, #0]
    3e90:	6898      	ldr	r0, [r3, #8]
    3e92:	f000 fc4d 	bl	4730 <fflush>
    3e96:	6823      	ldr	r3, [r4, #0]
    3e98:	68d8      	ldr	r0, [r3, #12]
    3e9a:	f000 fc49 	bl	4730 <fflush>
    3e9e:	f7fe ff69 	bl	2d74 <mbed_interface_connected>
    3ea2:	2800      	cmp	r0, #0
    3ea4:	d105      	bne.n	3eb2 <_exit+0x2a>
    3ea6:	2d00      	cmp	r5, #0
    3ea8:	d100      	bne.n	3eac <_exit+0x24>
    3eaa:	e7fe      	b.n	3eaa <_exit+0x22>
    3eac:	f7fe ff16 	bl	2cdc <mbed_die>
    3eb0:	e7fb      	b.n	3eaa <_exit+0x22>
    3eb2:	f7fe ffa9 	bl	2e08 <semihost_exit>
    3eb6:	e7f6      	b.n	3ea6 <_exit+0x1e>
    3eb8:	1ffff130 	.word	0x1ffff130

00003ebc <mbed::mbed_set_unbuffered_stream(__sFILE*)>:
    3ebc:	b510      	push	{r4, lr}
    3ebe:	2100      	movs	r1, #0
    3ec0:	f001 fc70 	bl	57a4 <setbuf>
    3ec4:	bd10      	pop	{r4, pc}
    3ec6:	46c0      	nop			; (mov r8, r8)

00003ec8 <mbed::SerialBase::_irq_handler(unsigned long, SerialIrq)>:
    3ec8:	1c4b      	adds	r3, r1, #1
    3eca:	005a      	lsls	r2, r3, #1
    3ecc:	18d3      	adds	r3, r2, r3
    3ece:	00db      	lsls	r3, r3, #3
    3ed0:	18c3      	adds	r3, r0, r3
    3ed2:	689b      	ldr	r3, [r3, #8]
    3ed4:	b510      	push	{r4, lr}
    3ed6:	2b00      	cmp	r3, #0
    3ed8:	d00b      	beq.n	3ef2 <mbed::SerialBase::_irq_handler(unsigned long, SerialIrq)+0x2a>
    3eda:	004a      	lsls	r2, r1, #1
    3edc:	1851      	adds	r1, r2, r1
    3ede:	00c9      	lsls	r1, r1, #3
    3ee0:	1842      	adds	r2, r0, r1
    3ee2:	68d2      	ldr	r2, [r2, #12]
    3ee4:	2a00      	cmp	r2, #0
    3ee6:	d003      	beq.n	3ef0 <mbed::SerialBase::_irq_handler(unsigned long, SerialIrq)+0x28>
    3ee8:	1841      	adds	r1, r0, r1
    3eea:	3110      	adds	r1, #16
    3eec:	0010      	movs	r0, r2
    3eee:	4798      	blx	r3
    3ef0:	bd10      	pop	{r4, pc}
    3ef2:	004b      	lsls	r3, r1, #1
    3ef4:	1859      	adds	r1, r3, r1
    3ef6:	00c9      	lsls	r1, r1, #3
    3ef8:	1841      	adds	r1, r0, r1
    3efa:	68cb      	ldr	r3, [r1, #12]
    3efc:	2b00      	cmp	r3, #0
    3efe:	d0f7      	beq.n	3ef0 <mbed::SerialBase::_irq_handler(unsigned long, SerialIrq)+0x28>
    3f00:	4798      	blx	r3
    3f02:	e7f5      	b.n	3ef0 <mbed::SerialBase::_irq_handler(unsigned long, SerialIrq)+0x28>

00003f04 <mbed::SerialBase::SerialBase(PinName, PinName)>:
    3f04:	4b0c      	ldr	r3, [pc, #48]	; (3f38 <mbed::SerialBase::SerialBase(PinName, PinName)+0x34>)
    3f06:	b570      	push	{r4, r5, r6, lr}
    3f08:	6003      	str	r3, [r0, #0]
    3f0a:	2300      	movs	r3, #0
    3f0c:	6043      	str	r3, [r0, #4]
    3f0e:	6083      	str	r3, [r0, #8]
    3f10:	60c3      	str	r3, [r0, #12]
    3f12:	6203      	str	r3, [r0, #32]
    3f14:	6243      	str	r3, [r0, #36]	; 0x24
    3f16:	6383      	str	r3, [r0, #56]	; 0x38
    3f18:	2396      	movs	r3, #150	; 0x96
    3f1a:	0004      	movs	r4, r0
    3f1c:	019b      	lsls	r3, r3, #6
    3f1e:	1d05      	adds	r5, r0, #4
    3f20:	63c3      	str	r3, [r0, #60]	; 0x3c
    3f22:	0028      	movs	r0, r5
    3f24:	f7ff fbd4 	bl	36d0 <serial_init>
    3f28:	0028      	movs	r0, r5
    3f2a:	0022      	movs	r2, r4
    3f2c:	4903      	ldr	r1, [pc, #12]	; (3f3c <mbed::SerialBase::SerialBase(PinName, PinName)+0x38>)
    3f2e:	f7ff fca9 	bl	3884 <serial_irq_handler>
    3f32:	0020      	movs	r0, r4
    3f34:	bd70      	pop	{r4, r5, r6, pc}
    3f36:	46c0      	nop			; (mov r8, r8)
    3f38:	00006b50 	.word	0x00006b50
    3f3c:	00003ec9 	.word	0x00003ec9

00003f40 <mbed::SerialBase::baud(int)>:
    3f40:	b570      	push	{r4, r5, r6, lr}
    3f42:	000d      	movs	r5, r1
    3f44:	0004      	movs	r4, r0
    3f46:	3004      	adds	r0, #4
    3f48:	f7ff fae6 	bl	3518 <serial_baud>
    3f4c:	63e5      	str	r5, [r4, #60]	; 0x3c
    3f4e:	bd70      	pop	{r4, r5, r6, pc}

00003f50 <mbed::SerialBase::_base_getc()>:
    3f50:	b510      	push	{r4, lr}
    3f52:	3004      	adds	r0, #4
    3f54:	f7ff fd0a 	bl	396c <serial_getc>
    3f58:	bd10      	pop	{r4, pc}
    3f5a:	46c0      	nop			; (mov r8, r8)

00003f5c <mbed::SerialBase::_base_putc(int)>:
    3f5c:	b510      	push	{r4, lr}
    3f5e:	000c      	movs	r4, r1
    3f60:	3004      	adds	r0, #4
    3f62:	f7ff fd17 	bl	3994 <serial_putc>
    3f66:	0020      	movs	r0, r4
    3f68:	bd10      	pop	{r4, pc}
    3f6a:	46c0      	nop			; (mov r8, r8)

00003f6c <mbed::Serial::_getc()>:
    3f6c:	b510      	push	{r4, lr}
    3f6e:	f7ff ffef 	bl	3f50 <mbed::SerialBase::_base_getc()>
    3f72:	bd10      	pop	{r4, pc}

00003f74 <non-virtual thunk to mbed::Serial::_getc()>:
    3f74:	b408      	push	{r3}
    3f76:	4b02      	ldr	r3, [pc, #8]	; (3f80 <non-virtual thunk to mbed::Serial::_getc()+0xc>)
    3f78:	469c      	mov	r12, r3
    3f7a:	3840      	subs	r0, #64	; 0x40
    3f7c:	bc08      	pop	{r3}
    3f7e:	4760      	bx	r12
    3f80:	00003f6d 	.word	0x00003f6d

00003f84 <mbed::Serial::_putc(int)>:
    3f84:	b510      	push	{r4, lr}
    3f86:	f7ff ffe9 	bl	3f5c <mbed::SerialBase::_base_putc(int)>
    3f8a:	bd10      	pop	{r4, pc}

00003f8c <non-virtual thunk to mbed::Serial::_putc(int)>:
    3f8c:	b408      	push	{r3}
    3f8e:	4b02      	ldr	r3, [pc, #8]	; (3f98 <non-virtual thunk to mbed::Serial::_putc(int)+0xc>)
    3f90:	469c      	mov	r12, r3
    3f92:	3840      	subs	r0, #64	; 0x40
    3f94:	bc08      	pop	{r3}
    3f96:	4760      	bx	r12
    3f98:	00003f85 	.word	0x00003f85

00003f9c <mbed::Serial::~Serial()>:
    3f9c:	4b07      	ldr	r3, [pc, #28]	; (3fbc <mbed::Serial::~Serial()+0x20>)
    3f9e:	b510      	push	{r4, lr}
    3fa0:	001a      	movs	r2, r3
    3fa2:	3208      	adds	r2, #8
    3fa4:	6002      	str	r2, [r0, #0]
    3fa6:	001a      	movs	r2, r3
    3fa8:	0004      	movs	r4, r0
    3faa:	3220      	adds	r2, #32
    3fac:	3354      	adds	r3, #84	; 0x54
    3fae:	6402      	str	r2, [r0, #64]	; 0x40
    3fb0:	6443      	str	r3, [r0, #68]	; 0x44
    3fb2:	3040      	adds	r0, #64	; 0x40
    3fb4:	f000 f8a6 	bl	4104 <mbed::Stream::~Stream()>
    3fb8:	0020      	movs	r0, r4
    3fba:	bd10      	pop	{r4, pc}
    3fbc:	00006b58 	.word	0x00006b58

00003fc0 <non-virtual thunk to mbed::Serial::~Serial()>:
    3fc0:	b408      	push	{r3}
    3fc2:	4b02      	ldr	r3, [pc, #8]	; (3fcc <non-virtual thunk to mbed::Serial::~Serial()+0xc>)
    3fc4:	469c      	mov	r12, r3
    3fc6:	3840      	subs	r0, #64	; 0x40
    3fc8:	bc08      	pop	{r3}
    3fca:	4760      	bx	r12
    3fcc:	00003f9d 	.word	0x00003f9d

00003fd0 <non-virtual thunk to mbed::Serial::~Serial()>:
    3fd0:	b408      	push	{r3}
    3fd2:	4b02      	ldr	r3, [pc, #8]	; (3fdc <non-virtual thunk to mbed::Serial::~Serial()+0xc>)
    3fd4:	469c      	mov	r12, r3
    3fd6:	3844      	subs	r0, #68	; 0x44
    3fd8:	bc08      	pop	{r3}
    3fda:	4760      	bx	r12
    3fdc:	00003f9d 	.word	0x00003f9d

00003fe0 <mbed::Serial::~Serial()>:
    3fe0:	4b09      	ldr	r3, [pc, #36]	; (4008 <mbed::Serial::~Serial()+0x28>)
    3fe2:	b510      	push	{r4, lr}
    3fe4:	001a      	movs	r2, r3
    3fe6:	3208      	adds	r2, #8
    3fe8:	6002      	str	r2, [r0, #0]
    3fea:	001a      	movs	r2, r3
    3fec:	0004      	movs	r4, r0
    3fee:	3220      	adds	r2, #32
    3ff0:	3354      	adds	r3, #84	; 0x54
    3ff2:	6402      	str	r2, [r0, #64]	; 0x40
    3ff4:	6443      	str	r3, [r0, #68]	; 0x44
    3ff6:	3040      	adds	r0, #64	; 0x40
    3ff8:	f000 f884 	bl	4104 <mbed::Stream::~Stream()>
    3ffc:	0020      	movs	r0, r4
    3ffe:	f000 f8de 	bl	41be <operator delete(void*)>
    4002:	0020      	movs	r0, r4
    4004:	bd10      	pop	{r4, pc}
    4006:	46c0      	nop			; (mov r8, r8)
    4008:	00006b58 	.word	0x00006b58

0000400c <non-virtual thunk to mbed::Serial::~Serial()>:
    400c:	b408      	push	{r3}
    400e:	4b02      	ldr	r3, [pc, #8]	; (4018 <non-virtual thunk to mbed::Serial::~Serial()+0xc>)
    4010:	469c      	mov	r12, r3
    4012:	3840      	subs	r0, #64	; 0x40
    4014:	bc08      	pop	{r3}
    4016:	4760      	bx	r12
    4018:	00003fe1 	.word	0x00003fe1

0000401c <non-virtual thunk to mbed::Serial::~Serial()>:
    401c:	b408      	push	{r3}
    401e:	4b02      	ldr	r3, [pc, #8]	; (4028 <non-virtual thunk to mbed::Serial::~Serial()+0xc>)
    4020:	469c      	mov	r12, r3
    4022:	3844      	subs	r0, #68	; 0x44
    4024:	bc08      	pop	{r3}
    4026:	4760      	bx	r12
    4028:	00003fe1 	.word	0x00003fe1

0000402c <mbed::Serial::Serial(PinName, PinName, char const*)>:
    402c:	b570      	push	{r4, r5, r6, lr}
    402e:	0004      	movs	r4, r0
    4030:	001d      	movs	r5, r3
    4032:	f7ff ff67 	bl	3f04 <mbed::SerialBase::SerialBase(PinName, PinName)>
    4036:	0020      	movs	r0, r4
    4038:	0029      	movs	r1, r5
    403a:	3040      	adds	r0, #64	; 0x40
    403c:	f000 f840 	bl	40c0 <mbed::Stream::Stream(char const*)>
    4040:	4b05      	ldr	r3, [pc, #20]	; (4058 <mbed::Serial::Serial(PinName, PinName, char const*)+0x2c>)
    4042:	0020      	movs	r0, r4
    4044:	001a      	movs	r2, r3
    4046:	3208      	adds	r2, #8
    4048:	6022      	str	r2, [r4, #0]
    404a:	001a      	movs	r2, r3
    404c:	3354      	adds	r3, #84	; 0x54
    404e:	3220      	adds	r2, #32
    4050:	6422      	str	r2, [r4, #64]	; 0x40
    4052:	6463      	str	r3, [r4, #68]	; 0x44
    4054:	bd70      	pop	{r4, r5, r6, pc}
    4056:	46c0      	nop			; (mov r8, r8)
    4058:	00006b58 	.word	0x00006b58

0000405c <mbed::Stream::write(void const*, unsigned int)>:
    405c:	b5f8      	push	{r3, r4, r5, r6, r7, lr}
    405e:	188e      	adds	r6, r1, r2
    4060:	0005      	movs	r5, r0
    4062:	000f      	movs	r7, r1
    4064:	1e0c      	subs	r4, r1, #0
    4066:	42b4      	cmp	r4, r6
    4068:	d102      	bne.n	4070 <mbed::Stream::write(void const*, unsigned int)+0x14>
    406a:	e00a      	b.n	4082 <mbed::Stream::write(void const*, unsigned int)+0x26>
    406c:	42a6      	cmp	r6, r4
    406e:	d008      	beq.n	4082 <mbed::Stream::write(void const*, unsigned int)+0x26>
    4070:	3401      	adds	r4, #1
    4072:	1e63      	subs	r3, r4, #1
    4074:	7819      	ldrb	r1, [r3, #0]
    4076:	682b      	ldr	r3, [r5, #0]
    4078:	0028      	movs	r0, r5
    407a:	6a5b      	ldr	r3, [r3, #36]	; 0x24
    407c:	4798      	blx	r3
    407e:	1c43      	adds	r3, r0, #1
    4080:	d1f4      	bne.n	406c <mbed::Stream::write(void const*, unsigned int)+0x10>
    4082:	1be0      	subs	r0, r4, r7
    4084:	bdf8      	pop	{r3, r4, r5, r6, r7, pc}
    4086:	46c0      	nop			; (mov r8, r8)

00004088 <mbed::Stream::read(void*, unsigned int)>:
    4088:	b5f8      	push	{r3, r4, r5, r6, r7, lr}
    408a:	188e      	adds	r6, r1, r2
    408c:	0005      	movs	r5, r0
    408e:	000f      	movs	r7, r1
    4090:	1e0c      	subs	r4, r1, #0
    4092:	42b4      	cmp	r4, r6
    4094:	d105      	bne.n	40a2 <mbed::Stream::read(void*, unsigned int)+0x1a>
    4096:	e00a      	b.n	40ae <mbed::Stream::read(void*, unsigned int)+0x26>
    4098:	3401      	adds	r4, #1
    409a:	1e63      	subs	r3, r4, #1
    409c:	7018      	strb	r0, [r3, #0]
    409e:	42a6      	cmp	r6, r4
    40a0:	d005      	beq.n	40ae <mbed::Stream::read(void*, unsigned int)+0x26>
    40a2:	682b      	ldr	r3, [r5, #0]
    40a4:	0028      	movs	r0, r5
    40a6:	6a9b      	ldr	r3, [r3, #40]	; 0x28
    40a8:	4798      	blx	r3
    40aa:	1c43      	adds	r3, r0, #1
    40ac:	d1f4      	bne.n	4098 <mbed::Stream::read(void*, unsigned int)+0x10>
    40ae:	1be0      	subs	r0, r4, r7
    40b0:	bdf8      	pop	{r3, r4, r5, r6, r7, pc}
    40b2:	46c0      	nop			; (mov r8, r8)

000040b4 <mbed::Stream::lseek(long, int)>:
    40b4:	2000      	movs	r0, #0
    40b6:	4770      	bx	lr

000040b8 <mbed::Stream::close()>:
    40b8:	2000      	movs	r0, #0
    40ba:	4770      	bx	lr

000040bc <mbed::Stream::flen()>:
    40bc:	2000      	movs	r0, #0
    40be:	4770      	bx	lr

000040c0 <mbed::Stream::Stream(char const*)>:
    40c0:	b510      	push	{r4, lr}
    40c2:	0004      	movs	r4, r0
    40c4:	b084      	sub	sp, #16
    40c6:	f7ff fd01 	bl	3acc <mbed::FileLike::FileLike(char const*)>
    40ca:	4b0b      	ldr	r3, [pc, #44]	; (40f8 <mbed::Stream::Stream(char const*)+0x38>)
    40cc:	490b      	ldr	r1, [pc, #44]	; (40fc <mbed::Stream::Stream(char const*)+0x3c>)
    40ce:	001a      	movs	r2, r3
    40d0:	333c      	adds	r3, #60	; 0x3c
    40d2:	6063      	str	r3, [r4, #4]
    40d4:	2300      	movs	r3, #0
    40d6:	3208      	adds	r2, #8
    40d8:	6163      	str	r3, [r4, #20]
    40da:	6022      	str	r2, [r4, #0]
    40dc:	a801      	add	r0, sp, #4
    40de:	0022      	movs	r2, r4
    40e0:	f001 fbf0 	bl	58c4 <siprintf>
    40e4:	4906      	ldr	r1, [pc, #24]	; (4100 <mbed::Stream::Stream(char const*)+0x40>)
    40e6:	a801      	add	r0, sp, #4
    40e8:	f000 fc2a 	bl	4940 <fopen>
    40ec:	6160      	str	r0, [r4, #20]
    40ee:	f7ff fee5 	bl	3ebc <mbed::mbed_set_unbuffered_stream(__sFILE*)>
    40f2:	0020      	movs	r0, r4
    40f4:	b004      	add	sp, #16
    40f6:	bd10      	pop	{r4, pc}
    40f8:	00006bb4 	.word	0x00006bb4
    40fc:	00006b38 	.word	0x00006b38
    4100:	00006bf8 	.word	0x00006bf8

00004104 <mbed::Stream::~Stream()>:
    4104:	4b07      	ldr	r3, [pc, #28]	; (4124 <mbed::Stream::~Stream()+0x20>)
    4106:	b510      	push	{r4, lr}
    4108:	001a      	movs	r2, r3
    410a:	0004      	movs	r4, r0
    410c:	3208      	adds	r2, #8
    410e:	333c      	adds	r3, #60	; 0x3c
    4110:	6002      	str	r2, [r0, #0]
    4112:	6043      	str	r3, [r0, #4]
    4114:	6940      	ldr	r0, [r0, #20]
    4116:	f000 fa4f 	bl	45b8 <fclose>
    411a:	0020      	movs	r0, r4
    411c:	f7ff fcea 	bl	3af4 <mbed::FileLike::~FileLike()>
    4120:	0020      	movs	r0, r4
    4122:	bd10      	pop	{r4, pc}
    4124:	00006bb4 	.word	0x00006bb4

00004128 <mbed::Stream::putc(int)>:
    4128:	b570      	push	{r4, r5, r6, lr}
    412a:	000d      	movs	r5, r1
    412c:	0004      	movs	r4, r0
    412e:	6940      	ldr	r0, [r0, #20]
    4130:	f000 fafe 	bl	4730 <fflush>
    4134:	0028      	movs	r0, r5
    4136:	6961      	ldr	r1, [r4, #20]
    4138:	f000 fc32 	bl	49a0 <fputc>
    413c:	bd70      	pop	{r4, r5, r6, pc}
    413e:	46c0      	nop			; (mov r8, r8)

00004140 <mbed::Timer::slicetime() [clone .part.0]>:
    4140:	b510      	push	{r4, lr}
    4142:	0004      	movs	r4, r0
    4144:	68c0      	ldr	r0, [r0, #12]
    4146:	f7fe fe97 	bl	2e78 <ticker_read>
    414a:	6863      	ldr	r3, [r4, #4]
    414c:	1ac0      	subs	r0, r0, r3
    414e:	bd10      	pop	{r4, pc}

00004150 <mbed::Timer::Timer()>:
    4150:	b570      	push	{r4, r5, r6, lr}
    4152:	2500      	movs	r5, #0
    4154:	6005      	str	r5, [r0, #0]
    4156:	6045      	str	r5, [r0, #4]
    4158:	6085      	str	r5, [r0, #8]
    415a:	0004      	movs	r4, r0
    415c:	f7fe fe92 	bl	2e84 <get_us_ticker_data>
    4160:	60e0      	str	r0, [r4, #12]
    4162:	f7fe fe89 	bl	2e78 <ticker_read>
    4166:	6060      	str	r0, [r4, #4]
    4168:	60a5      	str	r5, [r4, #8]
    416a:	0020      	movs	r0, r4
    416c:	bd70      	pop	{r4, r5, r6, pc}
    416e:	46c0      	nop			; (mov r8, r8)

00004170 <mbed::Timer::start()>:
    4170:	6803      	ldr	r3, [r0, #0]
    4172:	b510      	push	{r4, lr}
    4174:	0004      	movs	r4, r0
    4176:	2b00      	cmp	r3, #0
    4178:	d105      	bne.n	4186 <mbed::Timer::start()+0x16>
    417a:	68c0      	ldr	r0, [r0, #12]
    417c:	f7fe fe7c 	bl	2e78 <ticker_read>
    4180:	2301      	movs	r3, #1
    4182:	6060      	str	r0, [r4, #4]
    4184:	6023      	str	r3, [r4, #0]
    4186:	bd10      	pop	{r4, pc}

00004188 <mbed::Timer::read_ms()>:
    4188:	6803      	ldr	r3, [r0, #0]
    418a:	b510      	push	{r4, lr}
    418c:	6884      	ldr	r4, [r0, #8]
    418e:	2b00      	cmp	r3, #0
    4190:	d002      	beq.n	4198 <mbed::Timer::read_ms()+0x10>
    4192:	f7ff ffd5 	bl	4140 <mbed::Timer::slicetime() [clone .part.0]>
    4196:	0003      	movs	r3, r0
    4198:	21fa      	movs	r1, #250	; 0xfa
    419a:	18e0      	adds	r0, r4, r3
    419c:	0089      	lsls	r1, r1, #2
    419e:	f000 f89d 	bl	42dc <__aeabi_idiv>
    41a2:	bd10      	pop	{r4, pc}
    41a4:	e7fe      	b.n	41a4 <mbed::Timer::read_ms()+0x1c>

000041a6 <HardFault_Handler>:
    41a6:	e7fe      	b.n	41a6 <HardFault_Handler>

000041a8 <SVC_Handler>:
    41a8:	e7fe      	b.n	41a8 <SVC_Handler>

000041aa <PendSV_Handler>:
    41aa:	e7fe      	b.n	41aa <PendSV_Handler>

000041ac <SysTick_Handler>:
    41ac:	e7fe      	b.n	41ac <SysTick_Handler>

000041ae <ADC0_IRQHandler>:
    41ae:	e7fe      	b.n	41ae <ADC0_IRQHandler>

000041b0 <__aeabi_atexit>:
    41b0:	000b      	movs	r3, r1
    41b2:	b510      	push	{r4, lr}
    41b4:	0001      	movs	r1, r0
    41b6:	0018      	movs	r0, r3
    41b8:	f000 f97c 	bl	44b4 <__cxa_atexit>
    41bc:	bd10      	pop	{r4, pc}

000041be <operator delete(void*)>:
    41be:	b510      	push	{r4, lr}
    41c0:	f7fe f9e8 	bl	2594 <__wrap_free>
    41c4:	bd10      	pop	{r4, pc}
	...

000041c8 <__aeabi_uidiv>:
    41c8:	2200      	movs	r2, #0
    41ca:	0843      	lsrs	r3, r0, #1
    41cc:	428b      	cmp	r3, r1
    41ce:	d374      	bcc.n	42ba <__aeabi_uidiv+0xf2>
    41d0:	0903      	lsrs	r3, r0, #4
    41d2:	428b      	cmp	r3, r1
    41d4:	d35f      	bcc.n	4296 <__aeabi_uidiv+0xce>
    41d6:	0a03      	lsrs	r3, r0, #8
    41d8:	428b      	cmp	r3, r1
    41da:	d344      	bcc.n	4266 <__aeabi_uidiv+0x9e>
    41dc:	0b03      	lsrs	r3, r0, #12
    41de:	428b      	cmp	r3, r1
    41e0:	d328      	bcc.n	4234 <__aeabi_uidiv+0x6c>
    41e2:	0c03      	lsrs	r3, r0, #16
    41e4:	428b      	cmp	r3, r1
    41e6:	d30d      	bcc.n	4204 <__aeabi_uidiv+0x3c>
    41e8:	22ff      	movs	r2, #255	; 0xff
    41ea:	0209      	lsls	r1, r1, #8
    41ec:	ba12      	rev	r2, r2
    41ee:	0c03      	lsrs	r3, r0, #16
    41f0:	428b      	cmp	r3, r1
    41f2:	d302      	bcc.n	41fa <__aeabi_uidiv+0x32>
    41f4:	1212      	asrs	r2, r2, #8
    41f6:	0209      	lsls	r1, r1, #8
    41f8:	d065      	beq.n	42c6 <__aeabi_uidiv+0xfe>
    41fa:	0b03      	lsrs	r3, r0, #12
    41fc:	428b      	cmp	r3, r1
    41fe:	d319      	bcc.n	4234 <__aeabi_uidiv+0x6c>
    4200:	e000      	b.n	4204 <__aeabi_uidiv+0x3c>
    4202:	0a09      	lsrs	r1, r1, #8
    4204:	0bc3      	lsrs	r3, r0, #15
    4206:	428b      	cmp	r3, r1
    4208:	d301      	bcc.n	420e <__aeabi_uidiv+0x46>
    420a:	03cb      	lsls	r3, r1, #15
    420c:	1ac0      	subs	r0, r0, r3
    420e:	4152      	adcs	r2, r2
    4210:	0b83      	lsrs	r3, r0, #14
    4212:	428b      	cmp	r3, r1
    4214:	d301      	bcc.n	421a <__aeabi_uidiv+0x52>
    4216:	038b      	lsls	r3, r1, #14
    4218:	1ac0      	subs	r0, r0, r3
    421a:	4152      	adcs	r2, r2
    421c:	0b43      	lsrs	r3, r0, #13
    421e:	428b      	cmp	r3, r1
    4220:	d301      	bcc.n	4226 <__aeabi_uidiv+0x5e>
    4222:	034b      	lsls	r3, r1, #13
    4224:	1ac0      	subs	r0, r0, r3
    4226:	4152      	adcs	r2, r2
    4228:	0b03      	lsrs	r3, r0, #12
    422a:	428b      	cmp	r3, r1
    422c:	d301      	bcc.n	4232 <__aeabi_uidiv+0x6a>
    422e:	030b      	lsls	r3, r1, #12
    4230:	1ac0      	subs	r0, r0, r3
    4232:	4152      	adcs	r2, r2
    4234:	0ac3      	lsrs	r3, r0, #11
    4236:	428b      	cmp	r3, r1
    4238:	d301      	bcc.n	423e <__aeabi_uidiv+0x76>
    423a:	02cb      	lsls	r3, r1, #11
    423c:	1ac0      	subs	r0, r0, r3
    423e:	4152      	adcs	r2, r2
    4240:	0a83      	lsrs	r3, r0, #10
    4242:	428b      	cmp	r3, r1
    4244:	d301      	bcc.n	424a <__aeabi_uidiv+0x82>
    4246:	028b      	lsls	r3, r1, #10
    4248:	1ac0      	subs	r0, r0, r3
    424a:	4152      	adcs	r2, r2
    424c:	0a43      	lsrs	r3, r0, #9
    424e:	428b      	cmp	r3, r1
    4250:	d301      	bcc.n	4256 <__aeabi_uidiv+0x8e>
    4252:	024b      	lsls	r3, r1, #9
    4254:	1ac0      	subs	r0, r0, r3
    4256:	4152      	adcs	r2, r2
    4258:	0a03      	lsrs	r3, r0, #8
    425a:	428b      	cmp	r3, r1
    425c:	d301      	bcc.n	4262 <__aeabi_uidiv+0x9a>
    425e:	020b      	lsls	r3, r1, #8
    4260:	1ac0      	subs	r0, r0, r3
    4262:	4152      	adcs	r2, r2
    4264:	d2cd      	bcs.n	4202 <__aeabi_uidiv+0x3a>
    4266:	09c3      	lsrs	r3, r0, #7
    4268:	428b      	cmp	r3, r1
    426a:	d301      	bcc.n	4270 <__aeabi_uidiv+0xa8>
    426c:	01cb      	lsls	r3, r1, #7
    426e:	1ac0      	subs	r0, r0, r3
    4270:	4152      	adcs	r2, r2
    4272:	0983      	lsrs	r3, r0, #6
    4274:	428b      	cmp	r3, r1
    4276:	d301      	bcc.n	427c <__aeabi_uidiv+0xb4>
    4278:	018b      	lsls	r3, r1, #6
    427a:	1ac0      	subs	r0, r0, r3
    427c:	4152      	adcs	r2, r2
    427e:	0943      	lsrs	r3, r0, #5
    4280:	428b      	cmp	r3, r1
    4282:	d301      	bcc.n	4288 <__aeabi_uidiv+0xc0>
    4284:	014b      	lsls	r3, r1, #5
    4286:	1ac0      	subs	r0, r0, r3
    4288:	4152      	adcs	r2, r2
    428a:	0903      	lsrs	r3, r0, #4
    428c:	428b      	cmp	r3, r1
    428e:	d301      	bcc.n	4294 <__aeabi_uidiv+0xcc>
    4290:	010b      	lsls	r3, r1, #4
    4292:	1ac0      	subs	r0, r0, r3
    4294:	4152      	adcs	r2, r2
    4296:	08c3      	lsrs	r3, r0, #3
    4298:	428b      	cmp	r3, r1
    429a:	d301      	bcc.n	42a0 <__aeabi_uidiv+0xd8>
    429c:	00cb      	lsls	r3, r1, #3
    429e:	1ac0      	subs	r0, r0, r3
    42a0:	4152      	adcs	r2, r2
    42a2:	0883      	lsrs	r3, r0, #2
    42a4:	428b      	cmp	r3, r1
    42a6:	d301      	bcc.n	42ac <__aeabi_uidiv+0xe4>
    42a8:	008b      	lsls	r3, r1, #2
    42aa:	1ac0      	subs	r0, r0, r3
    42ac:	4152      	adcs	r2, r2
    42ae:	0843      	lsrs	r3, r0, #1
    42b0:	428b      	cmp	r3, r1
    42b2:	d301      	bcc.n	42b8 <__aeabi_uidiv+0xf0>
    42b4:	004b      	lsls	r3, r1, #1
    42b6:	1ac0      	subs	r0, r0, r3
    42b8:	4152      	adcs	r2, r2
    42ba:	1a41      	subs	r1, r0, r1
    42bc:	d200      	bcs.n	42c0 <__aeabi_uidiv+0xf8>
    42be:	4601      	mov	r1, r0
    42c0:	4152      	adcs	r2, r2
    42c2:	4610      	mov	r0, r2
    42c4:	4770      	bx	lr
    42c6:	e7ff      	b.n	42c8 <__aeabi_uidiv+0x100>
    42c8:	b501      	push	{r0, lr}
    42ca:	2000      	movs	r0, #0
    42cc:	f000 f8f0 	bl	44b0 <__aeabi_idiv0>
    42d0:	bd02      	pop	{r1, pc}
    42d2:	46c0      	nop			; (mov r8, r8)

000042d4 <__aeabi_uidivmod>:
    42d4:	2900      	cmp	r1, #0
    42d6:	d0f7      	beq.n	42c8 <__aeabi_uidiv+0x100>
    42d8:	e776      	b.n	41c8 <__aeabi_uidiv>
    42da:	4770      	bx	lr

000042dc <__aeabi_idiv>:
    42dc:	4603      	mov	r3, r0
    42de:	430b      	orrs	r3, r1
    42e0:	d47f      	bmi.n	43e2 <__aeabi_idiv+0x106>
    42e2:	2200      	movs	r2, #0
    42e4:	0843      	lsrs	r3, r0, #1
    42e6:	428b      	cmp	r3, r1
    42e8:	d374      	bcc.n	43d4 <__aeabi_idiv+0xf8>
    42ea:	0903      	lsrs	r3, r0, #4
    42ec:	428b      	cmp	r3, r1
    42ee:	d35f      	bcc.n	43b0 <__aeabi_idiv+0xd4>
    42f0:	0a03      	lsrs	r3, r0, #8
    42f2:	428b      	cmp	r3, r1
    42f4:	d344      	bcc.n	4380 <__aeabi_idiv+0xa4>
    42f6:	0b03      	lsrs	r3, r0, #12
    42f8:	428b      	cmp	r3, r1
    42fa:	d328      	bcc.n	434e <__aeabi_idiv+0x72>
    42fc:	0c03      	lsrs	r3, r0, #16
    42fe:	428b      	cmp	r3, r1
    4300:	d30d      	bcc.n	431e <__aeabi_idiv+0x42>
    4302:	22ff      	movs	r2, #255	; 0xff
    4304:	0209      	lsls	r1, r1, #8
    4306:	ba12      	rev	r2, r2
    4308:	0c03      	lsrs	r3, r0, #16
    430a:	428b      	cmp	r3, r1
    430c:	d302      	bcc.n	4314 <__aeabi_idiv+0x38>
    430e:	1212      	asrs	r2, r2, #8
    4310:	0209      	lsls	r1, r1, #8
    4312:	d065      	beq.n	43e0 <__aeabi_idiv+0x104>
    4314:	0b03      	lsrs	r3, r0, #12
    4316:	428b      	cmp	r3, r1
    4318:	d319      	bcc.n	434e <__aeabi_idiv+0x72>
    431a:	e000      	b.n	431e <__aeabi_idiv+0x42>
    431c:	0a09      	lsrs	r1, r1, #8
    431e:	0bc3      	lsrs	r3, r0, #15
    4320:	428b      	cmp	r3, r1
    4322:	d301      	bcc.n	4328 <__aeabi_idiv+0x4c>
    4324:	03cb      	lsls	r3, r1, #15
    4326:	1ac0      	subs	r0, r0, r3
    4328:	4152      	adcs	r2, r2
    432a:	0b83      	lsrs	r3, r0, #14
    432c:	428b      	cmp	r3, r1
    432e:	d301      	bcc.n	4334 <__aeabi_idiv+0x58>
    4330:	038b      	lsls	r3, r1, #14
    4332:	1ac0      	subs	r0, r0, r3
    4334:	4152      	adcs	r2, r2
    4336:	0b43      	lsrs	r3, r0, #13
    4338:	428b      	cmp	r3, r1
    433a:	d301      	bcc.n	4340 <__aeabi_idiv+0x64>
    433c:	034b      	lsls	r3, r1, #13
    433e:	1ac0      	subs	r0, r0, r3
    4340:	4152      	adcs	r2, r2
    4342:	0b03      	lsrs	r3, r0, #12
    4344:	428b      	cmp	r3, r1
    4346:	d301      	bcc.n	434c <__aeabi_idiv+0x70>
    4348:	030b      	lsls	r3, r1, #12
    434a:	1ac0      	subs	r0, r0, r3
    434c:	4152      	adcs	r2, r2
    434e:	0ac3      	lsrs	r3, r0, #11
    4350:	428b      	cmp	r3, r1
    4352:	d301      	bcc.n	4358 <__aeabi_idiv+0x7c>
    4354:	02cb      	lsls	r3, r1, #11
    4356:	1ac0      	subs	r0, r0, r3
    4358:	4152      	adcs	r2, r2
    435a:	0a83      	lsrs	r3, r0, #10
    435c:	428b      	cmp	r3, r1
    435e:	d301      	bcc.n	4364 <__aeabi_idiv+0x88>
    4360:	028b      	lsls	r3, r1, #10
    4362:	1ac0      	subs	r0, r0, r3
    4364:	4152      	adcs	r2, r2
    4366:	0a43      	lsrs	r3, r0, #9
    4368:	428b      	cmp	r3, r1
    436a:	d301      	bcc.n	4370 <__aeabi_idiv+0x94>
    436c:	024b      	lsls	r3, r1, #9
    436e:	1ac0      	subs	r0, r0, r3
    4370:	4152      	adcs	r2, r2
    4372:	0a03      	lsrs	r3, r0, #8
    4374:	428b      	cmp	r3, r1
    4376:	d301      	bcc.n	437c <__aeabi_idiv+0xa0>
    4378:	020b      	lsls	r3, r1, #8
    437a:	1ac0      	subs	r0, r0, r3
    437c:	4152      	adcs	r2, r2
    437e:	d2cd      	bcs.n	431c <__aeabi_idiv+0x40>
    4380:	09c3      	lsrs	r3, r0, #7
    4382:	428b      	cmp	r3, r1
    4384:	d301      	bcc.n	438a <__aeabi_idiv+0xae>
    4386:	01cb      	lsls	r3, r1, #7
    4388:	1ac0      	subs	r0, r0, r3
    438a:	4152      	adcs	r2, r2
    438c:	0983      	lsrs	r3, r0, #6
    438e:	428b      	cmp	r3, r1
    4390:	d301      	bcc.n	4396 <__aeabi_idiv+0xba>
    4392:	018b      	lsls	r3, r1, #6
    4394:	1ac0      	subs	r0, r0, r3
    4396:	4152      	adcs	r2, r2
    4398:	0943      	lsrs	r3, r0, #5
    439a:	428b      	cmp	r3, r1
    439c:	d301      	bcc.n	43a2 <__aeabi_idiv+0xc6>
    439e:	014b      	lsls	r3, r1, #5
    43a0:	1ac0      	subs	r0, r0, r3
    43a2:	4152      	adcs	r2, r2
    43a4:	0903      	lsrs	r3, r0, #4
    43a6:	428b      	cmp	r3, r1
    43a8:	d301      	bcc.n	43ae <__aeabi_idiv+0xd2>
    43aa:	010b      	lsls	r3, r1, #4
    43ac:	1ac0      	subs	r0, r0, r3
    43ae:	4152      	adcs	r2, r2
    43b0:	08c3      	lsrs	r3, r0, #3
    43b2:	428b      	cmp	r3, r1
    43b4:	d301      	bcc.n	43ba <__aeabi_idiv+0xde>
    43b6:	00cb      	lsls	r3, r1, #3
    43b8:	1ac0      	subs	r0, r0, r3
    43ba:	4152      	adcs	r2, r2
    43bc:	0883      	lsrs	r3, r0, #2
    43be:	428b      	cmp	r3, r1
    43c0:	d301      	bcc.n	43c6 <__aeabi_idiv+0xea>
    43c2:	008b      	lsls	r3, r1, #2
    43c4:	1ac0      	subs	r0, r0, r3
    43c6:	4152      	adcs	r2, r2
    43c8:	0843      	lsrs	r3, r0, #1
    43ca:	428b      	cmp	r3, r1
    43cc:	d301      	bcc.n	43d2 <__aeabi_idiv+0xf6>
    43ce:	004b      	lsls	r3, r1, #1
    43d0:	1ac0      	subs	r0, r0, r3
    43d2:	4152      	adcs	r2, r2
    43d4:	1a41      	subs	r1, r0, r1
    43d6:	d200      	bcs.n	43da <__aeabi_idiv+0xfe>
    43d8:	4601      	mov	r1, r0
    43da:	4152      	adcs	r2, r2
    43dc:	4610      	mov	r0, r2
    43de:	4770      	bx	lr
    43e0:	e05d      	b.n	449e <__aeabi_idiv+0x1c2>
    43e2:	0fca      	lsrs	r2, r1, #31
    43e4:	d000      	beq.n	43e8 <__aeabi_idiv+0x10c>
    43e6:	4249      	negs	r1, r1
    43e8:	1003      	asrs	r3, r0, #32
    43ea:	d300      	bcc.n	43ee <__aeabi_idiv+0x112>
    43ec:	4240      	negs	r0, r0
    43ee:	4053      	eors	r3, r2
    43f0:	2200      	movs	r2, #0
    43f2:	469c      	mov	r12, r3
    43f4:	0903      	lsrs	r3, r0, #4
    43f6:	428b      	cmp	r3, r1
    43f8:	d32d      	bcc.n	4456 <__aeabi_idiv+0x17a>
    43fa:	0a03      	lsrs	r3, r0, #8
    43fc:	428b      	cmp	r3, r1
    43fe:	d312      	bcc.n	4426 <__aeabi_idiv+0x14a>
    4400:	22fc      	movs	r2, #252	; 0xfc
    4402:	0189      	lsls	r1, r1, #6
    4404:	ba12      	rev	r2, r2
    4406:	0a03      	lsrs	r3, r0, #8
    4408:	428b      	cmp	r3, r1
    440a:	d30c      	bcc.n	4426 <__aeabi_idiv+0x14a>
    440c:	0189      	lsls	r1, r1, #6
    440e:	1192      	asrs	r2, r2, #6
    4410:	428b      	cmp	r3, r1
    4412:	d308      	bcc.n	4426 <__aeabi_idiv+0x14a>
    4414:	0189      	lsls	r1, r1, #6
    4416:	1192      	asrs	r2, r2, #6
    4418:	428b      	cmp	r3, r1
    441a:	d304      	bcc.n	4426 <__aeabi_idiv+0x14a>
    441c:	0189      	lsls	r1, r1, #6
    441e:	d03a      	beq.n	4496 <__aeabi_idiv+0x1ba>
    4420:	1192      	asrs	r2, r2, #6
    4422:	e000      	b.n	4426 <__aeabi_idiv+0x14a>
    4424:	0989      	lsrs	r1, r1, #6
    4426:	09c3      	lsrs	r3, r0, #7
    4428:	428b      	cmp	r3, r1
    442a:	d301      	bcc.n	4430 <__aeabi_idiv+0x154>
    442c:	01cb      	lsls	r3, r1, #7
    442e:	1ac0      	subs	r0, r0, r3
    4430:	4152      	adcs	r2, r2
    4432:	0983      	lsrs	r3, r0, #6
    4434:	428b      	cmp	r3, r1
    4436:	d301      	bcc.n	443c <__aeabi_idiv+0x160>
    4438:	018b      	lsls	r3, r1, #6
    443a:	1ac0      	subs	r0, r0, r3
    443c:	4152      	adcs	r2, r2
    443e:	0943      	lsrs	r3, r0, #5
    4440:	428b      	cmp	r3, r1
    4442:	d301      	bcc.n	4448 <__aeabi_idiv+0x16c>
    4444:	014b      	lsls	r3, r1, #5
    4446:	1ac0      	subs	r0, r0, r3
    4448:	4152      	adcs	r2, r2
    444a:	0903      	lsrs	r3, r0, #4
    444c:	428b      	cmp	r3, r1
    444e:	d301      	bcc.n	4454 <__aeabi_idiv+0x178>
    4450:	010b      	lsls	r3, r1, #4
    4452:	1ac0      	subs	r0, r0, r3
    4454:	4152      	adcs	r2, r2
    4456:	08c3      	lsrs	r3, r0, #3
    4458:	428b      	cmp	r3, r1
    445a:	d301      	bcc.n	4460 <__aeabi_idiv+0x184>
    445c:	00cb      	lsls	r3, r1, #3
    445e:	1ac0      	subs	r0, r0, r3
    4460:	4152      	adcs	r2, r2
    4462:	0883      	lsrs	r3, r0, #2
    4464:	428b      	cmp	r3, r1
    4466:	d301      	bcc.n	446c <__aeabi_idiv+0x190>
    4468:	008b      	lsls	r3, r1, #2
    446a:	1ac0      	subs	r0, r0, r3
    446c:	4152      	adcs	r2, r2
    446e:	d2d9      	bcs.n	4424 <__aeabi_idiv+0x148>
    4470:	0843      	lsrs	r3, r0, #1
    4472:	428b      	cmp	r3, r1
    4474:	d301      	bcc.n	447a <__aeabi_idiv+0x19e>
    4476:	004b      	lsls	r3, r1, #1
    4478:	1ac0      	subs	r0, r0, r3
    447a:	4152      	adcs	r2, r2
    447c:	1a41      	subs	r1, r0, r1
    447e:	d200      	bcs.n	4482 <__aeabi_idiv+0x1a6>
    4480:	4601      	mov	r1, r0
    4482:	4663      	mov	r3, r12
    4484:	4152      	adcs	r2, r2
    4486:	105b      	asrs	r3, r3, #1
    4488:	4610      	mov	r0, r2
    448a:	d301      	bcc.n	4490 <__aeabi_idiv+0x1b4>
    448c:	4240      	negs	r0, r0
    448e:	2b00      	cmp	r3, #0
    4490:	d500      	bpl.n	4494 <__aeabi_idiv+0x1b8>
    4492:	4249      	negs	r1, r1
    4494:	4770      	bx	lr
    4496:	4663      	mov	r3, r12
    4498:	105b      	asrs	r3, r3, #1
    449a:	d300      	bcc.n	449e <__aeabi_idiv+0x1c2>
    449c:	4240      	negs	r0, r0
    449e:	b501      	push	{r0, lr}
    44a0:	2000      	movs	r0, #0
    44a2:	f000 f805 	bl	44b0 <__aeabi_idiv0>
    44a6:	bd02      	pop	{r1, pc}

000044a8 <__aeabi_idivmod>:
    44a8:	2900      	cmp	r1, #0
    44aa:	d0f8      	beq.n	449e <__aeabi_idiv+0x1c2>
    44ac:	e716      	b.n	42dc <__aeabi_idiv>
    44ae:	4770      	bx	lr

000044b0 <__aeabi_idiv0>:
    44b0:	4770      	bx	lr
    44b2:	46c0      	nop			; (mov r8, r8)

000044b4 <__cxa_atexit>:
    44b4:	b570      	push	{r4, r5, r6, lr}
    44b6:	4c05      	ldr	r4, [pc, #20]	; (44cc <__cxa_atexit+0x18>)
    44b8:	0005      	movs	r5, r0
    44ba:	0013      	movs	r3, r2
    44bc:	1e20      	subs	r0, r4, #0
    44be:	d004      	beq.n	44ca <__cxa_atexit+0x16>
    44c0:	000a      	movs	r2, r1
    44c2:	2002      	movs	r0, #2
    44c4:	0029      	movs	r1, r5
    44c6:	e000      	b.n	44ca <__cxa_atexit+0x16>
    44c8:	bf00      	nop
    44ca:	bd70      	pop	{r4, r5, r6, pc}
    44cc:	00000000 	.word	0x00000000

000044d0 <__errno>:
    44d0:	4b01      	ldr	r3, [pc, #4]	; (44d8 <__errno+0x8>)
    44d2:	6818      	ldr	r0, [r3, #0]
    44d4:	4770      	bx	lr
    44d6:	46c0      	nop			; (mov r8, r8)
    44d8:	1ffff130 	.word	0x1ffff130

000044dc <exit>:
    44dc:	4b08      	ldr	r3, [pc, #32]	; (4500 <exit+0x24>)
    44de:	b510      	push	{r4, lr}
    44e0:	0004      	movs	r4, r0
    44e2:	2b00      	cmp	r3, #0
    44e4:	d002      	beq.n	44ec <exit+0x10>
    44e6:	2100      	movs	r1, #0
    44e8:	e000      	b.n	44ec <exit+0x10>
    44ea:	bf00      	nop
    44ec:	4b05      	ldr	r3, [pc, #20]	; (4504 <exit+0x28>)
    44ee:	6818      	ldr	r0, [r3, #0]
    44f0:	6a83      	ldr	r3, [r0, #40]	; 0x28
    44f2:	2b00      	cmp	r3, #0
    44f4:	d000      	beq.n	44f8 <exit+0x1c>
    44f6:	4798      	blx	r3
    44f8:	0020      	movs	r0, r4
    44fa:	f7ff fcc5 	bl	3e88 <_exit>
    44fe:	46c0      	nop			; (mov r8, r8)
    4500:	00000000 	.word	0x00000000
    4504:	00006c60 	.word	0x00006c60

00004508 <_fclose_r>:
    4508:	b570      	push	{r4, r5, r6, lr}
    450a:	0005      	movs	r5, r0
    450c:	1e0c      	subs	r4, r1, #0
    450e:	d101      	bne.n	4514 <_fclose_r+0xc>
    4510:	2000      	movs	r0, #0
    4512:	e049      	b.n	45a8 <_fclose_r+0xa0>
    4514:	2800      	cmp	r0, #0
    4516:	d004      	beq.n	4522 <_fclose_r+0x1a>
    4518:	6983      	ldr	r3, [r0, #24]
    451a:	2b00      	cmp	r3, #0
    451c:	d101      	bne.n	4522 <_fclose_r+0x1a>
    451e:	f000 f95d 	bl	47dc <__sinit>
    4522:	4b22      	ldr	r3, [pc, #136]	; (45ac <_fclose_r+0xa4>)
    4524:	429c      	cmp	r4, r3
    4526:	d101      	bne.n	452c <_fclose_r+0x24>
    4528:	686c      	ldr	r4, [r5, #4]
    452a:	e008      	b.n	453e <_fclose_r+0x36>
    452c:	4b20      	ldr	r3, [pc, #128]	; (45b0 <_fclose_r+0xa8>)
    452e:	429c      	cmp	r4, r3
    4530:	d101      	bne.n	4536 <_fclose_r+0x2e>
    4532:	68ac      	ldr	r4, [r5, #8]
    4534:	e003      	b.n	453e <_fclose_r+0x36>
    4536:	4b1f      	ldr	r3, [pc, #124]	; (45b4 <_fclose_r+0xac>)
    4538:	429c      	cmp	r4, r3
    453a:	d100      	bne.n	453e <_fclose_r+0x36>
    453c:	68ec      	ldr	r4, [r5, #12]
    453e:	220c      	movs	r2, #12
    4540:	5ea3      	ldrsh	r3, [r4, r2]
    4542:	2b00      	cmp	r3, #0
    4544:	d0e4      	beq.n	4510 <_fclose_r+0x8>
    4546:	0021      	movs	r1, r4
    4548:	0028      	movs	r0, r5
    454a:	f000 f83f 	bl	45cc <__sflush_r>
    454e:	6b23      	ldr	r3, [r4, #48]	; 0x30
    4550:	0006      	movs	r6, r0
    4552:	2b00      	cmp	r3, #0
    4554:	d006      	beq.n	4564 <_fclose_r+0x5c>
    4556:	6a21      	ldr	r1, [r4, #32]
    4558:	0028      	movs	r0, r5
    455a:	4798      	blx	r3
    455c:	2800      	cmp	r0, #0
    455e:	da01      	bge.n	4564 <_fclose_r+0x5c>
    4560:	2601      	movs	r6, #1
    4562:	4276      	negs	r6, r6
    4564:	89a3      	ldrh	r3, [r4, #12]
    4566:	061b      	lsls	r3, r3, #24
    4568:	d503      	bpl.n	4572 <_fclose_r+0x6a>
    456a:	6921      	ldr	r1, [r4, #16]
    456c:	0028      	movs	r0, r5
    456e:	f000 fb9d 	bl	4cac <_free_r>
    4572:	6b61      	ldr	r1, [r4, #52]	; 0x34
    4574:	2900      	cmp	r1, #0
    4576:	d008      	beq.n	458a <_fclose_r+0x82>
    4578:	0023      	movs	r3, r4
    457a:	3344      	adds	r3, #68	; 0x44
    457c:	4299      	cmp	r1, r3
    457e:	d002      	beq.n	4586 <_fclose_r+0x7e>
    4580:	0028      	movs	r0, r5
    4582:	f000 fb93 	bl	4cac <_free_r>
    4586:	2300      	movs	r3, #0
    4588:	6363      	str	r3, [r4, #52]	; 0x34
    458a:	6ca1      	ldr	r1, [r4, #72]	; 0x48
    458c:	2900      	cmp	r1, #0
    458e:	d004      	beq.n	459a <_fclose_r+0x92>
    4590:	0028      	movs	r0, r5
    4592:	f000 fb8b 	bl	4cac <_free_r>
    4596:	2300      	movs	r3, #0
    4598:	64a3      	str	r3, [r4, #72]	; 0x48
    459a:	f000 f991 	bl	48c0 <__sfp_lock_acquire>
    459e:	2300      	movs	r3, #0
    45a0:	81a3      	strh	r3, [r4, #12]
    45a2:	f000 f98e 	bl	48c2 <__sfp_lock_release>
    45a6:	0030      	movs	r0, r6
    45a8:	bd70      	pop	{r4, r5, r6, pc}
    45aa:	46c0      	nop			; (mov r8, r8)
    45ac:	00006bfc 	.word	0x00006bfc
    45b0:	00006c1c 	.word	0x00006c1c
    45b4:	00006c3c 	.word	0x00006c3c

000045b8 <fclose>:
    45b8:	b510      	push	{r4, lr}
    45ba:	4b03      	ldr	r3, [pc, #12]	; (45c8 <fclose+0x10>)
    45bc:	0001      	movs	r1, r0
    45be:	6818      	ldr	r0, [r3, #0]
    45c0:	f7ff ffa2 	bl	4508 <_fclose_r>
    45c4:	bd10      	pop	{r4, pc}
    45c6:	46c0      	nop			; (mov r8, r8)
    45c8:	1ffff130 	.word	0x1ffff130

000045cc <__sflush_r>:
    45cc:	b5f7      	push	{r0, r1, r2, r4, r5, r6, r7, lr}
    45ce:	898a      	ldrh	r2, [r1, #12]
    45d0:	0005      	movs	r5, r0
    45d2:	000c      	movs	r4, r1
    45d4:	0713      	lsls	r3, r2, #28
    45d6:	d45a      	bmi.n	468e <__sflush_r+0xc2>
    45d8:	684b      	ldr	r3, [r1, #4]
    45da:	2b00      	cmp	r3, #0
    45dc:	dc02      	bgt.n	45e4 <__sflush_r+0x18>
    45de:	6c0b      	ldr	r3, [r1, #64]	; 0x40
    45e0:	2b00      	cmp	r3, #0
    45e2:	dd19      	ble.n	4618 <__sflush_r+0x4c>
    45e4:	6ae7      	ldr	r7, [r4, #44]	; 0x2c
    45e6:	2f00      	cmp	r7, #0
    45e8:	d016      	beq.n	4618 <__sflush_r+0x4c>
    45ea:	2300      	movs	r3, #0
    45ec:	682e      	ldr	r6, [r5, #0]
    45ee:	602b      	str	r3, [r5, #0]
    45f0:	2380      	movs	r3, #128	; 0x80
    45f2:	015b      	lsls	r3, r3, #5
    45f4:	401a      	ands	r2, r3
    45f6:	d001      	beq.n	45fc <__sflush_r+0x30>
    45f8:	6d60      	ldr	r0, [r4, #84]	; 0x54
    45fa:	e014      	b.n	4626 <__sflush_r+0x5a>
    45fc:	2301      	movs	r3, #1
    45fe:	6a21      	ldr	r1, [r4, #32]
    4600:	0028      	movs	r0, r5
    4602:	47b8      	blx	r7
    4604:	1c43      	adds	r3, r0, #1
    4606:	d10e      	bne.n	4626 <__sflush_r+0x5a>
    4608:	682b      	ldr	r3, [r5, #0]
    460a:	2b00      	cmp	r3, #0
    460c:	d00b      	beq.n	4626 <__sflush_r+0x5a>
    460e:	2b1d      	cmp	r3, #29
    4610:	d001      	beq.n	4616 <__sflush_r+0x4a>
    4612:	2b16      	cmp	r3, #22
    4614:	d102      	bne.n	461c <__sflush_r+0x50>
    4616:	602e      	str	r6, [r5, #0]
    4618:	2000      	movs	r0, #0
    461a:	e05a      	b.n	46d2 <__sflush_r+0x106>
    461c:	2240      	movs	r2, #64	; 0x40
    461e:	89a3      	ldrh	r3, [r4, #12]
    4620:	4313      	orrs	r3, r2
    4622:	81a3      	strh	r3, [r4, #12]
    4624:	e055      	b.n	46d2 <__sflush_r+0x106>
    4626:	89a3      	ldrh	r3, [r4, #12]
    4628:	075b      	lsls	r3, r3, #29
    462a:	d506      	bpl.n	463a <__sflush_r+0x6e>
    462c:	6863      	ldr	r3, [r4, #4]
    462e:	1ac0      	subs	r0, r0, r3
    4630:	6b63      	ldr	r3, [r4, #52]	; 0x34
    4632:	2b00      	cmp	r3, #0
    4634:	d001      	beq.n	463a <__sflush_r+0x6e>
    4636:	6c23      	ldr	r3, [r4, #64]	; 0x40
    4638:	1ac0      	subs	r0, r0, r3
    463a:	2300      	movs	r3, #0
    463c:	0002      	movs	r2, r0
    463e:	6a21      	ldr	r1, [r4, #32]
    4640:	0028      	movs	r0, r5
    4642:	6ae7      	ldr	r7, [r4, #44]	; 0x2c
    4644:	47b8      	blx	r7
    4646:	89a3      	ldrh	r3, [r4, #12]
    4648:	1c42      	adds	r2, r0, #1
    464a:	d106      	bne.n	465a <__sflush_r+0x8e>
    464c:	6829      	ldr	r1, [r5, #0]
    464e:	291d      	cmp	r1, #29
    4650:	d83a      	bhi.n	46c8 <__sflush_r+0xfc>
    4652:	4a20      	ldr	r2, [pc, #128]	; (46d4 <__sflush_r+0x108>)
    4654:	40ca      	lsrs	r2, r1
    4656:	07d2      	lsls	r2, r2, #31
    4658:	d536      	bpl.n	46c8 <__sflush_r+0xfc>
    465a:	2200      	movs	r2, #0
    465c:	6062      	str	r2, [r4, #4]
    465e:	6922      	ldr	r2, [r4, #16]
    4660:	6022      	str	r2, [r4, #0]
    4662:	04db      	lsls	r3, r3, #19
    4664:	d505      	bpl.n	4672 <__sflush_r+0xa6>
    4666:	1c43      	adds	r3, r0, #1
    4668:	d102      	bne.n	4670 <__sflush_r+0xa4>
    466a:	682b      	ldr	r3, [r5, #0]
    466c:	2b00      	cmp	r3, #0
    466e:	d100      	bne.n	4672 <__sflush_r+0xa6>
    4670:	6560      	str	r0, [r4, #84]	; 0x54
    4672:	6b61      	ldr	r1, [r4, #52]	; 0x34
    4674:	602e      	str	r6, [r5, #0]
    4676:	2900      	cmp	r1, #0
    4678:	d0ce      	beq.n	4618 <__sflush_r+0x4c>
    467a:	0023      	movs	r3, r4
    467c:	3344      	adds	r3, #68	; 0x44
    467e:	4299      	cmp	r1, r3
    4680:	d002      	beq.n	4688 <__sflush_r+0xbc>
    4682:	0028      	movs	r0, r5
    4684:	f000 fb12 	bl	4cac <_free_r>
    4688:	2000      	movs	r0, #0
    468a:	6360      	str	r0, [r4, #52]	; 0x34
    468c:	e021      	b.n	46d2 <__sflush_r+0x106>
    468e:	690f      	ldr	r7, [r1, #16]
    4690:	2f00      	cmp	r7, #0
    4692:	d0c1      	beq.n	4618 <__sflush_r+0x4c>
    4694:	680b      	ldr	r3, [r1, #0]
    4696:	600f      	str	r7, [r1, #0]
    4698:	1bdb      	subs	r3, r3, r7
    469a:	9301      	str	r3, [sp, #4]
    469c:	2300      	movs	r3, #0
    469e:	0792      	lsls	r2, r2, #30
    46a0:	d100      	bne.n	46a4 <__sflush_r+0xd8>
    46a2:	694b      	ldr	r3, [r1, #20]
    46a4:	60a3      	str	r3, [r4, #8]
    46a6:	e003      	b.n	46b0 <__sflush_r+0xe4>
    46a8:	9b01      	ldr	r3, [sp, #4]
    46aa:	183f      	adds	r7, r7, r0
    46ac:	1a1b      	subs	r3, r3, r0
    46ae:	9301      	str	r3, [sp, #4]
    46b0:	9b01      	ldr	r3, [sp, #4]
    46b2:	2b00      	cmp	r3, #0
    46b4:	ddb0      	ble.n	4618 <__sflush_r+0x4c>
    46b6:	9b01      	ldr	r3, [sp, #4]
    46b8:	003a      	movs	r2, r7
    46ba:	6a21      	ldr	r1, [r4, #32]
    46bc:	0028      	movs	r0, r5
    46be:	6aa6      	ldr	r6, [r4, #40]	; 0x28
    46c0:	47b0      	blx	r6
    46c2:	2800      	cmp	r0, #0
    46c4:	dcf0      	bgt.n	46a8 <__sflush_r+0xdc>
    46c6:	89a3      	ldrh	r3, [r4, #12]
    46c8:	2240      	movs	r2, #64	; 0x40
    46ca:	2001      	movs	r0, #1
    46cc:	4313      	orrs	r3, r2
    46ce:	81a3      	strh	r3, [r4, #12]
    46d0:	4240      	negs	r0, r0
    46d2:	bdfe      	pop	{r1, r2, r3, r4, r5, r6, r7, pc}
    46d4:	20400001 	.word	0x20400001

000046d8 <_fflush_r>:
    46d8:	690b      	ldr	r3, [r1, #16]
    46da:	b570      	push	{r4, r5, r6, lr}
    46dc:	0005      	movs	r5, r0
    46de:	000c      	movs	r4, r1
    46e0:	2b00      	cmp	r3, #0
    46e2:	d101      	bne.n	46e8 <_fflush_r+0x10>
    46e4:	2000      	movs	r0, #0
    46e6:	e01c      	b.n	4722 <_fflush_r+0x4a>
    46e8:	2800      	cmp	r0, #0
    46ea:	d004      	beq.n	46f6 <_fflush_r+0x1e>
    46ec:	6983      	ldr	r3, [r0, #24]
    46ee:	2b00      	cmp	r3, #0
    46f0:	d101      	bne.n	46f6 <_fflush_r+0x1e>
    46f2:	f000 f873 	bl	47dc <__sinit>
    46f6:	4b0b      	ldr	r3, [pc, #44]	; (4724 <_fflush_r+0x4c>)
    46f8:	429c      	cmp	r4, r3
    46fa:	d101      	bne.n	4700 <_fflush_r+0x28>
    46fc:	686c      	ldr	r4, [r5, #4]
    46fe:	e008      	b.n	4712 <_fflush_r+0x3a>
    4700:	4b09      	ldr	r3, [pc, #36]	; (4728 <_fflush_r+0x50>)
    4702:	429c      	cmp	r4, r3
    4704:	d101      	bne.n	470a <_fflush_r+0x32>
    4706:	68ac      	ldr	r4, [r5, #8]
    4708:	e003      	b.n	4712 <_fflush_r+0x3a>
    470a:	4b08      	ldr	r3, [pc, #32]	; (472c <_fflush_r+0x54>)
    470c:	429c      	cmp	r4, r3
    470e:	d100      	bne.n	4712 <_fflush_r+0x3a>
    4710:	68ec      	ldr	r4, [r5, #12]
    4712:	220c      	movs	r2, #12
    4714:	5ea3      	ldrsh	r3, [r4, r2]
    4716:	2b00      	cmp	r3, #0
    4718:	d0e4      	beq.n	46e4 <_fflush_r+0xc>
    471a:	0021      	movs	r1, r4
    471c:	0028      	movs	r0, r5
    471e:	f7ff ff55 	bl	45cc <__sflush_r>
    4722:	bd70      	pop	{r4, r5, r6, pc}
    4724:	00006bfc 	.word	0x00006bfc
    4728:	00006c1c 	.word	0x00006c1c
    472c:	00006c3c 	.word	0x00006c3c

00004730 <fflush>:
    4730:	b510      	push	{r4, lr}
    4732:	1e01      	subs	r1, r0, #0
    4734:	d105      	bne.n	4742 <fflush+0x12>
    4736:	4b05      	ldr	r3, [pc, #20]	; (474c <fflush+0x1c>)
    4738:	4905      	ldr	r1, [pc, #20]	; (4750 <fflush+0x20>)
    473a:	6818      	ldr	r0, [r3, #0]
    473c:	f000 f9d6 	bl	4aec <_fwalk_reent>
    4740:	e003      	b.n	474a <fflush+0x1a>
    4742:	4b04      	ldr	r3, [pc, #16]	; (4754 <fflush+0x24>)
    4744:	6818      	ldr	r0, [r3, #0]
    4746:	f7ff ffc7 	bl	46d8 <_fflush_r>
    474a:	bd10      	pop	{r4, pc}
    474c:	00006c60 	.word	0x00006c60
    4750:	000046d9 	.word	0x000046d9
    4754:	1ffff130 	.word	0x1ffff130

00004758 <_cleanup_r>:
    4758:	b510      	push	{r4, lr}
    475a:	4902      	ldr	r1, [pc, #8]	; (4764 <_cleanup_r+0xc>)
    475c:	f000 f9c6 	bl	4aec <_fwalk_reent>
    4760:	bd10      	pop	{r4, pc}
    4762:	46c0      	nop			; (mov r8, r8)
    4764:	000046d9 	.word	0x000046d9

00004768 <std.isra.0>:
    4768:	2300      	movs	r3, #0
    476a:	b510      	push	{r4, lr}
    476c:	0004      	movs	r4, r0
    476e:	6003      	str	r3, [r0, #0]
    4770:	6043      	str	r3, [r0, #4]
    4772:	6083      	str	r3, [r0, #8]
    4774:	8181      	strh	r1, [r0, #12]
    4776:	6643      	str	r3, [r0, #100]	; 0x64
    4778:	81c2      	strh	r2, [r0, #14]
    477a:	6103      	str	r3, [r0, #16]
    477c:	6143      	str	r3, [r0, #20]
    477e:	6183      	str	r3, [r0, #24]
    4780:	0019      	movs	r1, r3
    4782:	2208      	movs	r2, #8
    4784:	305c      	adds	r0, #92	; 0x5c
    4786:	f000 fa88 	bl	4c9a <memset>
    478a:	4b05      	ldr	r3, [pc, #20]	; (47a0 <std.isra.0+0x38>)
    478c:	6224      	str	r4, [r4, #32]
    478e:	6263      	str	r3, [r4, #36]	; 0x24
    4790:	4b04      	ldr	r3, [pc, #16]	; (47a4 <std.isra.0+0x3c>)
    4792:	62a3      	str	r3, [r4, #40]	; 0x28
    4794:	4b04      	ldr	r3, [pc, #16]	; (47a8 <std.isra.0+0x40>)
    4796:	62e3      	str	r3, [r4, #44]	; 0x2c
    4798:	4b04      	ldr	r3, [pc, #16]	; (47ac <std.isra.0+0x44>)
    479a:	6323      	str	r3, [r4, #48]	; 0x30
    479c:	bd10      	pop	{r4, pc}
    479e:	46c0      	nop			; (mov r8, r8)
    47a0:	00005959 	.word	0x00005959
    47a4:	00005985 	.word	0x00005985
    47a8:	000059bd 	.word	0x000059bd
    47ac:	000059e9 	.word	0x000059e9

000047b0 <__sfmoreglue>:
    47b0:	b570      	push	{r4, r5, r6, lr}
    47b2:	2568      	movs	r5, #104	; 0x68
    47b4:	1e4b      	subs	r3, r1, #1
    47b6:	435d      	muls	r5, r3
    47b8:	000e      	movs	r6, r1
    47ba:	0029      	movs	r1, r5
    47bc:	3174      	adds	r1, #116	; 0x74
    47be:	f000 fabb 	bl	4d38 <_malloc_r>
    47c2:	1e04      	subs	r4, r0, #0
    47c4:	d008      	beq.n	47d8 <__sfmoreglue+0x28>
    47c6:	2100      	movs	r1, #0
    47c8:	002a      	movs	r2, r5
    47ca:	6001      	str	r1, [r0, #0]
    47cc:	6046      	str	r6, [r0, #4]
    47ce:	300c      	adds	r0, #12
    47d0:	60a0      	str	r0, [r4, #8]
    47d2:	3268      	adds	r2, #104	; 0x68
    47d4:	f000 fa61 	bl	4c9a <memset>
    47d8:	0020      	movs	r0, r4
    47da:	bd70      	pop	{r4, r5, r6, pc}

000047dc <__sinit>:
    47dc:	6983      	ldr	r3, [r0, #24]
    47de:	b513      	push	{r0, r1, r4, lr}
    47e0:	0004      	movs	r4, r0
    47e2:	2b00      	cmp	r3, #0
    47e4:	d128      	bne.n	4838 <__sinit+0x5c>
    47e6:	6483      	str	r3, [r0, #72]	; 0x48
    47e8:	64c3      	str	r3, [r0, #76]	; 0x4c
    47ea:	6503      	str	r3, [r0, #80]	; 0x50
    47ec:	4b13      	ldr	r3, [pc, #76]	; (483c <__sinit+0x60>)
    47ee:	4a14      	ldr	r2, [pc, #80]	; (4840 <__sinit+0x64>)
    47f0:	681b      	ldr	r3, [r3, #0]
    47f2:	6282      	str	r2, [r0, #40]	; 0x28
    47f4:	9301      	str	r3, [sp, #4]
    47f6:	4298      	cmp	r0, r3
    47f8:	d101      	bne.n	47fe <__sinit+0x22>
    47fa:	2301      	movs	r3, #1
    47fc:	6183      	str	r3, [r0, #24]
    47fe:	0020      	movs	r0, r4
    4800:	f000 f820 	bl	4844 <__sfp>
    4804:	6060      	str	r0, [r4, #4]
    4806:	0020      	movs	r0, r4
    4808:	f000 f81c 	bl	4844 <__sfp>
    480c:	60a0      	str	r0, [r4, #8]
    480e:	0020      	movs	r0, r4
    4810:	f000 f818 	bl	4844 <__sfp>
    4814:	2200      	movs	r2, #0
    4816:	60e0      	str	r0, [r4, #12]
    4818:	2104      	movs	r1, #4
    481a:	6860      	ldr	r0, [r4, #4]
    481c:	f7ff ffa4 	bl	4768 <std.isra.0>
    4820:	2201      	movs	r2, #1
    4822:	2109      	movs	r1, #9
    4824:	68a0      	ldr	r0, [r4, #8]
    4826:	f7ff ff9f 	bl	4768 <std.isra.0>
    482a:	2202      	movs	r2, #2
    482c:	2112      	movs	r1, #18
    482e:	68e0      	ldr	r0, [r4, #12]
    4830:	f7ff ff9a 	bl	4768 <std.isra.0>
    4834:	2301      	movs	r3, #1
    4836:	61a3      	str	r3, [r4, #24]
    4838:	bd13      	pop	{r0, r1, r4, pc}
    483a:	46c0      	nop			; (mov r8, r8)
    483c:	00006c60 	.word	0x00006c60
    4840:	00004759 	.word	0x00004759

00004844 <__sfp>:
    4844:	b5f8      	push	{r3, r4, r5, r6, r7, lr}
    4846:	4b1d      	ldr	r3, [pc, #116]	; (48bc <__sfp+0x78>)
    4848:	0006      	movs	r6, r0
    484a:	681d      	ldr	r5, [r3, #0]
    484c:	69ab      	ldr	r3, [r5, #24]
    484e:	2b00      	cmp	r3, #0
    4850:	d102      	bne.n	4858 <__sfp+0x14>
    4852:	0028      	movs	r0, r5
    4854:	f7ff ffc2 	bl	47dc <__sinit>
    4858:	3548      	adds	r5, #72	; 0x48
    485a:	68ac      	ldr	r4, [r5, #8]
    485c:	686b      	ldr	r3, [r5, #4]
    485e:	3b01      	subs	r3, #1
    4860:	d405      	bmi.n	486e <__sfp+0x2a>
    4862:	220c      	movs	r2, #12
    4864:	5ea7      	ldrsh	r7, [r4, r2]
    4866:	2f00      	cmp	r7, #0
    4868:	d010      	beq.n	488c <__sfp+0x48>
    486a:	3468      	adds	r4, #104	; 0x68
    486c:	e7f7      	b.n	485e <__sfp+0x1a>
    486e:	682b      	ldr	r3, [r5, #0]
    4870:	2b00      	cmp	r3, #0
    4872:	d001      	beq.n	4878 <__sfp+0x34>
    4874:	682d      	ldr	r5, [r5, #0]
    4876:	e7f0      	b.n	485a <__sfp+0x16>
    4878:	2104      	movs	r1, #4
    487a:	0030      	movs	r0, r6
    487c:	f7ff ff98 	bl	47b0 <__sfmoreglue>
    4880:	6028      	str	r0, [r5, #0]
    4882:	2800      	cmp	r0, #0
    4884:	d1f6      	bne.n	4874 <__sfp+0x30>
    4886:	230c      	movs	r3, #12
    4888:	6033      	str	r3, [r6, #0]
    488a:	e016      	b.n	48ba <__sfp+0x76>
    488c:	2301      	movs	r3, #1
    488e:	0020      	movs	r0, r4
    4890:	425b      	negs	r3, r3
    4892:	81e3      	strh	r3, [r4, #14]
    4894:	3302      	adds	r3, #2
    4896:	81a3      	strh	r3, [r4, #12]
    4898:	6667      	str	r7, [r4, #100]	; 0x64
    489a:	6027      	str	r7, [r4, #0]
    489c:	60a7      	str	r7, [r4, #8]
    489e:	6067      	str	r7, [r4, #4]
    48a0:	6127      	str	r7, [r4, #16]
    48a2:	6167      	str	r7, [r4, #20]
    48a4:	61a7      	str	r7, [r4, #24]
    48a6:	305c      	adds	r0, #92	; 0x5c
    48a8:	2208      	movs	r2, #8
    48aa:	0039      	movs	r1, r7
    48ac:	f000 f9f5 	bl	4c9a <memset>
    48b0:	0020      	movs	r0, r4
    48b2:	6367      	str	r7, [r4, #52]	; 0x34
    48b4:	63a7      	str	r7, [r4, #56]	; 0x38
    48b6:	64a7      	str	r7, [r4, #72]	; 0x48
    48b8:	64e7      	str	r7, [r4, #76]	; 0x4c
    48ba:	bdf8      	pop	{r3, r4, r5, r6, r7, pc}
    48bc:	00006c60 	.word	0x00006c60

000048c0 <__sfp_lock_acquire>:
    48c0:	4770      	bx	lr

000048c2 <__sfp_lock_release>:
    48c2:	4770      	bx	lr

000048c4 <_fopen_r>:
    48c4:	b5f7      	push	{r0, r1, r2, r4, r5, r6, r7, lr}
    48c6:	000f      	movs	r7, r1
    48c8:	0011      	movs	r1, r2
    48ca:	aa01      	add	r2, sp, #4
    48cc:	0005      	movs	r5, r0
    48ce:	f001 fafb 	bl	5ec8 <__sflags>
    48d2:	1e06      	subs	r6, r0, #0
    48d4:	d101      	bne.n	48da <_fopen_r+0x16>
    48d6:	2400      	movs	r4, #0
    48d8:	e027      	b.n	492a <_fopen_r+0x66>
    48da:	0028      	movs	r0, r5
    48dc:	f7ff ffb2 	bl	4844 <__sfp>
    48e0:	1e04      	subs	r4, r0, #0
    48e2:	d0f8      	beq.n	48d6 <_fopen_r+0x12>
    48e4:	23db      	movs	r3, #219	; 0xdb
    48e6:	9a01      	ldr	r2, [sp, #4]
    48e8:	005b      	lsls	r3, r3, #1
    48ea:	0039      	movs	r1, r7
    48ec:	0028      	movs	r0, r5
    48ee:	f000 febb 	bl	5668 <_open_r>
    48f2:	2800      	cmp	r0, #0
    48f4:	da06      	bge.n	4904 <_fopen_r+0x40>
    48f6:	2500      	movs	r5, #0
    48f8:	f7ff ffe2 	bl	48c0 <__sfp_lock_acquire>
    48fc:	81a5      	strh	r5, [r4, #12]
    48fe:	f7ff ffe0 	bl	48c2 <__sfp_lock_release>
    4902:	e7e8      	b.n	48d6 <_fopen_r+0x12>
    4904:	4b0a      	ldr	r3, [pc, #40]	; (4930 <_fopen_r+0x6c>)
    4906:	81e0      	strh	r0, [r4, #14]
    4908:	6263      	str	r3, [r4, #36]	; 0x24
    490a:	4b0a      	ldr	r3, [pc, #40]	; (4934 <_fopen_r+0x70>)
    490c:	81a6      	strh	r6, [r4, #12]
    490e:	62a3      	str	r3, [r4, #40]	; 0x28
    4910:	4b09      	ldr	r3, [pc, #36]	; (4938 <_fopen_r+0x74>)
    4912:	6224      	str	r4, [r4, #32]
    4914:	62e3      	str	r3, [r4, #44]	; 0x2c
    4916:	4b09      	ldr	r3, [pc, #36]	; (493c <_fopen_r+0x78>)
    4918:	6323      	str	r3, [r4, #48]	; 0x30
    491a:	05f3      	lsls	r3, r6, #23
    491c:	d505      	bpl.n	492a <_fopen_r+0x66>
    491e:	2302      	movs	r3, #2
    4920:	2200      	movs	r2, #0
    4922:	0021      	movs	r1, r4
    4924:	0028      	movs	r0, r5
    4926:	f000 f845 	bl	49b4 <_fseek_r>
    492a:	0020      	movs	r0, r4
    492c:	bdfe      	pop	{r1, r2, r3, r4, r5, r6, r7, pc}
    492e:	46c0      	nop			; (mov r8, r8)
    4930:	00005959 	.word	0x00005959
    4934:	00005985 	.word	0x00005985
    4938:	000059bd 	.word	0x000059bd
    493c:	000059e9 	.word	0x000059e9

00004940 <fopen>:
    4940:	b510      	push	{r4, lr}
    4942:	4b03      	ldr	r3, [pc, #12]	; (4950 <fopen+0x10>)
    4944:	000a      	movs	r2, r1
    4946:	0001      	movs	r1, r0
    4948:	6818      	ldr	r0, [r3, #0]
    494a:	f7ff ffbb 	bl	48c4 <_fopen_r>
    494e:	bd10      	pop	{r4, pc}
    4950:	1ffff130 	.word	0x1ffff130

00004954 <_fputc_r>:
    4954:	b570      	push	{r4, r5, r6, lr}
    4956:	0004      	movs	r4, r0
    4958:	000e      	movs	r6, r1
    495a:	0015      	movs	r5, r2
    495c:	2800      	cmp	r0, #0
    495e:	d004      	beq.n	496a <_fputc_r+0x16>
    4960:	6983      	ldr	r3, [r0, #24]
    4962:	2b00      	cmp	r3, #0
    4964:	d101      	bne.n	496a <_fputc_r+0x16>
    4966:	f7ff ff39 	bl	47dc <__sinit>
    496a:	4b0a      	ldr	r3, [pc, #40]	; (4994 <_fputc_r+0x40>)
    496c:	429d      	cmp	r5, r3
    496e:	d101      	bne.n	4974 <_fputc_r+0x20>
    4970:	6865      	ldr	r5, [r4, #4]
    4972:	e008      	b.n	4986 <_fputc_r+0x32>
    4974:	4b08      	ldr	r3, [pc, #32]	; (4998 <_fputc_r+0x44>)
    4976:	429d      	cmp	r5, r3
    4978:	d101      	bne.n	497e <_fputc_r+0x2a>
    497a:	68a5      	ldr	r5, [r4, #8]
    497c:	e003      	b.n	4986 <_fputc_r+0x32>
    497e:	4b07      	ldr	r3, [pc, #28]	; (499c <_fputc_r+0x48>)
    4980:	429d      	cmp	r5, r3
    4982:	d100      	bne.n	4986 <_fputc_r+0x32>
    4984:	68e5      	ldr	r5, [r4, #12]
    4986:	002a      	movs	r2, r5
    4988:	0031      	movs	r1, r6
    498a:	0020      	movs	r0, r4
    498c:	f000 fe80 	bl	5690 <_putc_r>
    4990:	bd70      	pop	{r4, r5, r6, pc}
    4992:	46c0      	nop			; (mov r8, r8)
    4994:	00006bfc 	.word	0x00006bfc
    4998:	00006c1c 	.word	0x00006c1c
    499c:	00006c3c 	.word	0x00006c3c

000049a0 <fputc>:
    49a0:	b510      	push	{r4, lr}
    49a2:	4b03      	ldr	r3, [pc, #12]	; (49b0 <fputc+0x10>)
    49a4:	000a      	movs	r2, r1
    49a6:	0001      	movs	r1, r0
    49a8:	6818      	ldr	r0, [r3, #0]
    49aa:	f7ff ffd3 	bl	4954 <_fputc_r>
    49ae:	bd10      	pop	{r4, pc}
    49b0:	1ffff130 	.word	0x1ffff130

000049b4 <_fseek_r>:
    49b4:	b510      	push	{r4, lr}
    49b6:	f000 f801 	bl	49bc <_fseeko_r>
    49ba:	bd10      	pop	{r4, pc}

000049bc <_fseeko_r>:
    49bc:	b5f7      	push	{r0, r1, r2, r4, r5, r6, r7, lr}
    49be:	0005      	movs	r5, r0
    49c0:	000c      	movs	r4, r1
    49c2:	9201      	str	r2, [sp, #4]
    49c4:	001e      	movs	r6, r3
    49c6:	2800      	cmp	r0, #0
    49c8:	d004      	beq.n	49d4 <_fseeko_r+0x18>
    49ca:	6983      	ldr	r3, [r0, #24]
    49cc:	2b00      	cmp	r3, #0
    49ce:	d101      	bne.n	49d4 <_fseeko_r+0x18>
    49d0:	f7ff ff04 	bl	47dc <__sinit>
    49d4:	4b41      	ldr	r3, [pc, #260]	; (4adc <_fseeko_r+0x120>)
    49d6:	429c      	cmp	r4, r3
    49d8:	d101      	bne.n	49de <_fseeko_r+0x22>
    49da:	686c      	ldr	r4, [r5, #4]
    49dc:	e008      	b.n	49f0 <_fseeko_r+0x34>
    49de:	4b40      	ldr	r3, [pc, #256]	; (4ae0 <_fseeko_r+0x124>)
    49e0:	429c      	cmp	r4, r3
    49e2:	d101      	bne.n	49e8 <_fseeko_r+0x2c>
    49e4:	68ac      	ldr	r4, [r5, #8]
    49e6:	e003      	b.n	49f0 <_fseeko_r+0x34>
    49e8:	4b3e      	ldr	r3, [pc, #248]	; (4ae4 <_fseeko_r+0x128>)
    49ea:	429c      	cmp	r4, r3
    49ec:	d100      	bne.n	49f0 <_fseeko_r+0x34>
    49ee:	68ec      	ldr	r4, [r5, #12]
    49f0:	2284      	movs	r2, #132	; 0x84
    49f2:	89a3      	ldrh	r3, [r4, #12]
    49f4:	0052      	lsls	r2, r2, #1
    49f6:	4013      	ands	r3, r2
    49f8:	4293      	cmp	r3, r2
    49fa:	d103      	bne.n	4a04 <_fseeko_r+0x48>
    49fc:	0021      	movs	r1, r4
    49fe:	0028      	movs	r0, r5
    4a00:	f7ff fe6a 	bl	46d8 <_fflush_r>
    4a04:	6ae3      	ldr	r3, [r4, #44]	; 0x2c
    4a06:	9300      	str	r3, [sp, #0]
    4a08:	2b00      	cmp	r3, #0
    4a0a:	d101      	bne.n	4a10 <_fseeko_r+0x54>
    4a0c:	331d      	adds	r3, #29
    4a0e:	e031      	b.n	4a74 <_fseeko_r+0xb8>
    4a10:	2e01      	cmp	r6, #1
    4a12:	d005      	beq.n	4a20 <_fseeko_r+0x64>
    4a14:	2e02      	cmp	r6, #2
    4a16:	d031      	beq.n	4a7c <_fseeko_r+0xc0>
    4a18:	2316      	movs	r3, #22
    4a1a:	2e00      	cmp	r6, #0
    4a1c:	d12a      	bne.n	4a74 <_fseeko_r+0xb8>
    4a1e:	e02d      	b.n	4a7c <_fseeko_r+0xc0>
    4a20:	0021      	movs	r1, r4
    4a22:	0028      	movs	r0, r5
    4a24:	f7ff fe58 	bl	46d8 <_fflush_r>
    4a28:	2380      	movs	r3, #128	; 0x80
    4a2a:	89a2      	ldrh	r2, [r4, #12]
    4a2c:	015b      	lsls	r3, r3, #5
    4a2e:	401a      	ands	r2, r3
    4a30:	d001      	beq.n	4a36 <_fseeko_r+0x7a>
    4a32:	6d60      	ldr	r0, [r4, #84]	; 0x54
    4a34:	e006      	b.n	4a44 <_fseeko_r+0x88>
    4a36:	0033      	movs	r3, r6
    4a38:	6a21      	ldr	r1, [r4, #32]
    4a3a:	0028      	movs	r0, r5
    4a3c:	9e00      	ldr	r6, [sp, #0]
    4a3e:	47b0      	blx	r6
    4a40:	1c43      	adds	r3, r0, #1
    4a42:	d018      	beq.n	4a76 <_fseeko_r+0xba>
    4a44:	89a3      	ldrh	r3, [r4, #12]
    4a46:	075a      	lsls	r2, r3, #29
    4a48:	d507      	bpl.n	4a5a <_fseeko_r+0x9e>
    4a4a:	6863      	ldr	r3, [r4, #4]
    4a4c:	1ac0      	subs	r0, r0, r3
    4a4e:	6b63      	ldr	r3, [r4, #52]	; 0x34
    4a50:	2b00      	cmp	r3, #0
    4a52:	d00a      	beq.n	4a6a <_fseeko_r+0xae>
    4a54:	6c23      	ldr	r3, [r4, #64]	; 0x40
    4a56:	1ac0      	subs	r0, r0, r3
    4a58:	e007      	b.n	4a6a <_fseeko_r+0xae>
    4a5a:	071b      	lsls	r3, r3, #28
    4a5c:	d505      	bpl.n	4a6a <_fseeko_r+0xae>
    4a5e:	6823      	ldr	r3, [r4, #0]
    4a60:	2b00      	cmp	r3, #0
    4a62:	d002      	beq.n	4a6a <_fseeko_r+0xae>
    4a64:	6922      	ldr	r2, [r4, #16]
    4a66:	1a9b      	subs	r3, r3, r2
    4a68:	18c0      	adds	r0, r0, r3
    4a6a:	9b01      	ldr	r3, [sp, #4]
    4a6c:	2600      	movs	r6, #0
    4a6e:	181b      	adds	r3, r3, r0
    4a70:	9301      	str	r3, [sp, #4]
    4a72:	e003      	b.n	4a7c <_fseeko_r+0xc0>
    4a74:	602b      	str	r3, [r5, #0]
    4a76:	2701      	movs	r7, #1
    4a78:	427f      	negs	r7, r7
    4a7a:	e02d      	b.n	4ad8 <_fseeko_r+0x11c>
    4a7c:	6923      	ldr	r3, [r4, #16]
    4a7e:	2b00      	cmp	r3, #0
    4a80:	d103      	bne.n	4a8a <_fseeko_r+0xce>
    4a82:	0021      	movs	r1, r4
    4a84:	0028      	movs	r0, r5
    4a86:	f000 f879 	bl	4b7c <__smakebuf_r>
    4a8a:	0021      	movs	r1, r4
    4a8c:	0028      	movs	r0, r5
    4a8e:	f7ff fe23 	bl	46d8 <_fflush_r>
    4a92:	1e07      	subs	r7, r0, #0
    4a94:	d1ef      	bne.n	4a76 <_fseeko_r+0xba>
    4a96:	0033      	movs	r3, r6
    4a98:	9a01      	ldr	r2, [sp, #4]
    4a9a:	6a21      	ldr	r1, [r4, #32]
    4a9c:	0028      	movs	r0, r5
    4a9e:	9e00      	ldr	r6, [sp, #0]
    4aa0:	47b0      	blx	r6
    4aa2:	1c43      	adds	r3, r0, #1
    4aa4:	d0e7      	beq.n	4a76 <_fseeko_r+0xba>
    4aa6:	6b61      	ldr	r1, [r4, #52]	; 0x34
    4aa8:	2900      	cmp	r1, #0
    4aaa:	d008      	beq.n	4abe <_fseeko_r+0x102>
    4aac:	0023      	movs	r3, r4
    4aae:	3344      	adds	r3, #68	; 0x44
    4ab0:	4299      	cmp	r1, r3
    4ab2:	d002      	beq.n	4aba <_fseeko_r+0xfe>
    4ab4:	0028      	movs	r0, r5
    4ab6:	f000 f8f9 	bl	4cac <_free_r>
    4aba:	2300      	movs	r3, #0
    4abc:	6363      	str	r3, [r4, #52]	; 0x34
    4abe:	2100      	movs	r1, #0
    4ac0:	0020      	movs	r0, r4
    4ac2:	6923      	ldr	r3, [r4, #16]
    4ac4:	89a2      	ldrh	r2, [r4, #12]
    4ac6:	6023      	str	r3, [r4, #0]
    4ac8:	4b07      	ldr	r3, [pc, #28]	; (4ae8 <_fseeko_r+0x12c>)
    4aca:	6061      	str	r1, [r4, #4]
    4acc:	4013      	ands	r3, r2
    4ace:	81a3      	strh	r3, [r4, #12]
    4ad0:	305c      	adds	r0, #92	; 0x5c
    4ad2:	2208      	movs	r2, #8
    4ad4:	f000 f8e1 	bl	4c9a <memset>
    4ad8:	0038      	movs	r0, r7
    4ada:	bdfe      	pop	{r1, r2, r3, r4, r5, r6, r7, pc}
    4adc:	00006bfc 	.word	0x00006bfc
    4ae0:	00006c1c 	.word	0x00006c1c
    4ae4:	00006c3c 	.word	0x00006c3c
    4ae8:	fffff7df 	.word	0xfffff7df

00004aec <_fwalk_reent>:
    4aec:	b5f7      	push	{r0, r1, r2, r4, r5, r6, r7, lr}
    4aee:	0004      	movs	r4, r0
    4af0:	0007      	movs	r7, r0
    4af2:	2600      	movs	r6, #0
    4af4:	9101      	str	r1, [sp, #4]
    4af6:	3448      	adds	r4, #72	; 0x48
    4af8:	2c00      	cmp	r4, #0
    4afa:	d016      	beq.n	4b2a <_fwalk_reent+0x3e>
    4afc:	6863      	ldr	r3, [r4, #4]
    4afe:	68a5      	ldr	r5, [r4, #8]
    4b00:	9300      	str	r3, [sp, #0]
    4b02:	9b00      	ldr	r3, [sp, #0]
    4b04:	3b01      	subs	r3, #1
    4b06:	9300      	str	r3, [sp, #0]
    4b08:	d40d      	bmi.n	4b26 <_fwalk_reent+0x3a>
    4b0a:	89ab      	ldrh	r3, [r5, #12]
    4b0c:	2b01      	cmp	r3, #1
    4b0e:	d908      	bls.n	4b22 <_fwalk_reent+0x36>
    4b10:	220e      	movs	r2, #14
    4b12:	5eab      	ldrsh	r3, [r5, r2]
    4b14:	3301      	adds	r3, #1
    4b16:	d004      	beq.n	4b22 <_fwalk_reent+0x36>
    4b18:	0029      	movs	r1, r5
    4b1a:	0038      	movs	r0, r7
    4b1c:	9b01      	ldr	r3, [sp, #4]
    4b1e:	4798      	blx	r3
    4b20:	4306      	orrs	r6, r0
    4b22:	3568      	adds	r5, #104	; 0x68
    4b24:	e7ed      	b.n	4b02 <_fwalk_reent+0x16>
    4b26:	6824      	ldr	r4, [r4, #0]
    4b28:	e7e6      	b.n	4af8 <_fwalk_reent+0xc>
    4b2a:	0030      	movs	r0, r6
    4b2c:	bdfe      	pop	{r1, r2, r3, r4, r5, r6, r7, pc}
	...

00004b30 <__libc_init_array>:
    4b30:	4b0e      	ldr	r3, [pc, #56]	; (4b6c <__libc_init_array+0x3c>)
    4b32:	b570      	push	{r4, r5, r6, lr}
    4b34:	2500      	movs	r5, #0
    4b36:	001e      	movs	r6, r3
    4b38:	4c0d      	ldr	r4, [pc, #52]	; (4b70 <__libc_init_array+0x40>)
    4b3a:	1ae4      	subs	r4, r4, r3
    4b3c:	10a4      	asrs	r4, r4, #2
    4b3e:	42a5      	cmp	r5, r4
    4b40:	d004      	beq.n	4b4c <__libc_init_array+0x1c>
    4b42:	00ab      	lsls	r3, r5, #2
    4b44:	58f3      	ldr	r3, [r6, r3]
    4b46:	4798      	blx	r3
    4b48:	3501      	adds	r5, #1
    4b4a:	e7f8      	b.n	4b3e <__libc_init_array+0xe>
    4b4c:	f001 fda6 	bl	669c <_init>
    4b50:	4b08      	ldr	r3, [pc, #32]	; (4b74 <__libc_init_array+0x44>)
    4b52:	2500      	movs	r5, #0
    4b54:	001e      	movs	r6, r3
    4b56:	4c08      	ldr	r4, [pc, #32]	; (4b78 <__libc_init_array+0x48>)
    4b58:	1ae4      	subs	r4, r4, r3
    4b5a:	10a4      	asrs	r4, r4, #2
    4b5c:	42a5      	cmp	r5, r4
    4b5e:	d004      	beq.n	4b6a <__libc_init_array+0x3a>
    4b60:	00ab      	lsls	r3, r5, #2
    4b62:	58f3      	ldr	r3, [r6, r3]
    4b64:	4798      	blx	r3
    4b66:	3501      	adds	r5, #1
    4b68:	e7f8      	b.n	4b5c <__libc_init_array+0x2c>
    4b6a:	bd70      	pop	{r4, r5, r6, pc}
    4b6c:	1ffff138 	.word	0x1ffff138
    4b70:	1ffff138 	.word	0x1ffff138
    4b74:	1ffff138 	.word	0x1ffff138
    4b78:	1ffff140 	.word	0x1ffff140

00004b7c <__smakebuf_r>:
    4b7c:	b5f0      	push	{r4, r5, r6, r7, lr}
    4b7e:	898b      	ldrh	r3, [r1, #12]
    4b80:	b091      	sub	sp, #68	; 0x44
    4b82:	0006      	movs	r6, r0
    4b84:	000c      	movs	r4, r1
    4b86:	079b      	lsls	r3, r3, #30
    4b88:	d426      	bmi.n	4bd8 <__smakebuf_r+0x5c>
    4b8a:	230e      	movs	r3, #14
    4b8c:	5ec9      	ldrsh	r1, [r1, r3]
    4b8e:	2900      	cmp	r1, #0
    4b90:	da04      	bge.n	4b9c <__smakebuf_r+0x20>
    4b92:	2380      	movs	r3, #128	; 0x80
    4b94:	89a5      	ldrh	r5, [r4, #12]
    4b96:	401d      	ands	r5, r3
    4b98:	d110      	bne.n	4bbc <__smakebuf_r+0x40>
    4b9a:	e00c      	b.n	4bb6 <__smakebuf_r+0x3a>
    4b9c:	aa01      	add	r2, sp, #4
    4b9e:	f001 f9cd 	bl	5f3c <_fstat_r>
    4ba2:	2800      	cmp	r0, #0
    4ba4:	dbf5      	blt.n	4b92 <__smakebuf_r+0x16>
    4ba6:	23f0      	movs	r3, #240	; 0xf0
    4ba8:	9d02      	ldr	r5, [sp, #8]
    4baa:	021b      	lsls	r3, r3, #8
    4bac:	401d      	ands	r5, r3
    4bae:	4b1a      	ldr	r3, [pc, #104]	; (4c18 <__smakebuf_r+0x9c>)
    4bb0:	18ed      	adds	r5, r5, r3
    4bb2:	426b      	negs	r3, r5
    4bb4:	415d      	adcs	r5, r3
    4bb6:	2780      	movs	r7, #128	; 0x80
    4bb8:	00ff      	lsls	r7, r7, #3
    4bba:	e001      	b.n	4bc0 <__smakebuf_r+0x44>
    4bbc:	2500      	movs	r5, #0
    4bbe:	2740      	movs	r7, #64	; 0x40
    4bc0:	0039      	movs	r1, r7
    4bc2:	0030      	movs	r0, r6
    4bc4:	f000 f8b8 	bl	4d38 <_malloc_r>
    4bc8:	2800      	cmp	r0, #0
    4bca:	d10c      	bne.n	4be6 <__smakebuf_r+0x6a>
    4bcc:	89a3      	ldrh	r3, [r4, #12]
    4bce:	059a      	lsls	r2, r3, #22
    4bd0:	d41f      	bmi.n	4c12 <__smakebuf_r+0x96>
    4bd2:	2202      	movs	r2, #2
    4bd4:	4313      	orrs	r3, r2
    4bd6:	81a3      	strh	r3, [r4, #12]
    4bd8:	0023      	movs	r3, r4
    4bda:	3347      	adds	r3, #71	; 0x47
    4bdc:	6023      	str	r3, [r4, #0]
    4bde:	6123      	str	r3, [r4, #16]
    4be0:	2301      	movs	r3, #1
    4be2:	6163      	str	r3, [r4, #20]
    4be4:	e015      	b.n	4c12 <__smakebuf_r+0x96>
    4be6:	2280      	movs	r2, #128	; 0x80
    4be8:	4b0c      	ldr	r3, [pc, #48]	; (4c1c <__smakebuf_r+0xa0>)
    4bea:	62b3      	str	r3, [r6, #40]	; 0x28
    4bec:	89a3      	ldrh	r3, [r4, #12]
    4bee:	6020      	str	r0, [r4, #0]
    4bf0:	4313      	orrs	r3, r2
    4bf2:	81a3      	strh	r3, [r4, #12]
    4bf4:	6120      	str	r0, [r4, #16]
    4bf6:	6167      	str	r7, [r4, #20]
    4bf8:	2d00      	cmp	r5, #0
    4bfa:	d00a      	beq.n	4c12 <__smakebuf_r+0x96>
    4bfc:	230e      	movs	r3, #14
    4bfe:	5ee1      	ldrsh	r1, [r4, r3]
    4c00:	0030      	movs	r0, r6
    4c02:	f001 f9ad 	bl	5f60 <_isatty_r>
    4c06:	2800      	cmp	r0, #0
    4c08:	d003      	beq.n	4c12 <__smakebuf_r+0x96>
    4c0a:	2201      	movs	r2, #1
    4c0c:	89a3      	ldrh	r3, [r4, #12]
    4c0e:	4313      	orrs	r3, r2
    4c10:	81a3      	strh	r3, [r4, #12]
    4c12:	b011      	add	sp, #68	; 0x44
    4c14:	bdf0      	pop	{r4, r5, r6, r7, pc}
    4c16:	46c0      	nop			; (mov r8, r8)
    4c18:	ffffe000 	.word	0xffffe000
    4c1c:	00004759 	.word	0x00004759

00004c20 <malloc>:
    4c20:	b510      	push	{r4, lr}
    4c22:	4b03      	ldr	r3, [pc, #12]	; (4c30 <malloc+0x10>)
    4c24:	0001      	movs	r1, r0
    4c26:	6818      	ldr	r0, [r3, #0]
    4c28:	f000 f886 	bl	4d38 <_malloc_r>
    4c2c:	bd10      	pop	{r4, pc}
    4c2e:	46c0      	nop			; (mov r8, r8)
    4c30:	1ffff130 	.word	0x1ffff130

00004c34 <free>:
    4c34:	b510      	push	{r4, lr}
    4c36:	4b03      	ldr	r3, [pc, #12]	; (4c44 <free+0x10>)
    4c38:	0001      	movs	r1, r0
    4c3a:	6818      	ldr	r0, [r3, #0]
    4c3c:	f000 f836 	bl	4cac <_free_r>
    4c40:	bd10      	pop	{r4, pc}
    4c42:	46c0      	nop			; (mov r8, r8)
    4c44:	1ffff130 	.word	0x1ffff130

00004c48 <memchr>:
    4c48:	b2c9      	uxtb	r1, r1
    4c4a:	1882      	adds	r2, r0, r2
    4c4c:	4290      	cmp	r0, r2
    4c4e:	d004      	beq.n	4c5a <memchr+0x12>
    4c50:	7803      	ldrb	r3, [r0, #0]
    4c52:	428b      	cmp	r3, r1
    4c54:	d002      	beq.n	4c5c <memchr+0x14>
    4c56:	3001      	adds	r0, #1
    4c58:	e7f8      	b.n	4c4c <memchr+0x4>
    4c5a:	2000      	movs	r0, #0
    4c5c:	4770      	bx	lr

00004c5e <memcpy>:
    4c5e:	2300      	movs	r3, #0
    4c60:	b510      	push	{r4, lr}
    4c62:	429a      	cmp	r2, r3
    4c64:	d003      	beq.n	4c6e <memcpy+0x10>
    4c66:	5ccc      	ldrb	r4, [r1, r3]
    4c68:	54c4      	strb	r4, [r0, r3]
    4c6a:	3301      	adds	r3, #1
    4c6c:	e7f9      	b.n	4c62 <memcpy+0x4>
    4c6e:	bd10      	pop	{r4, pc}

00004c70 <memmove>:
    4c70:	b510      	push	{r4, lr}
    4c72:	4288      	cmp	r0, r1
    4c74:	d902      	bls.n	4c7c <memmove+0xc>
    4c76:	188b      	adds	r3, r1, r2
    4c78:	4298      	cmp	r0, r3
    4c7a:	d301      	bcc.n	4c80 <memmove+0x10>
    4c7c:	2300      	movs	r3, #0
    4c7e:	e005      	b.n	4c8c <memmove+0x1c>
    4c80:	1a9b      	subs	r3, r3, r2
    4c82:	3a01      	subs	r2, #1
    4c84:	d308      	bcc.n	4c98 <memmove+0x28>
    4c86:	5c99      	ldrb	r1, [r3, r2]
    4c88:	5481      	strb	r1, [r0, r2]
    4c8a:	e7fa      	b.n	4c82 <memmove+0x12>
    4c8c:	4293      	cmp	r3, r2
    4c8e:	d003      	beq.n	4c98 <memmove+0x28>
    4c90:	5ccc      	ldrb	r4, [r1, r3]
    4c92:	54c4      	strb	r4, [r0, r3]
    4c94:	3301      	adds	r3, #1
    4c96:	e7f9      	b.n	4c8c <memmove+0x1c>
    4c98:	bd10      	pop	{r4, pc}

00004c9a <memset>:
    4c9a:	0003      	movs	r3, r0
    4c9c:	1882      	adds	r2, r0, r2
    4c9e:	4293      	cmp	r3, r2
    4ca0:	d002      	beq.n	4ca8 <memset+0xe>
    4ca2:	7019      	strb	r1, [r3, #0]
    4ca4:	3301      	adds	r3, #1
    4ca6:	e7fa      	b.n	4c9e <memset+0x4>
    4ca8:	4770      	bx	lr
	...

00004cac <_free_r>:
    4cac:	b530      	push	{r4, r5, lr}
    4cae:	2900      	cmp	r1, #0
    4cb0:	d03e      	beq.n	4d30 <_free_r+0x84>
    4cb2:	3904      	subs	r1, #4
    4cb4:	680b      	ldr	r3, [r1, #0]
    4cb6:	2b00      	cmp	r3, #0
    4cb8:	da00      	bge.n	4cbc <_free_r+0x10>
    4cba:	18c9      	adds	r1, r1, r3
    4cbc:	4a1d      	ldr	r2, [pc, #116]	; (4d34 <_free_r+0x88>)
    4cbe:	6813      	ldr	r3, [r2, #0]
    4cc0:	0014      	movs	r4, r2
    4cc2:	2b00      	cmp	r3, #0
    4cc4:	d102      	bne.n	4ccc <_free_r+0x20>
    4cc6:	604b      	str	r3, [r1, #4]
    4cc8:	6011      	str	r1, [r2, #0]
    4cca:	e031      	b.n	4d30 <_free_r+0x84>
    4ccc:	428b      	cmp	r3, r1
    4cce:	d90d      	bls.n	4cec <_free_r+0x40>
    4cd0:	680a      	ldr	r2, [r1, #0]
    4cd2:	1888      	adds	r0, r1, r2
    4cd4:	4283      	cmp	r3, r0
    4cd6:	d103      	bne.n	4ce0 <_free_r+0x34>
    4cd8:	6818      	ldr	r0, [r3, #0]
    4cda:	685b      	ldr	r3, [r3, #4]
    4cdc:	1882      	adds	r2, r0, r2
    4cde:	600a      	str	r2, [r1, #0]
    4ce0:	604b      	str	r3, [r1, #4]
    4ce2:	6021      	str	r1, [r4, #0]
    4ce4:	e024      	b.n	4d30 <_free_r+0x84>
    4ce6:	428a      	cmp	r2, r1
    4ce8:	d803      	bhi.n	4cf2 <_free_r+0x46>
    4cea:	0013      	movs	r3, r2
    4cec:	685a      	ldr	r2, [r3, #4]
    4cee:	2a00      	cmp	r2, #0
    4cf0:	d1f9      	bne.n	4ce6 <_free_r+0x3a>
    4cf2:	681d      	ldr	r5, [r3, #0]
    4cf4:	195c      	adds	r4, r3, r5
    4cf6:	428c      	cmp	r4, r1
    4cf8:	d10b      	bne.n	4d12 <_free_r+0x66>
    4cfa:	6809      	ldr	r1, [r1, #0]
    4cfc:	1869      	adds	r1, r5, r1
    4cfe:	1858      	adds	r0, r3, r1
    4d00:	6019      	str	r1, [r3, #0]
    4d02:	4282      	cmp	r2, r0
    4d04:	d114      	bne.n	4d30 <_free_r+0x84>
    4d06:	6810      	ldr	r0, [r2, #0]
    4d08:	6852      	ldr	r2, [r2, #4]
    4d0a:	1841      	adds	r1, r0, r1
    4d0c:	6019      	str	r1, [r3, #0]
    4d0e:	605a      	str	r2, [r3, #4]
    4d10:	e00e      	b.n	4d30 <_free_r+0x84>
    4d12:	428c      	cmp	r4, r1
    4d14:	d902      	bls.n	4d1c <_free_r+0x70>
    4d16:	230c      	movs	r3, #12
    4d18:	6003      	str	r3, [r0, #0]
    4d1a:	e009      	b.n	4d30 <_free_r+0x84>
    4d1c:	6808      	ldr	r0, [r1, #0]
    4d1e:	180c      	adds	r4, r1, r0
    4d20:	42a2      	cmp	r2, r4
    4d22:	d103      	bne.n	4d2c <_free_r+0x80>
    4d24:	6814      	ldr	r4, [r2, #0]
    4d26:	6852      	ldr	r2, [r2, #4]
    4d28:	1820      	adds	r0, r4, r0
    4d2a:	6008      	str	r0, [r1, #0]
    4d2c:	604a      	str	r2, [r1, #4]
    4d2e:	6059      	str	r1, [r3, #4]
    4d30:	bd30      	pop	{r4, r5, pc}
    4d32:	46c0      	nop			; (mov r8, r8)
    4d34:	1ffff8f8 	.word	0x1ffff8f8

00004d38 <_malloc_r>:
    4d38:	2303      	movs	r3, #3
    4d3a:	b570      	push	{r4, r5, r6, lr}
    4d3c:	1ccd      	adds	r5, r1, #3
    4d3e:	439d      	bics	r5, r3
    4d40:	3508      	adds	r5, #8
    4d42:	0006      	movs	r6, r0
    4d44:	2d0c      	cmp	r5, #12
    4d46:	d201      	bcs.n	4d4c <_malloc_r+0x14>
    4d48:	250c      	movs	r5, #12
    4d4a:	e005      	b.n	4d58 <_malloc_r+0x20>
    4d4c:	2d00      	cmp	r5, #0
    4d4e:	da03      	bge.n	4d58 <_malloc_r+0x20>
    4d50:	230c      	movs	r3, #12
    4d52:	2000      	movs	r0, #0
    4d54:	6033      	str	r3, [r6, #0]
    4d56:	e040      	b.n	4dda <_malloc_r+0xa2>
    4d58:	42a9      	cmp	r1, r5
    4d5a:	d8f9      	bhi.n	4d50 <_malloc_r+0x18>
    4d5c:	4b1f      	ldr	r3, [pc, #124]	; (4ddc <_malloc_r+0xa4>)
    4d5e:	681c      	ldr	r4, [r3, #0]
    4d60:	001a      	movs	r2, r3
    4d62:	0021      	movs	r1, r4
    4d64:	2900      	cmp	r1, #0
    4d66:	d013      	beq.n	4d90 <_malloc_r+0x58>
    4d68:	680b      	ldr	r3, [r1, #0]
    4d6a:	1b5b      	subs	r3, r3, r5
    4d6c:	d40d      	bmi.n	4d8a <_malloc_r+0x52>
    4d6e:	2b0b      	cmp	r3, #11
    4d70:	d902      	bls.n	4d78 <_malloc_r+0x40>
    4d72:	600b      	str	r3, [r1, #0]
    4d74:	18cc      	adds	r4, r1, r3
    4d76:	e01e      	b.n	4db6 <_malloc_r+0x7e>
    4d78:	428c      	cmp	r4, r1
    4d7a:	d102      	bne.n	4d82 <_malloc_r+0x4a>
    4d7c:	6863      	ldr	r3, [r4, #4]
    4d7e:	6013      	str	r3, [r2, #0]
    4d80:	e01a      	b.n	4db8 <_malloc_r+0x80>
    4d82:	684b      	ldr	r3, [r1, #4]
    4d84:	6063      	str	r3, [r4, #4]
    4d86:	000c      	movs	r4, r1
    4d88:	e016      	b.n	4db8 <_malloc_r+0x80>
    4d8a:	000c      	movs	r4, r1
    4d8c:	6849      	ldr	r1, [r1, #4]
    4d8e:	e7e9      	b.n	4d64 <_malloc_r+0x2c>
    4d90:	4c13      	ldr	r4, [pc, #76]	; (4de0 <_malloc_r+0xa8>)
    4d92:	6823      	ldr	r3, [r4, #0]
    4d94:	2b00      	cmp	r3, #0
    4d96:	d103      	bne.n	4da0 <_malloc_r+0x68>
    4d98:	0030      	movs	r0, r6
    4d9a:	f000 fcbf 	bl	571c <_sbrk_r>
    4d9e:	6020      	str	r0, [r4, #0]
    4da0:	0029      	movs	r1, r5
    4da2:	0030      	movs	r0, r6
    4da4:	f000 fcba 	bl	571c <_sbrk_r>
    4da8:	1c43      	adds	r3, r0, #1
    4daa:	d0d1      	beq.n	4d50 <_malloc_r+0x18>
    4dac:	2303      	movs	r3, #3
    4dae:	1cc4      	adds	r4, r0, #3
    4db0:	439c      	bics	r4, r3
    4db2:	42a0      	cmp	r0, r4
    4db4:	d10a      	bne.n	4dcc <_malloc_r+0x94>
    4db6:	6025      	str	r5, [r4, #0]
    4db8:	0020      	movs	r0, r4
    4dba:	2207      	movs	r2, #7
    4dbc:	300b      	adds	r0, #11
    4dbe:	1d23      	adds	r3, r4, #4
    4dc0:	4390      	bics	r0, r2
    4dc2:	1ac3      	subs	r3, r0, r3
    4dc4:	d009      	beq.n	4dda <_malloc_r+0xa2>
    4dc6:	425a      	negs	r2, r3
    4dc8:	50e2      	str	r2, [r4, r3]
    4dca:	e006      	b.n	4dda <_malloc_r+0xa2>
    4dcc:	1a21      	subs	r1, r4, r0
    4dce:	0030      	movs	r0, r6
    4dd0:	f000 fca4 	bl	571c <_sbrk_r>
    4dd4:	1c43      	adds	r3, r0, #1
    4dd6:	d1ee      	bne.n	4db6 <_malloc_r+0x7e>
    4dd8:	e7ba      	b.n	4d50 <_malloc_r+0x18>
    4dda:	bd70      	pop	{r4, r5, r6, pc}
    4ddc:	1ffff8f8 	.word	0x1ffff8f8
    4de0:	1ffff8f4 	.word	0x1ffff8f4

00004de4 <__sfputc_r>:
    4de4:	6893      	ldr	r3, [r2, #8]
    4de6:	b510      	push	{r4, lr}
    4de8:	3b01      	subs	r3, #1
    4dea:	6093      	str	r3, [r2, #8]
    4dec:	2b00      	cmp	r3, #0
    4dee:	da05      	bge.n	4dfc <__sfputc_r+0x18>
    4df0:	6994      	ldr	r4, [r2, #24]
    4df2:	42a3      	cmp	r3, r4
    4df4:	db08      	blt.n	4e08 <__sfputc_r+0x24>
    4df6:	b2cb      	uxtb	r3, r1
    4df8:	2b0a      	cmp	r3, #10
    4dfa:	d005      	beq.n	4e08 <__sfputc_r+0x24>
    4dfc:	6813      	ldr	r3, [r2, #0]
    4dfe:	1c58      	adds	r0, r3, #1
    4e00:	6010      	str	r0, [r2, #0]
    4e02:	7019      	strb	r1, [r3, #0]
    4e04:	b2c8      	uxtb	r0, r1
    4e06:	e001      	b.n	4e0c <__sfputc_r+0x28>
    4e08:	f000 ff6c 	bl	5ce4 <__swbuf_r>
    4e0c:	bd10      	pop	{r4, pc}

00004e0e <__sfputs_r>:
    4e0e:	b5f8      	push	{r3, r4, r5, r6, r7, lr}
    4e10:	0006      	movs	r6, r0
    4e12:	000f      	movs	r7, r1
    4e14:	0014      	movs	r4, r2
    4e16:	18d5      	adds	r5, r2, r3
    4e18:	42ac      	cmp	r4, r5
    4e1a:	d008      	beq.n	4e2e <__sfputs_r+0x20>
    4e1c:	7821      	ldrb	r1, [r4, #0]
    4e1e:	003a      	movs	r2, r7
    4e20:	0030      	movs	r0, r6
    4e22:	f7ff ffdf 	bl	4de4 <__sfputc_r>
    4e26:	3401      	adds	r4, #1
    4e28:	1c43      	adds	r3, r0, #1
    4e2a:	d1f5      	bne.n	4e18 <__sfputs_r+0xa>
    4e2c:	e000      	b.n	4e30 <__sfputs_r+0x22>
    4e2e:	2000      	movs	r0, #0
    4e30:	bdf8      	pop	{r3, r4, r5, r6, r7, pc}
	...

00004e34 <_vfiprintf_r>:
    4e34:	b5f0      	push	{r4, r5, r6, r7, lr}
    4e36:	b09f      	sub	sp, #124	; 0x7c
    4e38:	0006      	movs	r6, r0
    4e3a:	000f      	movs	r7, r1
    4e3c:	9202      	str	r2, [sp, #8]
    4e3e:	9305      	str	r3, [sp, #20]
    4e40:	2800      	cmp	r0, #0
    4e42:	d004      	beq.n	4e4e <_vfiprintf_r+0x1a>
    4e44:	6983      	ldr	r3, [r0, #24]
    4e46:	2b00      	cmp	r3, #0
    4e48:	d101      	bne.n	4e4e <_vfiprintf_r+0x1a>
    4e4a:	f7ff fcc7 	bl	47dc <__sinit>
    4e4e:	4b7f      	ldr	r3, [pc, #508]	; (504c <_vfiprintf_r+0x218>)
    4e50:	429f      	cmp	r7, r3
    4e52:	d101      	bne.n	4e58 <_vfiprintf_r+0x24>
    4e54:	6877      	ldr	r7, [r6, #4]
    4e56:	e008      	b.n	4e6a <_vfiprintf_r+0x36>
    4e58:	4b7d      	ldr	r3, [pc, #500]	; (5050 <_vfiprintf_r+0x21c>)
    4e5a:	429f      	cmp	r7, r3
    4e5c:	d101      	bne.n	4e62 <_vfiprintf_r+0x2e>
    4e5e:	68b7      	ldr	r7, [r6, #8]
    4e60:	e003      	b.n	4e6a <_vfiprintf_r+0x36>
    4e62:	4b7c      	ldr	r3, [pc, #496]	; (5054 <_vfiprintf_r+0x220>)
    4e64:	429f      	cmp	r7, r3
    4e66:	d100      	bne.n	4e6a <_vfiprintf_r+0x36>
    4e68:	68f7      	ldr	r7, [r6, #12]
    4e6a:	89bb      	ldrh	r3, [r7, #12]
    4e6c:	071b      	lsls	r3, r3, #28
    4e6e:	d50a      	bpl.n	4e86 <_vfiprintf_r+0x52>
    4e70:	693b      	ldr	r3, [r7, #16]
    4e72:	2b00      	cmp	r3, #0
    4e74:	d007      	beq.n	4e86 <_vfiprintf_r+0x52>
    4e76:	2300      	movs	r3, #0
    4e78:	ad06      	add	r5, sp, #24
    4e7a:	616b      	str	r3, [r5, #20]
    4e7c:	3320      	adds	r3, #32
    4e7e:	766b      	strb	r3, [r5, #25]
    4e80:	3310      	adds	r3, #16
    4e82:	76ab      	strb	r3, [r5, #26]
    4e84:	e03d      	b.n	4f02 <_vfiprintf_r+0xce>
    4e86:	0039      	movs	r1, r7
    4e88:	0030      	movs	r0, r6
    4e8a:	f000 ff97 	bl	5dbc <__swsetup_r>
    4e8e:	2800      	cmp	r0, #0
    4e90:	d0f1      	beq.n	4e76 <_vfiprintf_r+0x42>
    4e92:	2001      	movs	r0, #1
    4e94:	4240      	negs	r0, r0
    4e96:	e0d6      	b.n	5046 <_vfiprintf_r+0x212>
    4e98:	9a05      	ldr	r2, [sp, #20]
    4e9a:	1d11      	adds	r1, r2, #4
    4e9c:	6812      	ldr	r2, [r2, #0]
    4e9e:	9105      	str	r1, [sp, #20]
    4ea0:	2a00      	cmp	r2, #0
    4ea2:	da00      	bge.n	4ea6 <_vfiprintf_r+0x72>
    4ea4:	e07f      	b.n	4fa6 <_vfiprintf_r+0x172>
    4ea6:	9209      	str	r2, [sp, #36]	; 0x24
    4ea8:	3401      	adds	r4, #1
    4eaa:	7823      	ldrb	r3, [r4, #0]
    4eac:	2b2e      	cmp	r3, #46	; 0x2e
    4eae:	d100      	bne.n	4eb2 <_vfiprintf_r+0x7e>
    4eb0:	e08d      	b.n	4fce <_vfiprintf_r+0x19a>
    4eb2:	7821      	ldrb	r1, [r4, #0]
    4eb4:	2203      	movs	r2, #3
    4eb6:	4868      	ldr	r0, [pc, #416]	; (5058 <_vfiprintf_r+0x224>)
    4eb8:	f7ff fec6 	bl	4c48 <memchr>
    4ebc:	2800      	cmp	r0, #0
    4ebe:	d007      	beq.n	4ed0 <_vfiprintf_r+0x9c>
    4ec0:	4b65      	ldr	r3, [pc, #404]	; (5058 <_vfiprintf_r+0x224>)
    4ec2:	682a      	ldr	r2, [r5, #0]
    4ec4:	1ac0      	subs	r0, r0, r3
    4ec6:	2340      	movs	r3, #64	; 0x40
    4ec8:	4083      	lsls	r3, r0
    4eca:	4313      	orrs	r3, r2
    4ecc:	602b      	str	r3, [r5, #0]
    4ece:	3401      	adds	r4, #1
    4ed0:	7821      	ldrb	r1, [r4, #0]
    4ed2:	1c63      	adds	r3, r4, #1
    4ed4:	2206      	movs	r2, #6
    4ed6:	4861      	ldr	r0, [pc, #388]	; (505c <_vfiprintf_r+0x228>)
    4ed8:	9302      	str	r3, [sp, #8]
    4eda:	7629      	strb	r1, [r5, #24]
    4edc:	f7ff feb4 	bl	4c48 <memchr>
    4ee0:	2800      	cmp	r0, #0
    4ee2:	d100      	bne.n	4ee6 <_vfiprintf_r+0xb2>
    4ee4:	e09d      	b.n	5022 <_vfiprintf_r+0x1ee>
    4ee6:	4b5e      	ldr	r3, [pc, #376]	; (5060 <_vfiprintf_r+0x22c>)
    4ee8:	2b00      	cmp	r3, #0
    4eea:	d000      	beq.n	4eee <_vfiprintf_r+0xba>
    4eec:	e090      	b.n	5010 <_vfiprintf_r+0x1dc>
    4eee:	2207      	movs	r2, #7
    4ef0:	9b05      	ldr	r3, [sp, #20]
    4ef2:	3307      	adds	r3, #7
    4ef4:	4393      	bics	r3, r2
    4ef6:	3308      	adds	r3, #8
    4ef8:	9305      	str	r3, [sp, #20]
    4efa:	696b      	ldr	r3, [r5, #20]
    4efc:	9a03      	ldr	r2, [sp, #12]
    4efe:	189b      	adds	r3, r3, r2
    4f00:	616b      	str	r3, [r5, #20]
    4f02:	9c02      	ldr	r4, [sp, #8]
    4f04:	7823      	ldrb	r3, [r4, #0]
    4f06:	2b00      	cmp	r3, #0
    4f08:	d104      	bne.n	4f14 <_vfiprintf_r+0xe0>
    4f0a:	9b02      	ldr	r3, [sp, #8]
    4f0c:	1ae3      	subs	r3, r4, r3
    4f0e:	9304      	str	r3, [sp, #16]
    4f10:	d012      	beq.n	4f38 <_vfiprintf_r+0x104>
    4f12:	e003      	b.n	4f1c <_vfiprintf_r+0xe8>
    4f14:	2b25      	cmp	r3, #37	; 0x25
    4f16:	d0f8      	beq.n	4f0a <_vfiprintf_r+0xd6>
    4f18:	3401      	adds	r4, #1
    4f1a:	e7f3      	b.n	4f04 <_vfiprintf_r+0xd0>
    4f1c:	9b04      	ldr	r3, [sp, #16]
    4f1e:	9a02      	ldr	r2, [sp, #8]
    4f20:	0039      	movs	r1, r7
    4f22:	0030      	movs	r0, r6
    4f24:	f7ff ff73 	bl	4e0e <__sfputs_r>
    4f28:	1c43      	adds	r3, r0, #1
    4f2a:	d100      	bne.n	4f2e <_vfiprintf_r+0xfa>
    4f2c:	e086      	b.n	503c <_vfiprintf_r+0x208>
    4f2e:	696a      	ldr	r2, [r5, #20]
    4f30:	9b04      	ldr	r3, [sp, #16]
    4f32:	4694      	mov	r12, r2
    4f34:	4463      	add	r3, r12
    4f36:	616b      	str	r3, [r5, #20]
    4f38:	7823      	ldrb	r3, [r4, #0]
    4f3a:	2b00      	cmp	r3, #0
    4f3c:	d07e      	beq.n	503c <_vfiprintf_r+0x208>
    4f3e:	2201      	movs	r2, #1
    4f40:	2300      	movs	r3, #0
    4f42:	4252      	negs	r2, r2
    4f44:	606a      	str	r2, [r5, #4]
    4f46:	a902      	add	r1, sp, #8
    4f48:	3254      	adds	r2, #84	; 0x54
    4f4a:	1852      	adds	r2, r2, r1
    4f4c:	3401      	adds	r4, #1
    4f4e:	602b      	str	r3, [r5, #0]
    4f50:	60eb      	str	r3, [r5, #12]
    4f52:	60ab      	str	r3, [r5, #8]
    4f54:	7013      	strb	r3, [r2, #0]
    4f56:	65ab      	str	r3, [r5, #88]	; 0x58
    4f58:	7821      	ldrb	r1, [r4, #0]
    4f5a:	2205      	movs	r2, #5
    4f5c:	4841      	ldr	r0, [pc, #260]	; (5064 <_vfiprintf_r+0x230>)
    4f5e:	f7ff fe73 	bl	4c48 <memchr>
    4f62:	2800      	cmp	r0, #0
    4f64:	d008      	beq.n	4f78 <_vfiprintf_r+0x144>
    4f66:	4b3f      	ldr	r3, [pc, #252]	; (5064 <_vfiprintf_r+0x230>)
    4f68:	682a      	ldr	r2, [r5, #0]
    4f6a:	1ac0      	subs	r0, r0, r3
    4f6c:	2301      	movs	r3, #1
    4f6e:	4083      	lsls	r3, r0
    4f70:	4313      	orrs	r3, r2
    4f72:	602b      	str	r3, [r5, #0]
    4f74:	3401      	adds	r4, #1
    4f76:	e7ef      	b.n	4f58 <_vfiprintf_r+0x124>
    4f78:	682b      	ldr	r3, [r5, #0]
    4f7a:	06da      	lsls	r2, r3, #27
    4f7c:	d504      	bpl.n	4f88 <_vfiprintf_r+0x154>
    4f7e:	2253      	movs	r2, #83	; 0x53
    4f80:	2120      	movs	r1, #32
    4f82:	a802      	add	r0, sp, #8
    4f84:	1812      	adds	r2, r2, r0
    4f86:	7011      	strb	r1, [r2, #0]
    4f88:	071a      	lsls	r2, r3, #28
    4f8a:	d504      	bpl.n	4f96 <_vfiprintf_r+0x162>
    4f8c:	2253      	movs	r2, #83	; 0x53
    4f8e:	212b      	movs	r1, #43	; 0x2b
    4f90:	a802      	add	r0, sp, #8
    4f92:	1812      	adds	r2, r2, r0
    4f94:	7011      	strb	r1, [r2, #0]
    4f96:	7822      	ldrb	r2, [r4, #0]
    4f98:	2a2a      	cmp	r2, #42	; 0x2a
    4f9a:	d100      	bne.n	4f9e <_vfiprintf_r+0x16a>
    4f9c:	e77c      	b.n	4e98 <_vfiprintf_r+0x64>
    4f9e:	9b09      	ldr	r3, [sp, #36]	; 0x24
    4fa0:	2000      	movs	r0, #0
    4fa2:	210a      	movs	r1, #10
    4fa4:	e005      	b.n	4fb2 <_vfiprintf_r+0x17e>
    4fa6:	4252      	negs	r2, r2
    4fa8:	60ea      	str	r2, [r5, #12]
    4faa:	2202      	movs	r2, #2
    4fac:	4313      	orrs	r3, r2
    4fae:	602b      	str	r3, [r5, #0]
    4fb0:	e77a      	b.n	4ea8 <_vfiprintf_r+0x74>
    4fb2:	7822      	ldrb	r2, [r4, #0]
    4fb4:	3a30      	subs	r2, #48	; 0x30
    4fb6:	2a09      	cmp	r2, #9
    4fb8:	d804      	bhi.n	4fc4 <_vfiprintf_r+0x190>
    4fba:	434b      	muls	r3, r1
    4fbc:	3401      	adds	r4, #1
    4fbe:	189b      	adds	r3, r3, r2
    4fc0:	2001      	movs	r0, #1
    4fc2:	e7f6      	b.n	4fb2 <_vfiprintf_r+0x17e>
    4fc4:	2800      	cmp	r0, #0
    4fc6:	d100      	bne.n	4fca <_vfiprintf_r+0x196>
    4fc8:	e76f      	b.n	4eaa <_vfiprintf_r+0x76>
    4fca:	9309      	str	r3, [sp, #36]	; 0x24
    4fcc:	e76d      	b.n	4eaa <_vfiprintf_r+0x76>
    4fce:	7863      	ldrb	r3, [r4, #1]
    4fd0:	2b2a      	cmp	r3, #42	; 0x2a
    4fd2:	d10a      	bne.n	4fea <_vfiprintf_r+0x1b6>
    4fd4:	9b05      	ldr	r3, [sp, #20]
    4fd6:	3402      	adds	r4, #2
    4fd8:	1d1a      	adds	r2, r3, #4
    4fda:	681b      	ldr	r3, [r3, #0]
    4fdc:	9205      	str	r2, [sp, #20]
    4fde:	2b00      	cmp	r3, #0
    4fe0:	da01      	bge.n	4fe6 <_vfiprintf_r+0x1b2>
    4fe2:	2301      	movs	r3, #1
    4fe4:	425b      	negs	r3, r3
    4fe6:	9307      	str	r3, [sp, #28]
    4fe8:	e763      	b.n	4eb2 <_vfiprintf_r+0x7e>
    4fea:	2300      	movs	r3, #0
    4fec:	200a      	movs	r0, #10
    4fee:	001a      	movs	r2, r3
    4ff0:	3401      	adds	r4, #1
    4ff2:	606b      	str	r3, [r5, #4]
    4ff4:	7821      	ldrb	r1, [r4, #0]
    4ff6:	3930      	subs	r1, #48	; 0x30
    4ff8:	2909      	cmp	r1, #9
    4ffa:	d804      	bhi.n	5006 <_vfiprintf_r+0x1d2>
    4ffc:	4342      	muls	r2, r0
    4ffe:	3401      	adds	r4, #1
    5000:	1852      	adds	r2, r2, r1
    5002:	2301      	movs	r3, #1
    5004:	e7f6      	b.n	4ff4 <_vfiprintf_r+0x1c0>
    5006:	2b00      	cmp	r3, #0
    5008:	d100      	bne.n	500c <_vfiprintf_r+0x1d8>
    500a:	e752      	b.n	4eb2 <_vfiprintf_r+0x7e>
    500c:	9207      	str	r2, [sp, #28]
    500e:	e750      	b.n	4eb2 <_vfiprintf_r+0x7e>
    5010:	ab05      	add	r3, sp, #20
    5012:	9300      	str	r3, [sp, #0]
    5014:	003a      	movs	r2, r7
    5016:	4b14      	ldr	r3, [pc, #80]	; (5068 <_vfiprintf_r+0x234>)
    5018:	0029      	movs	r1, r5
    501a:	0030      	movs	r0, r6
    501c:	e000      	b.n	5020 <_vfiprintf_r+0x1ec>
    501e:	bf00      	nop
    5020:	e007      	b.n	5032 <_vfiprintf_r+0x1fe>
    5022:	ab05      	add	r3, sp, #20
    5024:	9300      	str	r3, [sp, #0]
    5026:	003a      	movs	r2, r7
    5028:	4b0f      	ldr	r3, [pc, #60]	; (5068 <_vfiprintf_r+0x234>)
    502a:	0029      	movs	r1, r5
    502c:	0030      	movs	r0, r6
    502e:	f000 f897 	bl	5160 <_printf_i>
    5032:	9003      	str	r0, [sp, #12]
    5034:	9b03      	ldr	r3, [sp, #12]
    5036:	3301      	adds	r3, #1
    5038:	d000      	beq.n	503c <_vfiprintf_r+0x208>
    503a:	e75e      	b.n	4efa <_vfiprintf_r+0xc6>
    503c:	89bb      	ldrh	r3, [r7, #12]
    503e:	065b      	lsls	r3, r3, #25
    5040:	d500      	bpl.n	5044 <_vfiprintf_r+0x210>
    5042:	e726      	b.n	4e92 <_vfiprintf_r+0x5e>
    5044:	980b      	ldr	r0, [sp, #44]	; 0x2c
    5046:	b01f      	add	sp, #124	; 0x7c
    5048:	bdf0      	pop	{r4, r5, r6, r7, pc}
    504a:	46c0      	nop			; (mov r8, r8)
    504c:	00006bfc 	.word	0x00006bfc
    5050:	00006c1c 	.word	0x00006c1c
    5054:	00006c3c 	.word	0x00006c3c
    5058:	00006c6a 	.word	0x00006c6a
    505c:	00006c6e 	.word	0x00006c6e
    5060:	00000000 	.word	0x00000000
    5064:	00006c64 	.word	0x00006c64
    5068:	00004e0f 	.word	0x00004e0f

0000506c <vfiprintf>:
    506c:	b510      	push	{r4, lr}
    506e:	0013      	movs	r3, r2
    5070:	000a      	movs	r2, r1
    5072:	0001      	movs	r1, r0
    5074:	4802      	ldr	r0, [pc, #8]	; (5080 <vfiprintf+0x14>)
    5076:	6800      	ldr	r0, [r0, #0]
    5078:	f7ff fedc 	bl	4e34 <_vfiprintf_r>
    507c:	bd10      	pop	{r4, pc}
    507e:	46c0      	nop			; (mov r8, r8)
    5080:	1ffff130 	.word	0x1ffff130

00005084 <_printf_common>:
    5084:	b5f7      	push	{r0, r1, r2, r4, r5, r6, r7, lr}
    5086:	0017      	movs	r7, r2
    5088:	9301      	str	r3, [sp, #4]
    508a:	688a      	ldr	r2, [r1, #8]
    508c:	690b      	ldr	r3, [r1, #16]
    508e:	9000      	str	r0, [sp, #0]
    5090:	000c      	movs	r4, r1
    5092:	4293      	cmp	r3, r2
    5094:	da00      	bge.n	5098 <_printf_common+0x14>
    5096:	0013      	movs	r3, r2
    5098:	0022      	movs	r2, r4
    509a:	603b      	str	r3, [r7, #0]
    509c:	3243      	adds	r2, #67	; 0x43
    509e:	7812      	ldrb	r2, [r2, #0]
    50a0:	2a00      	cmp	r2, #0
    50a2:	d001      	beq.n	50a8 <_printf_common+0x24>
    50a4:	3301      	adds	r3, #1
    50a6:	603b      	str	r3, [r7, #0]
    50a8:	6823      	ldr	r3, [r4, #0]
    50aa:	069b      	lsls	r3, r3, #26
    50ac:	d502      	bpl.n	50b4 <_printf_common+0x30>
    50ae:	683b      	ldr	r3, [r7, #0]
    50b0:	3302      	adds	r3, #2
    50b2:	603b      	str	r3, [r7, #0]
    50b4:	2506      	movs	r5, #6
    50b6:	6823      	ldr	r3, [r4, #0]
    50b8:	401d      	ands	r5, r3
    50ba:	d01e      	beq.n	50fa <_printf_common+0x76>
    50bc:	0023      	movs	r3, r4
    50be:	3343      	adds	r3, #67	; 0x43
    50c0:	781b      	ldrb	r3, [r3, #0]
    50c2:	1e5a      	subs	r2, r3, #1
    50c4:	4193      	sbcs	r3, r2
    50c6:	6822      	ldr	r2, [r4, #0]
    50c8:	0692      	lsls	r2, r2, #26
    50ca:	d51c      	bpl.n	5106 <_printf_common+0x82>
    50cc:	2030      	movs	r0, #48	; 0x30
    50ce:	18e1      	adds	r1, r4, r3
    50d0:	3143      	adds	r1, #67	; 0x43
    50d2:	7008      	strb	r0, [r1, #0]
    50d4:	0021      	movs	r1, r4
    50d6:	1c5a      	adds	r2, r3, #1
    50d8:	3145      	adds	r1, #69	; 0x45
    50da:	7809      	ldrb	r1, [r1, #0]
    50dc:	18a2      	adds	r2, r4, r2
    50de:	3243      	adds	r2, #67	; 0x43
    50e0:	3302      	adds	r3, #2
    50e2:	7011      	strb	r1, [r2, #0]
    50e4:	e00f      	b.n	5106 <_printf_common+0x82>
    50e6:	0022      	movs	r2, r4
    50e8:	2301      	movs	r3, #1
    50ea:	3219      	adds	r2, #25
    50ec:	9901      	ldr	r1, [sp, #4]
    50ee:	9800      	ldr	r0, [sp, #0]
    50f0:	9e08      	ldr	r6, [sp, #32]
    50f2:	47b0      	blx	r6
    50f4:	1c43      	adds	r3, r0, #1
    50f6:	d00e      	beq.n	5116 <_printf_common+0x92>
    50f8:	3501      	adds	r5, #1
    50fa:	68e3      	ldr	r3, [r4, #12]
    50fc:	683a      	ldr	r2, [r7, #0]
    50fe:	1a9b      	subs	r3, r3, r2
    5100:	429d      	cmp	r5, r3
    5102:	dbf0      	blt.n	50e6 <_printf_common+0x62>
    5104:	e7da      	b.n	50bc <_printf_common+0x38>
    5106:	0022      	movs	r2, r4
    5108:	9901      	ldr	r1, [sp, #4]
    510a:	3243      	adds	r2, #67	; 0x43
    510c:	9800      	ldr	r0, [sp, #0]
    510e:	9d08      	ldr	r5, [sp, #32]
    5110:	47a8      	blx	r5
    5112:	1c43      	adds	r3, r0, #1
    5114:	d102      	bne.n	511c <_printf_common+0x98>
    5116:	2001      	movs	r0, #1
    5118:	4240      	negs	r0, r0
    511a:	e020      	b.n	515e <_printf_common+0xda>
    511c:	2306      	movs	r3, #6
    511e:	6820      	ldr	r0, [r4, #0]
    5120:	68e1      	ldr	r1, [r4, #12]
    5122:	683a      	ldr	r2, [r7, #0]
    5124:	4003      	ands	r3, r0
    5126:	2500      	movs	r5, #0
    5128:	2b04      	cmp	r3, #4
    512a:	d103      	bne.n	5134 <_printf_common+0xb0>
    512c:	1a8d      	subs	r5, r1, r2
    512e:	43eb      	mvns	r3, r5
    5130:	17db      	asrs	r3, r3, #31
    5132:	401d      	ands	r5, r3
    5134:	68a3      	ldr	r3, [r4, #8]
    5136:	6922      	ldr	r2, [r4, #16]
    5138:	4293      	cmp	r3, r2
    513a:	dd01      	ble.n	5140 <_printf_common+0xbc>
    513c:	1a9b      	subs	r3, r3, r2
    513e:	18ed      	adds	r5, r5, r3
    5140:	2700      	movs	r7, #0
    5142:	42bd      	cmp	r5, r7
    5144:	d00a      	beq.n	515c <_printf_common+0xd8>
    5146:	0022      	movs	r2, r4
    5148:	2301      	movs	r3, #1
    514a:	321a      	adds	r2, #26
    514c:	9901      	ldr	r1, [sp, #4]
    514e:	9800      	ldr	r0, [sp, #0]
    5150:	9e08      	ldr	r6, [sp, #32]
    5152:	47b0      	blx	r6
    5154:	1c43      	adds	r3, r0, #1
    5156:	d0de      	beq.n	5116 <_printf_common+0x92>
    5158:	3701      	adds	r7, #1
    515a:	e7f2      	b.n	5142 <_printf_common+0xbe>
    515c:	2000      	movs	r0, #0
    515e:	bdfe      	pop	{r1, r2, r3, r4, r5, r6, r7, pc}

00005160 <_printf_i>:
    5160:	b5f0      	push	{r4, r5, r6, r7, lr}
    5162:	b08b      	sub	sp, #44	; 0x2c
    5164:	9206      	str	r2, [sp, #24]
    5166:	000a      	movs	r2, r1
    5168:	3243      	adds	r2, #67	; 0x43
    516a:	9307      	str	r3, [sp, #28]
    516c:	9005      	str	r0, [sp, #20]
    516e:	9204      	str	r2, [sp, #16]
    5170:	7e0a      	ldrb	r2, [r1, #24]
    5172:	000c      	movs	r4, r1
    5174:	9b10      	ldr	r3, [sp, #64]	; 0x40
    5176:	2a6e      	cmp	r2, #110	; 0x6e
    5178:	d100      	bne.n	517c <_printf_i+0x1c>
    517a:	e0ab      	b.n	52d4 <_printf_i+0x174>
    517c:	d811      	bhi.n	51a2 <_printf_i+0x42>
    517e:	2a63      	cmp	r2, #99	; 0x63
    5180:	d022      	beq.n	51c8 <_printf_i+0x68>
    5182:	d809      	bhi.n	5198 <_printf_i+0x38>
    5184:	2a00      	cmp	r2, #0
    5186:	d100      	bne.n	518a <_printf_i+0x2a>
    5188:	e0b5      	b.n	52f6 <_printf_i+0x196>
    518a:	2a58      	cmp	r2, #88	; 0x58
    518c:	d000      	beq.n	5190 <_printf_i+0x30>
    518e:	e0c5      	b.n	531c <_printf_i+0x1bc>
    5190:	3145      	adds	r1, #69	; 0x45
    5192:	700a      	strb	r2, [r1, #0]
    5194:	4a81      	ldr	r2, [pc, #516]	; (539c <_printf_i+0x23c>)
    5196:	e04f      	b.n	5238 <_printf_i+0xd8>
    5198:	2a64      	cmp	r2, #100	; 0x64
    519a:	d01d      	beq.n	51d8 <_printf_i+0x78>
    519c:	2a69      	cmp	r2, #105	; 0x69
    519e:	d01b      	beq.n	51d8 <_printf_i+0x78>
    51a0:	e0bc      	b.n	531c <_printf_i+0x1bc>
    51a2:	2a73      	cmp	r2, #115	; 0x73
    51a4:	d100      	bne.n	51a8 <_printf_i+0x48>
    51a6:	e0aa      	b.n	52fe <_printf_i+0x19e>
    51a8:	d809      	bhi.n	51be <_printf_i+0x5e>
    51aa:	2a6f      	cmp	r2, #111	; 0x6f
    51ac:	d029      	beq.n	5202 <_printf_i+0xa2>
    51ae:	2a70      	cmp	r2, #112	; 0x70
    51b0:	d000      	beq.n	51b4 <_printf_i+0x54>
    51b2:	e0b3      	b.n	531c <_printf_i+0x1bc>
    51b4:	2220      	movs	r2, #32
    51b6:	6809      	ldr	r1, [r1, #0]
    51b8:	430a      	orrs	r2, r1
    51ba:	6022      	str	r2, [r4, #0]
    51bc:	e037      	b.n	522e <_printf_i+0xce>
    51be:	2a75      	cmp	r2, #117	; 0x75
    51c0:	d01f      	beq.n	5202 <_printf_i+0xa2>
    51c2:	2a78      	cmp	r2, #120	; 0x78
    51c4:	d033      	beq.n	522e <_printf_i+0xce>
    51c6:	e0a9      	b.n	531c <_printf_i+0x1bc>
    51c8:	000e      	movs	r6, r1
    51ca:	681a      	ldr	r2, [r3, #0]
    51cc:	3642      	adds	r6, #66	; 0x42
    51ce:	1d11      	adds	r1, r2, #4
    51d0:	6019      	str	r1, [r3, #0]
    51d2:	6813      	ldr	r3, [r2, #0]
    51d4:	7033      	strb	r3, [r6, #0]
    51d6:	e0a4      	b.n	5322 <_printf_i+0x1c2>
    51d8:	6821      	ldr	r1, [r4, #0]
    51da:	681a      	ldr	r2, [r3, #0]
    51dc:	0608      	lsls	r0, r1, #24
    51de:	d406      	bmi.n	51ee <_printf_i+0x8e>
    51e0:	0649      	lsls	r1, r1, #25
    51e2:	d504      	bpl.n	51ee <_printf_i+0x8e>
    51e4:	1d11      	adds	r1, r2, #4
    51e6:	6019      	str	r1, [r3, #0]
    51e8:	2300      	movs	r3, #0
    51ea:	5ed5      	ldrsh	r5, [r2, r3]
    51ec:	e002      	b.n	51f4 <_printf_i+0x94>
    51ee:	1d11      	adds	r1, r2, #4
    51f0:	6019      	str	r1, [r3, #0]
    51f2:	6815      	ldr	r5, [r2, #0]
    51f4:	2d00      	cmp	r5, #0
    51f6:	da3b      	bge.n	5270 <_printf_i+0x110>
    51f8:	232d      	movs	r3, #45	; 0x2d
    51fa:	9a04      	ldr	r2, [sp, #16]
    51fc:	426d      	negs	r5, r5
    51fe:	7013      	strb	r3, [r2, #0]
    5200:	e036      	b.n	5270 <_printf_i+0x110>
    5202:	6821      	ldr	r1, [r4, #0]
    5204:	681a      	ldr	r2, [r3, #0]
    5206:	0608      	lsls	r0, r1, #24
    5208:	d406      	bmi.n	5218 <_printf_i+0xb8>
    520a:	0649      	lsls	r1, r1, #25
    520c:	d504      	bpl.n	5218 <_printf_i+0xb8>
    520e:	6815      	ldr	r5, [r2, #0]
    5210:	1d11      	adds	r1, r2, #4
    5212:	6019      	str	r1, [r3, #0]
    5214:	b2ad      	uxth	r5, r5
    5216:	e002      	b.n	521e <_printf_i+0xbe>
    5218:	1d11      	adds	r1, r2, #4
    521a:	6019      	str	r1, [r3, #0]
    521c:	6815      	ldr	r5, [r2, #0]
    521e:	4b5f      	ldr	r3, [pc, #380]	; (539c <_printf_i+0x23c>)
    5220:	7e22      	ldrb	r2, [r4, #24]
    5222:	9303      	str	r3, [sp, #12]
    5224:	2708      	movs	r7, #8
    5226:	2a6f      	cmp	r2, #111	; 0x6f
    5228:	d01d      	beq.n	5266 <_printf_i+0x106>
    522a:	270a      	movs	r7, #10
    522c:	e01b      	b.n	5266 <_printf_i+0x106>
    522e:	0022      	movs	r2, r4
    5230:	2178      	movs	r1, #120	; 0x78
    5232:	3245      	adds	r2, #69	; 0x45
    5234:	7011      	strb	r1, [r2, #0]
    5236:	4a5a      	ldr	r2, [pc, #360]	; (53a0 <_printf_i+0x240>)
    5238:	6819      	ldr	r1, [r3, #0]
    523a:	9203      	str	r2, [sp, #12]
    523c:	1d08      	adds	r0, r1, #4
    523e:	6822      	ldr	r2, [r4, #0]
    5240:	6018      	str	r0, [r3, #0]
    5242:	680d      	ldr	r5, [r1, #0]
    5244:	0610      	lsls	r0, r2, #24
    5246:	d402      	bmi.n	524e <_printf_i+0xee>
    5248:	0650      	lsls	r0, r2, #25
    524a:	d500      	bpl.n	524e <_printf_i+0xee>
    524c:	b2ad      	uxth	r5, r5
    524e:	07d3      	lsls	r3, r2, #31
    5250:	d502      	bpl.n	5258 <_printf_i+0xf8>
    5252:	2320      	movs	r3, #32
    5254:	431a      	orrs	r2, r3
    5256:	6022      	str	r2, [r4, #0]
    5258:	2710      	movs	r7, #16
    525a:	2d00      	cmp	r5, #0
    525c:	d103      	bne.n	5266 <_printf_i+0x106>
    525e:	2320      	movs	r3, #32
    5260:	6822      	ldr	r2, [r4, #0]
    5262:	439a      	bics	r2, r3
    5264:	6022      	str	r2, [r4, #0]
    5266:	0023      	movs	r3, r4
    5268:	2200      	movs	r2, #0
    526a:	3343      	adds	r3, #67	; 0x43
    526c:	701a      	strb	r2, [r3, #0]
    526e:	e002      	b.n	5276 <_printf_i+0x116>
    5270:	270a      	movs	r7, #10
    5272:	4b4a      	ldr	r3, [pc, #296]	; (539c <_printf_i+0x23c>)
    5274:	9303      	str	r3, [sp, #12]
    5276:	6863      	ldr	r3, [r4, #4]
    5278:	60a3      	str	r3, [r4, #8]
    527a:	2b00      	cmp	r3, #0
    527c:	db09      	blt.n	5292 <_printf_i+0x132>
    527e:	2204      	movs	r2, #4
    5280:	6821      	ldr	r1, [r4, #0]
    5282:	4391      	bics	r1, r2
    5284:	6021      	str	r1, [r4, #0]
    5286:	2d00      	cmp	r5, #0
    5288:	d105      	bne.n	5296 <_printf_i+0x136>
    528a:	9e04      	ldr	r6, [sp, #16]
    528c:	2b00      	cmp	r3, #0
    528e:	d011      	beq.n	52b4 <_printf_i+0x154>
    5290:	e07b      	b.n	538a <_printf_i+0x22a>
    5292:	2d00      	cmp	r5, #0
    5294:	d079      	beq.n	538a <_printf_i+0x22a>
    5296:	9e04      	ldr	r6, [sp, #16]
    5298:	0028      	movs	r0, r5
    529a:	0039      	movs	r1, r7
    529c:	f7ff f81a 	bl	42d4 <__aeabi_uidivmod>
    52a0:	9b03      	ldr	r3, [sp, #12]
    52a2:	3e01      	subs	r6, #1
    52a4:	5c5b      	ldrb	r3, [r3, r1]
    52a6:	0028      	movs	r0, r5
    52a8:	7033      	strb	r3, [r6, #0]
    52aa:	0039      	movs	r1, r7
    52ac:	f7fe ff8c 	bl	41c8 <__aeabi_uidiv>
    52b0:	1e05      	subs	r5, r0, #0
    52b2:	d1f1      	bne.n	5298 <_printf_i+0x138>
    52b4:	2f08      	cmp	r7, #8
    52b6:	d109      	bne.n	52cc <_printf_i+0x16c>
    52b8:	6823      	ldr	r3, [r4, #0]
    52ba:	07db      	lsls	r3, r3, #31
    52bc:	d506      	bpl.n	52cc <_printf_i+0x16c>
    52be:	6863      	ldr	r3, [r4, #4]
    52c0:	6922      	ldr	r2, [r4, #16]
    52c2:	4293      	cmp	r3, r2
    52c4:	dc02      	bgt.n	52cc <_printf_i+0x16c>
    52c6:	2330      	movs	r3, #48	; 0x30
    52c8:	3e01      	subs	r6, #1
    52ca:	7033      	strb	r3, [r6, #0]
    52cc:	9b04      	ldr	r3, [sp, #16]
    52ce:	1b9b      	subs	r3, r3, r6
    52d0:	6123      	str	r3, [r4, #16]
    52d2:	e02b      	b.n	532c <_printf_i+0x1cc>
    52d4:	6809      	ldr	r1, [r1, #0]
    52d6:	681a      	ldr	r2, [r3, #0]
    52d8:	0608      	lsls	r0, r1, #24
    52da:	d407      	bmi.n	52ec <_printf_i+0x18c>
    52dc:	0649      	lsls	r1, r1, #25
    52de:	d505      	bpl.n	52ec <_printf_i+0x18c>
    52e0:	1d11      	adds	r1, r2, #4
    52e2:	6019      	str	r1, [r3, #0]
    52e4:	6813      	ldr	r3, [r2, #0]
    52e6:	8aa2      	ldrh	r2, [r4, #20]
    52e8:	801a      	strh	r2, [r3, #0]
    52ea:	e004      	b.n	52f6 <_printf_i+0x196>
    52ec:	1d11      	adds	r1, r2, #4
    52ee:	6019      	str	r1, [r3, #0]
    52f0:	6813      	ldr	r3, [r2, #0]
    52f2:	6962      	ldr	r2, [r4, #20]
    52f4:	601a      	str	r2, [r3, #0]
    52f6:	2300      	movs	r3, #0
    52f8:	9e04      	ldr	r6, [sp, #16]
    52fa:	6123      	str	r3, [r4, #16]
    52fc:	e016      	b.n	532c <_printf_i+0x1cc>
    52fe:	681a      	ldr	r2, [r3, #0]
    5300:	1d11      	adds	r1, r2, #4
    5302:	6019      	str	r1, [r3, #0]
    5304:	6816      	ldr	r6, [r2, #0]
    5306:	2100      	movs	r1, #0
    5308:	6862      	ldr	r2, [r4, #4]
    530a:	0030      	movs	r0, r6
    530c:	f7ff fc9c 	bl	4c48 <memchr>
    5310:	2800      	cmp	r0, #0
    5312:	d001      	beq.n	5318 <_printf_i+0x1b8>
    5314:	1b80      	subs	r0, r0, r6
    5316:	6060      	str	r0, [r4, #4]
    5318:	6863      	ldr	r3, [r4, #4]
    531a:	e003      	b.n	5324 <_printf_i+0x1c4>
    531c:	0026      	movs	r6, r4
    531e:	3642      	adds	r6, #66	; 0x42
    5320:	7032      	strb	r2, [r6, #0]
    5322:	2301      	movs	r3, #1
    5324:	6123      	str	r3, [r4, #16]
    5326:	2300      	movs	r3, #0
    5328:	9a04      	ldr	r2, [sp, #16]
    532a:	7013      	strb	r3, [r2, #0]
    532c:	9b07      	ldr	r3, [sp, #28]
    532e:	aa09      	add	r2, sp, #36	; 0x24
    5330:	9300      	str	r3, [sp, #0]
    5332:	0021      	movs	r1, r4
    5334:	9b06      	ldr	r3, [sp, #24]
    5336:	9805      	ldr	r0, [sp, #20]
    5338:	f7ff fea4 	bl	5084 <_printf_common>
    533c:	1c43      	adds	r3, r0, #1
    533e:	d102      	bne.n	5346 <_printf_i+0x1e6>
    5340:	2001      	movs	r0, #1
    5342:	4240      	negs	r0, r0
    5344:	e027      	b.n	5396 <_printf_i+0x236>
    5346:	6923      	ldr	r3, [r4, #16]
    5348:	0032      	movs	r2, r6
    534a:	9906      	ldr	r1, [sp, #24]
    534c:	9805      	ldr	r0, [sp, #20]
    534e:	9d07      	ldr	r5, [sp, #28]
    5350:	47a8      	blx	r5
    5352:	1c43      	adds	r3, r0, #1
    5354:	d0f4      	beq.n	5340 <_printf_i+0x1e0>
    5356:	6823      	ldr	r3, [r4, #0]
    5358:	2500      	movs	r5, #0
    535a:	079b      	lsls	r3, r3, #30
    535c:	d40f      	bmi.n	537e <_printf_i+0x21e>
    535e:	9b09      	ldr	r3, [sp, #36]	; 0x24
    5360:	68e0      	ldr	r0, [r4, #12]
    5362:	4298      	cmp	r0, r3
    5364:	da17      	bge.n	5396 <_printf_i+0x236>
    5366:	0018      	movs	r0, r3
    5368:	e015      	b.n	5396 <_printf_i+0x236>
    536a:	0022      	movs	r2, r4
    536c:	2301      	movs	r3, #1
    536e:	3219      	adds	r2, #25
    5370:	9906      	ldr	r1, [sp, #24]
    5372:	9805      	ldr	r0, [sp, #20]
    5374:	9e07      	ldr	r6, [sp, #28]
    5376:	47b0      	blx	r6
    5378:	1c43      	adds	r3, r0, #1
    537a:	d0e1      	beq.n	5340 <_printf_i+0x1e0>
    537c:	3501      	adds	r5, #1
    537e:	68e3      	ldr	r3, [r4, #12]
    5380:	9a09      	ldr	r2, [sp, #36]	; 0x24
    5382:	1a9b      	subs	r3, r3, r2
    5384:	429d      	cmp	r5, r3
    5386:	dbf0      	blt.n	536a <_printf_i+0x20a>
    5388:	e7e9      	b.n	535e <_printf_i+0x1fe>
    538a:	0026      	movs	r6, r4
    538c:	9b03      	ldr	r3, [sp, #12]
    538e:	3642      	adds	r6, #66	; 0x42
    5390:	781b      	ldrb	r3, [r3, #0]
    5392:	7033      	strb	r3, [r6, #0]
    5394:	e78e      	b.n	52b4 <_printf_i+0x154>
    5396:	b00b      	add	sp, #44	; 0x2c
    5398:	bdf0      	pop	{r4, r5, r6, r7, pc}
    539a:	46c0      	nop			; (mov r8, r8)
    539c:	00006c75 	.word	0x00006c75
    53a0:	00006c86 	.word	0x00006c86

000053a4 <_scanf_chars>:
    53a4:	b5f7      	push	{r0, r1, r2, r4, r5, r6, r7, lr}
    53a6:	0015      	movs	r5, r2
    53a8:	688a      	ldr	r2, [r1, #8]
    53aa:	9001      	str	r0, [sp, #4]
    53ac:	000c      	movs	r4, r1
    53ae:	2a00      	cmp	r2, #0
    53b0:	d106      	bne.n	53c0 <_scanf_chars+0x1c>
    53b2:	698a      	ldr	r2, [r1, #24]
    53b4:	1e51      	subs	r1, r2, #1
    53b6:	418a      	sbcs	r2, r1
    53b8:	2101      	movs	r1, #1
    53ba:	4252      	negs	r2, r2
    53bc:	430a      	orrs	r2, r1
    53be:	60a2      	str	r2, [r4, #8]
    53c0:	6822      	ldr	r2, [r4, #0]
    53c2:	06d2      	lsls	r2, r2, #27
    53c4:	d403      	bmi.n	53ce <_scanf_chars+0x2a>
    53c6:	681a      	ldr	r2, [r3, #0]
    53c8:	1d11      	adds	r1, r2, #4
    53ca:	6019      	str	r1, [r3, #0]
    53cc:	6817      	ldr	r7, [r2, #0]
    53ce:	2600      	movs	r6, #0
    53d0:	69a0      	ldr	r0, [r4, #24]
    53d2:	2800      	cmp	r0, #0
    53d4:	d11e      	bne.n	5414 <_scanf_chars+0x70>
    53d6:	2210      	movs	r2, #16
    53d8:	6823      	ldr	r3, [r4, #0]
    53da:	3601      	adds	r6, #1
    53dc:	4213      	tst	r3, r2
    53de:	d103      	bne.n	53e8 <_scanf_chars+0x44>
    53e0:	682b      	ldr	r3, [r5, #0]
    53e2:	781b      	ldrb	r3, [r3, #0]
    53e4:	703b      	strb	r3, [r7, #0]
    53e6:	3701      	adds	r7, #1
    53e8:	682a      	ldr	r2, [r5, #0]
    53ea:	686b      	ldr	r3, [r5, #4]
    53ec:	3201      	adds	r2, #1
    53ee:	602a      	str	r2, [r5, #0]
    53f0:	68a2      	ldr	r2, [r4, #8]
    53f2:	3b01      	subs	r3, #1
    53f4:	3a01      	subs	r2, #1
    53f6:	606b      	str	r3, [r5, #4]
    53f8:	60a2      	str	r2, [r4, #8]
    53fa:	2a00      	cmp	r2, #0
    53fc:	d01e      	beq.n	543c <_scanf_chars+0x98>
    53fe:	2b00      	cmp	r3, #0
    5400:	dce6      	bgt.n	53d0 <_scanf_chars+0x2c>
    5402:	23c0      	movs	r3, #192	; 0xc0
    5404:	005b      	lsls	r3, r3, #1
    5406:	58e3      	ldr	r3, [r4, r3]
    5408:	0029      	movs	r1, r5
    540a:	9801      	ldr	r0, [sp, #4]
    540c:	4798      	blx	r3
    540e:	2800      	cmp	r0, #0
    5410:	d0de      	beq.n	53d0 <_scanf_chars+0x2c>
    5412:	e013      	b.n	543c <_scanf_chars+0x98>
    5414:	2801      	cmp	r0, #1
    5416:	d106      	bne.n	5426 <_scanf_chars+0x82>
    5418:	682b      	ldr	r3, [r5, #0]
    541a:	6962      	ldr	r2, [r4, #20]
    541c:	781b      	ldrb	r3, [r3, #0]
    541e:	5cd3      	ldrb	r3, [r2, r3]
    5420:	2b00      	cmp	r3, #0
    5422:	d1d8      	bne.n	53d6 <_scanf_chars+0x32>
    5424:	e01a      	b.n	545c <_scanf_chars+0xb8>
    5426:	2802      	cmp	r0, #2
    5428:	d108      	bne.n	543c <_scanf_chars+0x98>
    542a:	682b      	ldr	r3, [r5, #0]
    542c:	4a0d      	ldr	r2, [pc, #52]	; (5464 <_scanf_chars+0xc0>)
    542e:	781b      	ldrb	r3, [r3, #0]
    5430:	6812      	ldr	r2, [r2, #0]
    5432:	18d3      	adds	r3, r2, r3
    5434:	2208      	movs	r2, #8
    5436:	785b      	ldrb	r3, [r3, #1]
    5438:	4213      	tst	r3, r2
    543a:	d0cc      	beq.n	53d6 <_scanf_chars+0x32>
    543c:	2310      	movs	r3, #16
    543e:	6822      	ldr	r2, [r4, #0]
    5440:	4013      	ands	r3, r2
    5442:	d106      	bne.n	5452 <_scanf_chars+0xae>
    5444:	68e2      	ldr	r2, [r4, #12]
    5446:	3201      	adds	r2, #1
    5448:	60e2      	str	r2, [r4, #12]
    544a:	69a2      	ldr	r2, [r4, #24]
    544c:	2a00      	cmp	r2, #0
    544e:	d000      	beq.n	5452 <_scanf_chars+0xae>
    5450:	703b      	strb	r3, [r7, #0]
    5452:	6923      	ldr	r3, [r4, #16]
    5454:	2000      	movs	r0, #0
    5456:	199e      	adds	r6, r3, r6
    5458:	6126      	str	r6, [r4, #16]
    545a:	e001      	b.n	5460 <_scanf_chars+0xbc>
    545c:	2e00      	cmp	r6, #0
    545e:	d1ed      	bne.n	543c <_scanf_chars+0x98>
    5460:	bdfe      	pop	{r1, r2, r3, r4, r5, r6, r7, pc}
    5462:	46c0      	nop			; (mov r8, r8)
    5464:	1ffff134 	.word	0x1ffff134

00005468 <_scanf_i>:
    5468:	b5f0      	push	{r4, r5, r6, r7, lr}
    546a:	000c      	movs	r4, r1
    546c:	b08d      	sub	sp, #52	; 0x34
    546e:	9302      	str	r3, [sp, #8]
    5470:	4b77      	ldr	r3, [pc, #476]	; (5650 <_scanf_i+0x1e8>)
    5472:	9005      	str	r0, [sp, #20]
    5474:	0016      	movs	r6, r2
    5476:	aa09      	add	r2, sp, #36	; 0x24
    5478:	cb23      	ldmia	r3!, {r0, r1, r5}
    547a:	c223      	stmia	r2!, {r0, r1, r5}
    547c:	4b75      	ldr	r3, [pc, #468]	; (5654 <_scanf_i+0x1ec>)
    547e:	9306      	str	r3, [sp, #24]
    5480:	69a3      	ldr	r3, [r4, #24]
    5482:	2b03      	cmp	r3, #3
    5484:	d001      	beq.n	548a <_scanf_i+0x22>
    5486:	4b74      	ldr	r3, [pc, #464]	; (5658 <_scanf_i+0x1f0>)
    5488:	9306      	str	r3, [sp, #24]
    548a:	2200      	movs	r2, #0
    548c:	68a3      	ldr	r3, [r4, #8]
    548e:	9204      	str	r2, [sp, #16]
    5490:	325d      	adds	r2, #93	; 0x5d
    5492:	1e59      	subs	r1, r3, #1
    5494:	32ff      	adds	r2, #255	; 0xff
    5496:	4291      	cmp	r1, r2
    5498:	d905      	bls.n	54a6 <_scanf_i+0x3e>
    549a:	3b5e      	subs	r3, #94	; 0x5e
    549c:	3bff      	subs	r3, #255	; 0xff
    549e:	9304      	str	r3, [sp, #16]
    54a0:	235e      	movs	r3, #94	; 0x5e
    54a2:	33ff      	adds	r3, #255	; 0xff
    54a4:	60a3      	str	r3, [r4, #8]
    54a6:	0023      	movs	r3, r4
    54a8:	331c      	adds	r3, #28
    54aa:	9301      	str	r3, [sp, #4]
    54ac:	23d0      	movs	r3, #208	; 0xd0
    54ae:	2700      	movs	r7, #0
    54b0:	6822      	ldr	r2, [r4, #0]
    54b2:	011b      	lsls	r3, r3, #4
    54b4:	4313      	orrs	r3, r2
    54b6:	6023      	str	r3, [r4, #0]
    54b8:	9b01      	ldr	r3, [sp, #4]
    54ba:	9303      	str	r3, [sp, #12]
    54bc:	6833      	ldr	r3, [r6, #0]
    54be:	a809      	add	r0, sp, #36	; 0x24
    54c0:	7819      	ldrb	r1, [r3, #0]
    54c2:	00bb      	lsls	r3, r7, #2
    54c4:	2202      	movs	r2, #2
    54c6:	5818      	ldr	r0, [r3, r0]
    54c8:	f7ff fbbe 	bl	4c48 <memchr>
    54cc:	2800      	cmp	r0, #0
    54ce:	d03b      	beq.n	5548 <_scanf_i+0xe0>
    54d0:	2f01      	cmp	r7, #1
    54d2:	d10d      	bne.n	54f0 <_scanf_i+0x88>
    54d4:	6863      	ldr	r3, [r4, #4]
    54d6:	2b00      	cmp	r3, #0
    54d8:	d106      	bne.n	54e8 <_scanf_i+0x80>
    54da:	3308      	adds	r3, #8
    54dc:	6822      	ldr	r2, [r4, #0]
    54de:	6063      	str	r3, [r4, #4]
    54e0:	33f9      	adds	r3, #249	; 0xf9
    54e2:	33ff      	adds	r3, #255	; 0xff
    54e4:	4313      	orrs	r3, r2
    54e6:	6023      	str	r3, [r4, #0]
    54e8:	4b5c      	ldr	r3, [pc, #368]	; (565c <_scanf_i+0x1f4>)
    54ea:	6822      	ldr	r2, [r4, #0]
    54ec:	4013      	ands	r3, r2
    54ee:	e00e      	b.n	550e <_scanf_i+0xa6>
    54f0:	2f02      	cmp	r7, #2
    54f2:	d10d      	bne.n	5510 <_scanf_i+0xa8>
    54f4:	21c0      	movs	r1, #192	; 0xc0
    54f6:	2280      	movs	r2, #128	; 0x80
    54f8:	6823      	ldr	r3, [r4, #0]
    54fa:	00c9      	lsls	r1, r1, #3
    54fc:	4019      	ands	r1, r3
    54fe:	0092      	lsls	r2, r2, #2
    5500:	4291      	cmp	r1, r2
    5502:	d124      	bne.n	554e <_scanf_i+0xe6>
    5504:	3af1      	subs	r2, #241	; 0xf1
    5506:	3aff      	subs	r2, #255	; 0xff
    5508:	6062      	str	r2, [r4, #4]
    550a:	32f0      	adds	r2, #240	; 0xf0
    550c:	4313      	orrs	r3, r2
    550e:	6023      	str	r3, [r4, #0]
    5510:	68a3      	ldr	r3, [r4, #8]
    5512:	1e5a      	subs	r2, r3, #1
    5514:	60a2      	str	r2, [r4, #8]
    5516:	2b00      	cmp	r3, #0
    5518:	d016      	beq.n	5548 <_scanf_i+0xe0>
    551a:	9b03      	ldr	r3, [sp, #12]
    551c:	1c5d      	adds	r5, r3, #1
    551e:	6833      	ldr	r3, [r6, #0]
    5520:	1c5a      	adds	r2, r3, #1
    5522:	6032      	str	r2, [r6, #0]
    5524:	781b      	ldrb	r3, [r3, #0]
    5526:	9a03      	ldr	r2, [sp, #12]
    5528:	9503      	str	r5, [sp, #12]
    552a:	7013      	strb	r3, [r2, #0]
    552c:	6873      	ldr	r3, [r6, #4]
    552e:	3b01      	subs	r3, #1
    5530:	6073      	str	r3, [r6, #4]
    5532:	2b00      	cmp	r3, #0
    5534:	dc08      	bgt.n	5548 <_scanf_i+0xe0>
    5536:	23c0      	movs	r3, #192	; 0xc0
    5538:	005b      	lsls	r3, r3, #1
    553a:	58e3      	ldr	r3, [r4, r3]
    553c:	0031      	movs	r1, r6
    553e:	9805      	ldr	r0, [sp, #20]
    5540:	9307      	str	r3, [sp, #28]
    5542:	4798      	blx	r3
    5544:	2800      	cmp	r0, #0
    5546:	d147      	bne.n	55d8 <_scanf_i+0x170>
    5548:	3701      	adds	r7, #1
    554a:	2f03      	cmp	r7, #3
    554c:	d1b6      	bne.n	54bc <_scanf_i+0x54>
    554e:	6863      	ldr	r3, [r4, #4]
    5550:	2b00      	cmp	r3, #0
    5552:	d101      	bne.n	5558 <_scanf_i+0xf0>
    5554:	330a      	adds	r3, #10
    5556:	6063      	str	r3, [r4, #4]
    5558:	2110      	movs	r1, #16
    555a:	2700      	movs	r7, #0
    555c:	6863      	ldr	r3, [r4, #4]
    555e:	6960      	ldr	r0, [r4, #20]
    5560:	1ac9      	subs	r1, r1, r3
    5562:	4b3f      	ldr	r3, [pc, #252]	; (5660 <_scanf_i+0x1f8>)
    5564:	18c9      	adds	r1, r1, r3
    5566:	f000 f8eb 	bl	5740 <__sccl>
    556a:	9d03      	ldr	r5, [sp, #12]
    556c:	68a3      	ldr	r3, [r4, #8]
    556e:	2b00      	cmp	r3, #0
    5570:	d033      	beq.n	55da <_scanf_i+0x172>
    5572:	6832      	ldr	r2, [r6, #0]
    5574:	6960      	ldr	r0, [r4, #20]
    5576:	7811      	ldrb	r1, [r2, #0]
    5578:	5c40      	ldrb	r0, [r0, r1]
    557a:	2800      	cmp	r0, #0
    557c:	d02d      	beq.n	55da <_scanf_i+0x172>
    557e:	2930      	cmp	r1, #48	; 0x30
    5580:	d10d      	bne.n	559e <_scanf_i+0x136>
    5582:	2080      	movs	r0, #128	; 0x80
    5584:	6821      	ldr	r1, [r4, #0]
    5586:	0100      	lsls	r0, r0, #4
    5588:	4201      	tst	r1, r0
    558a:	d008      	beq.n	559e <_scanf_i+0x136>
    558c:	9a04      	ldr	r2, [sp, #16]
    558e:	3701      	adds	r7, #1
    5590:	2a00      	cmp	r2, #0
    5592:	d00b      	beq.n	55ac <_scanf_i+0x144>
    5594:	3a01      	subs	r2, #1
    5596:	3301      	adds	r3, #1
    5598:	9204      	str	r2, [sp, #16]
    559a:	60a3      	str	r3, [r4, #8]
    559c:	e006      	b.n	55ac <_scanf_i+0x144>
    559e:	6821      	ldr	r1, [r4, #0]
    55a0:	4b30      	ldr	r3, [pc, #192]	; (5664 <_scanf_i+0x1fc>)
    55a2:	400b      	ands	r3, r1
    55a4:	6023      	str	r3, [r4, #0]
    55a6:	7813      	ldrb	r3, [r2, #0]
    55a8:	702b      	strb	r3, [r5, #0]
    55aa:	3501      	adds	r5, #1
    55ac:	6873      	ldr	r3, [r6, #4]
    55ae:	3b01      	subs	r3, #1
    55b0:	6073      	str	r3, [r6, #4]
    55b2:	2b00      	cmp	r3, #0
    55b4:	dd03      	ble.n	55be <_scanf_i+0x156>
    55b6:	6833      	ldr	r3, [r6, #0]
    55b8:	3301      	adds	r3, #1
    55ba:	6033      	str	r3, [r6, #0]
    55bc:	e008      	b.n	55d0 <_scanf_i+0x168>
    55be:	23c0      	movs	r3, #192	; 0xc0
    55c0:	005b      	lsls	r3, r3, #1
    55c2:	58e3      	ldr	r3, [r4, r3]
    55c4:	0031      	movs	r1, r6
    55c6:	9805      	ldr	r0, [sp, #20]
    55c8:	9303      	str	r3, [sp, #12]
    55ca:	4798      	blx	r3
    55cc:	2800      	cmp	r0, #0
    55ce:	d104      	bne.n	55da <_scanf_i+0x172>
    55d0:	68a3      	ldr	r3, [r4, #8]
    55d2:	3b01      	subs	r3, #1
    55d4:	60a3      	str	r3, [r4, #8]
    55d6:	e7c9      	b.n	556c <_scanf_i+0x104>
    55d8:	2700      	movs	r7, #0
    55da:	6823      	ldr	r3, [r4, #0]
    55dc:	05db      	lsls	r3, r3, #23
    55de:	d50e      	bpl.n	55fe <_scanf_i+0x196>
    55e0:	9b01      	ldr	r3, [sp, #4]
    55e2:	429d      	cmp	r5, r3
    55e4:	d907      	bls.n	55f6 <_scanf_i+0x18e>
    55e6:	23be      	movs	r3, #190	; 0xbe
    55e8:	3d01      	subs	r5, #1
    55ea:	005b      	lsls	r3, r3, #1
    55ec:	7829      	ldrb	r1, [r5, #0]
    55ee:	58e3      	ldr	r3, [r4, r3]
    55f0:	0032      	movs	r2, r6
    55f2:	9805      	ldr	r0, [sp, #20]
    55f4:	4798      	blx	r3
    55f6:	9b01      	ldr	r3, [sp, #4]
    55f8:	2001      	movs	r0, #1
    55fa:	429d      	cmp	r5, r3
    55fc:	d025      	beq.n	564a <_scanf_i+0x1e2>
    55fe:	2210      	movs	r2, #16
    5600:	6823      	ldr	r3, [r4, #0]
    5602:	401a      	ands	r2, r3
    5604:	d11a      	bne.n	563c <_scanf_i+0x1d4>
    5606:	702a      	strb	r2, [r5, #0]
    5608:	6863      	ldr	r3, [r4, #4]
    560a:	9901      	ldr	r1, [sp, #4]
    560c:	9805      	ldr	r0, [sp, #20]
    560e:	9e06      	ldr	r6, [sp, #24]
    5610:	47b0      	blx	r6
    5612:	9b02      	ldr	r3, [sp, #8]
    5614:	6822      	ldr	r2, [r4, #0]
    5616:	681b      	ldr	r3, [r3, #0]
    5618:	0691      	lsls	r1, r2, #26
    561a:	d407      	bmi.n	562c <_scanf_i+0x1c4>
    561c:	07d1      	lsls	r1, r2, #31
    561e:	d505      	bpl.n	562c <_scanf_i+0x1c4>
    5620:	9902      	ldr	r1, [sp, #8]
    5622:	1d1a      	adds	r2, r3, #4
    5624:	600a      	str	r2, [r1, #0]
    5626:	681b      	ldr	r3, [r3, #0]
    5628:	8018      	strh	r0, [r3, #0]
    562a:	e004      	b.n	5636 <_scanf_i+0x1ce>
    562c:	9902      	ldr	r1, [sp, #8]
    562e:	1d1a      	adds	r2, r3, #4
    5630:	600a      	str	r2, [r1, #0]
    5632:	681b      	ldr	r3, [r3, #0]
    5634:	6018      	str	r0, [r3, #0]
    5636:	68e3      	ldr	r3, [r4, #12]
    5638:	3301      	adds	r3, #1
    563a:	60e3      	str	r3, [r4, #12]
    563c:	2000      	movs	r0, #0
    563e:	9b01      	ldr	r3, [sp, #4]
    5640:	1aed      	subs	r5, r5, r3
    5642:	6923      	ldr	r3, [r4, #16]
    5644:	19ed      	adds	r5, r5, r7
    5646:	195d      	adds	r5, r3, r5
    5648:	6125      	str	r5, [r4, #16]
    564a:	b00d      	add	sp, #52	; 0x34
    564c:	bdf0      	pop	{r4, r5, r6, r7, pc}
    564e:	46c0      	nop			; (mov r8, r8)
    5650:	00006c98 	.word	0x00006c98
    5654:	00005a3d 	.word	0x00005a3d
    5658:	00005b61 	.word	0x00005b61
    565c:	fffffaff 	.word	0xfffffaff
    5660:	00006ca4 	.word	0x00006ca4
    5664:	fffff6ff 	.word	0xfffff6ff

00005668 <_open_r>:
    5668:	b570      	push	{r4, r5, r6, lr}
    566a:	0005      	movs	r5, r0
    566c:	0008      	movs	r0, r1
    566e:	0011      	movs	r1, r2
    5670:	2200      	movs	r2, #0
    5672:	4c06      	ldr	r4, [pc, #24]	; (568c <_open_r+0x24>)
    5674:	6022      	str	r2, [r4, #0]
    5676:	001a      	movs	r2, r3
    5678:	f7fe face 	bl	3c18 <_open>
    567c:	1c43      	adds	r3, r0, #1
    567e:	d103      	bne.n	5688 <_open_r+0x20>
    5680:	6823      	ldr	r3, [r4, #0]
    5682:	2b00      	cmp	r3, #0
    5684:	d000      	beq.n	5688 <_open_r+0x20>
    5686:	602b      	str	r3, [r5, #0]
    5688:	bd70      	pop	{r4, r5, r6, pc}
    568a:	46c0      	nop			; (mov r8, r8)
    568c:	1ffff904 	.word	0x1ffff904

00005690 <_putc_r>:
    5690:	b570      	push	{r4, r5, r6, lr}
    5692:	0005      	movs	r5, r0
    5694:	000e      	movs	r6, r1
    5696:	0014      	movs	r4, r2
    5698:	2800      	cmp	r0, #0
    569a:	d004      	beq.n	56a6 <_putc_r+0x16>
    569c:	6983      	ldr	r3, [r0, #24]
    569e:	2b00      	cmp	r3, #0
    56a0:	d101      	bne.n	56a6 <_putc_r+0x16>
    56a2:	f7ff f89b 	bl	47dc <__sinit>
    56a6:	4b15      	ldr	r3, [pc, #84]	; (56fc <_putc_r+0x6c>)
    56a8:	429c      	cmp	r4, r3
    56aa:	d101      	bne.n	56b0 <_putc_r+0x20>
    56ac:	686c      	ldr	r4, [r5, #4]
    56ae:	e008      	b.n	56c2 <_putc_r+0x32>
    56b0:	4b13      	ldr	r3, [pc, #76]	; (5700 <_putc_r+0x70>)
    56b2:	429c      	cmp	r4, r3
    56b4:	d101      	bne.n	56ba <_putc_r+0x2a>
    56b6:	68ac      	ldr	r4, [r5, #8]
    56b8:	e003      	b.n	56c2 <_putc_r+0x32>
    56ba:	4b12      	ldr	r3, [pc, #72]	; (5704 <_putc_r+0x74>)
    56bc:	429c      	cmp	r4, r3
    56be:	d100      	bne.n	56c2 <_putc_r+0x32>
    56c0:	68ec      	ldr	r4, [r5, #12]
    56c2:	68a3      	ldr	r3, [r4, #8]
    56c4:	3b01      	subs	r3, #1
    56c6:	60a3      	str	r3, [r4, #8]
    56c8:	2b00      	cmp	r3, #0
    56ca:	da10      	bge.n	56ee <_putc_r+0x5e>
    56cc:	69a2      	ldr	r2, [r4, #24]
    56ce:	4293      	cmp	r3, r2
    56d0:	db07      	blt.n	56e2 <_putc_r+0x52>
    56d2:	6823      	ldr	r3, [r4, #0]
    56d4:	701e      	strb	r6, [r3, #0]
    56d6:	6823      	ldr	r3, [r4, #0]
    56d8:	7819      	ldrb	r1, [r3, #0]
    56da:	290a      	cmp	r1, #10
    56dc:	d10a      	bne.n	56f4 <_putc_r+0x64>
    56de:	0022      	movs	r2, r4
    56e0:	e001      	b.n	56e6 <_putc_r+0x56>
    56e2:	0022      	movs	r2, r4
    56e4:	0031      	movs	r1, r6
    56e6:	0028      	movs	r0, r5
    56e8:	f000 fafc 	bl	5ce4 <__swbuf_r>
    56ec:	e005      	b.n	56fa <_putc_r+0x6a>
    56ee:	6823      	ldr	r3, [r4, #0]
    56f0:	701e      	strb	r6, [r3, #0]
    56f2:	6823      	ldr	r3, [r4, #0]
    56f4:	1c5a      	adds	r2, r3, #1
    56f6:	6022      	str	r2, [r4, #0]
    56f8:	7818      	ldrb	r0, [r3, #0]
    56fa:	bd70      	pop	{r4, r5, r6, pc}
    56fc:	00006bfc 	.word	0x00006bfc
    5700:	00006c1c 	.word	0x00006c1c
    5704:	00006c3c 	.word	0x00006c3c

00005708 <realloc>:
    5708:	b510      	push	{r4, lr}
    570a:	4b03      	ldr	r3, [pc, #12]	; (5718 <realloc+0x10>)
    570c:	000a      	movs	r2, r1
    570e:	0001      	movs	r1, r0
    5710:	6818      	ldr	r0, [r3, #0]
    5712:	f000 fc4b 	bl	5fac <_realloc_r>
    5716:	bd10      	pop	{r4, pc}
    5718:	1ffff130 	.word	0x1ffff130

0000571c <_sbrk_r>:
    571c:	2300      	movs	r3, #0
    571e:	b570      	push	{r4, r5, r6, lr}
    5720:	4c06      	ldr	r4, [pc, #24]	; (573c <_sbrk_r+0x20>)
    5722:	0005      	movs	r5, r0
    5724:	0008      	movs	r0, r1
    5726:	6023      	str	r3, [r4, #0]
    5728:	f7fe fb9a 	bl	3e60 <_sbrk>
    572c:	1c43      	adds	r3, r0, #1
    572e:	d103      	bne.n	5738 <_sbrk_r+0x1c>
    5730:	6823      	ldr	r3, [r4, #0]
    5732:	2b00      	cmp	r3, #0
    5734:	d000      	beq.n	5738 <_sbrk_r+0x1c>
    5736:	602b      	str	r3, [r5, #0]
    5738:	bd70      	pop	{r4, r5, r6, pc}
    573a:	46c0      	nop			; (mov r8, r8)
    573c:	1ffff904 	.word	0x1ffff904

00005740 <__sccl>:
    5740:	b570      	push	{r4, r5, r6, lr}
    5742:	780b      	ldrb	r3, [r1, #0]
    5744:	2b5e      	cmp	r3, #94	; 0x5e
    5746:	d002      	beq.n	574e <__sccl+0xe>
    5748:	1c4a      	adds	r2, r1, #1
    574a:	2500      	movs	r5, #0
    574c:	e002      	b.n	5754 <__sccl+0x14>
    574e:	2501      	movs	r5, #1
    5750:	784b      	ldrb	r3, [r1, #1]
    5752:	1c8a      	adds	r2, r1, #2
    5754:	0001      	movs	r1, r0
    5756:	1c44      	adds	r4, r0, #1
    5758:	34ff      	adds	r4, #255	; 0xff
    575a:	700d      	strb	r5, [r1, #0]
    575c:	3101      	adds	r1, #1
    575e:	42a1      	cmp	r1, r4
    5760:	d1fb      	bne.n	575a <__sccl+0x1a>
    5762:	2b00      	cmp	r3, #0
    5764:	d101      	bne.n	576a <__sccl+0x2a>
    5766:	1e50      	subs	r0, r2, #1
    5768:	e01b      	b.n	57a2 <__sccl+0x62>
    576a:	2101      	movs	r1, #1
    576c:	404d      	eors	r5, r1
    576e:	0011      	movs	r1, r2
    5770:	54c5      	strb	r5, [r0, r3]
    5772:	780c      	ldrb	r4, [r1, #0]
    5774:	1c4a      	adds	r2, r1, #1
    5776:	2c2d      	cmp	r4, #45	; 0x2d
    5778:	d007      	beq.n	578a <__sccl+0x4a>
    577a:	2c5d      	cmp	r4, #93	; 0x5d
    577c:	d010      	beq.n	57a0 <__sccl+0x60>
    577e:	2c00      	cmp	r4, #0
    5780:	d001      	beq.n	5786 <__sccl+0x46>
    5782:	0023      	movs	r3, r4
    5784:	e7f3      	b.n	576e <__sccl+0x2e>
    5786:	0008      	movs	r0, r1
    5788:	e00b      	b.n	57a2 <__sccl+0x62>
    578a:	784e      	ldrb	r6, [r1, #1]
    578c:	2e5d      	cmp	r6, #93	; 0x5d
    578e:	d0f8      	beq.n	5782 <__sccl+0x42>
    5790:	42b3      	cmp	r3, r6
    5792:	dcf6      	bgt.n	5782 <__sccl+0x42>
    5794:	3102      	adds	r1, #2
    5796:	3301      	adds	r3, #1
    5798:	54c5      	strb	r5, [r0, r3]
    579a:	429e      	cmp	r6, r3
    579c:	dcfb      	bgt.n	5796 <__sccl+0x56>
    579e:	e7e8      	b.n	5772 <__sccl+0x32>
    57a0:	0010      	movs	r0, r2
    57a2:	bd70      	pop	{r4, r5, r6, pc}

000057a4 <setbuf>:
    57a4:	424a      	negs	r2, r1
    57a6:	414a      	adcs	r2, r1
    57a8:	2380      	movs	r3, #128	; 0x80
    57aa:	b510      	push	{r4, lr}
    57ac:	0052      	lsls	r2, r2, #1
    57ae:	00db      	lsls	r3, r3, #3
    57b0:	f000 f802 	bl	57b8 <setvbuf>
    57b4:	bd10      	pop	{r4, pc}
	...

000057b8 <setvbuf>:
    57b8:	b5f7      	push	{r0, r1, r2, r4, r5, r6, r7, lr}
    57ba:	001e      	movs	r6, r3
    57bc:	4b3c      	ldr	r3, [pc, #240]	; (58b0 <setvbuf+0xf8>)
    57be:	0004      	movs	r4, r0
    57c0:	681d      	ldr	r5, [r3, #0]
    57c2:	000f      	movs	r7, r1
    57c4:	9201      	str	r2, [sp, #4]
    57c6:	2d00      	cmp	r5, #0
    57c8:	d005      	beq.n	57d6 <setvbuf+0x1e>
    57ca:	69ab      	ldr	r3, [r5, #24]
    57cc:	2b00      	cmp	r3, #0
    57ce:	d102      	bne.n	57d6 <setvbuf+0x1e>
    57d0:	0028      	movs	r0, r5
    57d2:	f7ff f803 	bl	47dc <__sinit>
    57d6:	4b37      	ldr	r3, [pc, #220]	; (58b4 <setvbuf+0xfc>)
    57d8:	429c      	cmp	r4, r3
    57da:	d101      	bne.n	57e0 <setvbuf+0x28>
    57dc:	686c      	ldr	r4, [r5, #4]
    57de:	e008      	b.n	57f2 <setvbuf+0x3a>
    57e0:	4b35      	ldr	r3, [pc, #212]	; (58b8 <setvbuf+0x100>)
    57e2:	429c      	cmp	r4, r3
    57e4:	d101      	bne.n	57ea <setvbuf+0x32>
    57e6:	68ac      	ldr	r4, [r5, #8]
    57e8:	e003      	b.n	57f2 <setvbuf+0x3a>
    57ea:	4b34      	ldr	r3, [pc, #208]	; (58bc <setvbuf+0x104>)
    57ec:	429c      	cmp	r4, r3
    57ee:	d100      	bne.n	57f2 <setvbuf+0x3a>
    57f0:	68ec      	ldr	r4, [r5, #12]
    57f2:	9b01      	ldr	r3, [sp, #4]
    57f4:	2b02      	cmp	r3, #2
    57f6:	d858      	bhi.n	58aa <setvbuf+0xf2>
    57f8:	2e00      	cmp	r6, #0
    57fa:	db56      	blt.n	58aa <setvbuf+0xf2>
    57fc:	0021      	movs	r1, r4
    57fe:	0028      	movs	r0, r5
    5800:	f7fe ff6a 	bl	46d8 <_fflush_r>
    5804:	2300      	movs	r3, #0
    5806:	6063      	str	r3, [r4, #4]
    5808:	61a3      	str	r3, [r4, #24]
    580a:	89a3      	ldrh	r3, [r4, #12]
    580c:	061b      	lsls	r3, r3, #24
    580e:	d503      	bpl.n	5818 <setvbuf+0x60>
    5810:	6921      	ldr	r1, [r4, #16]
    5812:	0028      	movs	r0, r5
    5814:	f7ff fa4a 	bl	4cac <_free_r>
    5818:	2283      	movs	r2, #131	; 0x83
    581a:	89a3      	ldrh	r3, [r4, #12]
    581c:	4393      	bics	r3, r2
    581e:	81a3      	strh	r3, [r4, #12]
    5820:	9b01      	ldr	r3, [sp, #4]
    5822:	2b02      	cmp	r3, #2
    5824:	d013      	beq.n	584e <setvbuf+0x96>
    5826:	2f00      	cmp	r7, #0
    5828:	d125      	bne.n	5876 <setvbuf+0xbe>
    582a:	2e00      	cmp	r6, #0
    582c:	d101      	bne.n	5832 <setvbuf+0x7a>
    582e:	2680      	movs	r6, #128	; 0x80
    5830:	00f6      	lsls	r6, r6, #3
    5832:	0030      	movs	r0, r6
    5834:	f7fc fea6 	bl	2584 <__wrap_malloc>
    5838:	1e07      	subs	r7, r0, #0
    583a:	d118      	bne.n	586e <setvbuf+0xb6>
    583c:	2080      	movs	r0, #128	; 0x80
    583e:	00c0      	lsls	r0, r0, #3
    5840:	f7fc fea0 	bl	2584 <__wrap_malloc>
    5844:	1e07      	subs	r7, r0, #0
    5846:	d110      	bne.n	586a <setvbuf+0xb2>
    5848:	2001      	movs	r0, #1
    584a:	4240      	negs	r0, r0
    584c:	e000      	b.n	5850 <setvbuf+0x98>
    584e:	2000      	movs	r0, #0
    5850:	2202      	movs	r2, #2
    5852:	89a3      	ldrh	r3, [r4, #12]
    5854:	4313      	orrs	r3, r2
    5856:	81a3      	strh	r3, [r4, #12]
    5858:	2300      	movs	r3, #0
    585a:	60a3      	str	r3, [r4, #8]
    585c:	0023      	movs	r3, r4
    585e:	3347      	adds	r3, #71	; 0x47
    5860:	6023      	str	r3, [r4, #0]
    5862:	6123      	str	r3, [r4, #16]
    5864:	2301      	movs	r3, #1
    5866:	6163      	str	r3, [r4, #20]
    5868:	e021      	b.n	58ae <setvbuf+0xf6>
    586a:	2680      	movs	r6, #128	; 0x80
    586c:	00f6      	lsls	r6, r6, #3
    586e:	2280      	movs	r2, #128	; 0x80
    5870:	89a3      	ldrh	r3, [r4, #12]
    5872:	4313      	orrs	r3, r2
    5874:	81a3      	strh	r3, [r4, #12]
    5876:	9b01      	ldr	r3, [sp, #4]
    5878:	2b01      	cmp	r3, #1
    587a:	d105      	bne.n	5888 <setvbuf+0xd0>
    587c:	89a3      	ldrh	r3, [r4, #12]
    587e:	9a01      	ldr	r2, [sp, #4]
    5880:	431a      	orrs	r2, r3
    5882:	4273      	negs	r3, r6
    5884:	81a2      	strh	r2, [r4, #12]
    5886:	61a3      	str	r3, [r4, #24]
    5888:	4b0d      	ldr	r3, [pc, #52]	; (58c0 <setvbuf+0x108>)
    588a:	2000      	movs	r0, #0
    588c:	62ab      	str	r3, [r5, #40]	; 0x28
    588e:	89a2      	ldrh	r2, [r4, #12]
    5890:	6027      	str	r7, [r4, #0]
    5892:	6127      	str	r7, [r4, #16]
    5894:	6166      	str	r6, [r4, #20]
    5896:	0713      	lsls	r3, r2, #28
    5898:	d509      	bpl.n	58ae <setvbuf+0xf6>
    589a:	2303      	movs	r3, #3
    589c:	401a      	ands	r2, r3
    589e:	4253      	negs	r3, r2
    58a0:	4153      	adcs	r3, r2
    58a2:	425b      	negs	r3, r3
    58a4:	401e      	ands	r6, r3
    58a6:	60a6      	str	r6, [r4, #8]
    58a8:	e001      	b.n	58ae <setvbuf+0xf6>
    58aa:	2001      	movs	r0, #1
    58ac:	4240      	negs	r0, r0
    58ae:	bdfe      	pop	{r1, r2, r3, r4, r5, r6, r7, pc}
    58b0:	1ffff130 	.word	0x1ffff130
    58b4:	00006bfc 	.word	0x00006bfc
    58b8:	00006c1c 	.word	0x00006c1c
    58bc:	00006c3c 	.word	0x00006c3c
    58c0:	00004759 	.word	0x00004759

000058c4 <siprintf>:
    58c4:	b40e      	push	{r1, r2, r3}
    58c6:	b510      	push	{r4, lr}
    58c8:	b09d      	sub	sp, #116	; 0x74
    58ca:	a902      	add	r1, sp, #8
    58cc:	9002      	str	r0, [sp, #8]
    58ce:	6108      	str	r0, [r1, #16]
    58d0:	480b      	ldr	r0, [pc, #44]	; (5900 <siprintf+0x3c>)
    58d2:	2482      	movs	r4, #130	; 0x82
    58d4:	6088      	str	r0, [r1, #8]
    58d6:	6148      	str	r0, [r1, #20]
    58d8:	2001      	movs	r0, #1
    58da:	4240      	negs	r0, r0
    58dc:	ab1f      	add	r3, sp, #124	; 0x7c
    58de:	81c8      	strh	r0, [r1, #14]
    58e0:	4808      	ldr	r0, [pc, #32]	; (5904 <siprintf+0x40>)
    58e2:	cb04      	ldmia	r3!, {r2}
    58e4:	00a4      	lsls	r4, r4, #2
    58e6:	6800      	ldr	r0, [r0, #0]
    58e8:	9301      	str	r3, [sp, #4]
    58ea:	818c      	strh	r4, [r1, #12]
    58ec:	f000 fbe6 	bl	60bc <_svfiprintf_r>
    58f0:	2300      	movs	r3, #0
    58f2:	9a02      	ldr	r2, [sp, #8]
    58f4:	7013      	strb	r3, [r2, #0]
    58f6:	b01d      	add	sp, #116	; 0x74
    58f8:	bc10      	pop	{r4}
    58fa:	bc08      	pop	{r3}
    58fc:	b003      	add	sp, #12
    58fe:	4718      	bx	r3
    5900:	7fffffff 	.word	0x7fffffff
    5904:	1ffff130 	.word	0x1ffff130

00005908 <siscanf>:
    5908:	b40e      	push	{r1, r2, r3}
    590a:	2381      	movs	r3, #129	; 0x81
    590c:	b570      	push	{r4, r5, r6, lr}
    590e:	b09d      	sub	sp, #116	; 0x74
    5910:	ac02      	add	r4, sp, #8
    5912:	ad21      	add	r5, sp, #132	; 0x84
    5914:	009b      	lsls	r3, r3, #2
    5916:	cd40      	ldmia	r5!, {r6}
    5918:	81a3      	strh	r3, [r4, #12]
    591a:	9002      	str	r0, [sp, #8]
    591c:	9006      	str	r0, [sp, #24]
    591e:	f000 f873 	bl	5a08 <strlen>
    5922:	4b0b      	ldr	r3, [pc, #44]	; (5950 <siscanf+0x48>)
    5924:	6060      	str	r0, [r4, #4]
    5926:	6263      	str	r3, [r4, #36]	; 0x24
    5928:	2300      	movs	r3, #0
    592a:	6160      	str	r0, [r4, #20]
    592c:	4809      	ldr	r0, [pc, #36]	; (5954 <siscanf+0x4c>)
    592e:	6363      	str	r3, [r4, #52]	; 0x34
    5930:	64a3      	str	r3, [r4, #72]	; 0x48
    5932:	3b01      	subs	r3, #1
    5934:	81e3      	strh	r3, [r4, #14]
    5936:	0032      	movs	r2, r6
    5938:	002b      	movs	r3, r5
    593a:	0021      	movs	r1, r4
    593c:	6800      	ldr	r0, [r0, #0]
    593e:	9501      	str	r5, [sp, #4]
    5940:	f000 fd16 	bl	6370 <__ssvfiscanf_r>
    5944:	b01d      	add	sp, #116	; 0x74
    5946:	bc70      	pop	{r4, r5, r6}
    5948:	bc08      	pop	{r3}
    594a:	b003      	add	sp, #12
    594c:	4718      	bx	r3
    594e:	46c0      	nop			; (mov r8, r8)
    5950:	00005981 	.word	0x00005981
    5954:	1ffff130 	.word	0x1ffff130

00005958 <__sread>:
    5958:	b570      	push	{r4, r5, r6, lr}
    595a:	000c      	movs	r4, r1
    595c:	250e      	movs	r5, #14
    595e:	5f49      	ldrsh	r1, [r1, r5]
    5960:	f000 fe7c 	bl	665c <_read_r>
    5964:	2800      	cmp	r0, #0
    5966:	db03      	blt.n	5970 <__sread+0x18>
    5968:	6d63      	ldr	r3, [r4, #84]	; 0x54
    596a:	181b      	adds	r3, r3, r0
    596c:	6563      	str	r3, [r4, #84]	; 0x54
    596e:	e003      	b.n	5978 <__sread+0x20>
    5970:	89a2      	ldrh	r2, [r4, #12]
    5972:	4b02      	ldr	r3, [pc, #8]	; (597c <__sread+0x24>)
    5974:	4013      	ands	r3, r2
    5976:	81a3      	strh	r3, [r4, #12]
    5978:	bd70      	pop	{r4, r5, r6, pc}
    597a:	46c0      	nop			; (mov r8, r8)
    597c:	ffffefff 	.word	0xffffefff

00005980 <__seofread>:
    5980:	2000      	movs	r0, #0
    5982:	4770      	bx	lr

00005984 <__swrite>:
    5984:	b5f8      	push	{r3, r4, r5, r6, r7, lr}
    5986:	001f      	movs	r7, r3
    5988:	898b      	ldrh	r3, [r1, #12]
    598a:	0005      	movs	r5, r0
    598c:	000c      	movs	r4, r1
    598e:	0016      	movs	r6, r2
    5990:	05db      	lsls	r3, r3, #23
    5992:	d505      	bpl.n	59a0 <__swrite+0x1c>
    5994:	230e      	movs	r3, #14
    5996:	5ec9      	ldrsh	r1, [r1, r3]
    5998:	2200      	movs	r2, #0
    599a:	2302      	movs	r3, #2
    599c:	f000 faf2 	bl	5f84 <_lseek_r>
    59a0:	89a2      	ldrh	r2, [r4, #12]
    59a2:	4b05      	ldr	r3, [pc, #20]	; (59b8 <__swrite+0x34>)
    59a4:	0028      	movs	r0, r5
    59a6:	4013      	ands	r3, r2
    59a8:	81a3      	strh	r3, [r4, #12]
    59aa:	0032      	movs	r2, r6
    59ac:	230e      	movs	r3, #14
    59ae:	5ee1      	ldrsh	r1, [r4, r3]
    59b0:	003b      	movs	r3, r7
    59b2:	f000 f9ef 	bl	5d94 <_write_r>
    59b6:	bdf8      	pop	{r3, r4, r5, r6, r7, pc}
    59b8:	ffffefff 	.word	0xffffefff

000059bc <__sseek>:
    59bc:	b570      	push	{r4, r5, r6, lr}
    59be:	000c      	movs	r4, r1
    59c0:	250e      	movs	r5, #14
    59c2:	5f49      	ldrsh	r1, [r1, r5]
    59c4:	f000 fade 	bl	5f84 <_lseek_r>
    59c8:	89a3      	ldrh	r3, [r4, #12]
    59ca:	1c42      	adds	r2, r0, #1
    59cc:	d103      	bne.n	59d6 <__sseek+0x1a>
    59ce:	4a05      	ldr	r2, [pc, #20]	; (59e4 <__sseek+0x28>)
    59d0:	4013      	ands	r3, r2
    59d2:	81a3      	strh	r3, [r4, #12]
    59d4:	e004      	b.n	59e0 <__sseek+0x24>
    59d6:	2280      	movs	r2, #128	; 0x80
    59d8:	0152      	lsls	r2, r2, #5
    59da:	4313      	orrs	r3, r2
    59dc:	81a3      	strh	r3, [r4, #12]
    59de:	6560      	str	r0, [r4, #84]	; 0x54
    59e0:	bd70      	pop	{r4, r5, r6, pc}
    59e2:	46c0      	nop			; (mov r8, r8)
    59e4:	ffffefff 	.word	0xffffefff

000059e8 <__sclose>:
    59e8:	b510      	push	{r4, lr}
    59ea:	230e      	movs	r3, #14
    59ec:	5ec9      	ldrsh	r1, [r1, r3]
    59ee:	f000 fa59 	bl	5ea4 <_close_r>
    59f2:	bd10      	pop	{r4, pc}

000059f4 <strcmp>:
    59f4:	7802      	ldrb	r2, [r0, #0]
    59f6:	780b      	ldrb	r3, [r1, #0]
    59f8:	2a00      	cmp	r2, #0
    59fa:	d003      	beq.n	5a04 <strcmp+0x10>
    59fc:	3001      	adds	r0, #1
    59fe:	3101      	adds	r1, #1
    5a00:	429a      	cmp	r2, r3
    5a02:	d0f7      	beq.n	59f4 <strcmp>
    5a04:	1ad0      	subs	r0, r2, r3
    5a06:	4770      	bx	lr

00005a08 <strlen>:
    5a08:	2300      	movs	r3, #0
    5a0a:	5cc2      	ldrb	r2, [r0, r3]
    5a0c:	3301      	adds	r3, #1
    5a0e:	2a00      	cmp	r2, #0
    5a10:	d1fb      	bne.n	5a0a <strlen+0x2>
    5a12:	1e58      	subs	r0, r3, #1
    5a14:	4770      	bx	lr

00005a16 <strncmp>:
    5a16:	2300      	movs	r3, #0
    5a18:	b530      	push	{r4, r5, lr}
    5a1a:	429a      	cmp	r2, r3
    5a1c:	d00b      	beq.n	5a36 <strncmp+0x20>
    5a1e:	3a01      	subs	r2, #1
    5a20:	5cc4      	ldrb	r4, [r0, r3]
    5a22:	5ccd      	ldrb	r5, [r1, r3]
    5a24:	42ac      	cmp	r4, r5
    5a26:	d105      	bne.n	5a34 <strncmp+0x1e>
    5a28:	429a      	cmp	r2, r3
    5a2a:	d002      	beq.n	5a32 <strncmp+0x1c>
    5a2c:	3301      	adds	r3, #1
    5a2e:	2c00      	cmp	r4, #0
    5a30:	d1f6      	bne.n	5a20 <strncmp+0xa>
    5a32:	0025      	movs	r5, r4
    5a34:	1b63      	subs	r3, r4, r5
    5a36:	0018      	movs	r0, r3
    5a38:	bd30      	pop	{r4, r5, pc}
	...

00005a3c <_strtol_r>:
    5a3c:	b5f0      	push	{r4, r5, r6, r7, lr}
    5a3e:	001e      	movs	r6, r3
    5a40:	4b45      	ldr	r3, [pc, #276]	; (5b58 <_strtol_r+0x11c>)
    5a42:	b087      	sub	sp, #28
    5a44:	681b      	ldr	r3, [r3, #0]
    5a46:	9201      	str	r2, [sp, #4]
    5a48:	9302      	str	r3, [sp, #8]
    5a4a:	2208      	movs	r2, #8
    5a4c:	000b      	movs	r3, r1
    5a4e:	9005      	str	r0, [sp, #20]
    5a50:	9103      	str	r1, [sp, #12]
    5a52:	781c      	ldrb	r4, [r3, #0]
    5a54:	9902      	ldr	r1, [sp, #8]
    5a56:	1c5d      	adds	r5, r3, #1
    5a58:	1909      	adds	r1, r1, r4
    5a5a:	7848      	ldrb	r0, [r1, #1]
    5a5c:	4010      	ands	r0, r2
    5a5e:	d001      	beq.n	5a64 <_strtol_r+0x28>
    5a60:	002b      	movs	r3, r5
    5a62:	e7f6      	b.n	5a52 <_strtol_r+0x16>
    5a64:	2c2d      	cmp	r4, #45	; 0x2d
    5a66:	d104      	bne.n	5a72 <_strtol_r+0x36>
    5a68:	1c9d      	adds	r5, r3, #2
    5a6a:	785c      	ldrb	r4, [r3, #1]
    5a6c:	2301      	movs	r3, #1
    5a6e:	9300      	str	r3, [sp, #0]
    5a70:	e004      	b.n	5a7c <_strtol_r+0x40>
    5a72:	9000      	str	r0, [sp, #0]
    5a74:	2c2b      	cmp	r4, #43	; 0x2b
    5a76:	d101      	bne.n	5a7c <_strtol_r+0x40>
    5a78:	785c      	ldrb	r4, [r3, #1]
    5a7a:	1c9d      	adds	r5, r3, #2
    5a7c:	2e00      	cmp	r6, #0
    5a7e:	d002      	beq.n	5a86 <_strtol_r+0x4a>
    5a80:	2e10      	cmp	r6, #16
    5a82:	d10a      	bne.n	5a9a <_strtol_r+0x5e>
    5a84:	e062      	b.n	5b4c <_strtol_r+0x110>
    5a86:	2c30      	cmp	r4, #48	; 0x30
    5a88:	d15e      	bne.n	5b48 <_strtol_r+0x10c>
    5a8a:	2220      	movs	r2, #32
    5a8c:	782b      	ldrb	r3, [r5, #0]
    5a8e:	4393      	bics	r3, r2
    5a90:	2b58      	cmp	r3, #88	; 0x58
    5a92:	d154      	bne.n	5b3e <_strtol_r+0x102>
    5a94:	2610      	movs	r6, #16
    5a96:	786c      	ldrb	r4, [r5, #1]
    5a98:	3502      	adds	r5, #2
    5a9a:	9f00      	ldr	r7, [sp, #0]
    5a9c:	0031      	movs	r1, r6
    5a9e:	1e7b      	subs	r3, r7, #1
    5aa0:	419f      	sbcs	r7, r3
    5aa2:	4b2e      	ldr	r3, [pc, #184]	; (5b5c <_strtol_r+0x120>)
    5aa4:	18ff      	adds	r7, r7, r3
    5aa6:	0038      	movs	r0, r7
    5aa8:	f7fe fc14 	bl	42d4 <__aeabi_uidivmod>
    5aac:	0038      	movs	r0, r7
    5aae:	9104      	str	r1, [sp, #16]
    5ab0:	0031      	movs	r1, r6
    5ab2:	f7fe fb89 	bl	41c8 <__aeabi_uidiv>
    5ab6:	2300      	movs	r3, #0
    5ab8:	2203      	movs	r2, #3
    5aba:	0007      	movs	r7, r0
    5abc:	4694      	mov	r12, r2
    5abe:	0018      	movs	r0, r3
    5ac0:	9a02      	ldr	r2, [sp, #8]
    5ac2:	1912      	adds	r2, r2, r4
    5ac4:	7851      	ldrb	r1, [r2, #1]
    5ac6:	2204      	movs	r2, #4
    5ac8:	4211      	tst	r1, r2
    5aca:	d001      	beq.n	5ad0 <_strtol_r+0x94>
    5acc:	3c30      	subs	r4, #48	; 0x30
    5ace:	e007      	b.n	5ae0 <_strtol_r+0xa4>
    5ad0:	4662      	mov	r2, r12
    5ad2:	4011      	ands	r1, r2
    5ad4:	d017      	beq.n	5b06 <_strtol_r+0xca>
    5ad6:	2237      	movs	r2, #55	; 0x37
    5ad8:	2901      	cmp	r1, #1
    5ada:	d000      	beq.n	5ade <_strtol_r+0xa2>
    5adc:	3220      	adds	r2, #32
    5ade:	1aa4      	subs	r4, r4, r2
    5ae0:	42a6      	cmp	r6, r4
    5ae2:	dd10      	ble.n	5b06 <_strtol_r+0xca>
    5ae4:	1c5a      	adds	r2, r3, #1
    5ae6:	d00b      	beq.n	5b00 <_strtol_r+0xc4>
    5ae8:	42b8      	cmp	r0, r7
    5aea:	d807      	bhi.n	5afc <_strtol_r+0xc0>
    5aec:	d102      	bne.n	5af4 <_strtol_r+0xb8>
    5aee:	9b04      	ldr	r3, [sp, #16]
    5af0:	429c      	cmp	r4, r3
    5af2:	dc03      	bgt.n	5afc <_strtol_r+0xc0>
    5af4:	4370      	muls	r0, r6
    5af6:	2301      	movs	r3, #1
    5af8:	1820      	adds	r0, r4, r0
    5afa:	e001      	b.n	5b00 <_strtol_r+0xc4>
    5afc:	2301      	movs	r3, #1
    5afe:	425b      	negs	r3, r3
    5b00:	782c      	ldrb	r4, [r5, #0]
    5b02:	3501      	adds	r5, #1
    5b04:	e7dc      	b.n	5ac0 <_strtol_r+0x84>
    5b06:	1c5a      	adds	r2, r3, #1
    5b08:	d10b      	bne.n	5b22 <_strtol_r+0xe6>
    5b0a:	9800      	ldr	r0, [sp, #0]
    5b0c:	9a05      	ldr	r2, [sp, #20]
    5b0e:	1e43      	subs	r3, r0, #1
    5b10:	4198      	sbcs	r0, r3
    5b12:	4b12      	ldr	r3, [pc, #72]	; (5b5c <_strtol_r+0x120>)
    5b14:	18c0      	adds	r0, r0, r3
    5b16:	2322      	movs	r3, #34	; 0x22
    5b18:	6013      	str	r3, [r2, #0]
    5b1a:	9b01      	ldr	r3, [sp, #4]
    5b1c:	2b00      	cmp	r3, #0
    5b1e:	d10a      	bne.n	5b36 <_strtol_r+0xfa>
    5b20:	e017      	b.n	5b52 <_strtol_r+0x116>
    5b22:	9a00      	ldr	r2, [sp, #0]
    5b24:	2a00      	cmp	r2, #0
    5b26:	d000      	beq.n	5b2a <_strtol_r+0xee>
    5b28:	4240      	negs	r0, r0
    5b2a:	9a01      	ldr	r2, [sp, #4]
    5b2c:	2a00      	cmp	r2, #0
    5b2e:	d010      	beq.n	5b52 <_strtol_r+0x116>
    5b30:	9a03      	ldr	r2, [sp, #12]
    5b32:	2b00      	cmp	r3, #0
    5b34:	d000      	beq.n	5b38 <_strtol_r+0xfc>
    5b36:	1e6a      	subs	r2, r5, #1
    5b38:	9b01      	ldr	r3, [sp, #4]
    5b3a:	601a      	str	r2, [r3, #0]
    5b3c:	e009      	b.n	5b52 <_strtol_r+0x116>
    5b3e:	2430      	movs	r4, #48	; 0x30
    5b40:	2e00      	cmp	r6, #0
    5b42:	d1aa      	bne.n	5a9a <_strtol_r+0x5e>
    5b44:	2608      	movs	r6, #8
    5b46:	e7a8      	b.n	5a9a <_strtol_r+0x5e>
    5b48:	260a      	movs	r6, #10
    5b4a:	e7a6      	b.n	5a9a <_strtol_r+0x5e>
    5b4c:	2c30      	cmp	r4, #48	; 0x30
    5b4e:	d09c      	beq.n	5a8a <_strtol_r+0x4e>
    5b50:	e7a3      	b.n	5a9a <_strtol_r+0x5e>
    5b52:	b007      	add	sp, #28
    5b54:	bdf0      	pop	{r4, r5, r6, r7, pc}
    5b56:	46c0      	nop			; (mov r8, r8)
    5b58:	1ffff134 	.word	0x1ffff134
    5b5c:	7fffffff 	.word	0x7fffffff

00005b60 <_strtoul_r>:
    5b60:	b5f0      	push	{r4, r5, r6, r7, lr}
    5b62:	001e      	movs	r6, r3
    5b64:	4b3f      	ldr	r3, [pc, #252]	; (5c64 <_strtoul_r+0x104>)
    5b66:	b087      	sub	sp, #28
    5b68:	681b      	ldr	r3, [r3, #0]
    5b6a:	9104      	str	r1, [sp, #16]
    5b6c:	9302      	str	r3, [sp, #8]
    5b6e:	0017      	movs	r7, r2
    5b70:	000b      	movs	r3, r1
    5b72:	2108      	movs	r1, #8
    5b74:	9005      	str	r0, [sp, #20]
    5b76:	781c      	ldrb	r4, [r3, #0]
    5b78:	9a02      	ldr	r2, [sp, #8]
    5b7a:	1c5d      	adds	r5, r3, #1
    5b7c:	1912      	adds	r2, r2, r4
    5b7e:	7852      	ldrb	r2, [r2, #1]
    5b80:	400a      	ands	r2, r1
    5b82:	d001      	beq.n	5b88 <_strtoul_r+0x28>
    5b84:	002b      	movs	r3, r5
    5b86:	e7f6      	b.n	5b76 <_strtoul_r+0x16>
    5b88:	2c2d      	cmp	r4, #45	; 0x2d
    5b8a:	d104      	bne.n	5b96 <_strtoul_r+0x36>
    5b8c:	1c9d      	adds	r5, r3, #2
    5b8e:	785c      	ldrb	r4, [r3, #1]
    5b90:	2301      	movs	r3, #1
    5b92:	9301      	str	r3, [sp, #4]
    5b94:	e004      	b.n	5ba0 <_strtoul_r+0x40>
    5b96:	9201      	str	r2, [sp, #4]
    5b98:	2c2b      	cmp	r4, #43	; 0x2b
    5b9a:	d101      	bne.n	5ba0 <_strtoul_r+0x40>
    5b9c:	785c      	ldrb	r4, [r3, #1]
    5b9e:	1c9d      	adds	r5, r3, #2
    5ba0:	2e00      	cmp	r6, #0
    5ba2:	d002      	beq.n	5baa <_strtoul_r+0x4a>
    5ba4:	2e10      	cmp	r6, #16
    5ba6:	d10a      	bne.n	5bbe <_strtoul_r+0x5e>
    5ba8:	e057      	b.n	5c5a <_strtoul_r+0xfa>
    5baa:	2c30      	cmp	r4, #48	; 0x30
    5bac:	d153      	bne.n	5c56 <_strtoul_r+0xf6>
    5bae:	2220      	movs	r2, #32
    5bb0:	782b      	ldrb	r3, [r5, #0]
    5bb2:	4393      	bics	r3, r2
    5bb4:	2b58      	cmp	r3, #88	; 0x58
    5bb6:	d149      	bne.n	5c4c <_strtoul_r+0xec>
    5bb8:	2610      	movs	r6, #16
    5bba:	786c      	ldrb	r4, [r5, #1]
    5bbc:	3502      	adds	r5, #2
    5bbe:	2001      	movs	r0, #1
    5bc0:	0031      	movs	r1, r6
    5bc2:	4240      	negs	r0, r0
    5bc4:	f7fe fb00 	bl	41c8 <__aeabi_uidiv>
    5bc8:	9003      	str	r0, [sp, #12]
    5bca:	2001      	movs	r0, #1
    5bcc:	0031      	movs	r1, r6
    5bce:	4240      	negs	r0, r0
    5bd0:	f7fe fb80 	bl	42d4 <__aeabi_uidivmod>
    5bd4:	2300      	movs	r3, #0
    5bd6:	468c      	mov	r12, r1
    5bd8:	0018      	movs	r0, r3
    5bda:	9a02      	ldr	r2, [sp, #8]
    5bdc:	1912      	adds	r2, r2, r4
    5bde:	7851      	ldrb	r1, [r2, #1]
    5be0:	2204      	movs	r2, #4
    5be2:	4211      	tst	r1, r2
    5be4:	d001      	beq.n	5bea <_strtoul_r+0x8a>
    5be6:	3c30      	subs	r4, #48	; 0x30
    5be8:	e007      	b.n	5bfa <_strtoul_r+0x9a>
    5bea:	2203      	movs	r2, #3
    5bec:	4011      	ands	r1, r2
    5bee:	d017      	beq.n	5c20 <_strtoul_r+0xc0>
    5bf0:	3234      	adds	r2, #52	; 0x34
    5bf2:	2901      	cmp	r1, #1
    5bf4:	d000      	beq.n	5bf8 <_strtoul_r+0x98>
    5bf6:	3220      	adds	r2, #32
    5bf8:	1aa4      	subs	r4, r4, r2
    5bfa:	42a6      	cmp	r6, r4
    5bfc:	dd10      	ble.n	5c20 <_strtoul_r+0xc0>
    5bfe:	2b00      	cmp	r3, #0
    5c00:	db09      	blt.n	5c16 <_strtoul_r+0xb6>
    5c02:	9b03      	ldr	r3, [sp, #12]
    5c04:	4298      	cmp	r0, r3
    5c06:	d806      	bhi.n	5c16 <_strtoul_r+0xb6>
    5c08:	d101      	bne.n	5c0e <_strtoul_r+0xae>
    5c0a:	4564      	cmp	r4, r12
    5c0c:	dc03      	bgt.n	5c16 <_strtoul_r+0xb6>
    5c0e:	4370      	muls	r0, r6
    5c10:	2301      	movs	r3, #1
    5c12:	1820      	adds	r0, r4, r0
    5c14:	e001      	b.n	5c1a <_strtoul_r+0xba>
    5c16:	2301      	movs	r3, #1
    5c18:	425b      	negs	r3, r3
    5c1a:	782c      	ldrb	r4, [r5, #0]
    5c1c:	3501      	adds	r5, #1
    5c1e:	e7dc      	b.n	5bda <_strtoul_r+0x7a>
    5c20:	2b00      	cmp	r3, #0
    5c22:	da07      	bge.n	5c34 <_strtoul_r+0xd4>
    5c24:	2322      	movs	r3, #34	; 0x22
    5c26:	2001      	movs	r0, #1
    5c28:	9a05      	ldr	r2, [sp, #20]
    5c2a:	4240      	negs	r0, r0
    5c2c:	6013      	str	r3, [r2, #0]
    5c2e:	2f00      	cmp	r7, #0
    5c30:	d109      	bne.n	5c46 <_strtoul_r+0xe6>
    5c32:	e015      	b.n	5c60 <_strtoul_r+0x100>
    5c34:	9a01      	ldr	r2, [sp, #4]
    5c36:	2a00      	cmp	r2, #0
    5c38:	d000      	beq.n	5c3c <_strtoul_r+0xdc>
    5c3a:	4240      	negs	r0, r0
    5c3c:	2f00      	cmp	r7, #0
    5c3e:	d00f      	beq.n	5c60 <_strtoul_r+0x100>
    5c40:	9a04      	ldr	r2, [sp, #16]
    5c42:	2b00      	cmp	r3, #0
    5c44:	d000      	beq.n	5c48 <_strtoul_r+0xe8>
    5c46:	1e6a      	subs	r2, r5, #1
    5c48:	603a      	str	r2, [r7, #0]
    5c4a:	e009      	b.n	5c60 <_strtoul_r+0x100>
    5c4c:	2430      	movs	r4, #48	; 0x30
    5c4e:	2e00      	cmp	r6, #0
    5c50:	d1b5      	bne.n	5bbe <_strtoul_r+0x5e>
    5c52:	2608      	movs	r6, #8
    5c54:	e7b3      	b.n	5bbe <_strtoul_r+0x5e>
    5c56:	260a      	movs	r6, #10
    5c58:	e7b1      	b.n	5bbe <_strtoul_r+0x5e>
    5c5a:	2c30      	cmp	r4, #48	; 0x30
    5c5c:	d0a7      	beq.n	5bae <_strtoul_r+0x4e>
    5c5e:	e7ae      	b.n	5bbe <_strtoul_r+0x5e>
    5c60:	b007      	add	sp, #28
    5c62:	bdf0      	pop	{r4, r5, r6, r7, pc}
    5c64:	1ffff134 	.word	0x1ffff134

00005c68 <__submore>:
    5c68:	000b      	movs	r3, r1
    5c6a:	b5f7      	push	{r0, r1, r2, r4, r5, r6, r7, lr}
    5c6c:	6b4d      	ldr	r5, [r1, #52]	; 0x34
    5c6e:	3344      	adds	r3, #68	; 0x44
    5c70:	000c      	movs	r4, r1
    5c72:	429d      	cmp	r5, r3
    5c74:	d11b      	bne.n	5cae <__submore+0x46>
    5c76:	2680      	movs	r6, #128	; 0x80
    5c78:	00f6      	lsls	r6, r6, #3
    5c7a:	0031      	movs	r1, r6
    5c7c:	f7ff f85c 	bl	4d38 <_malloc_r>
    5c80:	2800      	cmp	r0, #0
    5c82:	d102      	bne.n	5c8a <__submore+0x22>
    5c84:	2001      	movs	r0, #1
    5c86:	4240      	negs	r0, r0
    5c88:	e025      	b.n	5cd6 <__submore+0x6e>
    5c8a:	0023      	movs	r3, r4
    5c8c:	6360      	str	r0, [r4, #52]	; 0x34
    5c8e:	63a6      	str	r6, [r4, #56]	; 0x38
    5c90:	3346      	adds	r3, #70	; 0x46
    5c92:	781a      	ldrb	r2, [r3, #0]
    5c94:	4b10      	ldr	r3, [pc, #64]	; (5cd8 <__submore+0x70>)
    5c96:	54c2      	strb	r2, [r0, r3]
    5c98:	0023      	movs	r3, r4
    5c9a:	3345      	adds	r3, #69	; 0x45
    5c9c:	781a      	ldrb	r2, [r3, #0]
    5c9e:	4b0f      	ldr	r3, [pc, #60]	; (5cdc <__submore+0x74>)
    5ca0:	54c2      	strb	r2, [r0, r3]
    5ca2:	782a      	ldrb	r2, [r5, #0]
    5ca4:	4b0e      	ldr	r3, [pc, #56]	; (5ce0 <__submore+0x78>)
    5ca6:	54c2      	strb	r2, [r0, r3]
    5ca8:	18c0      	adds	r0, r0, r3
    5caa:	6020      	str	r0, [r4, #0]
    5cac:	e012      	b.n	5cd4 <__submore+0x6c>
    5cae:	6b8e      	ldr	r6, [r1, #56]	; 0x38
    5cb0:	0029      	movs	r1, r5
    5cb2:	0073      	lsls	r3, r6, #1
    5cb4:	001a      	movs	r2, r3
    5cb6:	9301      	str	r3, [sp, #4]
    5cb8:	f000 f978 	bl	5fac <_realloc_r>
    5cbc:	1e05      	subs	r5, r0, #0
    5cbe:	d0e1      	beq.n	5c84 <__submore+0x1c>
    5cc0:	1987      	adds	r7, r0, r6
    5cc2:	0001      	movs	r1, r0
    5cc4:	0032      	movs	r2, r6
    5cc6:	0038      	movs	r0, r7
    5cc8:	f7fe ffc9 	bl	4c5e <memcpy>
    5ccc:	9b01      	ldr	r3, [sp, #4]
    5cce:	6027      	str	r7, [r4, #0]
    5cd0:	6365      	str	r5, [r4, #52]	; 0x34
    5cd2:	63a3      	str	r3, [r4, #56]	; 0x38
    5cd4:	2000      	movs	r0, #0
    5cd6:	bdfe      	pop	{r1, r2, r3, r4, r5, r6, r7, pc}
    5cd8:	000003ff 	.word	0x000003ff
    5cdc:	000003fe 	.word	0x000003fe
    5ce0:	000003fd 	.word	0x000003fd

00005ce4 <__swbuf_r>:
    5ce4:	b5f8      	push	{r3, r4, r5, r6, r7, lr}
    5ce6:	0005      	movs	r5, r0
    5ce8:	000f      	movs	r7, r1
    5cea:	0014      	movs	r4, r2
    5cec:	2800      	cmp	r0, #0
    5cee:	d004      	beq.n	5cfa <__swbuf_r+0x16>
    5cf0:	6983      	ldr	r3, [r0, #24]
    5cf2:	2b00      	cmp	r3, #0
    5cf4:	d101      	bne.n	5cfa <__swbuf_r+0x16>
    5cf6:	f7fe fd71 	bl	47dc <__sinit>
    5cfa:	4b23      	ldr	r3, [pc, #140]	; (5d88 <__swbuf_r+0xa4>)
    5cfc:	429c      	cmp	r4, r3
    5cfe:	d101      	bne.n	5d04 <__swbuf_r+0x20>
    5d00:	686c      	ldr	r4, [r5, #4]
    5d02:	e008      	b.n	5d16 <__swbuf_r+0x32>
    5d04:	4b21      	ldr	r3, [pc, #132]	; (5d8c <__swbuf_r+0xa8>)
    5d06:	429c      	cmp	r4, r3
    5d08:	d101      	bne.n	5d0e <__swbuf_r+0x2a>
    5d0a:	68ac      	ldr	r4, [r5, #8]
    5d0c:	e003      	b.n	5d16 <__swbuf_r+0x32>
    5d0e:	4b20      	ldr	r3, [pc, #128]	; (5d90 <__swbuf_r+0xac>)
    5d10:	429c      	cmp	r4, r3
    5d12:	d100      	bne.n	5d16 <__swbuf_r+0x32>
    5d14:	68ec      	ldr	r4, [r5, #12]
    5d16:	69a3      	ldr	r3, [r4, #24]
    5d18:	60a3      	str	r3, [r4, #8]
    5d1a:	89a3      	ldrh	r3, [r4, #12]
    5d1c:	071b      	lsls	r3, r3, #28
    5d1e:	d50a      	bpl.n	5d36 <__swbuf_r+0x52>
    5d20:	6923      	ldr	r3, [r4, #16]
    5d22:	2b00      	cmp	r3, #0
    5d24:	d007      	beq.n	5d36 <__swbuf_r+0x52>
    5d26:	6823      	ldr	r3, [r4, #0]
    5d28:	6922      	ldr	r2, [r4, #16]
    5d2a:	b2fe      	uxtb	r6, r7
    5d2c:	1a98      	subs	r0, r3, r2
    5d2e:	6963      	ldr	r3, [r4, #20]
    5d30:	4298      	cmp	r0, r3
    5d32:	db0f      	blt.n	5d54 <__swbuf_r+0x70>
    5d34:	e008      	b.n	5d48 <__swbuf_r+0x64>
    5d36:	0021      	movs	r1, r4
    5d38:	0028      	movs	r0, r5
    5d3a:	f000 f83f 	bl	5dbc <__swsetup_r>
    5d3e:	2800      	cmp	r0, #0
    5d40:	d0f1      	beq.n	5d26 <__swbuf_r+0x42>
    5d42:	2001      	movs	r0, #1
    5d44:	4240      	negs	r0, r0
    5d46:	e01d      	b.n	5d84 <__swbuf_r+0xa0>
    5d48:	0021      	movs	r1, r4
    5d4a:	0028      	movs	r0, r5
    5d4c:	f7fe fcc4 	bl	46d8 <_fflush_r>
    5d50:	2800      	cmp	r0, #0
    5d52:	d1f6      	bne.n	5d42 <__swbuf_r+0x5e>
    5d54:	68a3      	ldr	r3, [r4, #8]
    5d56:	3001      	adds	r0, #1
    5d58:	3b01      	subs	r3, #1
    5d5a:	60a3      	str	r3, [r4, #8]
    5d5c:	6823      	ldr	r3, [r4, #0]
    5d5e:	1c5a      	adds	r2, r3, #1
    5d60:	6022      	str	r2, [r4, #0]
    5d62:	701f      	strb	r7, [r3, #0]
    5d64:	6963      	ldr	r3, [r4, #20]
    5d66:	4298      	cmp	r0, r3
    5d68:	d005      	beq.n	5d76 <__swbuf_r+0x92>
    5d6a:	89a3      	ldrh	r3, [r4, #12]
    5d6c:	0030      	movs	r0, r6
    5d6e:	07db      	lsls	r3, r3, #31
    5d70:	d508      	bpl.n	5d84 <__swbuf_r+0xa0>
    5d72:	2e0a      	cmp	r6, #10
    5d74:	d106      	bne.n	5d84 <__swbuf_r+0xa0>
    5d76:	0021      	movs	r1, r4
    5d78:	0028      	movs	r0, r5
    5d7a:	f7fe fcad 	bl	46d8 <_fflush_r>
    5d7e:	2800      	cmp	r0, #0
    5d80:	d1df      	bne.n	5d42 <__swbuf_r+0x5e>
    5d82:	0030      	movs	r0, r6
    5d84:	bdf8      	pop	{r3, r4, r5, r6, r7, pc}
    5d86:	46c0      	nop			; (mov r8, r8)
    5d88:	00006bfc 	.word	0x00006bfc
    5d8c:	00006c1c 	.word	0x00006c1c
    5d90:	00006c3c 	.word	0x00006c3c

00005d94 <_write_r>:
    5d94:	b570      	push	{r4, r5, r6, lr}
    5d96:	0005      	movs	r5, r0
    5d98:	0008      	movs	r0, r1
    5d9a:	0011      	movs	r1, r2
    5d9c:	2200      	movs	r2, #0
    5d9e:	4c06      	ldr	r4, [pc, #24]	; (5db8 <_write_r+0x24>)
    5da0:	6022      	str	r2, [r4, #0]
    5da2:	001a      	movs	r2, r3
    5da4:	f7fd ffc8 	bl	3d38 <_write>
    5da8:	1c43      	adds	r3, r0, #1
    5daa:	d103      	bne.n	5db4 <_write_r+0x20>
    5dac:	6823      	ldr	r3, [r4, #0]
    5dae:	2b00      	cmp	r3, #0
    5db0:	d000      	beq.n	5db4 <_write_r+0x20>
    5db2:	602b      	str	r3, [r5, #0]
    5db4:	bd70      	pop	{r4, r5, r6, pc}
    5db6:	46c0      	nop			; (mov r8, r8)
    5db8:	1ffff904 	.word	0x1ffff904

00005dbc <__swsetup_r>:
    5dbc:	4b35      	ldr	r3, [pc, #212]	; (5e94 <__swsetup_r+0xd8>)
    5dbe:	b570      	push	{r4, r5, r6, lr}
    5dc0:	681d      	ldr	r5, [r3, #0]
    5dc2:	0006      	movs	r6, r0
    5dc4:	000c      	movs	r4, r1
    5dc6:	2d00      	cmp	r5, #0
    5dc8:	d005      	beq.n	5dd6 <__swsetup_r+0x1a>
    5dca:	69ab      	ldr	r3, [r5, #24]
    5dcc:	2b00      	cmp	r3, #0
    5dce:	d102      	bne.n	5dd6 <__swsetup_r+0x1a>
    5dd0:	0028      	movs	r0, r5
    5dd2:	f7fe fd03 	bl	47dc <__sinit>
    5dd6:	4b30      	ldr	r3, [pc, #192]	; (5e98 <__swsetup_r+0xdc>)
    5dd8:	429c      	cmp	r4, r3
    5dda:	d101      	bne.n	5de0 <__swsetup_r+0x24>
    5ddc:	686c      	ldr	r4, [r5, #4]
    5dde:	e008      	b.n	5df2 <__swsetup_r+0x36>
    5de0:	4b2e      	ldr	r3, [pc, #184]	; (5e9c <__swsetup_r+0xe0>)
    5de2:	429c      	cmp	r4, r3
    5de4:	d101      	bne.n	5dea <__swsetup_r+0x2e>
    5de6:	68ac      	ldr	r4, [r5, #8]
    5de8:	e003      	b.n	5df2 <__swsetup_r+0x36>
    5dea:	4b2d      	ldr	r3, [pc, #180]	; (5ea0 <__swsetup_r+0xe4>)
    5dec:	429c      	cmp	r4, r3
    5dee:	d100      	bne.n	5df2 <__swsetup_r+0x36>
    5df0:	68ec      	ldr	r4, [r5, #12]
    5df2:	89a3      	ldrh	r3, [r4, #12]
    5df4:	b29a      	uxth	r2, r3
    5df6:	0711      	lsls	r1, r2, #28
    5df8:	d423      	bmi.n	5e42 <__swsetup_r+0x86>
    5dfa:	06d1      	lsls	r1, r2, #27
    5dfc:	d407      	bmi.n	5e0e <__swsetup_r+0x52>
    5dfe:	2209      	movs	r2, #9
    5e00:	2001      	movs	r0, #1
    5e02:	6032      	str	r2, [r6, #0]
    5e04:	3237      	adds	r2, #55	; 0x37
    5e06:	4313      	orrs	r3, r2
    5e08:	81a3      	strh	r3, [r4, #12]
    5e0a:	4240      	negs	r0, r0
    5e0c:	e040      	b.n	5e90 <__swsetup_r+0xd4>
    5e0e:	0753      	lsls	r3, r2, #29
    5e10:	d513      	bpl.n	5e3a <__swsetup_r+0x7e>
    5e12:	6b61      	ldr	r1, [r4, #52]	; 0x34
    5e14:	2900      	cmp	r1, #0
    5e16:	d008      	beq.n	5e2a <__swsetup_r+0x6e>
    5e18:	0023      	movs	r3, r4
    5e1a:	3344      	adds	r3, #68	; 0x44
    5e1c:	4299      	cmp	r1, r3
    5e1e:	d002      	beq.n	5e26 <__swsetup_r+0x6a>
    5e20:	0030      	movs	r0, r6
    5e22:	f7fe ff43 	bl	4cac <_free_r>
    5e26:	2300      	movs	r3, #0
    5e28:	6363      	str	r3, [r4, #52]	; 0x34
    5e2a:	2224      	movs	r2, #36	; 0x24
    5e2c:	89a3      	ldrh	r3, [r4, #12]
    5e2e:	4393      	bics	r3, r2
    5e30:	81a3      	strh	r3, [r4, #12]
    5e32:	2300      	movs	r3, #0
    5e34:	6063      	str	r3, [r4, #4]
    5e36:	6923      	ldr	r3, [r4, #16]
    5e38:	6023      	str	r3, [r4, #0]
    5e3a:	2208      	movs	r2, #8
    5e3c:	89a3      	ldrh	r3, [r4, #12]
    5e3e:	4313      	orrs	r3, r2
    5e40:	81a3      	strh	r3, [r4, #12]
    5e42:	6923      	ldr	r3, [r4, #16]
    5e44:	2b00      	cmp	r3, #0
    5e46:	d10b      	bne.n	5e60 <__swsetup_r+0xa4>
    5e48:	23a0      	movs	r3, #160	; 0xa0
    5e4a:	89a2      	ldrh	r2, [r4, #12]
    5e4c:	009b      	lsls	r3, r3, #2
    5e4e:	4013      	ands	r3, r2
    5e50:	2280      	movs	r2, #128	; 0x80
    5e52:	0092      	lsls	r2, r2, #2
    5e54:	4293      	cmp	r3, r2
    5e56:	d003      	beq.n	5e60 <__swsetup_r+0xa4>
    5e58:	0021      	movs	r1, r4
    5e5a:	0030      	movs	r0, r6
    5e5c:	f7fe fe8e 	bl	4b7c <__smakebuf_r>
    5e60:	2301      	movs	r3, #1
    5e62:	89a2      	ldrh	r2, [r4, #12]
    5e64:	4013      	ands	r3, r2
    5e66:	d005      	beq.n	5e74 <__swsetup_r+0xb8>
    5e68:	2300      	movs	r3, #0
    5e6a:	60a3      	str	r3, [r4, #8]
    5e6c:	6963      	ldr	r3, [r4, #20]
    5e6e:	425b      	negs	r3, r3
    5e70:	61a3      	str	r3, [r4, #24]
    5e72:	e003      	b.n	5e7c <__swsetup_r+0xc0>
    5e74:	0791      	lsls	r1, r2, #30
    5e76:	d400      	bmi.n	5e7a <__swsetup_r+0xbe>
    5e78:	6963      	ldr	r3, [r4, #20]
    5e7a:	60a3      	str	r3, [r4, #8]
    5e7c:	2000      	movs	r0, #0
    5e7e:	6923      	ldr	r3, [r4, #16]
    5e80:	4283      	cmp	r3, r0
    5e82:	d105      	bne.n	5e90 <__swsetup_r+0xd4>
    5e84:	0613      	lsls	r3, r2, #24
    5e86:	d503      	bpl.n	5e90 <__swsetup_r+0xd4>
    5e88:	2340      	movs	r3, #64	; 0x40
    5e8a:	431a      	orrs	r2, r3
    5e8c:	81a2      	strh	r2, [r4, #12]
    5e8e:	3801      	subs	r0, #1
    5e90:	bd70      	pop	{r4, r5, r6, pc}
    5e92:	46c0      	nop			; (mov r8, r8)
    5e94:	1ffff130 	.word	0x1ffff130
    5e98:	00006bfc 	.word	0x00006bfc
    5e9c:	00006c1c 	.word	0x00006c1c
    5ea0:	00006c3c 	.word	0x00006c3c

00005ea4 <_close_r>:
    5ea4:	2300      	movs	r3, #0
    5ea6:	b570      	push	{r4, r5, r6, lr}
    5ea8:	4c06      	ldr	r4, [pc, #24]	; (5ec4 <_close_r+0x20>)
    5eaa:	0005      	movs	r5, r0
    5eac:	0008      	movs	r0, r1
    5eae:	6023      	str	r3, [r4, #0]
    5eb0:	f7fd ff2c 	bl	3d0c <_close>
    5eb4:	1c43      	adds	r3, r0, #1
    5eb6:	d103      	bne.n	5ec0 <_close_r+0x1c>
    5eb8:	6823      	ldr	r3, [r4, #0]
    5eba:	2b00      	cmp	r3, #0
    5ebc:	d000      	beq.n	5ec0 <_close_r+0x1c>
    5ebe:	602b      	str	r3, [r5, #0]
    5ec0:	bd70      	pop	{r4, r5, r6, pc}
    5ec2:	46c0      	nop			; (mov r8, r8)
    5ec4:	1ffff904 	.word	0x1ffff904

00005ec8 <__sflags>:
    5ec8:	780b      	ldrb	r3, [r1, #0]
    5eca:	b5f0      	push	{r4, r5, r6, r7, lr}
    5ecc:	2b72      	cmp	r3, #114	; 0x72
    5ece:	d00e      	beq.n	5eee <__sflags+0x26>
    5ed0:	2b77      	cmp	r3, #119	; 0x77
    5ed2:	d007      	beq.n	5ee4 <__sflags+0x1c>
    5ed4:	2b61      	cmp	r3, #97	; 0x61
    5ed6:	d113      	bne.n	5f00 <__sflags+0x38>
    5ed8:	2482      	movs	r4, #130	; 0x82
    5eda:	2084      	movs	r0, #132	; 0x84
    5edc:	00a4      	lsls	r4, r4, #2
    5ede:	2301      	movs	r3, #1
    5ee0:	0040      	lsls	r0, r0, #1
    5ee2:	e007      	b.n	5ef4 <__sflags+0x2c>
    5ee4:	24c0      	movs	r4, #192	; 0xc0
    5ee6:	2301      	movs	r3, #1
    5ee8:	00e4      	lsls	r4, r4, #3
    5eea:	2008      	movs	r0, #8
    5eec:	e002      	b.n	5ef4 <__sflags+0x2c>
    5eee:	2400      	movs	r4, #0
    5ef0:	2004      	movs	r0, #4
    5ef2:	0023      	movs	r3, r4
    5ef4:	2680      	movs	r6, #128	; 0x80
    5ef6:	2510      	movs	r5, #16
    5ef8:	0136      	lsls	r6, r6, #4
    5efa:	271c      	movs	r7, #28
    5efc:	46ac      	mov	r12, r5
    5efe:	e010      	b.n	5f22 <__sflags+0x5a>
    5f00:	2316      	movs	r3, #22
    5f02:	6003      	str	r3, [r0, #0]
    5f04:	2000      	movs	r0, #0
    5f06:	e018      	b.n	5f3a <__sflags+0x72>
    5f08:	2d62      	cmp	r5, #98	; 0x62
    5f0a:	d00f      	beq.n	5f2c <__sflags+0x64>
    5f0c:	2d78      	cmp	r5, #120	; 0x78
    5f0e:	d010      	beq.n	5f32 <__sflags+0x6a>
    5f10:	2d2b      	cmp	r5, #43	; 0x2b
    5f12:	d106      	bne.n	5f22 <__sflags+0x5a>
    5f14:	4665      	mov	r5, r12
    5f16:	43b8      	bics	r0, r7
    5f18:	4328      	orrs	r0, r5
    5f1a:	2503      	movs	r5, #3
    5f1c:	43ab      	bics	r3, r5
    5f1e:	3d01      	subs	r5, #1
    5f20:	432b      	orrs	r3, r5
    5f22:	3101      	adds	r1, #1
    5f24:	780d      	ldrb	r5, [r1, #0]
    5f26:	2d00      	cmp	r5, #0
    5f28:	d1ee      	bne.n	5f08 <__sflags+0x40>
    5f2a:	e004      	b.n	5f36 <__sflags+0x6e>
    5f2c:	2580      	movs	r5, #128	; 0x80
    5f2e:	026d      	lsls	r5, r5, #9
    5f30:	e7f6      	b.n	5f20 <__sflags+0x58>
    5f32:	4333      	orrs	r3, r6
    5f34:	e7f5      	b.n	5f22 <__sflags+0x5a>
    5f36:	4323      	orrs	r3, r4
    5f38:	6013      	str	r3, [r2, #0]
    5f3a:	bdf0      	pop	{r4, r5, r6, r7, pc}

00005f3c <_fstat_r>:
    5f3c:	2300      	movs	r3, #0
    5f3e:	b570      	push	{r4, r5, r6, lr}
    5f40:	4c06      	ldr	r4, [pc, #24]	; (5f5c <_fstat_r+0x20>)
    5f42:	0005      	movs	r5, r0
    5f44:	0008      	movs	r0, r1
    5f46:	0011      	movs	r1, r2
    5f48:	6023      	str	r3, [r4, #0]
    5f4a:	f7fd ff6d 	bl	3e28 <_fstat>
    5f4e:	1c43      	adds	r3, r0, #1
    5f50:	d103      	bne.n	5f5a <_fstat_r+0x1e>
    5f52:	6823      	ldr	r3, [r4, #0]
    5f54:	2b00      	cmp	r3, #0
    5f56:	d000      	beq.n	5f5a <_fstat_r+0x1e>
    5f58:	602b      	str	r3, [r5, #0]
    5f5a:	bd70      	pop	{r4, r5, r6, pc}
    5f5c:	1ffff904 	.word	0x1ffff904

00005f60 <_isatty_r>:
    5f60:	2300      	movs	r3, #0
    5f62:	b570      	push	{r4, r5, r6, lr}
    5f64:	4c06      	ldr	r4, [pc, #24]	; (5f80 <_isatty_r+0x20>)
    5f66:	0005      	movs	r5, r0
    5f68:	0008      	movs	r0, r1
    5f6a:	6023      	str	r3, [r4, #0]
    5f6c:	f7fc fb00 	bl	2570 <__wrap__isatty>
    5f70:	1c43      	adds	r3, r0, #1
    5f72:	d103      	bne.n	5f7c <_isatty_r+0x1c>
    5f74:	6823      	ldr	r3, [r4, #0]
    5f76:	2b00      	cmp	r3, #0
    5f78:	d000      	beq.n	5f7c <_isatty_r+0x1c>
    5f7a:	602b      	str	r3, [r5, #0]
    5f7c:	bd70      	pop	{r4, r5, r6, pc}
    5f7e:	46c0      	nop			; (mov r8, r8)
    5f80:	1ffff904 	.word	0x1ffff904

00005f84 <_lseek_r>:
    5f84:	b570      	push	{r4, r5, r6, lr}
    5f86:	0005      	movs	r5, r0
    5f88:	0008      	movs	r0, r1
    5f8a:	0011      	movs	r1, r2
    5f8c:	2200      	movs	r2, #0
    5f8e:	4c06      	ldr	r4, [pc, #24]	; (5fa8 <_lseek_r+0x24>)
    5f90:	6022      	str	r2, [r4, #0]
    5f92:	001a      	movs	r2, r3
    5f94:	f7fd ff34 	bl	3e00 <_lseek>
    5f98:	1c43      	adds	r3, r0, #1
    5f9a:	d103      	bne.n	5fa4 <_lseek_r+0x20>
    5f9c:	6823      	ldr	r3, [r4, #0]
    5f9e:	2b00      	cmp	r3, #0
    5fa0:	d000      	beq.n	5fa4 <_lseek_r+0x20>
    5fa2:	602b      	str	r3, [r5, #0]
    5fa4:	bd70      	pop	{r4, r5, r6, pc}
    5fa6:	46c0      	nop			; (mov r8, r8)
    5fa8:	1ffff904 	.word	0x1ffff904

00005fac <_realloc_r>:
    5fac:	b5f8      	push	{r3, r4, r5, r6, r7, lr}
    5fae:	0006      	movs	r6, r0
    5fb0:	000c      	movs	r4, r1
    5fb2:	0015      	movs	r5, r2
    5fb4:	2900      	cmp	r1, #0
    5fb6:	d104      	bne.n	5fc2 <_realloc_r+0x16>
    5fb8:	0011      	movs	r1, r2
    5fba:	f7fe febd 	bl	4d38 <_malloc_r>
    5fbe:	0004      	movs	r4, r0
    5fc0:	e018      	b.n	5ff4 <_realloc_r+0x48>
    5fc2:	2a00      	cmp	r2, #0
    5fc4:	d103      	bne.n	5fce <_realloc_r+0x22>
    5fc6:	f7fe fe71 	bl	4cac <_free_r>
    5fca:	002c      	movs	r4, r5
    5fcc:	e012      	b.n	5ff4 <_realloc_r+0x48>
    5fce:	f000 fb59 	bl	6684 <_malloc_usable_size_r>
    5fd2:	4285      	cmp	r5, r0
    5fd4:	d90e      	bls.n	5ff4 <_realloc_r+0x48>
    5fd6:	0029      	movs	r1, r5
    5fd8:	0030      	movs	r0, r6
    5fda:	f7fe fead 	bl	4d38 <_malloc_r>
    5fde:	1e07      	subs	r7, r0, #0
    5fe0:	d007      	beq.n	5ff2 <_realloc_r+0x46>
    5fe2:	0021      	movs	r1, r4
    5fe4:	002a      	movs	r2, r5
    5fe6:	f7fe fe3a 	bl	4c5e <memcpy>
    5fea:	0021      	movs	r1, r4
    5fec:	0030      	movs	r0, r6
    5fee:	f7fe fe5d 	bl	4cac <_free_r>
    5ff2:	003c      	movs	r4, r7
    5ff4:	0020      	movs	r0, r4
    5ff6:	bdf8      	pop	{r3, r4, r5, r6, r7, pc}

00005ff8 <__ssputs_r>:
    5ff8:	b5f0      	push	{r4, r5, r6, r7, lr}
    5ffa:	688e      	ldr	r6, [r1, #8]
    5ffc:	b085      	sub	sp, #20
    5ffe:	0007      	movs	r7, r0
    6000:	000c      	movs	r4, r1
    6002:	9203      	str	r2, [sp, #12]
    6004:	9301      	str	r3, [sp, #4]
    6006:	429e      	cmp	r6, r3
    6008:	d843      	bhi.n	6092 <__ssputs_r+0x9a>
    600a:	2390      	movs	r3, #144	; 0x90
    600c:	898a      	ldrh	r2, [r1, #12]
    600e:	00db      	lsls	r3, r3, #3
    6010:	421a      	tst	r2, r3
    6012:	d03e      	beq.n	6092 <__ssputs_r+0x9a>
    6014:	2503      	movs	r5, #3
    6016:	6909      	ldr	r1, [r1, #16]
    6018:	6823      	ldr	r3, [r4, #0]
    601a:	9801      	ldr	r0, [sp, #4]
    601c:	1a5b      	subs	r3, r3, r1
    601e:	9302      	str	r3, [sp, #8]
    6020:	6963      	ldr	r3, [r4, #20]
    6022:	435d      	muls	r5, r3
    6024:	0feb      	lsrs	r3, r5, #31
    6026:	195d      	adds	r5, r3, r5
    6028:	9b02      	ldr	r3, [sp, #8]
    602a:	106d      	asrs	r5, r5, #1
    602c:	3301      	adds	r3, #1
    602e:	181b      	adds	r3, r3, r0
    6030:	42ab      	cmp	r3, r5
    6032:	d900      	bls.n	6036 <__ssputs_r+0x3e>
    6034:	001d      	movs	r5, r3
    6036:	0553      	lsls	r3, r2, #21
    6038:	d510      	bpl.n	605c <__ssputs_r+0x64>
    603a:	0029      	movs	r1, r5
    603c:	0038      	movs	r0, r7
    603e:	f7fe fe7b 	bl	4d38 <_malloc_r>
    6042:	1e06      	subs	r6, r0, #0
    6044:	d014      	beq.n	6070 <__ssputs_r+0x78>
    6046:	9a02      	ldr	r2, [sp, #8]
    6048:	6921      	ldr	r1, [r4, #16]
    604a:	f7fe fe08 	bl	4c5e <memcpy>
    604e:	89a2      	ldrh	r2, [r4, #12]
    6050:	4b19      	ldr	r3, [pc, #100]	; (60b8 <__ssputs_r+0xc0>)
    6052:	4013      	ands	r3, r2
    6054:	2280      	movs	r2, #128	; 0x80
    6056:	4313      	orrs	r3, r2
    6058:	81a3      	strh	r3, [r4, #12]
    605a:	e012      	b.n	6082 <__ssputs_r+0x8a>
    605c:	002a      	movs	r2, r5
    605e:	0038      	movs	r0, r7
    6060:	f7ff ffa4 	bl	5fac <_realloc_r>
    6064:	1e06      	subs	r6, r0, #0
    6066:	d10c      	bne.n	6082 <__ssputs_r+0x8a>
    6068:	6921      	ldr	r1, [r4, #16]
    606a:	0038      	movs	r0, r7
    606c:	f7fe fe1e 	bl	4cac <_free_r>
    6070:	230c      	movs	r3, #12
    6072:	2240      	movs	r2, #64	; 0x40
    6074:	2001      	movs	r0, #1
    6076:	603b      	str	r3, [r7, #0]
    6078:	89a3      	ldrh	r3, [r4, #12]
    607a:	4240      	negs	r0, r0
    607c:	4313      	orrs	r3, r2
    607e:	81a3      	strh	r3, [r4, #12]
    6080:	e017      	b.n	60b2 <__ssputs_r+0xba>
    6082:	9b02      	ldr	r3, [sp, #8]
    6084:	6126      	str	r6, [r4, #16]
    6086:	18f6      	adds	r6, r6, r3
    6088:	6026      	str	r6, [r4, #0]
    608a:	6165      	str	r5, [r4, #20]
    608c:	9e01      	ldr	r6, [sp, #4]
    608e:	1aed      	subs	r5, r5, r3
    6090:	60a5      	str	r5, [r4, #8]
    6092:	9b01      	ldr	r3, [sp, #4]
    6094:	42b3      	cmp	r3, r6
    6096:	d200      	bcs.n	609a <__ssputs_r+0xa2>
    6098:	001e      	movs	r6, r3
    609a:	0032      	movs	r2, r6
    609c:	9903      	ldr	r1, [sp, #12]
    609e:	6820      	ldr	r0, [r4, #0]
    60a0:	f7fe fde6 	bl	4c70 <memmove>
    60a4:	2000      	movs	r0, #0
    60a6:	68a3      	ldr	r3, [r4, #8]
    60a8:	1b9b      	subs	r3, r3, r6
    60aa:	60a3      	str	r3, [r4, #8]
    60ac:	6823      	ldr	r3, [r4, #0]
    60ae:	199e      	adds	r6, r3, r6
    60b0:	6026      	str	r6, [r4, #0]
    60b2:	b005      	add	sp, #20
    60b4:	bdf0      	pop	{r4, r5, r6, r7, pc}
    60b6:	46c0      	nop			; (mov r8, r8)
    60b8:	fffffb7f 	.word	0xfffffb7f

000060bc <_svfiprintf_r>:
    60bc:	b5f0      	push	{r4, r5, r6, r7, lr}
    60be:	b09f      	sub	sp, #124	; 0x7c
    60c0:	9002      	str	r0, [sp, #8]
    60c2:	9305      	str	r3, [sp, #20]
    60c4:	898b      	ldrh	r3, [r1, #12]
    60c6:	000f      	movs	r7, r1
    60c8:	0016      	movs	r6, r2
    60ca:	061b      	lsls	r3, r3, #24
    60cc:	d510      	bpl.n	60f0 <_svfiprintf_r+0x34>
    60ce:	690b      	ldr	r3, [r1, #16]
    60d0:	2b00      	cmp	r3, #0
    60d2:	d10d      	bne.n	60f0 <_svfiprintf_r+0x34>
    60d4:	2140      	movs	r1, #64	; 0x40
    60d6:	f7fe fe2f 	bl	4d38 <_malloc_r>
    60da:	6038      	str	r0, [r7, #0]
    60dc:	6138      	str	r0, [r7, #16]
    60de:	2800      	cmp	r0, #0
    60e0:	d104      	bne.n	60ec <_svfiprintf_r+0x30>
    60e2:	230c      	movs	r3, #12
    60e4:	9a02      	ldr	r2, [sp, #8]
    60e6:	3801      	subs	r0, #1
    60e8:	6013      	str	r3, [r2, #0]
    60ea:	e0d8      	b.n	629e <_svfiprintf_r+0x1e2>
    60ec:	2340      	movs	r3, #64	; 0x40
    60ee:	617b      	str	r3, [r7, #20]
    60f0:	2300      	movs	r3, #0
    60f2:	ad06      	add	r5, sp, #24
    60f4:	616b      	str	r3, [r5, #20]
    60f6:	3320      	adds	r3, #32
    60f8:	766b      	strb	r3, [r5, #25]
    60fa:	3310      	adds	r3, #16
    60fc:	76ab      	strb	r3, [r5, #26]
    60fe:	0034      	movs	r4, r6
    6100:	7823      	ldrb	r3, [r4, #0]
    6102:	2b00      	cmp	r3, #0
    6104:	d103      	bne.n	610e <_svfiprintf_r+0x52>
    6106:	1ba3      	subs	r3, r4, r6
    6108:	9304      	str	r3, [sp, #16]
    610a:	d012      	beq.n	6132 <_svfiprintf_r+0x76>
    610c:	e003      	b.n	6116 <_svfiprintf_r+0x5a>
    610e:	2b25      	cmp	r3, #37	; 0x25
    6110:	d0f9      	beq.n	6106 <_svfiprintf_r+0x4a>
    6112:	3401      	adds	r4, #1
    6114:	e7f4      	b.n	6100 <_svfiprintf_r+0x44>
    6116:	1ba3      	subs	r3, r4, r6
    6118:	0032      	movs	r2, r6
    611a:	0039      	movs	r1, r7
    611c:	9802      	ldr	r0, [sp, #8]
    611e:	f7ff ff6b 	bl	5ff8 <__ssputs_r>
    6122:	1c43      	adds	r3, r0, #1
    6124:	d100      	bne.n	6128 <_svfiprintf_r+0x6c>
    6126:	e0b4      	b.n	6292 <_svfiprintf_r+0x1d6>
    6128:	696a      	ldr	r2, [r5, #20]
    612a:	9b04      	ldr	r3, [sp, #16]
    612c:	4694      	mov	r12, r2
    612e:	4463      	add	r3, r12
    6130:	616b      	str	r3, [r5, #20]
    6132:	7823      	ldrb	r3, [r4, #0]
    6134:	2b00      	cmp	r3, #0
    6136:	d100      	bne.n	613a <_svfiprintf_r+0x7e>
    6138:	e0ab      	b.n	6292 <_svfiprintf_r+0x1d6>
    613a:	2201      	movs	r2, #1
    613c:	2300      	movs	r3, #0
    613e:	4252      	negs	r2, r2
    6140:	606a      	str	r2, [r5, #4]
    6142:	a902      	add	r1, sp, #8
    6144:	3254      	adds	r2, #84	; 0x54
    6146:	1852      	adds	r2, r2, r1
    6148:	3401      	adds	r4, #1
    614a:	602b      	str	r3, [r5, #0]
    614c:	60eb      	str	r3, [r5, #12]
    614e:	60ab      	str	r3, [r5, #8]
    6150:	7013      	strb	r3, [r2, #0]
    6152:	65ab      	str	r3, [r5, #88]	; 0x58
    6154:	4e53      	ldr	r6, [pc, #332]	; (62a4 <_svfiprintf_r+0x1e8>)
    6156:	7821      	ldrb	r1, [r4, #0]
    6158:	2205      	movs	r2, #5
    615a:	0030      	movs	r0, r6
    615c:	f7fe fd74 	bl	4c48 <memchr>
    6160:	2800      	cmp	r0, #0
    6162:	d007      	beq.n	6174 <_svfiprintf_r+0xb8>
    6164:	2301      	movs	r3, #1
    6166:	1b80      	subs	r0, r0, r6
    6168:	4083      	lsls	r3, r0
    616a:	682a      	ldr	r2, [r5, #0]
    616c:	3401      	adds	r4, #1
    616e:	4313      	orrs	r3, r2
    6170:	602b      	str	r3, [r5, #0]
    6172:	e7ef      	b.n	6154 <_svfiprintf_r+0x98>
    6174:	682b      	ldr	r3, [r5, #0]
    6176:	06da      	lsls	r2, r3, #27
    6178:	d504      	bpl.n	6184 <_svfiprintf_r+0xc8>
    617a:	2253      	movs	r2, #83	; 0x53
    617c:	2120      	movs	r1, #32
    617e:	a802      	add	r0, sp, #8
    6180:	1812      	adds	r2, r2, r0
    6182:	7011      	strb	r1, [r2, #0]
    6184:	071a      	lsls	r2, r3, #28
    6186:	d504      	bpl.n	6192 <_svfiprintf_r+0xd6>
    6188:	2253      	movs	r2, #83	; 0x53
    618a:	212b      	movs	r1, #43	; 0x2b
    618c:	a802      	add	r0, sp, #8
    618e:	1812      	adds	r2, r2, r0
    6190:	7011      	strb	r1, [r2, #0]
    6192:	7822      	ldrb	r2, [r4, #0]
    6194:	2a2a      	cmp	r2, #42	; 0x2a
    6196:	d003      	beq.n	61a0 <_svfiprintf_r+0xe4>
    6198:	9b09      	ldr	r3, [sp, #36]	; 0x24
    619a:	2000      	movs	r0, #0
    619c:	210a      	movs	r1, #10
    619e:	e00e      	b.n	61be <_svfiprintf_r+0x102>
    61a0:	9a05      	ldr	r2, [sp, #20]
    61a2:	1d11      	adds	r1, r2, #4
    61a4:	6812      	ldr	r2, [r2, #0]
    61a6:	9105      	str	r1, [sp, #20]
    61a8:	2a00      	cmp	r2, #0
    61aa:	db01      	blt.n	61b0 <_svfiprintf_r+0xf4>
    61ac:	9209      	str	r2, [sp, #36]	; 0x24
    61ae:	e004      	b.n	61ba <_svfiprintf_r+0xfe>
    61b0:	4252      	negs	r2, r2
    61b2:	60ea      	str	r2, [r5, #12]
    61b4:	2202      	movs	r2, #2
    61b6:	4313      	orrs	r3, r2
    61b8:	602b      	str	r3, [r5, #0]
    61ba:	3401      	adds	r4, #1
    61bc:	e00b      	b.n	61d6 <_svfiprintf_r+0x11a>
    61be:	7822      	ldrb	r2, [r4, #0]
    61c0:	3a30      	subs	r2, #48	; 0x30
    61c2:	2a09      	cmp	r2, #9
    61c4:	d804      	bhi.n	61d0 <_svfiprintf_r+0x114>
    61c6:	434b      	muls	r3, r1
    61c8:	3401      	adds	r4, #1
    61ca:	189b      	adds	r3, r3, r2
    61cc:	2001      	movs	r0, #1
    61ce:	e7f6      	b.n	61be <_svfiprintf_r+0x102>
    61d0:	2800      	cmp	r0, #0
    61d2:	d000      	beq.n	61d6 <_svfiprintf_r+0x11a>
    61d4:	9309      	str	r3, [sp, #36]	; 0x24
    61d6:	7823      	ldrb	r3, [r4, #0]
    61d8:	2b2e      	cmp	r3, #46	; 0x2e
    61da:	d11e      	bne.n	621a <_svfiprintf_r+0x15e>
    61dc:	7863      	ldrb	r3, [r4, #1]
    61de:	2b2a      	cmp	r3, #42	; 0x2a
    61e0:	d10a      	bne.n	61f8 <_svfiprintf_r+0x13c>
    61e2:	9b05      	ldr	r3, [sp, #20]
    61e4:	3402      	adds	r4, #2
    61e6:	1d1a      	adds	r2, r3, #4
    61e8:	681b      	ldr	r3, [r3, #0]
    61ea:	9205      	str	r2, [sp, #20]
    61ec:	2b00      	cmp	r3, #0
    61ee:	da01      	bge.n	61f4 <_svfiprintf_r+0x138>
    61f0:	2301      	movs	r3, #1
    61f2:	425b      	negs	r3, r3
    61f4:	9307      	str	r3, [sp, #28]
    61f6:	e010      	b.n	621a <_svfiprintf_r+0x15e>
    61f8:	2300      	movs	r3, #0
    61fa:	200a      	movs	r0, #10
    61fc:	001a      	movs	r2, r3
    61fe:	3401      	adds	r4, #1
    6200:	606b      	str	r3, [r5, #4]
    6202:	7821      	ldrb	r1, [r4, #0]
    6204:	3930      	subs	r1, #48	; 0x30
    6206:	2909      	cmp	r1, #9
    6208:	d804      	bhi.n	6214 <_svfiprintf_r+0x158>
    620a:	4342      	muls	r2, r0
    620c:	3401      	adds	r4, #1
    620e:	1852      	adds	r2, r2, r1
    6210:	2301      	movs	r3, #1
    6212:	e7f6      	b.n	6202 <_svfiprintf_r+0x146>
    6214:	2b00      	cmp	r3, #0
    6216:	d000      	beq.n	621a <_svfiprintf_r+0x15e>
    6218:	9207      	str	r2, [sp, #28]
    621a:	4e23      	ldr	r6, [pc, #140]	; (62a8 <_svfiprintf_r+0x1ec>)
    621c:	7821      	ldrb	r1, [r4, #0]
    621e:	2203      	movs	r2, #3
    6220:	0030      	movs	r0, r6
    6222:	f7fe fd11 	bl	4c48 <memchr>
    6226:	2800      	cmp	r0, #0
    6228:	d006      	beq.n	6238 <_svfiprintf_r+0x17c>
    622a:	2340      	movs	r3, #64	; 0x40
    622c:	1b80      	subs	r0, r0, r6
    622e:	4083      	lsls	r3, r0
    6230:	682a      	ldr	r2, [r5, #0]
    6232:	3401      	adds	r4, #1
    6234:	4313      	orrs	r3, r2
    6236:	602b      	str	r3, [r5, #0]
    6238:	7821      	ldrb	r1, [r4, #0]
    623a:	2206      	movs	r2, #6
    623c:	481b      	ldr	r0, [pc, #108]	; (62ac <_svfiprintf_r+0x1f0>)
    623e:	1c66      	adds	r6, r4, #1
    6240:	7629      	strb	r1, [r5, #24]
    6242:	f7fe fd01 	bl	4c48 <memchr>
    6246:	2800      	cmp	r0, #0
    6248:	d012      	beq.n	6270 <_svfiprintf_r+0x1b4>
    624a:	4b19      	ldr	r3, [pc, #100]	; (62b0 <_svfiprintf_r+0x1f4>)
    624c:	2b00      	cmp	r3, #0
    624e:	d106      	bne.n	625e <_svfiprintf_r+0x1a2>
    6250:	2207      	movs	r2, #7
    6252:	9b05      	ldr	r3, [sp, #20]
    6254:	3307      	adds	r3, #7
    6256:	4393      	bics	r3, r2
    6258:	3308      	adds	r3, #8
    625a:	9305      	str	r3, [sp, #20]
    625c:	e014      	b.n	6288 <_svfiprintf_r+0x1cc>
    625e:	ab05      	add	r3, sp, #20
    6260:	9300      	str	r3, [sp, #0]
    6262:	003a      	movs	r2, r7
    6264:	4b13      	ldr	r3, [pc, #76]	; (62b4 <_svfiprintf_r+0x1f8>)
    6266:	0029      	movs	r1, r5
    6268:	9802      	ldr	r0, [sp, #8]
    626a:	e000      	b.n	626e <_svfiprintf_r+0x1b2>
    626c:	bf00      	nop
    626e:	e007      	b.n	6280 <_svfiprintf_r+0x1c4>
    6270:	ab05      	add	r3, sp, #20
    6272:	9300      	str	r3, [sp, #0]
    6274:	003a      	movs	r2, r7
    6276:	4b0f      	ldr	r3, [pc, #60]	; (62b4 <_svfiprintf_r+0x1f8>)
    6278:	0029      	movs	r1, r5
    627a:	9802      	ldr	r0, [sp, #8]
    627c:	f7fe ff70 	bl	5160 <_printf_i>
    6280:	9003      	str	r0, [sp, #12]
    6282:	9b03      	ldr	r3, [sp, #12]
    6284:	3301      	adds	r3, #1
    6286:	d004      	beq.n	6292 <_svfiprintf_r+0x1d6>
    6288:	696b      	ldr	r3, [r5, #20]
    628a:	9a03      	ldr	r2, [sp, #12]
    628c:	189b      	adds	r3, r3, r2
    628e:	616b      	str	r3, [r5, #20]
    6290:	e735      	b.n	60fe <_svfiprintf_r+0x42>
    6292:	89bb      	ldrh	r3, [r7, #12]
    6294:	980b      	ldr	r0, [sp, #44]	; 0x2c
    6296:	065b      	lsls	r3, r3, #25
    6298:	d501      	bpl.n	629e <_svfiprintf_r+0x1e2>
    629a:	2001      	movs	r0, #1
    629c:	4240      	negs	r0, r0
    629e:	b01f      	add	sp, #124	; 0x7c
    62a0:	bdf0      	pop	{r4, r5, r6, r7, pc}
    62a2:	46c0      	nop			; (mov r8, r8)
    62a4:	00006c64 	.word	0x00006c64
    62a8:	00006c6a 	.word	0x00006c6a
    62ac:	00006c6e 	.word	0x00006c6e
    62b0:	00000000 	.word	0x00000000
    62b4:	00005ff9 	.word	0x00005ff9

000062b8 <_sungetc_r>:
    62b8:	b570      	push	{r4, r5, r6, lr}
    62ba:	000e      	movs	r6, r1
    62bc:	0014      	movs	r4, r2
    62be:	1c4b      	adds	r3, r1, #1
    62c0:	d102      	bne.n	62c8 <_sungetc_r+0x10>
    62c2:	2001      	movs	r0, #1
    62c4:	4240      	negs	r0, r0
    62c6:	e032      	b.n	632e <_sungetc_r+0x76>
    62c8:	8993      	ldrh	r3, [r2, #12]
    62ca:	2220      	movs	r2, #32
    62cc:	4393      	bics	r3, r2
    62ce:	6b62      	ldr	r2, [r4, #52]	; 0x34
    62d0:	81a3      	strh	r3, [r4, #12]
    62d2:	b2cd      	uxtb	r5, r1
    62d4:	6863      	ldr	r3, [r4, #4]
    62d6:	2a00      	cmp	r2, #0
    62d8:	d00e      	beq.n	62f8 <_sungetc_r+0x40>
    62da:	6ba2      	ldr	r2, [r4, #56]	; 0x38
    62dc:	4293      	cmp	r3, r2
    62de:	da05      	bge.n	62ec <_sungetc_r+0x34>
    62e0:	6823      	ldr	r3, [r4, #0]
    62e2:	3b01      	subs	r3, #1
    62e4:	6023      	str	r3, [r4, #0]
    62e6:	701e      	strb	r6, [r3, #0]
    62e8:	6863      	ldr	r3, [r4, #4]
    62ea:	e010      	b.n	630e <_sungetc_r+0x56>
    62ec:	0021      	movs	r1, r4
    62ee:	f7ff fcbb 	bl	5c68 <__submore>
    62f2:	2800      	cmp	r0, #0
    62f4:	d0f4      	beq.n	62e0 <_sungetc_r+0x28>
    62f6:	e7e4      	b.n	62c2 <_sungetc_r+0xa>
    62f8:	6921      	ldr	r1, [r4, #16]
    62fa:	6822      	ldr	r2, [r4, #0]
    62fc:	2900      	cmp	r1, #0
    62fe:	d008      	beq.n	6312 <_sungetc_r+0x5a>
    6300:	4291      	cmp	r1, r2
    6302:	d206      	bcs.n	6312 <_sungetc_r+0x5a>
    6304:	1e51      	subs	r1, r2, #1
    6306:	7808      	ldrb	r0, [r1, #0]
    6308:	4285      	cmp	r5, r0
    630a:	d102      	bne.n	6312 <_sungetc_r+0x5a>
    630c:	6021      	str	r1, [r4, #0]
    630e:	3301      	adds	r3, #1
    6310:	e00b      	b.n	632a <_sungetc_r+0x72>
    6312:	6423      	str	r3, [r4, #64]	; 0x40
    6314:	0023      	movs	r3, r4
    6316:	3344      	adds	r3, #68	; 0x44
    6318:	6363      	str	r3, [r4, #52]	; 0x34
    631a:	2303      	movs	r3, #3
    631c:	63a3      	str	r3, [r4, #56]	; 0x38
    631e:	0023      	movs	r3, r4
    6320:	3346      	adds	r3, #70	; 0x46
    6322:	63e2      	str	r2, [r4, #60]	; 0x3c
    6324:	701e      	strb	r6, [r3, #0]
    6326:	6023      	str	r3, [r4, #0]
    6328:	2301      	movs	r3, #1
    632a:	0028      	movs	r0, r5
    632c:	6063      	str	r3, [r4, #4]
    632e:	bd70      	pop	{r4, r5, r6, pc}

00006330 <__ssrefill_r>:
    6330:	b510      	push	{r4, lr}
    6332:	000c      	movs	r4, r1
    6334:	6b49      	ldr	r1, [r1, #52]	; 0x34
    6336:	2900      	cmp	r1, #0
    6338:	d00e      	beq.n	6358 <__ssrefill_r+0x28>
    633a:	0023      	movs	r3, r4
    633c:	3344      	adds	r3, #68	; 0x44
    633e:	4299      	cmp	r1, r3
    6340:	d001      	beq.n	6346 <__ssrefill_r+0x16>
    6342:	f7fe fcb3 	bl	4cac <_free_r>
    6346:	2000      	movs	r0, #0
    6348:	6c23      	ldr	r3, [r4, #64]	; 0x40
    634a:	6360      	str	r0, [r4, #52]	; 0x34
    634c:	6063      	str	r3, [r4, #4]
    634e:	4283      	cmp	r3, r0
    6350:	d002      	beq.n	6358 <__ssrefill_r+0x28>
    6352:	6be3      	ldr	r3, [r4, #60]	; 0x3c
    6354:	6023      	str	r3, [r4, #0]
    6356:	e009      	b.n	636c <__ssrefill_r+0x3c>
    6358:	6923      	ldr	r3, [r4, #16]
    635a:	2220      	movs	r2, #32
    635c:	6023      	str	r3, [r4, #0]
    635e:	2300      	movs	r3, #0
    6360:	2001      	movs	r0, #1
    6362:	6063      	str	r3, [r4, #4]
    6364:	89a3      	ldrh	r3, [r4, #12]
    6366:	4240      	negs	r0, r0
    6368:	4313      	orrs	r3, r2
    636a:	81a3      	strh	r3, [r4, #12]
    636c:	bd10      	pop	{r4, pc}
	...

00006370 <__ssvfiscanf_r>:
    6370:	b5f0      	push	{r4, r5, r6, r7, lr}
    6372:	4cb4      	ldr	r4, [pc, #720]	; (6644 <__ssvfiscanf_r+0x2d4>)
    6374:	000d      	movs	r5, r1
    6376:	44a5      	add	sp, r4
    6378:	9303      	str	r3, [sp, #12]
    637a:	2300      	movs	r3, #0
    637c:	9000      	str	r0, [sp, #0]
    637e:	9348      	str	r3, [sp, #288]	; 0x120
    6380:	9349      	str	r3, [sp, #292]	; 0x124
    6382:	2086      	movs	r0, #134	; 0x86
    6384:	ab05      	add	r3, sp, #20
    6386:	934a      	str	r3, [sp, #296]	; 0x128
    6388:	23be      	movs	r3, #190	; 0xbe
    638a:	0040      	lsls	r0, r0, #1
    638c:	9201      	str	r2, [sp, #4]
    638e:	a902      	add	r1, sp, #8
    6390:	4aad      	ldr	r2, [pc, #692]	; (6648 <__ssvfiscanf_r+0x2d8>)
    6392:	005b      	lsls	r3, r3, #1
    6394:	1809      	adds	r1, r1, r0
    6396:	50ca      	str	r2, [r1, r3]
    6398:	3304      	adds	r3, #4
    639a:	001e      	movs	r6, r3
    639c:	4aab      	ldr	r2, [pc, #684]	; (664c <__ssvfiscanf_r+0x2dc>)
    639e:	a902      	add	r1, sp, #8
    63a0:	1809      	adds	r1, r1, r0
    63a2:	50ca      	str	r2, [r1, r3]
    63a4:	9b01      	ldr	r3, [sp, #4]
    63a6:	781a      	ldrb	r2, [r3, #0]
    63a8:	2a00      	cmp	r2, #0
    63aa:	d100      	bne.n	63ae <__ssvfiscanf_r+0x3e>
    63ac:	e141      	b.n	6632 <__ssvfiscanf_r+0x2c2>
    63ae:	2108      	movs	r1, #8
    63b0:	4ca7      	ldr	r4, [pc, #668]	; (6650 <__ssvfiscanf_r+0x2e0>)
    63b2:	6823      	ldr	r3, [r4, #0]
    63b4:	189b      	adds	r3, r3, r2
    63b6:	785b      	ldrb	r3, [r3, #1]
    63b8:	400b      	ands	r3, r1
    63ba:	d023      	beq.n	6404 <__ssvfiscanf_r+0x94>
    63bc:	686b      	ldr	r3, [r5, #4]
    63be:	2b00      	cmp	r3, #0
    63c0:	dd11      	ble.n	63e6 <__ssvfiscanf_r+0x76>
    63c2:	682b      	ldr	r3, [r5, #0]
    63c4:	6821      	ldr	r1, [r4, #0]
    63c6:	781a      	ldrb	r2, [r3, #0]
    63c8:	188a      	adds	r2, r1, r2
    63ca:	2108      	movs	r1, #8
    63cc:	7852      	ldrb	r2, [r2, #1]
    63ce:	420a      	tst	r2, r1
    63d0:	d014      	beq.n	63fc <__ssvfiscanf_r+0x8c>
    63d2:	9a49      	ldr	r2, [sp, #292]	; 0x124
    63d4:	3301      	adds	r3, #1
    63d6:	9202      	str	r2, [sp, #8]
    63d8:	3201      	adds	r2, #1
    63da:	9249      	str	r2, [sp, #292]	; 0x124
    63dc:	686a      	ldr	r2, [r5, #4]
    63de:	602b      	str	r3, [r5, #0]
    63e0:	3a01      	subs	r2, #1
    63e2:	606a      	str	r2, [r5, #4]
    63e4:	e7ea      	b.n	63bc <__ssvfiscanf_r+0x4c>
    63e6:	2286      	movs	r2, #134	; 0x86
    63e8:	ab02      	add	r3, sp, #8
    63ea:	0052      	lsls	r2, r2, #1
    63ec:	189b      	adds	r3, r3, r2
    63ee:	599b      	ldr	r3, [r3, r6]
    63f0:	0029      	movs	r1, r5
    63f2:	9800      	ldr	r0, [sp, #0]
    63f4:	9302      	str	r3, [sp, #8]
    63f6:	4798      	blx	r3
    63f8:	2800      	cmp	r0, #0
    63fa:	d0e2      	beq.n	63c2 <__ssvfiscanf_r+0x52>
    63fc:	9f01      	ldr	r7, [sp, #4]
    63fe:	3701      	adds	r7, #1
    6400:	9701      	str	r7, [sp, #4]
    6402:	e7cf      	b.n	63a4 <__ssvfiscanf_r+0x34>
    6404:	9901      	ldr	r1, [sp, #4]
    6406:	0014      	movs	r4, r2
    6408:	1c4f      	adds	r7, r1, #1
    640a:	2a25      	cmp	r2, #37	; 0x25
    640c:	d14d      	bne.n	64aa <__ssvfiscanf_r+0x13a>
    640e:	9347      	str	r3, [sp, #284]	; 0x11c
    6410:	9345      	str	r3, [sp, #276]	; 0x114
    6412:	784b      	ldrb	r3, [r1, #1]
    6414:	2b2a      	cmp	r3, #42	; 0x2a
    6416:	d102      	bne.n	641e <__ssvfiscanf_r+0xae>
    6418:	3b1a      	subs	r3, #26
    641a:	9345      	str	r3, [sp, #276]	; 0x114
    641c:	3701      	adds	r7, #1
    641e:	003c      	movs	r4, r7
    6420:	220a      	movs	r2, #10
    6422:	7821      	ldrb	r1, [r4, #0]
    6424:	000b      	movs	r3, r1
    6426:	3b30      	subs	r3, #48	; 0x30
    6428:	2b09      	cmp	r3, #9
    642a:	d807      	bhi.n	643c <__ssvfiscanf_r+0xcc>
    642c:	9b47      	ldr	r3, [sp, #284]	; 0x11c
    642e:	3401      	adds	r4, #1
    6430:	9301      	str	r3, [sp, #4]
    6432:	4353      	muls	r3, r2
    6434:	3b30      	subs	r3, #48	; 0x30
    6436:	1859      	adds	r1, r3, r1
    6438:	9147      	str	r1, [sp, #284]	; 0x11c
    643a:	e7f2      	b.n	6422 <__ssvfiscanf_r+0xb2>
    643c:	4f85      	ldr	r7, [pc, #532]	; (6654 <__ssvfiscanf_r+0x2e4>)
    643e:	2203      	movs	r2, #3
    6440:	0038      	movs	r0, r7
    6442:	f7fe fc01 	bl	4c48 <memchr>
    6446:	2800      	cmp	r0, #0
    6448:	d007      	beq.n	645a <__ssvfiscanf_r+0xea>
    644a:	2301      	movs	r3, #1
    644c:	1bc0      	subs	r0, r0, r7
    644e:	4083      	lsls	r3, r0
    6450:	9a45      	ldr	r2, [sp, #276]	; 0x114
    6452:	3401      	adds	r4, #1
    6454:	4313      	orrs	r3, r2
    6456:	9201      	str	r2, [sp, #4]
    6458:	9345      	str	r3, [sp, #276]	; 0x114
    645a:	1c67      	adds	r7, r4, #1
    645c:	7824      	ldrb	r4, [r4, #0]
    645e:	2c67      	cmp	r4, #103	; 0x67
    6460:	d810      	bhi.n	6484 <__ssvfiscanf_r+0x114>
    6462:	2c65      	cmp	r4, #101	; 0x65
    6464:	d300      	bcc.n	6468 <__ssvfiscanf_r+0xf8>
    6466:	e083      	b.n	6570 <__ssvfiscanf_r+0x200>
    6468:	2c5b      	cmp	r4, #91	; 0x5b
    646a:	d059      	beq.n	6520 <__ssvfiscanf_r+0x1b0>
    646c:	d805      	bhi.n	647a <__ssvfiscanf_r+0x10a>
    646e:	2c00      	cmp	r4, #0
    6470:	d100      	bne.n	6474 <__ssvfiscanf_r+0x104>
    6472:	e0e0      	b.n	6636 <__ssvfiscanf_r+0x2c6>
    6474:	2c25      	cmp	r4, #37	; 0x25
    6476:	d018      	beq.n	64aa <__ssvfiscanf_r+0x13a>
    6478:	e07c      	b.n	6574 <__ssvfiscanf_r+0x204>
    647a:	2c63      	cmp	r4, #99	; 0x63
    647c:	d05e      	beq.n	653c <__ssvfiscanf_r+0x1cc>
    647e:	2c64      	cmp	r4, #100	; 0x64
    6480:	d045      	beq.n	650e <__ssvfiscanf_r+0x19e>
    6482:	e077      	b.n	6574 <__ssvfiscanf_r+0x204>
    6484:	2c70      	cmp	r4, #112	; 0x70
    6486:	d033      	beq.n	64f0 <__ssvfiscanf_r+0x180>
    6488:	d807      	bhi.n	649a <__ssvfiscanf_r+0x12a>
    648a:	2c6e      	cmp	r4, #110	; 0x6e
    648c:	d05e      	beq.n	654c <__ssvfiscanf_r+0x1dc>
    648e:	d840      	bhi.n	6512 <__ssvfiscanf_r+0x1a2>
    6490:	2c69      	cmp	r4, #105	; 0x69
    6492:	d16f      	bne.n	6574 <__ssvfiscanf_r+0x204>
    6494:	2300      	movs	r3, #0
    6496:	9346      	str	r3, [sp, #280]	; 0x118
    6498:	e040      	b.n	651c <__ssvfiscanf_r+0x1ac>
    649a:	2c75      	cmp	r4, #117	; 0x75
    649c:	d037      	beq.n	650e <__ssvfiscanf_r+0x19e>
    649e:	2c78      	cmp	r4, #120	; 0x78
    64a0:	d02c      	beq.n	64fc <__ssvfiscanf_r+0x18c>
    64a2:	2c73      	cmp	r4, #115	; 0x73
    64a4:	d166      	bne.n	6574 <__ssvfiscanf_r+0x204>
    64a6:	2302      	movs	r3, #2
    64a8:	e046      	b.n	6538 <__ssvfiscanf_r+0x1c8>
    64aa:	686b      	ldr	r3, [r5, #4]
    64ac:	2b00      	cmp	r3, #0
    64ae:	dd0e      	ble.n	64ce <__ssvfiscanf_r+0x15e>
    64b0:	682b      	ldr	r3, [r5, #0]
    64b2:	781a      	ldrb	r2, [r3, #0]
    64b4:	4294      	cmp	r4, r2
    64b6:	d000      	beq.n	64ba <__ssvfiscanf_r+0x14a>
    64b8:	e0bb      	b.n	6632 <__ssvfiscanf_r+0x2c2>
    64ba:	3301      	adds	r3, #1
    64bc:	686a      	ldr	r2, [r5, #4]
    64be:	602b      	str	r3, [r5, #0]
    64c0:	9b49      	ldr	r3, [sp, #292]	; 0x124
    64c2:	3a01      	subs	r2, #1
    64c4:	9301      	str	r3, [sp, #4]
    64c6:	3301      	adds	r3, #1
    64c8:	606a      	str	r2, [r5, #4]
    64ca:	9349      	str	r3, [sp, #292]	; 0x124
    64cc:	e798      	b.n	6400 <__ssvfiscanf_r+0x90>
    64ce:	2286      	movs	r2, #134	; 0x86
    64d0:	ab02      	add	r3, sp, #8
    64d2:	0052      	lsls	r2, r2, #1
    64d4:	189b      	adds	r3, r3, r2
    64d6:	599b      	ldr	r3, [r3, r6]
    64d8:	0029      	movs	r1, r5
    64da:	9800      	ldr	r0, [sp, #0]
    64dc:	9301      	str	r3, [sp, #4]
    64de:	4798      	blx	r3
    64e0:	2800      	cmp	r0, #0
    64e2:	d0e5      	beq.n	64b0 <__ssvfiscanf_r+0x140>
    64e4:	9848      	ldr	r0, [sp, #288]	; 0x120
    64e6:	2800      	cmp	r0, #0
    64e8:	d000      	beq.n	64ec <__ssvfiscanf_r+0x17c>
    64ea:	e09e      	b.n	662a <__ssvfiscanf_r+0x2ba>
    64ec:	3801      	subs	r0, #1
    64ee:	e0a4      	b.n	663a <__ssvfiscanf_r+0x2ca>
    64f0:	9b45      	ldr	r3, [sp, #276]	; 0x114
    64f2:	9301      	str	r3, [sp, #4]
    64f4:	2320      	movs	r3, #32
    64f6:	9a01      	ldr	r2, [sp, #4]
    64f8:	4313      	orrs	r3, r2
    64fa:	9345      	str	r3, [sp, #276]	; 0x114
    64fc:	9b45      	ldr	r3, [sp, #276]	; 0x114
    64fe:	9301      	str	r3, [sp, #4]
    6500:	2380      	movs	r3, #128	; 0x80
    6502:	9a01      	ldr	r2, [sp, #4]
    6504:	009b      	lsls	r3, r3, #2
    6506:	4313      	orrs	r3, r2
    6508:	9345      	str	r3, [sp, #276]	; 0x114
    650a:	2310      	movs	r3, #16
    650c:	e002      	b.n	6514 <__ssvfiscanf_r+0x1a4>
    650e:	230a      	movs	r3, #10
    6510:	e000      	b.n	6514 <__ssvfiscanf_r+0x1a4>
    6512:	2308      	movs	r3, #8
    6514:	9346      	str	r3, [sp, #280]	; 0x118
    6516:	2304      	movs	r3, #4
    6518:	2c6e      	cmp	r4, #110	; 0x6e
    651a:	dc0d      	bgt.n	6538 <__ssvfiscanf_r+0x1c8>
    651c:	2303      	movs	r3, #3
    651e:	e00b      	b.n	6538 <__ssvfiscanf_r+0x1c8>
    6520:	0039      	movs	r1, r7
    6522:	a805      	add	r0, sp, #20
    6524:	f7ff f90c 	bl	5740 <__sccl>
    6528:	9b45      	ldr	r3, [sp, #276]	; 0x114
    652a:	0007      	movs	r7, r0
    652c:	9301      	str	r3, [sp, #4]
    652e:	2340      	movs	r3, #64	; 0x40
    6530:	9a01      	ldr	r2, [sp, #4]
    6532:	4313      	orrs	r3, r2
    6534:	9345      	str	r3, [sp, #276]	; 0x114
    6536:	2301      	movs	r3, #1
    6538:	934b      	str	r3, [sp, #300]	; 0x12c
    653a:	e01f      	b.n	657c <__ssvfiscanf_r+0x20c>
    653c:	9b45      	ldr	r3, [sp, #276]	; 0x114
    653e:	9301      	str	r3, [sp, #4]
    6540:	2340      	movs	r3, #64	; 0x40
    6542:	9a01      	ldr	r2, [sp, #4]
    6544:	4313      	orrs	r3, r2
    6546:	9345      	str	r3, [sp, #276]	; 0x114
    6548:	2300      	movs	r3, #0
    654a:	e7f5      	b.n	6538 <__ssvfiscanf_r+0x1c8>
    654c:	9945      	ldr	r1, [sp, #276]	; 0x114
    654e:	06cb      	lsls	r3, r1, #27
    6550:	d500      	bpl.n	6554 <__ssvfiscanf_r+0x1e4>
    6552:	e755      	b.n	6400 <__ssvfiscanf_r+0x90>
    6554:	9b03      	ldr	r3, [sp, #12]
    6556:	9a49      	ldr	r2, [sp, #292]	; 0x124
    6558:	07c8      	lsls	r0, r1, #31
    655a:	d504      	bpl.n	6566 <__ssvfiscanf_r+0x1f6>
    655c:	1d19      	adds	r1, r3, #4
    655e:	9103      	str	r1, [sp, #12]
    6560:	681b      	ldr	r3, [r3, #0]
    6562:	801a      	strh	r2, [r3, #0]
    6564:	e74c      	b.n	6400 <__ssvfiscanf_r+0x90>
    6566:	1d19      	adds	r1, r3, #4
    6568:	9103      	str	r1, [sp, #12]
    656a:	681b      	ldr	r3, [r3, #0]
    656c:	601a      	str	r2, [r3, #0]
    656e:	e747      	b.n	6400 <__ssvfiscanf_r+0x90>
    6570:	2305      	movs	r3, #5
    6572:	e7e1      	b.n	6538 <__ssvfiscanf_r+0x1c8>
    6574:	2303      	movs	r3, #3
    6576:	934b      	str	r3, [sp, #300]	; 0x12c
    6578:	3307      	adds	r3, #7
    657a:	9346      	str	r3, [sp, #280]	; 0x118
    657c:	686b      	ldr	r3, [r5, #4]
    657e:	2b00      	cmp	r3, #0
    6580:	dd04      	ble.n	658c <__ssvfiscanf_r+0x21c>
    6582:	9b45      	ldr	r3, [sp, #276]	; 0x114
    6584:	9301      	str	r3, [sp, #4]
    6586:	065b      	lsls	r3, r3, #25
    6588:	d517      	bpl.n	65ba <__ssvfiscanf_r+0x24a>
    658a:	e01f      	b.n	65cc <__ssvfiscanf_r+0x25c>
    658c:	2286      	movs	r2, #134	; 0x86
    658e:	ab02      	add	r3, sp, #8
    6590:	0052      	lsls	r2, r2, #1
    6592:	189b      	adds	r3, r3, r2
    6594:	599b      	ldr	r3, [r3, r6]
    6596:	0029      	movs	r1, r5
    6598:	9800      	ldr	r0, [sp, #0]
    659a:	9301      	str	r3, [sp, #4]
    659c:	4798      	blx	r3
    659e:	2800      	cmp	r0, #0
    65a0:	d0ef      	beq.n	6582 <__ssvfiscanf_r+0x212>
    65a2:	e79f      	b.n	64e4 <__ssvfiscanf_r+0x174>
    65a4:	9a49      	ldr	r2, [sp, #292]	; 0x124
    65a6:	9201      	str	r2, [sp, #4]
    65a8:	3201      	adds	r2, #1
    65aa:	9249      	str	r2, [sp, #292]	; 0x124
    65ac:	686a      	ldr	r2, [r5, #4]
    65ae:	3a01      	subs	r2, #1
    65b0:	606a      	str	r2, [r5, #4]
    65b2:	2a00      	cmp	r2, #0
    65b4:	dd14      	ble.n	65e0 <__ssvfiscanf_r+0x270>
    65b6:	3301      	adds	r3, #1
    65b8:	602b      	str	r3, [r5, #0]
    65ba:	682b      	ldr	r3, [r5, #0]
    65bc:	4924      	ldr	r1, [pc, #144]	; (6650 <__ssvfiscanf_r+0x2e0>)
    65be:	781a      	ldrb	r2, [r3, #0]
    65c0:	6809      	ldr	r1, [r1, #0]
    65c2:	188a      	adds	r2, r1, r2
    65c4:	2108      	movs	r1, #8
    65c6:	7852      	ldrb	r2, [r2, #1]
    65c8:	420a      	tst	r2, r1
    65ca:	d1eb      	bne.n	65a4 <__ssvfiscanf_r+0x234>
    65cc:	9b4b      	ldr	r3, [sp, #300]	; 0x12c
    65ce:	2b02      	cmp	r3, #2
    65d0:	dc12      	bgt.n	65f8 <__ssvfiscanf_r+0x288>
    65d2:	ab03      	add	r3, sp, #12
    65d4:	002a      	movs	r2, r5
    65d6:	a945      	add	r1, sp, #276	; 0x114
    65d8:	9800      	ldr	r0, [sp, #0]
    65da:	f7fe fee3 	bl	53a4 <_scanf_chars>
    65de:	e01e      	b.n	661e <__ssvfiscanf_r+0x2ae>
    65e0:	2286      	movs	r2, #134	; 0x86
    65e2:	ab02      	add	r3, sp, #8
    65e4:	0052      	lsls	r2, r2, #1
    65e6:	189b      	adds	r3, r3, r2
    65e8:	599b      	ldr	r3, [r3, r6]
    65ea:	0029      	movs	r1, r5
    65ec:	9800      	ldr	r0, [sp, #0]
    65ee:	9301      	str	r3, [sp, #4]
    65f0:	4798      	blx	r3
    65f2:	2800      	cmp	r0, #0
    65f4:	d0e1      	beq.n	65ba <__ssvfiscanf_r+0x24a>
    65f6:	e775      	b.n	64e4 <__ssvfiscanf_r+0x174>
    65f8:	2b04      	cmp	r3, #4
    65fa:	dc06      	bgt.n	660a <__ssvfiscanf_r+0x29a>
    65fc:	ab03      	add	r3, sp, #12
    65fe:	002a      	movs	r2, r5
    6600:	a945      	add	r1, sp, #276	; 0x114
    6602:	9800      	ldr	r0, [sp, #0]
    6604:	f7fe ff30 	bl	5468 <_scanf_i>
    6608:	e009      	b.n	661e <__ssvfiscanf_r+0x2ae>
    660a:	4b13      	ldr	r3, [pc, #76]	; (6658 <__ssvfiscanf_r+0x2e8>)
    660c:	2b00      	cmp	r3, #0
    660e:	d100      	bne.n	6612 <__ssvfiscanf_r+0x2a2>
    6610:	e6f6      	b.n	6400 <__ssvfiscanf_r+0x90>
    6612:	ab03      	add	r3, sp, #12
    6614:	002a      	movs	r2, r5
    6616:	a945      	add	r1, sp, #276	; 0x114
    6618:	9800      	ldr	r0, [sp, #0]
    661a:	e000      	b.n	661e <__ssvfiscanf_r+0x2ae>
    661c:	bf00      	nop
    661e:	2801      	cmp	r0, #1
    6620:	d007      	beq.n	6632 <__ssvfiscanf_r+0x2c2>
    6622:	2802      	cmp	r0, #2
    6624:	d000      	beq.n	6628 <__ssvfiscanf_r+0x2b8>
    6626:	e6eb      	b.n	6400 <__ssvfiscanf_r+0x90>
    6628:	e75c      	b.n	64e4 <__ssvfiscanf_r+0x174>
    662a:	89ab      	ldrh	r3, [r5, #12]
    662c:	065b      	lsls	r3, r3, #25
    662e:	d504      	bpl.n	663a <__ssvfiscanf_r+0x2ca>
    6630:	e001      	b.n	6636 <__ssvfiscanf_r+0x2c6>
    6632:	9848      	ldr	r0, [sp, #288]	; 0x120
    6634:	e001      	b.n	663a <__ssvfiscanf_r+0x2ca>
    6636:	2001      	movs	r0, #1
    6638:	4240      	negs	r0, r0
    663a:	23a7      	movs	r3, #167	; 0xa7
    663c:	009b      	lsls	r3, r3, #2
    663e:	449d      	add	sp, r3
    6640:	bdf0      	pop	{r4, r5, r6, r7, pc}
    6642:	46c0      	nop			; (mov r8, r8)
    6644:	fffffd64 	.word	0xfffffd64
    6648:	000062b9 	.word	0x000062b9
    664c:	00006331 	.word	0x00006331
    6650:	1ffff134 	.word	0x1ffff134
    6654:	00006c6a 	.word	0x00006c6a
    6658:	00000000 	.word	0x00000000

0000665c <_read_r>:
    665c:	b570      	push	{r4, r5, r6, lr}
    665e:	0005      	movs	r5, r0
    6660:	0008      	movs	r0, r1
    6662:	0011      	movs	r1, r2
    6664:	2200      	movs	r2, #0
    6666:	4c06      	ldr	r4, [pc, #24]	; (6680 <_read_r+0x24>)
    6668:	6022      	str	r2, [r4, #0]
    666a:	001a      	movs	r2, r3
    666c:	f7fd fb90 	bl	3d90 <_read>
    6670:	1c43      	adds	r3, r0, #1
    6672:	d103      	bne.n	667c <_read_r+0x20>
    6674:	6823      	ldr	r3, [r4, #0]
    6676:	2b00      	cmp	r3, #0
    6678:	d000      	beq.n	667c <_read_r+0x20>
    667a:	602b      	str	r3, [r5, #0]
    667c:	bd70      	pop	{r4, r5, r6, pc}
    667e:	46c0      	nop			; (mov r8, r8)
    6680:	1ffff904 	.word	0x1ffff904

00006684 <_malloc_usable_size_r>:
    6684:	1f0b      	subs	r3, r1, #4
    6686:	681a      	ldr	r2, [r3, #0]
    6688:	1f10      	subs	r0, r2, #4
    668a:	2a00      	cmp	r2, #0
    668c:	da04      	bge.n	6698 <_malloc_usable_size_r+0x14>
    668e:	1889      	adds	r1, r1, r2
    6690:	3904      	subs	r1, #4
    6692:	680b      	ldr	r3, [r1, #0]
    6694:	18d0      	adds	r0, r2, r3
    6696:	3804      	subs	r0, #4
    6698:	4770      	bx	lr
	...

0000669c <_init>:
    669c:	b5f8      	push	{r3, r4, r5, r6, r7, lr}
    669e:	46c0      	nop			; (mov r8, r8)
    66a0:	bcf8      	pop	{r3, r4, r5, r6, r7}
    66a2:	bc08      	pop	{r3}
    66a4:	469e      	mov	lr, r3
    66a6:	4770      	bx	lr

000066a8 <_fini>:
    66a8:	b5f8      	push	{r3, r4, r5, r6, r7, lr}
    66aa:	46c0      	nop			; (mov r8, r8)
    66ac:	bcf8      	pop	{r3, r4, r5, r6, r7}
    66ae:	bc08      	pop	{r3}
    66b0:	469e      	mov	lr, r3
    66b2:	4770      	bx	lr

000066b4 <vtable for std_msgs::Time>:
	...
    66bc:	04c5 0000 04ed 0000 0531 0000 0539 0000     ........1...9...

000066cc <vtable for rosserial_msgs::TopicInfo>:
	...
    66d4:	0701 0000 07d5 0000 0541 0000 0549 0000     ........A...I...

000066e4 <vtable for rosserial_msgs::Log>:
	...
    66ec:	06d1 0000 079d 0000 0551 0000 0559 0000     ........Q...Y...

000066fc <vtable for rosserial_msgs::RequestParamResponse>:
	...
    6704:	05d1 0000 0891 0000 0561 0000 0569 0000     ........a...i...

00006714 <vtable for std_msgs::Empty>:
	...
    671c:	0571 0000 0575 0000 0579 0000 0581 0000     q...u...y.......

0000672c <vtable for ros::NodeHandle_<MbedHardware, 25, 25, 512, 512>>:
	...
    6734:	0a1d 0000 1d79 0000 05c5 0000               ....y.......

00006740 <vtable for ros::Subscriber<std_msgs::Empty>>:
	...
    6748:	05a5 0000 05b1 0000 05b5 0000 05bd 0000     ................
    6758:	7473 5f64 736d 7367 542f 6d69 0065 0000     std_msgs/Time...
    6768:	6463 3137 3636 3763 6334 3535 6332 3133     cd7166c74c552c31
    6778:	6631 6362 3263 6566 6135 6237 3263 3938     1fbcc2fe5a7bc289
    6788:	0000 0000 6f72 7373 7265 6169 5f6c 736d     ....rosserial_ms
    6798:	7367 542f 706f 6369 6e49 6f66 0000 0000     gs/TopicInfo....
    67a8:	6130 3564 6631 3838 6366 3434 3938 6632     0ad51f88fc44892f
    67b8:	6338 3031 3836 3034 3737 3436 3036 3530     8c10684077646005
    67c8:	0000 0000 6f72 7373 7265 6169 5f6c 736d     ....rosserial_ms
    67d8:	7367 4c2f 676f 0000 3131 6261 3764 3133     gs/Log..11abd731
    67e8:	3263 3935 3333 3632 6331 3664 3831 6233     c25933261cd6183b
    67f8:	3164 6432 3236 3539 0000 0000 6639 6530     d12d6295....9f0e
    6808:	3839 6462 3661 3935 3138 3839 6436 6664     98bda65981986ddf
    6818:	3335 6661 3761 3461 6530 3934 0000 0000     53afa7a40e49....
    6828:	7473 5f64 736d 7367 452f 706d 7974 0000     std_msgs/Empty..
    6838:	3464 6431 6338 3964 6638 3030 3262 3430     d41d8cd98f00b204
    6848:	3965 3038 3930 3839 6365 3866 3234 6537     e9800998ecf8427e
    6858:	0000 0000 654d 7373 6761 2065 7266 6d6f     ....Message from
    6868:	6420 7665 6369 2065 7264 706f 6570 3a64      device dropped:
    6878:	6d20 7365 6173 6567 6c20 7261 6567 2072      message larger 
    6888:	6874 6e61 6220 6675 6566 2e72 0000 0000     than buffer.....
    6898:	6f74 6767 656c 6c5f 6465 0000               toggle_led..

000068a4 <rosserial_msgs::REQUESTPARAM>:
    68a4:	6f72 7373 7265 6169 5f6c 736d 7367 522f     rosserial_msgs/R
    68b4:	7165 6575 7473 6150 6172 006d               equestParam.

000068c0 <vtable for AjK::MODSERIAL>:
	...
    68c8:	27cd 0000 2851 0000 2885 0000 28a1 0000     .'..Q(...(...(..
    68d8:	ffc0 ffff 0000 0000 405d 0000 40b9 0000     ........]@...@..
    68e8:	4089 0000 40b9 0000 40b5 0000 40b9 0000     .@...@...@...@..
    68f8:	40bd 0000 2831 0000 2875 0000 28ad 0000     .@..1(..u(...(..
    6908:	2891 0000 ffbc ffff 0000 0000 2841 0000     .(..........A(..
    6918:	2865 0000 4f4d 5344 5245 4149 204c 756d     e(..MODSERIAL mu
    6928:	7473 6820 7661 2065 2061 6564 6966 656e     st have a define
    6938:	2064 4155 5452 7420 206f 7566 636e 6974     d UART to functi
    6948:	6e6f 002e 6f63 6c75 2064 6f6e 2074 6970     on..could not pi
    6958:	6f6e 7475 0000 0000 6970 6d6e 7061 6d20     nout....pinmap m
    6968:	7369 6d2d 7461 6863 0000 0000 6970 6d6e     is-match....pinm
    6978:	7061 6e20 746f 6620 756f 646e 6620 726f     ap not found for
    6988:	7020 7265 7069 6568 6172 006c 6970 6d6e      peripheral.pinm
    6998:	7061 6e20 746f 6620 756f 646e 6620 726f     ap not found for
    69a8:	6620 6e75 7463 6f69 006e 0000                function...

000069b4 <us_interface>:
    69b4:	3301 0000 331d 0000 3349 0000 3359 0000     .3...3..I3..Y3..
    69c4:	335d 0000                                   ]3..

000069c8 <us_data>:
    69c8:	69b4 0000 f7c8 1fff                         .i......

000069d0 <PinMap_UART_RX>:
    69d0:	200c 0000 b000 4006 0003 0000 0004 0000     . .....@........
    69e0:	a000 4006 0002 0000 3010 0000 c000 4006     ...@.....0.....@
    69f0:	0003 0000 3008 0000 c000 4006 0003 0000     .....0.....@....
    6a00:	3018 0000 a000 4006 0003 0000 405c 0000     .0.....@....\@..
    6a10:	c000 4006 0004 0000 4054 0000 a000 4006     ...@....T@.....@
    6a20:	0004 0000 4004 0000 b000 4006 0003 0000     .....@.....@....
    6a30:	ffff 0000 ffff ffff 0000 0000               ............

00006a3c <PinMap_UART_TX>:
    6a3c:	2010 0000 b000 4006 0003 0000 0008 0000     . .....@........
    6a4c:	a000 4006 0002 0000 3014 0000 c000 4006     ...@.....0.....@
    6a5c:	0003 0000 300c 0000 c000 4006 0003 0000     .....0.....@....
    6a6c:	301c 0000 a000 4006 0003 0000 4050 0000     .0.....@....P@..
    6a7c:	a000 4006 0004 0000 4058 0000 c000 4006     ...@....X@.....@
    6a8c:	0004 0000 4000 0000 b000 4006 0003 0000     .....@.....@....
    6a9c:	ffff 0000 ffff ffff 0000 0000               ............

00006aa8 <vtable for mbed::FileBase>:
	...
    6ab0:	39bd 0000 39f1 0000                         .9...9..

00006ab8 <vtable for mbed::FileLike>:
	...
    6ac0:	25a5 0000 25a5 0000 25a5 0000 25a5 0000     .%...%...%...%..
    6ad0:	25a5 0000 25a5 0000 3a99 0000 0000 0000     .%...%...:......
    6ae0:	0000 0000 fffc ffff 0000 0000 0000 0000     ................
    6af0:	0000 0000                                   ....

00006af4 <__stdin_name>:
    6af4:	732f 6474 6e69 0000                         /stdin..

00006afc <__stderr_name>:
    6afc:	732f 6474 7265 0072                         /stderr.

00006b04 <__stdout_name>:
    6b04:	732f 6474 756f 0074                         /stdout.

00006b0c <vtable for mbed::FileHandle>:
	...
    6b14:	25a5 0000 25a5 0000 25a5 0000 25a5 0000     .%...%...%...%..
    6b24:	25a5 0000 25a5 0000 3a99 0000 0000 0000     .%...%...:......
    6b34:	0000 0000 253a 0070 7845 6563 7470 6f69     ....:%p.Exceptio
    6b44:	006e 0000                                   n...

00006b48 <vtable for mbed::SerialBase>:
	...
    6b50:	27bd 0000 27c1 0000                         .'...'..

00006b58 <vtable for mbed::Serial>:
	...
    6b60:	3f9d 0000 3fe1 0000 3f6d 0000 3f85 0000     .?...?..m?...?..
    6b70:	ffc0 ffff 0000 0000 405d 0000 40b9 0000     ........]@...@..
    6b80:	4089 0000 40b9 0000 40b5 0000 40b9 0000     .@...@...@...@..
    6b90:	40bd 0000 3fc1 0000 400d 0000 3f8d 0000     .@...?...@...?..
    6ba0:	3f75 0000 ffbc ffff 0000 0000 3fd1 0000     u?...........?..
    6bb0:	401d 0000                                   .@..

00006bb4 <vtable for mbed::Stream>:
	...
    6bbc:	405d 0000 40b9 0000 4089 0000 40b9 0000     ]@...@...@...@..
    6bcc:	40b5 0000 40b9 0000 40bd 0000 0000 0000     .@...@...@......
    6bdc:	0000 0000 25a5 0000 25a5 0000 fffc ffff     .....%...%......
	...
    6bf8:	2b77 0000                                   w+..

00006bfc <__sf_fake_stdin>:
	...

00006c1c <__sf_fake_stdout>:
	...

00006c3c <__sf_fake_stderr>:
	...
    6c5c:	0043 0000                                   C...

00006c60 <_global_impure_ptr>:
    6c60:	f0d0 1fff 2d23 2b30 0020 6c68 004c 6665     ....#-0+ .hlL.ef
    6c70:	4567 4746 3000 3231 3433 3635 3837 4139     gEFG.0123456789A
    6c80:	4342 4544 0046 3130 3332 3534 3736 3938     BCDEF.0123456789
    6c90:	6261 6463 6665 0000 6cb6 0000 6cb9 0000     abcdef...l...l..
    6ca0:	6cbc 0000 2d41 6146 662d 3938 3130 3332     .l..A-Fa-f890123
    6cb0:	3534 3736 005d 2d2b 3000 0030 5878 0000          4567].+-.00.xX.

00006cbf <_ctype_>:
    6cbf:	2000 2020 2020 2020 2020 2828 2828 2028     .         ((((( 
    6ccf:	2020 2020 2020 2020 2020 2020 2020 2020                     
    6cdf:	8820 1010 1010 1010 1010 1010 1010 1010      ...............
    6cef:	0410 0404 0404 0404 0404 1004 1010 1010     ................
    6cff:	1010 4141 4141 4141 0101 0101 0101 0101     ..AAAAAA........
    6d0f:	0101 0101 0101 0101 0101 0101 1010 1010     ................
    6d1f:	1010 4242 4242 4242 0202 0202 0202 0202     ..BBBBBB........
    6d2f:	0202 0202 0202 0202 0202 0202 1010 1010     ................
    6d3f:	0020 0000 0000 0000 0000 0000 0000 0000      ...............
	...

00006dc0 <__EH_FRAME_BEGIN__>:
    6dc0:	0000 0000                                   ....
