
KL25Z/rosserial_mbed_Blink.elf:     file format elf32-littlearm
architecture: arm, flags 0x00000112:
EXEC_P, HAS_SYMS, D_PAGED
start address 0x000000c1


Disassembly of section .isr_vector:

00000000 <__isr_vector>:
   0:	20003000 	.word	0x20003000
   4:	000000c1 	.word	0x000000c1
   8:	000033ed 	.word	0x000033ed
   c:	000041a7 	.word	0x000041a7
	...
  2c:	000041a9 	.word	0x000041a9
	...
  38:	000041ab 	.word	0x000041ab
  3c:	000041ad 	.word	0x000041ad
  40:	000041af 	.word	0x000041af
  44:	000041af 	.word	0x000041af
  48:	000041af 	.word	0x000041af
  4c:	000041af 	.word	0x000041af
  50:	000041af 	.word	0x000041af
  54:	000041af 	.word	0x000041af
  58:	000041af 	.word	0x000041af
  5c:	000041af 	.word	0x000041af
  60:	000041af 	.word	0x000041af
  64:	000041af 	.word	0x000041af
  68:	000041af 	.word	0x000041af
  6c:	000041af 	.word	0x000041af
  70:	000041af 	.word	0x000041af
  74:	000041af 	.word	0x000041af
  78:	000041af 	.word	0x000041af
  7c:	000041af 	.word	0x000041af
  80:	000041af 	.word	0x000041af
  84:	000041af 	.word	0x000041af
  88:	000041af 	.word	0x000041af
  8c:	000041af 	.word	0x000041af
  90:	000041af 	.word	0x000041af
  94:	000041af 	.word	0x000041af
  98:	000041af 	.word	0x000041af
  9c:	000041af 	.word	0x000041af
  a0:	000041af 	.word	0x000041af
  a4:	000041af 	.word	0x000041af
  a8:	000041af 	.word	0x000041af
  ac:	000041af 	.word	0x000041af
  b0:	000041af 	.word	0x000041af
  b4:	000041af 	.word	0x000041af
  b8:	000041af 	.word	0x000041af
  bc:	000041af 	.word	0x000041af

000000c0 <Reset_Handler>:
  c0:	4907      	ldr	r1, [pc, #28]	; (e0 <Reset_Handler+0x20>)
  c2:	4a08      	ldr	r2, [pc, #32]	; (e4 <Reset_Handler+0x24>)
  c4:	4b08      	ldr	r3, [pc, #32]	; (e8 <Reset_Handler+0x28>)
  c6:	1a9b      	subs	r3, r3, r2
  c8:	dd05      	ble.n	d6 <Reset_Handler+0x16>
  ca:	2400      	movs	r4, #0
  cc:	5908      	ldr	r0, [r1, r4]
  ce:	5110      	str	r0, [r2, r4]
  d0:	3404      	adds	r4, #4
  d2:	429c      	cmp	r4, r3
  d4:	dbfa      	blt.n	cc <Reset_Handler+0xc>
  d6:	4805      	ldr	r0, [pc, #20]	; (ec <Reset_Handler+0x2c>)
  d8:	4780      	blx	r0
  da:	4805      	ldr	r0, [pc, #20]	; (f0 <Reset_Handler+0x30>)
  dc:	4700      	bx	r0
  de:	0000      	.short	0x0000
  e0:	00006dc4 	.word	0x00006dc4
  e4:	1ffff0c0 	.word	0x1ffff0c0
  e8:	1ffff144 	.word	0x1ffff144
  ec:	00002ef9 	.word	0x00002ef9
  f0:	00002549 	.word	0x00002549

Disassembly of section .text:

00000410 <deregister_tm_clones>:
     410:	4b05      	ldr	r3, [pc, #20]	; (428 <deregister_tm_clones+0x18>)
     412:	4806      	ldr	r0, [pc, #24]	; (42c <deregister_tm_clones+0x1c>)
     414:	3303      	adds	r3, #3
     416:	b510      	push	{r4, lr}
     418:	1a1b      	subs	r3, r3, r0
     41a:	2b06      	cmp	r3, #6
     41c:	d903      	bls.n	426 <deregister_tm_clones+0x16>
     41e:	4b04      	ldr	r3, [pc, #16]	; (430 <deregister_tm_clones+0x20>)
     420:	2b00      	cmp	r3, #0
     422:	d000      	beq.n	426 <deregister_tm_clones+0x16>
     424:	4798      	blx	r3
     426:	bd10      	pop	{r4, pc}
     428:	1ffff144 	.word	0x1ffff144
     42c:	1ffff144 	.word	0x1ffff144
     430:	00000000 	.word	0x00000000

00000434 <register_tm_clones>:
     434:	4806      	ldr	r0, [pc, #24]	; (450 <register_tm_clones+0x1c>)
     436:	4907      	ldr	r1, [pc, #28]	; (454 <register_tm_clones+0x20>)
     438:	b510      	push	{r4, lr}
     43a:	1a09      	subs	r1, r1, r0
     43c:	1089      	asrs	r1, r1, #2
     43e:	0fcb      	lsrs	r3, r1, #31
     440:	1859      	adds	r1, r3, r1
     442:	1049      	asrs	r1, r1, #1
     444:	d003      	beq.n	44e <register_tm_clones+0x1a>
     446:	4b04      	ldr	r3, [pc, #16]	; (458 <register_tm_clones+0x24>)
     448:	2b00      	cmp	r3, #0
     44a:	d000      	beq.n	44e <register_tm_clones+0x1a>
     44c:	4798      	blx	r3
     44e:	bd10      	pop	{r4, pc}
     450:	1ffff144 	.word	0x1ffff144
     454:	1ffff144 	.word	0x1ffff144
     458:	00000000 	.word	0x00000000

0000045c <__do_global_dtors_aux>:
     45c:	b510      	push	{r4, lr}
     45e:	4c07      	ldr	r4, [pc, #28]	; (47c <__do_global_dtors_aux+0x20>)
     460:	7823      	ldrb	r3, [r4, #0]
     462:	2b00      	cmp	r3, #0
     464:	d109      	bne.n	47a <__do_global_dtors_aux+0x1e>
     466:	f7ff ffd3 	bl	410 <deregister_tm_clones>
     46a:	4b05      	ldr	r3, [pc, #20]	; (480 <__do_global_dtors_aux+0x24>)
     46c:	2b00      	cmp	r3, #0
     46e:	d002      	beq.n	476 <__do_global_dtors_aux+0x1a>
     470:	4804      	ldr	r0, [pc, #16]	; (484 <__do_global_dtors_aux+0x28>)
     472:	e000      	b.n	476 <__do_global_dtors_aux+0x1a>
     474:	bf00      	nop
     476:	2301      	movs	r3, #1
     478:	7023      	strb	r3, [r4, #0]
     47a:	bd10      	pop	{r4, pc}
     47c:	1ffff144 	.word	0x1ffff144
     480:	00000000 	.word	0x00000000
     484:	00006dc0 	.word	0x00006dc0

00000488 <frame_dummy>:
     488:	4b09      	ldr	r3, [pc, #36]	; (4b0 <frame_dummy+0x28>)
     48a:	b510      	push	{r4, lr}
     48c:	2b00      	cmp	r3, #0
     48e:	d003      	beq.n	498 <frame_dummy+0x10>
     490:	4908      	ldr	r1, [pc, #32]	; (4b4 <frame_dummy+0x2c>)
     492:	4809      	ldr	r0, [pc, #36]	; (4b8 <frame_dummy+0x30>)
     494:	e000      	b.n	498 <frame_dummy+0x10>
     496:	bf00      	nop
     498:	4808      	ldr	r0, [pc, #32]	; (4bc <frame_dummy+0x34>)
     49a:	6803      	ldr	r3, [r0, #0]
     49c:	2b00      	cmp	r3, #0
     49e:	d102      	bne.n	4a6 <frame_dummy+0x1e>
     4a0:	f7ff ffc8 	bl	434 <register_tm_clones>
     4a4:	bd10      	pop	{r4, pc}
     4a6:	4b06      	ldr	r3, [pc, #24]	; (4c0 <frame_dummy+0x38>)
     4a8:	2b00      	cmp	r3, #0
     4aa:	d0f9      	beq.n	4a0 <frame_dummy+0x18>
     4ac:	4798      	blx	r3
     4ae:	e7f7      	b.n	4a0 <frame_dummy+0x18>
     4b0:	00000000 	.word	0x00000000
     4b4:	1ffff148 	.word	0x1ffff148
     4b8:	00006dc0 	.word	0x00006dc0
     4bc:	1ffff144 	.word	0x1ffff144
     4c0:	00000000 	.word	0x00000000

000004c4 <std_msgs::Time::serialize(unsigned char*) const>:
     4c4:	7903      	ldrb	r3, [r0, #4]
     4c6:	700b      	strb	r3, [r1, #0]
     4c8:	6843      	ldr	r3, [r0, #4]
     4ca:	0a1b      	lsrs	r3, r3, #8
     4cc:	704b      	strb	r3, [r1, #1]
     4ce:	88c3      	ldrh	r3, [r0, #6]
     4d0:	708b      	strb	r3, [r1, #2]
     4d2:	79c3      	ldrb	r3, [r0, #7]
     4d4:	70cb      	strb	r3, [r1, #3]
     4d6:	7a03      	ldrb	r3, [r0, #8]
     4d8:	710b      	strb	r3, [r1, #4]
     4da:	6883      	ldr	r3, [r0, #8]
     4dc:	0a1b      	lsrs	r3, r3, #8
     4de:	714b      	strb	r3, [r1, #5]
     4e0:	8943      	ldrh	r3, [r0, #10]
     4e2:	718b      	strb	r3, [r1, #6]
     4e4:	7ac3      	ldrb	r3, [r0, #11]
     4e6:	2008      	movs	r0, #8
     4e8:	71cb      	strb	r3, [r1, #7]
     4ea:	4770      	bx	lr

000004ec <std_msgs::Time::deserialize(unsigned char*)>:
     4ec:	b510      	push	{r4, lr}
     4ee:	780c      	ldrb	r4, [r1, #0]
     4f0:	6044      	str	r4, [r0, #4]
     4f2:	784b      	ldrb	r3, [r1, #1]
     4f4:	021b      	lsls	r3, r3, #8
     4f6:	4323      	orrs	r3, r4
     4f8:	001a      	movs	r2, r3
     4fa:	6043      	str	r3, [r0, #4]
     4fc:	788b      	ldrb	r3, [r1, #2]
     4fe:	041b      	lsls	r3, r3, #16
     500:	4313      	orrs	r3, r2
     502:	6043      	str	r3, [r0, #4]
     504:	78ca      	ldrb	r2, [r1, #3]
     506:	0612      	lsls	r2, r2, #24
     508:	4313      	orrs	r3, r2
     50a:	6043      	str	r3, [r0, #4]
     50c:	790c      	ldrb	r4, [r1, #4]
     50e:	6084      	str	r4, [r0, #8]
     510:	794b      	ldrb	r3, [r1, #5]
     512:	021b      	lsls	r3, r3, #8
     514:	4323      	orrs	r3, r4
     516:	001a      	movs	r2, r3
     518:	6083      	str	r3, [r0, #8]
     51a:	798b      	ldrb	r3, [r1, #6]
     51c:	041b      	lsls	r3, r3, #16
     51e:	4313      	orrs	r3, r2
     520:	6083      	str	r3, [r0, #8]
     522:	79ca      	ldrb	r2, [r1, #7]
     524:	0612      	lsls	r2, r2, #24
     526:	4313      	orrs	r3, r2
     528:	6083      	str	r3, [r0, #8]
     52a:	2008      	movs	r0, #8
     52c:	bd10      	pop	{r4, pc}
     52e:	46c0      	nop			; (mov r8, r8)

00000530 <std_msgs::Time::getType()>:
     530:	4800      	ldr	r0, [pc, #0]	; (534 <std_msgs::Time::getType()+0x4>)
     532:	4770      	bx	lr
     534:	00006758 	.word	0x00006758

00000538 <std_msgs::Time::getMD5()>:
     538:	4800      	ldr	r0, [pc, #0]	; (53c <std_msgs::Time::getMD5()+0x4>)
     53a:	4770      	bx	lr
     53c:	00006768 	.word	0x00006768

00000540 <rosserial_msgs::TopicInfo::getType()>:
     540:	4800      	ldr	r0, [pc, #0]	; (544 <rosserial_msgs::TopicInfo::getType()+0x4>)
     542:	4770      	bx	lr
     544:	0000678c 	.word	0x0000678c

00000548 <rosserial_msgs::TopicInfo::getMD5()>:
     548:	4800      	ldr	r0, [pc, #0]	; (54c <rosserial_msgs::TopicInfo::getMD5()+0x4>)
     54a:	4770      	bx	lr
     54c:	000067a8 	.word	0x000067a8

00000550 <rosserial_msgs::Log::getType()>:
     550:	4800      	ldr	r0, [pc, #0]	; (554 <rosserial_msgs::Log::getType()+0x4>)
     552:	4770      	bx	lr
     554:	000067cc 	.word	0x000067cc

00000558 <rosserial_msgs::Log::getMD5()>:
     558:	4800      	ldr	r0, [pc, #0]	; (55c <rosserial_msgs::Log::getMD5()+0x4>)
     55a:	4770      	bx	lr
     55c:	000067e0 	.word	0x000067e0

00000560 <rosserial_msgs::RequestParamResponse::getType()>:
     560:	4800      	ldr	r0, [pc, #0]	; (564 <rosserial_msgs::RequestParamResponse::getType()+0x4>)
     562:	4770      	bx	lr
     564:	000068a4 	.word	0x000068a4

00000568 <rosserial_msgs::RequestParamResponse::getMD5()>:
     568:	4800      	ldr	r0, [pc, #0]	; (56c <rosserial_msgs::RequestParamResponse::getMD5()+0x4>)
     56a:	4770      	bx	lr
     56c:	00006804 	.word	0x00006804

00000570 <std_msgs::Empty::serialize(unsigned char*) const>:
     570:	2000      	movs	r0, #0
     572:	4770      	bx	lr

00000574 <std_msgs::Empty::deserialize(unsigned char*)>:
     574:	2000      	movs	r0, #0
     576:	4770      	bx	lr

00000578 <std_msgs::Empty::getType()>:
     578:	4800      	ldr	r0, [pc, #0]	; (57c <std_msgs::Empty::getType()+0x4>)
     57a:	4770      	bx	lr
     57c:	00006828 	.word	0x00006828

00000580 <std_msgs::Empty::getMD5()>:
     580:	4800      	ldr	r0, [pc, #0]	; (584 <std_msgs::Empty::getMD5()+0x4>)
     582:	4770      	bx	lr
     584:	00006838 	.word	0x00006838

00000588 <messageCb(std_msgs::Empty const&)>:
     588:	4b05      	ldr	r3, [pc, #20]	; (5a0 <messageCb(std_msgs::Empty const&)+0x18>)
     58a:	6959      	ldr	r1, [r3, #20]
     58c:	685a      	ldr	r2, [r3, #4]
     58e:	6809      	ldr	r1, [r1, #0]
     590:	4211      	tst	r1, r2
     592:	d102      	bne.n	59a <messageCb(std_msgs::Empty const&)+0x12>
     594:	68db      	ldr	r3, [r3, #12]
     596:	601a      	str	r2, [r3, #0]
     598:	4770      	bx	lr
     59a:	691b      	ldr	r3, [r3, #16]
     59c:	601a      	str	r2, [r3, #0]
     59e:	e7fb      	b.n	598 <messageCb(std_msgs::Empty const&)+0x10>
     5a0:	1ffff160 	.word	0x1ffff160

000005a4 <ros::Subscriber<std_msgs::Empty>::callback(unsigned char*)>:
     5a4:	0003      	movs	r3, r0
     5a6:	b510      	push	{r4, lr}
     5a8:	300c      	adds	r0, #12
     5aa:	691b      	ldr	r3, [r3, #16]
     5ac:	4798      	blx	r3
     5ae:	bd10      	pop	{r4, pc}

000005b0 <ros::Subscriber<std_msgs::Empty>::getEndpointType()>:
     5b0:	6940      	ldr	r0, [r0, #20]
     5b2:	4770      	bx	lr

000005b4 <ros::Subscriber<std_msgs::Empty>::getMsgType()>:
     5b4:	4800      	ldr	r0, [pc, #0]	; (5b8 <ros::Subscriber<std_msgs::Empty>::getMsgType()+0x4>)
     5b6:	4770      	bx	lr
     5b8:	00006828 	.word	0x00006828

000005bc <ros::Subscriber<std_msgs::Empty>::getMsgMD5()>:
     5bc:	4800      	ldr	r0, [pc, #0]	; (5c0 <ros::Subscriber<std_msgs::Empty>::getMsgMD5()+0x4>)
     5be:	4770      	bx	lr
     5c0:	00006838 	.word	0x00006838

000005c4 <ros::NodeHandle_<MbedHardware, 25, 25, 512, 512>::connected()>:
     5c4:	4b01      	ldr	r3, [pc, #4]	; (5cc <ros::NodeHandle_<MbedHardware, 25, 25, 512, 512>::connected()+0x8>)
     5c6:	5cc0      	ldrb	r0, [r0, r3]
     5c8:	4770      	bx	lr
     5ca:	46c0      	nop			; (mov r8, r8)
     5cc:	000005fc 	.word	0x000005fc

000005d0 <rosserial_msgs::RequestParamResponse::serialize(unsigned char*) const>:
     5d0:	b5f0      	push	{r4, r5, r6, r7, lr}
     5d2:	4646      	mov	r6, r8
     5d4:	464f      	mov	r7, r9
     5d6:	b4c0      	push	{r6, r7}
     5d8:	7903      	ldrb	r3, [r0, #4]
     5da:	b083      	sub	sp, #12
     5dc:	700b      	strb	r3, [r1, #0]
     5de:	2300      	movs	r3, #0
     5e0:	704b      	strb	r3, [r1, #1]
     5e2:	708b      	strb	r3, [r1, #2]
     5e4:	70cb      	strb	r3, [r1, #3]
     5e6:	7903      	ldrb	r3, [r0, #4]
     5e8:	0005      	movs	r5, r0
     5ea:	000e      	movs	r6, r1
     5ec:	2b00      	cmp	r3, #0
     5ee:	d066      	beq.n	6be <rosserial_msgs::RequestParamResponse::serialize(unsigned char*) const+0xee>
     5f0:	2404      	movs	r4, #4
     5f2:	1d0b      	adds	r3, r1, #4
     5f4:	2100      	movs	r1, #0
     5f6:	1ba4      	subs	r4, r4, r6
     5f8:	68e8      	ldr	r0, [r5, #12]
     5fa:	008a      	lsls	r2, r1, #2
     5fc:	5812      	ldr	r2, [r2, r0]
     5fe:	3101      	adds	r1, #1
     600:	0a10      	lsrs	r0, r2, #8
     602:	701a      	strb	r2, [r3, #0]
     604:	7058      	strb	r0, [r3, #1]
     606:	0c10      	lsrs	r0, r2, #16
     608:	0e12      	lsrs	r2, r2, #24
     60a:	7098      	strb	r0, [r3, #2]
     60c:	70da      	strb	r2, [r3, #3]
     60e:	792a      	ldrb	r2, [r5, #4]
     610:	b2c9      	uxtb	r1, r1
     612:	18e0      	adds	r0, r4, r3
     614:	3304      	adds	r3, #4
     616:	428a      	cmp	r2, r1
     618:	d8ee      	bhi.n	5f8 <rosserial_msgs::RequestParamResponse::serialize(unsigned char*) const+0x28>
     61a:	1c43      	adds	r3, r0, #1
     61c:	1d02      	adds	r2, r0, #4
     61e:	469c      	mov	r12, r3
     620:	0014      	movs	r4, r2
     622:	1c87      	adds	r7, r0, #2
     624:	1cc1      	adds	r1, r0, #3
     626:	7c2b      	ldrb	r3, [r5, #16]
     628:	5433      	strb	r3, [r6, r0]
     62a:	2300      	movs	r3, #0
     62c:	4660      	mov	r0, r12
     62e:	5433      	strb	r3, [r6, r0]
     630:	55f3      	strb	r3, [r6, r7]
     632:	5473      	strb	r3, [r6, r1]
     634:	7c2b      	ldrb	r3, [r5, #16]
     636:	2b00      	cmp	r3, #0
     638:	d013      	beq.n	662 <rosserial_msgs::RequestParamResponse::serialize(unsigned char*) const+0x92>
     63a:	2200      	movs	r2, #0
     63c:	1931      	adds	r1, r6, r4
     63e:	69a8      	ldr	r0, [r5, #24]
     640:	0093      	lsls	r3, r2, #2
     642:	581b      	ldr	r3, [r3, r0]
     644:	3201      	adds	r2, #1
     646:	0a18      	lsrs	r0, r3, #8
     648:	700b      	strb	r3, [r1, #0]
     64a:	7048      	strb	r0, [r1, #1]
     64c:	0c18      	lsrs	r0, r3, #16
     64e:	0e1b      	lsrs	r3, r3, #24
     650:	7088      	strb	r0, [r1, #2]
     652:	70cb      	strb	r3, [r1, #3]
     654:	7c2b      	ldrb	r3, [r5, #16]
     656:	b2d2      	uxtb	r2, r2
     658:	3404      	adds	r4, #4
     65a:	3104      	adds	r1, #4
     65c:	4293      	cmp	r3, r2
     65e:	d8ee      	bhi.n	63e <rosserial_msgs::RequestParamResponse::serialize(unsigned char*) const+0x6e>
     660:	0022      	movs	r2, r4
     662:	7f2b      	ldrb	r3, [r5, #28]
     664:	54b3      	strb	r3, [r6, r2]
     666:	2200      	movs	r2, #0
     668:	1933      	adds	r3, r6, r4
     66a:	705a      	strb	r2, [r3, #1]
     66c:	709a      	strb	r2, [r3, #2]
     66e:	70da      	strb	r2, [r3, #3]
     670:	7f2b      	ldrb	r3, [r5, #28]
     672:	3404      	adds	r4, #4
     674:	2b00      	cmp	r3, #0
     676:	d01c      	beq.n	6b2 <rosserial_msgs::RequestParamResponse::serialize(unsigned char*) const+0xe2>
     678:	2700      	movs	r7, #0
     67a:	00bb      	lsls	r3, r7, #2
     67c:	4699      	mov	r9, r3
     67e:	464a      	mov	r2, r9
     680:	6a6b      	ldr	r3, [r5, #36]	; 0x24
     682:	3701      	adds	r7, #1
     684:	5898      	ldr	r0, [r3, r2]
     686:	f005 f9bf 	bl	5a08 <strlen>
     68a:	2204      	movs	r2, #4
     68c:	4680      	mov	r8, r0
     68e:	9001      	str	r0, [sp, #4]
     690:	a901      	add	r1, sp, #4
     692:	1930      	adds	r0, r6, r4
     694:	f004 fae3 	bl	4c5e <memcpy>
     698:	464a      	mov	r2, r9
     69a:	6a6b      	ldr	r3, [r5, #36]	; 0x24
     69c:	3404      	adds	r4, #4
     69e:	5899      	ldr	r1, [r3, r2]
     6a0:	1930      	adds	r0, r6, r4
     6a2:	4642      	mov	r2, r8
     6a4:	f004 fadb 	bl	4c5e <memcpy>
     6a8:	7f2b      	ldrb	r3, [r5, #28]
     6aa:	b2ff      	uxtb	r7, r7
     6ac:	4444      	add	r4, r8
     6ae:	42bb      	cmp	r3, r7
     6b0:	d8e3      	bhi.n	67a <rosserial_msgs::RequestParamResponse::serialize(unsigned char*) const+0xaa>
     6b2:	0020      	movs	r0, r4
     6b4:	b003      	add	sp, #12
     6b6:	bc0c      	pop	{r2, r3}
     6b8:	4690      	mov	r8, r2
     6ba:	4699      	mov	r9, r3
     6bc:	bdf0      	pop	{r4, r5, r6, r7, pc}
     6be:	2305      	movs	r3, #5
     6c0:	2208      	movs	r2, #8
     6c2:	2107      	movs	r1, #7
     6c4:	2408      	movs	r4, #8
     6c6:	2706      	movs	r7, #6
     6c8:	469c      	mov	r12, r3
     6ca:	2004      	movs	r0, #4
     6cc:	e7ab      	b.n	626 <rosserial_msgs::RequestParamResponse::serialize(unsigned char*) const+0x56>
     6ce:	46c0      	nop			; (mov r8, r8)

000006d0 <rosserial_msgs::Log::serialize(unsigned char*) const>:
     6d0:	b570      	push	{r4, r5, r6, lr}
     6d2:	7903      	ldrb	r3, [r0, #4]
     6d4:	b082      	sub	sp, #8
     6d6:	700b      	strb	r3, [r1, #0]
     6d8:	0006      	movs	r6, r0
     6da:	6880      	ldr	r0, [r0, #8]
     6dc:	000d      	movs	r5, r1
     6de:	f005 f993 	bl	5a08 <strlen>
     6e2:	0004      	movs	r4, r0
     6e4:	9001      	str	r0, [sp, #4]
     6e6:	a901      	add	r1, sp, #4
     6e8:	1c68      	adds	r0, r5, #1
     6ea:	2204      	movs	r2, #4
     6ec:	f004 fab7 	bl	4c5e <memcpy>
     6f0:	1d68      	adds	r0, r5, #5
     6f2:	68b1      	ldr	r1, [r6, #8]
     6f4:	0022      	movs	r2, r4
     6f6:	f004 fab2 	bl	4c5e <memcpy>
     6fa:	1d60      	adds	r0, r4, #5
     6fc:	b002      	add	sp, #8
     6fe:	bd70      	pop	{r4, r5, r6, pc}

00000700 <rosserial_msgs::TopicInfo::serialize(unsigned char*) const>:
     700:	b5f0      	push	{r4, r5, r6, r7, lr}
     702:	4647      	mov	r7, r8
     704:	b480      	push	{r7}
     706:	8883      	ldrh	r3, [r0, #4]
     708:	b084      	sub	sp, #16
     70a:	700b      	strb	r3, [r1, #0]
     70c:	8883      	ldrh	r3, [r0, #4]
     70e:	0006      	movs	r6, r0
     710:	0a1b      	lsrs	r3, r3, #8
     712:	704b      	strb	r3, [r1, #1]
     714:	6880      	ldr	r0, [r0, #8]
     716:	000d      	movs	r5, r1
     718:	f005 f976 	bl	5a08 <strlen>
     71c:	0004      	movs	r4, r0
     71e:	9001      	str	r0, [sp, #4]
     720:	a901      	add	r1, sp, #4
     722:	1ca8      	adds	r0, r5, #2
     724:	2204      	movs	r2, #4
     726:	f004 fa9a 	bl	4c5e <memcpy>
     72a:	0022      	movs	r2, r4
     72c:	68b1      	ldr	r1, [r6, #8]
     72e:	1da8      	adds	r0, r5, #6
     730:	f004 fa95 	bl	4c5e <memcpy>
     734:	1da3      	adds	r3, r4, #6
     736:	4698      	mov	r8, r3
     738:	68f0      	ldr	r0, [r6, #12]
     73a:	f005 f965 	bl	5a08 <strlen>
     73e:	4643      	mov	r3, r8
     740:	0007      	movs	r7, r0
     742:	9002      	str	r0, [sp, #8]
     744:	a902      	add	r1, sp, #8
     746:	18e8      	adds	r0, r5, r3
     748:	2204      	movs	r2, #4
     74a:	340a      	adds	r4, #10
     74c:	f004 fa87 	bl	4c5e <memcpy>
     750:	003a      	movs	r2, r7
     752:	68f1      	ldr	r1, [r6, #12]
     754:	1928      	adds	r0, r5, r4
     756:	f004 fa82 	bl	4c5e <memcpy>
     75a:	6930      	ldr	r0, [r6, #16]
     75c:	f005 f954 	bl	5a08 <strlen>
     760:	193c      	adds	r4, r7, r4
     762:	0007      	movs	r7, r0
     764:	9003      	str	r0, [sp, #12]
     766:	a903      	add	r1, sp, #12
     768:	1928      	adds	r0, r5, r4
     76a:	2204      	movs	r2, #4
     76c:	3404      	adds	r4, #4
     76e:	f004 fa76 	bl	4c5e <memcpy>
     772:	1928      	adds	r0, r5, r4
     774:	003a      	movs	r2, r7
     776:	6931      	ldr	r1, [r6, #16]
     778:	f004 fa71 	bl	4c5e <memcpy>
     77c:	6973      	ldr	r3, [r6, #20]
     77e:	1938      	adds	r0, r7, r4
     780:	542b      	strb	r3, [r5, r0]
     782:	0a1a      	lsrs	r2, r3, #8
     784:	182d      	adds	r5, r5, r0
     786:	706a      	strb	r2, [r5, #1]
     788:	3004      	adds	r0, #4
     78a:	0c1a      	lsrs	r2, r3, #16
     78c:	0e1b      	lsrs	r3, r3, #24
     78e:	70aa      	strb	r2, [r5, #2]
     790:	70eb      	strb	r3, [r5, #3]
     792:	b004      	add	sp, #16
     794:	bc04      	pop	{r2}
     796:	4690      	mov	r8, r2
     798:	bdf0      	pop	{r4, r5, r6, r7, pc}
     79a:	46c0      	nop			; (mov r8, r8)

0000079c <rosserial_msgs::Log::deserialize(unsigned char*)>:
     79c:	b530      	push	{r4, r5, lr}
     79e:	000c      	movs	r4, r1
     7a0:	780b      	ldrb	r3, [r1, #0]
     7a2:	b083      	sub	sp, #12
     7a4:	7103      	strb	r3, [r0, #4]
     7a6:	3101      	adds	r1, #1
     7a8:	0005      	movs	r5, r0
     7aa:	2204      	movs	r2, #4
     7ac:	a801      	add	r0, sp, #4
     7ae:	f004 fa56 	bl	4c5e <memcpy>
     7b2:	9901      	ldr	r1, [sp, #4]
     7b4:	0023      	movs	r3, r4
     7b6:	1d48      	adds	r0, r1, #5
     7b8:	1861      	adds	r1, r4, r1
     7ba:	2805      	cmp	r0, #5
     7bc:	d904      	bls.n	7c8 <rosserial_msgs::Log::deserialize(unsigned char*)+0x2c>
     7be:	795a      	ldrb	r2, [r3, #5]
     7c0:	3301      	adds	r3, #1
     7c2:	70da      	strb	r2, [r3, #3]
     7c4:	4299      	cmp	r1, r3
     7c6:	d1fa      	bne.n	7be <rosserial_msgs::Log::deserialize(unsigned char*)+0x22>
     7c8:	2300      	movs	r3, #0
     7ca:	3404      	adds	r4, #4
     7cc:	710b      	strb	r3, [r1, #4]
     7ce:	60ac      	str	r4, [r5, #8]
     7d0:	b003      	add	sp, #12
     7d2:	bd30      	pop	{r4, r5, pc}

000007d4 <rosserial_msgs::TopicInfo::deserialize(unsigned char*)>:
     7d4:	b5f0      	push	{r4, r5, r6, r7, lr}
     7d6:	000d      	movs	r5, r1
     7d8:	780a      	ldrb	r2, [r1, #0]
     7da:	b085      	sub	sp, #20
     7dc:	8082      	strh	r2, [r0, #4]
     7de:	784b      	ldrb	r3, [r1, #1]
     7e0:	0006      	movs	r6, r0
     7e2:	021b      	lsls	r3, r3, #8
     7e4:	4313      	orrs	r3, r2
     7e6:	8083      	strh	r3, [r0, #4]
     7e8:	2204      	movs	r2, #4
     7ea:	3102      	adds	r1, #2
     7ec:	a801      	add	r0, sp, #4
     7ee:	f004 fa36 	bl	4c5e <memcpy>
     7f2:	9b01      	ldr	r3, [sp, #4]
     7f4:	002a      	movs	r2, r5
     7f6:	1d9f      	adds	r7, r3, #6
     7f8:	18ec      	adds	r4, r5, r3
     7fa:	2f06      	cmp	r7, #6
     7fc:	d904      	bls.n	808 <rosserial_msgs::TopicInfo::deserialize(unsigned char*)+0x34>
     7fe:	7993      	ldrb	r3, [r2, #6]
     800:	3201      	adds	r2, #1
     802:	7113      	strb	r3, [r2, #4]
     804:	4294      	cmp	r4, r2
     806:	d1fa      	bne.n	7fe <rosserial_msgs::TopicInfo::deserialize(unsigned char*)+0x2a>
     808:	2300      	movs	r3, #0
     80a:	7163      	strb	r3, [r4, #5]
     80c:	1d6b      	adds	r3, r5, #5
     80e:	60b3      	str	r3, [r6, #8]
     810:	19e9      	adds	r1, r5, r7
     812:	2204      	movs	r2, #4
     814:	a802      	add	r0, sp, #8
     816:	f004 fa22 	bl	4c5e <memcpy>
     81a:	9b02      	ldr	r3, [sp, #8]
     81c:	1d38      	adds	r0, r7, #4
     81e:	18c7      	adds	r7, r0, r3
     820:	0002      	movs	r2, r0
     822:	0023      	movs	r3, r4
     824:	42b8      	cmp	r0, r7
     826:	d205      	bcs.n	834 <rosserial_msgs::TopicInfo::deserialize(unsigned char*)+0x60>
     828:	7a99      	ldrb	r1, [r3, #10]
     82a:	3201      	adds	r2, #1
     82c:	7259      	strb	r1, [r3, #9]
     82e:	3301      	adds	r3, #1
     830:	42ba      	cmp	r2, r7
     832:	d3f9      	bcc.n	828 <rosserial_msgs::TopicInfo::deserialize(unsigned char*)+0x54>
     834:	2200      	movs	r2, #0
     836:	19ec      	adds	r4, r5, r7
     838:	3801      	subs	r0, #1
     83a:	1e63      	subs	r3, r4, #1
     83c:	1828      	adds	r0, r5, r0
     83e:	701a      	strb	r2, [r3, #0]
     840:	0021      	movs	r1, r4
     842:	60f0      	str	r0, [r6, #12]
     844:	3204      	adds	r2, #4
     846:	a803      	add	r0, sp, #12
     848:	f004 fa09 	bl	4c5e <memcpy>
     84c:	9b03      	ldr	r3, [sp, #12]
     84e:	3704      	adds	r7, #4
     850:	18f8      	adds	r0, r7, r3
     852:	0021      	movs	r1, r4
     854:	1e3b      	subs	r3, r7, #0
     856:	4283      	cmp	r3, r0
     858:	d205      	bcs.n	866 <rosserial_msgs::TopicInfo::deserialize(unsigned char*)+0x92>
     85a:	790a      	ldrb	r2, [r1, #4]
     85c:	3301      	adds	r3, #1
     85e:	70ca      	strb	r2, [r1, #3]
     860:	3101      	adds	r1, #1
     862:	4283      	cmp	r3, r0
     864:	d3f9      	bcc.n	85a <rosserial_msgs::TopicInfo::deserialize(unsigned char*)+0x86>
     866:	2100      	movs	r1, #0
     868:	182a      	adds	r2, r5, r0
     86a:	3f01      	subs	r7, #1
     86c:	1e53      	subs	r3, r2, #1
     86e:	19ef      	adds	r7, r5, r7
     870:	7019      	strb	r1, [r3, #0]
     872:	6137      	str	r7, [r6, #16]
     874:	7853      	ldrb	r3, [r2, #1]
     876:	0219      	lsls	r1, r3, #8
     878:	7893      	ldrb	r3, [r2, #2]
     87a:	78d2      	ldrb	r2, [r2, #3]
     87c:	041b      	lsls	r3, r3, #16
     87e:	430b      	orrs	r3, r1
     880:	5c29      	ldrb	r1, [r5, r0]
     882:	0612      	lsls	r2, r2, #24
     884:	430b      	orrs	r3, r1
     886:	4313      	orrs	r3, r2
     888:	3004      	adds	r0, #4
     88a:	6173      	str	r3, [r6, #20]
     88c:	b005      	add	sp, #20
     88e:	bdf0      	pop	{r4, r5, r6, r7, pc}

00000890 <rosserial_msgs::RequestParamResponse::deserialize(unsigned char*)>:
     890:	b5f0      	push	{r4, r5, r6, r7, lr}
     892:	4657      	mov	r7, r10
     894:	4645      	mov	r5, r8
     896:	464e      	mov	r6, r9
     898:	b4e0      	push	{r5, r6, r7}
     89a:	780c      	ldrb	r4, [r1, #0]
     89c:	7903      	ldrb	r3, [r0, #4]
     89e:	b082      	sub	sp, #8
     8a0:	0005      	movs	r5, r0
     8a2:	000f      	movs	r7, r1
     8a4:	42a3      	cmp	r3, r4
     8a6:	d200      	bcs.n	8aa <rosserial_msgs::RequestParamResponse::deserialize(unsigned char*)+0x1a>
     8a8:	e09a      	b.n	9e0 <rosserial_msgs::RequestParamResponse::deserialize(unsigned char*)+0x150>
     8aa:	712c      	strb	r4, [r5, #4]
     8ac:	2308      	movs	r3, #8
     8ae:	2c00      	cmp	r4, #0
     8b0:	d100      	bne.n	8b4 <rosserial_msgs::RequestParamResponse::deserialize(unsigned char*)+0x24>
     8b2:	e09f      	b.n	9f4 <rosserial_msgs::RequestParamResponse::deserialize(unsigned char*)+0x164>
     8b4:	4699      	mov	r9, r3
     8b6:	3b04      	subs	r3, #4
     8b8:	1bdb      	subs	r3, r3, r7
     8ba:	2600      	movs	r6, #0
     8bc:	4698      	mov	r8, r3
     8be:	44a9      	add	r9, r5
     8c0:	1d3c      	adds	r4, r7, #4
     8c2:	7863      	ldrb	r3, [r4, #1]
     8c4:	46a2      	mov	r10, r4
     8c6:	021a      	lsls	r2, r3, #8
     8c8:	78a3      	ldrb	r3, [r4, #2]
     8ca:	00b0      	lsls	r0, r6, #2
     8cc:	041b      	lsls	r3, r3, #16
     8ce:	4313      	orrs	r3, r2
     8d0:	7822      	ldrb	r2, [r4, #0]
     8d2:	4649      	mov	r1, r9
     8d4:	4313      	orrs	r3, r2
     8d6:	78e2      	ldrb	r2, [r4, #3]
     8d8:	3601      	adds	r6, #1
     8da:	0612      	lsls	r2, r2, #24
     8dc:	4313      	orrs	r3, r2
     8de:	60ab      	str	r3, [r5, #8]
     8e0:	68eb      	ldr	r3, [r5, #12]
     8e2:	2204      	movs	r2, #4
     8e4:	469c      	mov	r12, r3
     8e6:	4460      	add	r0, r12
     8e8:	f004 f9b9 	bl	4c5e <memcpy>
     8ec:	792b      	ldrb	r3, [r5, #4]
     8ee:	b2f6      	uxtb	r6, r6
     8f0:	44c2      	add	r10, r8
     8f2:	3404      	adds	r4, #4
     8f4:	42b3      	cmp	r3, r6
     8f6:	d8e4      	bhi.n	8c2 <rosserial_msgs::RequestParamResponse::deserialize(unsigned char*)+0x32>
     8f8:	4653      	mov	r3, r10
     8fa:	1d1a      	adds	r2, r3, #4
     8fc:	5cfe      	ldrb	r6, [r7, r3]
     8fe:	7c2b      	ldrb	r3, [r5, #16]
     900:	4690      	mov	r8, r2
     902:	4692      	mov	r10, r2
     904:	42b3      	cmp	r3, r6
     906:	d200      	bcs.n	90a <rosserial_msgs::RequestParamResponse::deserialize(unsigned char*)+0x7a>
     908:	e07c      	b.n	a04 <rosserial_msgs::RequestParamResponse::deserialize(unsigned char*)+0x174>
     90a:	742e      	strb	r6, [r5, #16]
     90c:	2e00      	cmp	r6, #0
     90e:	d022      	beq.n	956 <rosserial_msgs::RequestParamResponse::deserialize(unsigned char*)+0xc6>
     910:	2314      	movs	r3, #20
     912:	4699      	mov	r9, r3
     914:	4653      	mov	r3, r10
     916:	2600      	movs	r6, #0
     918:	44a9      	add	r9, r5
     91a:	18fc      	adds	r4, r7, r3
     91c:	7863      	ldrb	r3, [r4, #1]
     91e:	00b0      	lsls	r0, r6, #2
     920:	021a      	lsls	r2, r3, #8
     922:	78a3      	ldrb	r3, [r4, #2]
     924:	4649      	mov	r1, r9
     926:	041b      	lsls	r3, r3, #16
     928:	4313      	orrs	r3, r2
     92a:	7822      	ldrb	r2, [r4, #0]
     92c:	3601      	adds	r6, #1
     92e:	4313      	orrs	r3, r2
     930:	78e2      	ldrb	r2, [r4, #3]
     932:	b2f6      	uxtb	r6, r6
     934:	0612      	lsls	r2, r2, #24
     936:	4313      	orrs	r3, r2
     938:	616b      	str	r3, [r5, #20]
     93a:	2304      	movs	r3, #4
     93c:	469c      	mov	r12, r3
     93e:	69ab      	ldr	r3, [r5, #24]
     940:	44e2      	add	r10, r12
     942:	469c      	mov	r12, r3
     944:	2204      	movs	r2, #4
     946:	4460      	add	r0, r12
     948:	f004 f989 	bl	4c5e <memcpy>
     94c:	7c2b      	ldrb	r3, [r5, #16]
     94e:	3404      	adds	r4, #4
     950:	42b3      	cmp	r3, r6
     952:	d8e3      	bhi.n	91c <rosserial_msgs::RequestParamResponse::deserialize(unsigned char*)+0x8c>
     954:	46d0      	mov	r8, r10
     956:	4643      	mov	r3, r8
     958:	5cfe      	ldrb	r6, [r7, r3]
     95a:	7f2b      	ldrb	r3, [r5, #28]
     95c:	42b3      	cmp	r3, r6
     95e:	d357      	bcc.n	a10 <rosserial_msgs::RequestParamResponse::deserialize(unsigned char*)+0x180>
     960:	2304      	movs	r3, #4
     962:	469c      	mov	r12, r3
     964:	772e      	strb	r6, [r5, #28]
     966:	44e2      	add	r10, r12
     968:	2e00      	cmp	r6, #0
     96a:	d032      	beq.n	9d2 <rosserial_msgs::RequestParamResponse::deserialize(unsigned char*)+0x142>
     96c:	331c      	adds	r3, #28
     96e:	4699      	mov	r9, r3
     970:	2300      	movs	r3, #0
     972:	2600      	movs	r6, #0
     974:	4698      	mov	r8, r3
     976:	44a9      	add	r9, r5
     978:	4653      	mov	r3, r10
     97a:	18fc      	adds	r4, r7, r3
     97c:	0021      	movs	r1, r4
     97e:	2204      	movs	r2, #4
     980:	a801      	add	r0, sp, #4
     982:	f004 f96c 	bl	4c5e <memcpy>
     986:	2304      	movs	r3, #4
     988:	469c      	mov	r12, r3
     98a:	9b01      	ldr	r3, [sp, #4]
     98c:	44e2      	add	r10, r12
     98e:	4453      	add	r3, r10
     990:	0018      	movs	r0, r3
     992:	0021      	movs	r1, r4
     994:	4653      	mov	r3, r10
     996:	4582      	cmp	r10, r0
     998:	d205      	bcs.n	9a6 <rosserial_msgs::RequestParamResponse::deserialize(unsigned char*)+0x116>
     99a:	790a      	ldrb	r2, [r1, #4]
     99c:	3301      	adds	r3, #1
     99e:	70ca      	strb	r2, [r1, #3]
     9a0:	3101      	adds	r1, #1
     9a2:	4283      	cmp	r3, r0
     9a4:	d3f9      	bcc.n	99a <rosserial_msgs::RequestParamResponse::deserialize(unsigned char*)+0x10a>
     9a6:	4642      	mov	r2, r8
     9a8:	183b      	adds	r3, r7, r0
     9aa:	3b01      	subs	r3, #1
     9ac:	701a      	strb	r2, [r3, #0]
     9ae:	4653      	mov	r3, r10
     9b0:	3b01      	subs	r3, #1
     9b2:	18fb      	adds	r3, r7, r3
     9b4:	622b      	str	r3, [r5, #32]
     9b6:	6a6b      	ldr	r3, [r5, #36]	; 0x24
     9b8:	4682      	mov	r10, r0
     9ba:	469c      	mov	r12, r3
     9bc:	00b0      	lsls	r0, r6, #2
     9be:	4460      	add	r0, r12
     9c0:	2204      	movs	r2, #4
     9c2:	4649      	mov	r1, r9
     9c4:	f004 f94b 	bl	4c5e <memcpy>
     9c8:	3601      	adds	r6, #1
     9ca:	7f2b      	ldrb	r3, [r5, #28]
     9cc:	b2f6      	uxtb	r6, r6
     9ce:	42b3      	cmp	r3, r6
     9d0:	d8d2      	bhi.n	978 <rosserial_msgs::RequestParamResponse::deserialize(unsigned char*)+0xe8>
     9d2:	4650      	mov	r0, r10
     9d4:	b002      	add	sp, #8
     9d6:	bc1c      	pop	{r2, r3, r4}
     9d8:	4690      	mov	r8, r2
     9da:	4699      	mov	r9, r3
     9dc:	46a2      	mov	r10, r4
     9de:	bdf0      	pop	{r4, r5, r6, r7, pc}
     9e0:	00a1      	lsls	r1, r4, #2
     9e2:	68c0      	ldr	r0, [r0, #12]
     9e4:	f001 fdd2 	bl	258c <__wrap_realloc>
     9e8:	712c      	strb	r4, [r5, #4]
     9ea:	60e8      	str	r0, [r5, #12]
     9ec:	2308      	movs	r3, #8
     9ee:	2c00      	cmp	r4, #0
     9f0:	d000      	beq.n	9f4 <rosserial_msgs::RequestParamResponse::deserialize(unsigned char*)+0x164>
     9f2:	e75f      	b.n	8b4 <rosserial_msgs::RequestParamResponse::deserialize(unsigned char*)+0x24>
     9f4:	4698      	mov	r8, r3
     9f6:	469a      	mov	r10, r3
     9f8:	3b04      	subs	r3, #4
     9fa:	5cfe      	ldrb	r6, [r7, r3]
     9fc:	7c2b      	ldrb	r3, [r5, #16]
     9fe:	42b3      	cmp	r3, r6
     a00:	d300      	bcc.n	a04 <rosserial_msgs::RequestParamResponse::deserialize(unsigned char*)+0x174>
     a02:	e782      	b.n	90a <rosserial_msgs::RequestParamResponse::deserialize(unsigned char*)+0x7a>
     a04:	00b1      	lsls	r1, r6, #2
     a06:	69a8      	ldr	r0, [r5, #24]
     a08:	f001 fdc0 	bl	258c <__wrap_realloc>
     a0c:	61a8      	str	r0, [r5, #24]
     a0e:	e77c      	b.n	90a <rosserial_msgs::RequestParamResponse::deserialize(unsigned char*)+0x7a>
     a10:	00b1      	lsls	r1, r6, #2
     a12:	6a68      	ldr	r0, [r5, #36]	; 0x24
     a14:	f001 fdba 	bl	258c <__wrap_realloc>
     a18:	6268      	str	r0, [r5, #36]	; 0x24
     a1a:	e7a1      	b.n	960 <rosserial_msgs::RequestParamResponse::deserialize(unsigned char*)+0xd0>

00000a1c <ros::NodeHandle_<MbedHardware, 25, 25, 512, 512>::publish(int, ros::Msg const*)>:
     a1c:	b5f0      	push	{r4, r5, r6, r7, lr}
     a1e:	4647      	mov	r7, r8
     a20:	b480      	push	{r7}
     a22:	0005      	movs	r5, r0
     a24:	b084      	sub	sp, #16
     a26:	1e0e      	subs	r6, r1, #0
     a28:	2e63      	cmp	r6, #99	; 0x63
     a2a:	dd05      	ble.n	a38 <ros::NodeHandle_<MbedHardware, 25, 25, 512, 512>::publish(int, ros::Msg const*)+0x1c>
     a2c:	2100      	movs	r1, #0
     a2e:	4b58      	ldr	r3, [pc, #352]	; (b90 <ros::NodeHandle_<MbedHardware, 25, 25, 512, 512>::publish(int, ros::Msg const*)+0x174>)
     a30:	4688      	mov	r8, r1
     a32:	5cc3      	ldrb	r3, [r0, r3]
     a34:	2b00      	cmp	r3, #0
     a36:	d04c      	beq.n	ad2 <ros::NodeHandle_<MbedHardware, 25, 25, 512, 512>::publish(int, ros::Msg const*)+0xb6>
     a38:	6813      	ldr	r3, [r2, #0]
     a3a:	4956      	ldr	r1, [pc, #344]	; (b94 <ros::NodeHandle_<MbedHardware, 25, 25, 512, 512>::publish(int, ros::Msg const*)+0x178>)
     a3c:	681b      	ldr	r3, [r3, #0]
     a3e:	1869      	adds	r1, r5, r1
     a40:	0010      	movs	r0, r2
     a42:	4798      	blx	r3
     a44:	b283      	uxth	r3, r0
     a46:	469c      	mov	r12, r3
     a48:	23c8      	movs	r3, #200	; 0xc8
     a4a:	22ff      	movs	r2, #255	; 0xff
     a4c:	009b      	lsls	r3, r3, #2
     a4e:	54ea      	strb	r2, [r5, r3]
     a50:	4b51      	ldr	r3, [pc, #324]	; (b98 <ros::NodeHandle_<MbedHardware, 25, 25, 512, 512>::publish(int, ros::Msg const*)+0x17c>)
     a52:	3a01      	subs	r2, #1
     a54:	54ea      	strb	r2, [r5, r3]
     a56:	4b51      	ldr	r3, [pc, #324]	; (b9c <ros::NodeHandle_<MbedHardware, 25, 25, 512, 512>::publish(int, ros::Msg const*)+0x180>)
     a58:	b2c1      	uxtb	r1, r0
     a5a:	1202      	asrs	r2, r0, #8
     a5c:	54e9      	strb	r1, [r5, r3]
     a5e:	b2d3      	uxtb	r3, r2
     a60:	4a4f      	ldr	r2, [pc, #316]	; (ba0 <ros::NodeHandle_<MbedHardware, 25, 25, 512, 512>::publish(int, ros::Msg const*)+0x184>)
     a62:	b2f4      	uxtb	r4, r6
     a64:	54ab      	strb	r3, [r5, r2]
     a66:	18cb      	adds	r3, r1, r3
     a68:	43db      	mvns	r3, r3
     a6a:	3201      	adds	r2, #1
     a6c:	54ab      	strb	r3, [r5, r2]
     a6e:	4a49      	ldr	r2, [pc, #292]	; (b94 <ros::NodeHandle_<MbedHardware, 25, 25, 512, 512>::publish(int, ros::Msg const*)+0x178>)
     a70:	4b4c      	ldr	r3, [pc, #304]	; (ba4 <ros::NodeHandle_<MbedHardware, 25, 25, 512, 512>::publish(int, ros::Msg const*)+0x188>)
     a72:	4690      	mov	r8, r2
     a74:	54ec      	strb	r4, [r5, r3]
     a76:	0401      	lsls	r1, r0, #16
     a78:	4b4b      	ldr	r3, [pc, #300]	; (ba8 <ros::NodeHandle_<MbedHardware, 25, 25, 512, 512>::publish(int, ros::Msg const*)+0x18c>)
     a7a:	0a36      	lsrs	r6, r6, #8
     a7c:	0c09      	lsrs	r1, r1, #16
     a7e:	54ee      	strb	r6, [r5, r3]
     a80:	4441      	add	r1, r8
     a82:	18ee      	adds	r6, r5, r3
     a84:	0033      	movs	r3, r6
     a86:	1869      	adds	r1, r5, r1
     a88:	2200      	movs	r2, #0
     a8a:	e001      	b.n	a90 <ros::NodeHandle_<MbedHardware, 25, 25, 512, 512>::publish(int, ros::Msg const*)+0x74>
     a8c:	781c      	ldrb	r4, [r3, #0]
     a8e:	3301      	adds	r3, #1
     a90:	1912      	adds	r2, r2, r4
     a92:	4299      	cmp	r1, r3
     a94:	d1fa      	bne.n	a8c <ros::NodeHandle_<MbedHardware, 25, 25, 512, 512>::publish(int, ros::Msg const*)+0x70>
     a96:	21c8      	movs	r1, #200	; 0xc8
     a98:	4663      	mov	r3, r12
     a9a:	0089      	lsls	r1, r1, #2
     a9c:	4667      	mov	r7, r12
     a9e:	468c      	mov	r12, r1
     aa0:	43d2      	mvns	r2, r2
     aa2:	3307      	adds	r3, #7
     aa4:	b29b      	uxth	r3, r3
     aa6:	18eb      	adds	r3, r5, r3
     aa8:	4463      	add	r3, r12
     aaa:	701a      	strb	r2, [r3, #0]
     aac:	2380      	movs	r3, #128	; 0x80
     aae:	3708      	adds	r7, #8
     ab0:	b2bf      	uxth	r7, r7
     ab2:	009b      	lsls	r3, r3, #2
     ab4:	429f      	cmp	r7, r3
     ab6:	d811      	bhi.n	adc <ros::NodeHandle_<MbedHardware, 25, 25, 512, 512>::publish(int, ros::Msg const*)+0xc0>
     ab8:	186e      	adds	r6, r5, r1
     aba:	46b8      	mov	r8, r7
     abc:	2f00      	cmp	r7, #0
     abe:	d008      	beq.n	ad2 <ros::NodeHandle_<MbedHardware, 25, 25, 512, 512>::publish(int, ros::Msg const*)+0xb6>
     ac0:	2400      	movs	r4, #0
     ac2:	3544      	adds	r5, #68	; 0x44
     ac4:	5d31      	ldrb	r1, [r6, r4]
     ac6:	0028      	movs	r0, r5
     ac8:	3401      	adds	r4, #1
     aca:	f003 fb2d 	bl	4128 <mbed::Stream::putc(int)>
     ace:	42a7      	cmp	r7, r4
     ad0:	dcf8      	bgt.n	ac4 <ros::NodeHandle_<MbedHardware, 25, 25, 512, 512>::publish(int, ros::Msg const*)+0xa8>
     ad2:	4640      	mov	r0, r8
     ad4:	b004      	add	sp, #16
     ad6:	bc04      	pop	{r2}
     ad8:	4690      	mov	r8, r2
     ada:	bdf0      	pop	{r4, r5, r6, r7, pc}
     adc:	2103      	movs	r1, #3
     ade:	4b33      	ldr	r3, [pc, #204]	; (bac <ros::NodeHandle_<MbedHardware, 25, 25, 512, 512>::publish(int, ros::Msg const*)+0x190>)
     ae0:	4c33      	ldr	r4, [pc, #204]	; (bb0 <ros::NodeHandle_<MbedHardware, 25, 25, 512, 512>::publish(int, ros::Msg const*)+0x194>)
     ae2:	aa01      	add	r2, sp, #4
     ae4:	9301      	str	r3, [sp, #4]
     ae6:	682b      	ldr	r3, [r5, #0]
     ae8:	7111      	strb	r1, [r2, #4]
     aea:	6094      	str	r4, [r2, #8]
     aec:	681b      	ldr	r3, [r3, #0]
     aee:	4831      	ldr	r0, [pc, #196]	; (bb4 <ros::NodeHandle_<MbedHardware, 25, 25, 512, 512>::publish(int, ros::Msg const*)+0x198>)
     af0:	4283      	cmp	r3, r0
     af2:	d148      	bne.n	b86 <ros::NodeHandle_<MbedHardware, 25, 25, 512, 512>::publish(int, ros::Msg const*)+0x16a>
     af4:	4b27      	ldr	r3, [pc, #156]	; (b94 <ros::NodeHandle_<MbedHardware, 25, 25, 512, 512>::publish(int, ros::Msg const*)+0x178>)
     af6:	2204      	movs	r2, #4
     af8:	54e9      	strb	r1, [r5, r3]
     afa:	2338      	movs	r3, #56	; 0x38
     afc:	9300      	str	r3, [sp, #0]
     afe:	23ca      	movs	r3, #202	; 0xca
     b00:	009b      	lsls	r3, r3, #2
     b02:	4669      	mov	r1, sp
     b04:	18e8      	adds	r0, r5, r3
     b06:	f004 f8aa 	bl	4c5e <memcpy>
     b0a:	23cb      	movs	r3, #203	; 0xcb
     b0c:	009b      	lsls	r3, r3, #2
     b0e:	2238      	movs	r2, #56	; 0x38
     b10:	0021      	movs	r1, r4
     b12:	18e8      	adds	r0, r5, r3
     b14:	f004 f8a3 	bl	4c5e <memcpy>
     b18:	23c8      	movs	r3, #200	; 0xc8
     b1a:	22ff      	movs	r2, #255	; 0xff
     b1c:	009b      	lsls	r3, r3, #2
     b1e:	54ea      	strb	r2, [r5, r3]
     b20:	4b1d      	ldr	r3, [pc, #116]	; (b98 <ros::NodeHandle_<MbedHardware, 25, 25, 512, 512>::publish(int, ros::Msg const*)+0x17c>)
     b22:	3a01      	subs	r2, #1
     b24:	54ea      	strb	r2, [r5, r3]
     b26:	4b1d      	ldr	r3, [pc, #116]	; (b9c <ros::NodeHandle_<MbedHardware, 25, 25, 512, 512>::publish(int, ros::Msg const*)+0x180>)
     b28:	3ac1      	subs	r2, #193	; 0xc1
     b2a:	54ea      	strb	r2, [r5, r3]
     b2c:	2300      	movs	r3, #0
     b2e:	21c2      	movs	r1, #194	; 0xc2
     b30:	4a1b      	ldr	r2, [pc, #108]	; (ba0 <ros::NodeHandle_<MbedHardware, 25, 25, 512, 512>::publish(int, ros::Msg const*)+0x184>)
     b32:	54ab      	strb	r3, [r5, r2]
     b34:	3201      	adds	r2, #1
     b36:	54a9      	strb	r1, [r5, r2]
     b38:	4a1a      	ldr	r2, [pc, #104]	; (ba4 <ros::NodeHandle_<MbedHardware, 25, 25, 512, 512>::publish(int, ros::Msg const*)+0x188>)
     b3a:	39bb      	subs	r1, #187	; 0xbb
     b3c:	54a9      	strb	r1, [r5, r2]
     b3e:	4a1a      	ldr	r2, [pc, #104]	; (ba8 <ros::NodeHandle_<MbedHardware, 25, 25, 512, 512>::publish(int, ros::Msg const*)+0x18c>)
     b40:	54ab      	strb	r3, [r5, r2]
     b42:	23d9      	movs	r3, #217	; 0xd9
     b44:	009b      	lsls	r3, r3, #2
     b46:	18e9      	adds	r1, r5, r3
     b48:	2207      	movs	r2, #7
     b4a:	2300      	movs	r3, #0
     b4c:	e001      	b.n	b52 <ros::NodeHandle_<MbedHardware, 25, 25, 512, 512>::publish(int, ros::Msg const*)+0x136>
     b4e:	7832      	ldrb	r2, [r6, #0]
     b50:	3601      	adds	r6, #1
     b52:	189b      	adds	r3, r3, r2
     b54:	428e      	cmp	r6, r1
     b56:	d1fa      	bne.n	b4e <ros::NodeHandle_<MbedHardware, 25, 25, 512, 512>::publish(int, ros::Msg const*)+0x132>
     b58:	22d9      	movs	r2, #217	; 0xd9
     b5a:	43db      	mvns	r3, r3
     b5c:	0092      	lsls	r2, r2, #2
     b5e:	54ab      	strb	r3, [r5, r2]
     b60:	23c8      	movs	r3, #200	; 0xc8
     b62:	009b      	lsls	r3, r3, #2
     b64:	18ec      	adds	r4, r5, r3
     b66:	4b14      	ldr	r3, [pc, #80]	; (bb8 <ros::NodeHandle_<MbedHardware, 25, 25, 512, 512>::publish(int, ros::Msg const*)+0x19c>)
     b68:	002e      	movs	r6, r5
     b6a:	469c      	mov	r12, r3
     b6c:	3644      	adds	r6, #68	; 0x44
     b6e:	4465      	add	r5, r12
     b70:	7821      	ldrb	r1, [r4, #0]
     b72:	0030      	movs	r0, r6
     b74:	3401      	adds	r4, #1
     b76:	f003 fad7 	bl	4128 <mbed::Stream::putc(int)>
     b7a:	42ac      	cmp	r4, r5
     b7c:	d1f8      	bne.n	b70 <ros::NodeHandle_<MbedHardware, 25, 25, 512, 512>::publish(int, ros::Msg const*)+0x154>
     b7e:	2301      	movs	r3, #1
     b80:	425b      	negs	r3, r3
     b82:	4698      	mov	r8, r3
     b84:	e7a5      	b.n	ad2 <ros::NodeHandle_<MbedHardware, 25, 25, 512, 512>::publish(int, ros::Msg const*)+0xb6>
     b86:	2107      	movs	r1, #7
     b88:	0028      	movs	r0, r5
     b8a:	4798      	blx	r3
     b8c:	e7f7      	b.n	b7e <ros::NodeHandle_<MbedHardware, 25, 25, 512, 512>::publish(int, ros::Msg const*)+0x162>
     b8e:	46c0      	nop			; (mov r8, r8)
     b90:	000005fc 	.word	0x000005fc
     b94:	00000327 	.word	0x00000327
     b98:	00000321 	.word	0x00000321
     b9c:	00000322 	.word	0x00000322
     ba0:	00000323 	.word	0x00000323
     ba4:	00000325 	.word	0x00000325
     ba8:	00000326 	.word	0x00000326
     bac:	000066ec 	.word	0x000066ec
     bb0:	0000685c 	.word	0x0000685c
     bb4:	00000a1d 	.word	0x00000a1d
     bb8:	00000365 	.word	0x00000365

00000bbc <main>:
     bbc:	b5f0      	push	{r4, r5, r6, r7, lr}
     bbe:	4656      	mov	r6, r10
     bc0:	465f      	mov	r7, r11
     bc2:	464d      	mov	r5, r9
     bc4:	4644      	mov	r4, r8
     bc6:	2380      	movs	r3, #128	; 0x80
     bc8:	b4f0      	push	{r4, r5, r6, r7}
     bca:	4ed5      	ldr	r6, [pc, #852]	; (f20 <main+0x364>)
     bcc:	005b      	lsls	r3, r3, #1
     bce:	58f1      	ldr	r1, [r6, r3]
     bd0:	b089      	sub	sp, #36	; 0x24
     bd2:	1d30      	adds	r0, r6, #4
     bd4:	f003 f9b4 	bl	3f40 <mbed::SerialBase::baud(int)>
     bd8:	22bd      	movs	r2, #189	; 0xbd
     bda:	2300      	movs	r3, #0
     bdc:	00d2      	lsls	r2, r2, #3
     bde:	50b3      	str	r3, [r6, r2]
     be0:	4ad0      	ldr	r2, [pc, #832]	; (f24 <main+0x368>)
     be2:	50b3      	str	r3, [r6, r2]
     be4:	4ad0      	ldr	r2, [pc, #832]	; (f28 <main+0x36c>)
     be6:	50b3      	str	r3, [r6, r2]
     be8:	3a04      	subs	r2, #4
     bea:	50b3      	str	r3, [r6, r2]
     bec:	4acf      	ldr	r2, [pc, #828]	; (f2c <main+0x370>)
     bee:	6811      	ldr	r1, [r2, #0]
     bf0:	2900      	cmp	r1, #0
     bf2:	d004      	beq.n	bfe <main+0x42>
     bf4:	3301      	adds	r3, #1
     bf6:	3204      	adds	r2, #4
     bf8:	2b19      	cmp	r3, #25
     bfa:	d1f8      	bne.n	bee <main+0x32>
     bfc:	e008      	b.n	c10 <main+0x54>
     bfe:	001a      	movs	r2, r3
     c00:	3261      	adds	r2, #97	; 0x61
     c02:	32ff      	adds	r2, #255	; 0xff
     c04:	49ca      	ldr	r1, [pc, #808]	; (f30 <main+0x374>)
     c06:	0092      	lsls	r2, r2, #2
     c08:	18b2      	adds	r2, r6, r2
     c0a:	3364      	adds	r3, #100	; 0x64
     c0c:	6051      	str	r1, [r2, #4]
     c0e:	604b      	str	r3, [r1, #4]
     c10:	4bc8      	ldr	r3, [pc, #800]	; (f34 <main+0x378>)
     c12:	469b      	mov	r11, r3
     c14:	48c8      	ldr	r0, [pc, #800]	; (f38 <main+0x37c>)
     c16:	f003 fab7 	bl	4188 <mbed::Timer::read_ms()>
     c1a:	465b      	mov	r3, r11
     c1c:	4ac7      	ldr	r2, [pc, #796]	; (f3c <main+0x380>)
     c1e:	58f3      	ldr	r3, [r6, r3]
     c20:	4682      	mov	r10, r0
     c22:	1ac3      	subs	r3, r0, r3
     c24:	4293      	cmp	r3, r2
     c26:	d902      	bls.n	c2e <main+0x72>
     c28:	2200      	movs	r2, #0
     c2a:	4bc5      	ldr	r3, [pc, #788]	; (f40 <main+0x384>)
     c2c:	54f2      	strb	r2, [r6, r3]
     c2e:	23bd      	movs	r3, #189	; 0xbd
     c30:	00db      	lsls	r3, r3, #3
     c32:	58f2      	ldr	r2, [r6, r3]
     c34:	2a00      	cmp	r2, #0
     c36:	d006      	beq.n	c46 <main+0x8a>
     c38:	22c1      	movs	r2, #193	; 0xc1
     c3a:	00d2      	lsls	r2, r2, #3
     c3c:	58b2      	ldr	r2, [r6, r2]
     c3e:	4592      	cmp	r10, r2
     c40:	d901      	bls.n	c46 <main+0x8a>
     c42:	2200      	movs	r2, #0
     c44:	50f2      	str	r2, [r6, r3]
     c46:	0034      	movs	r4, r6
     c48:	1d35      	adds	r5, r6, #4
     c4a:	0028      	movs	r0, r5
     c4c:	f001 fe5e 	bl	290c <AjK::MODSERIAL::rxBufferEmpty()>
     c50:	1e07      	subs	r7, r0, #0
     c52:	d010      	beq.n	c76 <main+0xba>
     c54:	4bba      	ldr	r3, [pc, #744]	; (f40 <main+0x384>)
     c56:	5cf3      	ldrb	r3, [r6, r3]
     c58:	2b00      	cmp	r3, #0
     c5a:	d008      	beq.n	c6e <main+0xb2>
     c5c:	23c0      	movs	r3, #192	; 0xc0
     c5e:	4652      	mov	r2, r10
     c60:	00db      	lsls	r3, r3, #3
     c62:	58f3      	ldr	r3, [r6, r3]
     c64:	1ad3      	subs	r3, r2, r3
     c66:	4ab7      	ldr	r2, [pc, #732]	; (f44 <main+0x388>)
     c68:	4293      	cmp	r3, r2
     c6a:	d900      	bls.n	c6e <main+0xb2>
     c6c:	e108      	b.n	e80 <main+0x2c4>
     c6e:	2001      	movs	r0, #1
     c70:	f002 f920 	bl	2eb4 <wait_ms>
     c74:	e7ce      	b.n	c14 <main+0x58>
     c76:	2101      	movs	r1, #1
     c78:	0028      	movs	r0, r5
     c7a:	f001 fcab 	bl	25d4 <AjK::MODSERIAL::__getc(bool)>
     c7e:	2800      	cmp	r0, #0
     c80:	dbe8      	blt.n	c54 <main+0x98>
     c82:	22bf      	movs	r2, #191	; 0xbf
     c84:	21bd      	movs	r1, #189	; 0xbd
     c86:	00d2      	lsls	r2, r2, #3
     c88:	58a3      	ldr	r3, [r4, r2]
     c8a:	00c9      	lsls	r1, r1, #3
     c8c:	5865      	ldr	r5, [r4, r1]
     c8e:	18c3      	adds	r3, r0, r3
     c90:	50a3      	str	r3, [r4, r2]
     c92:	2d07      	cmp	r5, #7
     c94:	d04c      	beq.n	d30 <main+0x174>
     c96:	2d00      	cmp	r5, #0
     c98:	d109      	bne.n	cae <main+0xf2>
     c9a:	28ff      	cmp	r0, #255	; 0xff
     c9c:	d15c      	bne.n	d58 <main+0x19c>
     c9e:	2301      	movs	r3, #1
     ca0:	22c1      	movs	r2, #193	; 0xc1
     ca2:	5063      	str	r3, [r4, r1]
     ca4:	4653      	mov	r3, r10
     ca6:	00d2      	lsls	r2, r2, #3
     ca8:	3314      	adds	r3, #20
     caa:	50a3      	str	r3, [r4, r2]
     cac:	e7cc      	b.n	c48 <main+0x8c>
     cae:	2d01      	cmp	r5, #1
     cb0:	d05e      	beq.n	d70 <main+0x1b4>
     cb2:	2d02      	cmp	r5, #2
     cb4:	d100      	bne.n	cb8 <main+0xfc>
     cb6:	e0ab      	b.n	e10 <main+0x254>
     cb8:	2d03      	cmp	r5, #3
     cba:	d100      	bne.n	cbe <main+0x102>
     cbc:	e0b0      	b.n	e20 <main+0x264>
     cbe:	2d04      	cmp	r5, #4
     cc0:	d100      	bne.n	cc4 <main+0x108>
     cc2:	e0b6      	b.n	e32 <main+0x276>
     cc4:	2d05      	cmp	r5, #5
     cc6:	d100      	bne.n	cca <main+0x10e>
     cc8:	e0c0      	b.n	e4c <main+0x290>
     cca:	2d06      	cmp	r5, #6
     ccc:	d100      	bne.n	cd0 <main+0x114>
     cce:	e0c4      	b.n	e5a <main+0x29e>
     cd0:	2d08      	cmp	r5, #8
     cd2:	d1b9      	bne.n	c48 <main+0x8c>
     cd4:	22bd      	movs	r2, #189	; 0xbd
     cd6:	2100      	movs	r1, #0
     cd8:	20ff      	movs	r0, #255	; 0xff
     cda:	00d2      	lsls	r2, r2, #3
     cdc:	50b1      	str	r1, [r6, r2]
     cde:	17da      	asrs	r2, r3, #31
     ce0:	0e12      	lsrs	r2, r2, #24
     ce2:	189b      	adds	r3, r3, r2
     ce4:	4003      	ands	r3, r0
     ce6:	1a9b      	subs	r3, r3, r2
     ce8:	2bff      	cmp	r3, #255	; 0xff
     cea:	d1ad      	bne.n	c48 <main+0x8c>
     cec:	22be      	movs	r2, #190	; 0xbe
     cee:	00d2      	lsls	r2, r2, #3
     cf0:	58a2      	ldr	r2, [r4, r2]
     cf2:	2a00      	cmp	r2, #0
     cf4:	d100      	bne.n	cf8 <main+0x13c>
     cf6:	e261      	b.n	11bc <main+0x600>
     cf8:	2a0a      	cmp	r2, #10
     cfa:	d100      	bne.n	cfe <main+0x142>
     cfc:	e216      	b.n	112c <main+0x570>
     cfe:	2a06      	cmp	r2, #6
     d00:	d100      	bne.n	d04 <main+0x148>
     d02:	e13b      	b.n	f7c <main+0x3c0>
     d04:	2a0b      	cmp	r2, #11
     d06:	d100      	bne.n	d0a <main+0x14e>
     d08:	e106      	b.n	f18 <main+0x35c>
     d0a:	0013      	movs	r3, r2
     d0c:	33fc      	adds	r3, #252	; 0xfc
     d0e:	009b      	lsls	r3, r3, #2
     d10:	18e3      	adds	r3, r4, r3
     d12:	685b      	ldr	r3, [r3, #4]
     d14:	2b00      	cmp	r3, #0
     d16:	d097      	beq.n	c48 <main+0x8c>
     d18:	681a      	ldr	r2, [r3, #0]
     d1a:	498b      	ldr	r1, [pc, #556]	; (f48 <main+0x38c>)
     d1c:	6812      	ldr	r2, [r2, #0]
     d1e:	428a      	cmp	r2, r1
     d20:	d001      	beq.n	d26 <main+0x16a>
     d22:	f000 fc65 	bl	15f0 <main+0xa34>
     d26:	0018      	movs	r0, r3
     d28:	691b      	ldr	r3, [r3, #16]
     d2a:	300c      	adds	r0, #12
     d2c:	4798      	blx	r3
     d2e:	e78b      	b.n	c48 <main+0x8c>
     d30:	4a7d      	ldr	r2, [pc, #500]	; (f28 <main+0x36c>)
     d32:	58a3      	ldr	r3, [r4, r2]
     d34:	1c59      	adds	r1, r3, #1
     d36:	18e3      	adds	r3, r4, r3
     d38:	50a1      	str	r1, [r4, r2]
     d3a:	3321      	adds	r3, #33	; 0x21
     d3c:	4a79      	ldr	r2, [pc, #484]	; (f24 <main+0x368>)
     d3e:	33ff      	adds	r3, #255	; 0xff
     d40:	7018      	strb	r0, [r3, #0]
     d42:	58a3      	ldr	r3, [r4, r2]
     d44:	3b01      	subs	r3, #1
     d46:	50a3      	str	r3, [r4, r2]
     d48:	2b00      	cmp	r3, #0
     d4a:	d000      	beq.n	d4e <main+0x192>
     d4c:	e77c      	b.n	c48 <main+0x8c>
     d4e:	23bd      	movs	r3, #189	; 0xbd
     d50:	2208      	movs	r2, #8
     d52:	00db      	lsls	r3, r3, #3
     d54:	50f2      	str	r2, [r6, r3]
     d56:	e777      	b.n	c48 <main+0x8c>
     d58:	1d60      	adds	r0, r4, #5
     d5a:	30ff      	adds	r0, #255	; 0xff
     d5c:	f003 fa14 	bl	4188 <mbed::Timer::read_ms()>
     d60:	4653      	mov	r3, r10
     d62:	1ac0      	subs	r0, r0, r3
     d64:	2805      	cmp	r0, #5
     d66:	d800      	bhi.n	d6a <main+0x1ae>
     d68:	e76e      	b.n	c48 <main+0x8c>
     d6a:	4b75      	ldr	r3, [pc, #468]	; (f40 <main+0x384>)
     d6c:	54f5      	strb	r5, [r6, r3]
     d6e:	e77e      	b.n	c6e <main+0xb2>
     d70:	28fe      	cmp	r0, #254	; 0xfe
     d72:	d068      	beq.n	e46 <main+0x28a>
     d74:	4b72      	ldr	r3, [pc, #456]	; (f40 <main+0x384>)
     d76:	5067      	str	r7, [r4, r1]
     d78:	5ce3      	ldrb	r3, [r4, r3]
     d7a:	2b00      	cmp	r3, #0
     d7c:	d000      	beq.n	d80 <main+0x1c4>
     d7e:	e763      	b.n	c48 <main+0x8c>
     d80:	21ff      	movs	r1, #255	; 0xff
     d82:	4a72      	ldr	r2, [pc, #456]	; (f4c <main+0x390>)
     d84:	54a3      	strb	r3, [r4, r2]
     d86:	3201      	adds	r2, #1
     d88:	54a3      	strb	r3, [r4, r2]
     d8a:	4a71      	ldr	r2, [pc, #452]	; (f50 <main+0x394>)
     d8c:	54a3      	strb	r3, [r4, r2]
     d8e:	4a71      	ldr	r2, [pc, #452]	; (f54 <main+0x398>)
     d90:	54a3      	strb	r3, [r4, r2]
     d92:	4a71      	ldr	r2, [pc, #452]	; (f58 <main+0x39c>)
     d94:	54a3      	strb	r3, [r4, r2]
     d96:	3201      	adds	r2, #1
     d98:	54a3      	strb	r3, [r4, r2]
     d9a:	4a70      	ldr	r2, [pc, #448]	; (f5c <main+0x3a0>)
     d9c:	54a3      	strb	r3, [r4, r2]
     d9e:	4a70      	ldr	r2, [pc, #448]	; (f60 <main+0x3a4>)
     da0:	54a3      	strb	r3, [r4, r2]
     da2:	3a0e      	subs	r2, #14
     da4:	54a1      	strb	r1, [r4, r2]
     da6:	4a6f      	ldr	r2, [pc, #444]	; (f64 <main+0x3a8>)
     da8:	3901      	subs	r1, #1
     daa:	54a1      	strb	r1, [r4, r2]
     dac:	4a6e      	ldr	r2, [pc, #440]	; (f68 <main+0x3ac>)
     dae:	39f6      	subs	r1, #246	; 0xf6
     db0:	54a1      	strb	r1, [r4, r2]
     db2:	4a6e      	ldr	r2, [pc, #440]	; (f6c <main+0x3b0>)
     db4:	31ef      	adds	r1, #239	; 0xef
     db6:	54a3      	strb	r3, [r4, r2]
     db8:	3201      	adds	r2, #1
     dba:	54a1      	strb	r1, [r4, r2]
     dbc:	4a6c      	ldr	r2, [pc, #432]	; (f70 <main+0x3b4>)
     dbe:	39ed      	subs	r1, #237	; 0xed
     dc0:	54a1      	strb	r1, [r4, r2]
     dc2:	4a6c      	ldr	r2, [pc, #432]	; (f74 <main+0x3b8>)
     dc4:	54a3      	strb	r3, [r4, r2]
     dc6:	18a3      	adds	r3, r4, r2
     dc8:	4a6b      	ldr	r2, [pc, #428]	; (f78 <main+0x3bc>)
     dca:	18a0      	adds	r0, r4, r2
     dcc:	2200      	movs	r2, #0
     dce:	e001      	b.n	dd4 <main+0x218>
     dd0:	7819      	ldrb	r1, [r3, #0]
     dd2:	3301      	adds	r3, #1
     dd4:	1852      	adds	r2, r2, r1
     dd6:	4283      	cmp	r3, r0
     dd8:	d1fa      	bne.n	dd0 <main+0x214>
     dda:	43d2      	mvns	r2, r2
     ddc:	4b66      	ldr	r3, [pc, #408]	; (f78 <main+0x3bc>)
     dde:	0037      	movs	r7, r6
     de0:	54f2      	strb	r2, [r6, r3]
     de2:	4b60      	ldr	r3, [pc, #384]	; (f64 <main+0x3a8>)
     de4:	21ff      	movs	r1, #255	; 0xff
     de6:	18f5      	adds	r5, r6, r3
     de8:	330f      	adds	r3, #15
     dea:	4698      	mov	r8, r3
     dec:	3744      	adds	r7, #68	; 0x44
     dee:	44b0      	add	r8, r6
     df0:	e001      	b.n	df6 <main+0x23a>
     df2:	7829      	ldrb	r1, [r5, #0]
     df4:	3501      	adds	r5, #1
     df6:	0038      	movs	r0, r7
     df8:	f003 f996 	bl	4128 <mbed::Stream::putc(int)>
     dfc:	4545      	cmp	r5, r8
     dfe:	d1f8      	bne.n	df2 <main+0x236>
     e00:	1d60      	adds	r0, r4, #5
     e02:	30ff      	adds	r0, #255	; 0xff
     e04:	f003 f9c0 	bl	4188 <mbed::Timer::read_ms()>
     e08:	238a      	movs	r3, #138	; 0x8a
     e0a:	005b      	lsls	r3, r3, #1
     e0c:	50e0      	str	r0, [r4, r3]
     e0e:	e71b      	b.n	c48 <main+0x8c>
     e10:	4b44      	ldr	r3, [pc, #272]	; (f24 <main+0x368>)
     e12:	50a0      	str	r0, [r4, r2]
     e14:	50e0      	str	r0, [r4, r3]
     e16:	4b44      	ldr	r3, [pc, #272]	; (f28 <main+0x36c>)
     e18:	50e7      	str	r7, [r4, r3]
     e1a:	2303      	movs	r3, #3
     e1c:	5063      	str	r3, [r4, r1]
     e1e:	e713      	b.n	c48 <main+0x8c>
     e20:	4b40      	ldr	r3, [pc, #256]	; (f24 <main+0x368>)
     e22:	0200      	lsls	r0, r0, #8
     e24:	58e2      	ldr	r2, [r4, r3]
     e26:	4694      	mov	r12, r2
     e28:	4460      	add	r0, r12
     e2a:	50e0      	str	r0, [r4, r3]
     e2c:	2304      	movs	r3, #4
     e2e:	5063      	str	r3, [r4, r1]
     e30:	e70a      	b.n	c48 <main+0x8c>
     e32:	20ff      	movs	r0, #255	; 0xff
     e34:	17da      	asrs	r2, r3, #31
     e36:	0e12      	lsrs	r2, r2, #24
     e38:	189b      	adds	r3, r3, r2
     e3a:	4003      	ands	r3, r0
     e3c:	1a9b      	subs	r3, r3, r2
     e3e:	2bff      	cmp	r3, #255	; 0xff
     e40:	d01b      	beq.n	e7a <main+0x2be>
     e42:	5067      	str	r7, [r4, r1]
     e44:	e700      	b.n	c48 <main+0x8c>
     e46:	2302      	movs	r3, #2
     e48:	5063      	str	r3, [r4, r1]
     e4a:	e6fd      	b.n	c48 <main+0x8c>
     e4c:	23be      	movs	r3, #190	; 0xbe
     e4e:	00db      	lsls	r3, r3, #3
     e50:	50e0      	str	r0, [r4, r3]
     e52:	2306      	movs	r3, #6
     e54:	50a0      	str	r0, [r4, r2]
     e56:	5063      	str	r3, [r4, r1]
     e58:	e6f6      	b.n	c48 <main+0x8c>
     e5a:	23be      	movs	r3, #190	; 0xbe
     e5c:	00db      	lsls	r3, r3, #3
     e5e:	58f2      	ldr	r2, [r6, r3]
     e60:	0200      	lsls	r0, r0, #8
     e62:	4694      	mov	r12, r2
     e64:	2207      	movs	r2, #7
     e66:	4460      	add	r0, r12
     e68:	50f0      	str	r0, [r6, r3]
     e6a:	3b08      	subs	r3, #8
     e6c:	50f2      	str	r2, [r6, r3]
     e6e:	4b2d      	ldr	r3, [pc, #180]	; (f24 <main+0x368>)
     e70:	58f3      	ldr	r3, [r6, r3]
     e72:	2b00      	cmp	r3, #0
     e74:	d100      	bne.n	e78 <main+0x2bc>
     e76:	e76a      	b.n	d4e <main+0x192>
     e78:	e6e6      	b.n	c48 <main+0x8c>
     e7a:	3bfa      	subs	r3, #250	; 0xfa
     e7c:	5063      	str	r3, [r4, r1]
     e7e:	e6e3      	b.n	c48 <main+0x8c>
     e80:	2300      	movs	r3, #0
     e82:	21ff      	movs	r1, #255	; 0xff
     e84:	4a31      	ldr	r2, [pc, #196]	; (f4c <main+0x390>)
     e86:	54b3      	strb	r3, [r6, r2]
     e88:	3201      	adds	r2, #1
     e8a:	54b3      	strb	r3, [r6, r2]
     e8c:	4a30      	ldr	r2, [pc, #192]	; (f50 <main+0x394>)
     e8e:	54b3      	strb	r3, [r6, r2]
     e90:	4a30      	ldr	r2, [pc, #192]	; (f54 <main+0x398>)
     e92:	54b3      	strb	r3, [r6, r2]
     e94:	4a30      	ldr	r2, [pc, #192]	; (f58 <main+0x39c>)
     e96:	54b3      	strb	r3, [r6, r2]
     e98:	3201      	adds	r2, #1
     e9a:	54b3      	strb	r3, [r6, r2]
     e9c:	4a2f      	ldr	r2, [pc, #188]	; (f5c <main+0x3a0>)
     e9e:	54b3      	strb	r3, [r6, r2]
     ea0:	4a2f      	ldr	r2, [pc, #188]	; (f60 <main+0x3a4>)
     ea2:	54b3      	strb	r3, [r6, r2]
     ea4:	3a0e      	subs	r2, #14
     ea6:	54b1      	strb	r1, [r6, r2]
     ea8:	4a2e      	ldr	r2, [pc, #184]	; (f64 <main+0x3a8>)
     eaa:	3901      	subs	r1, #1
     eac:	54b1      	strb	r1, [r6, r2]
     eae:	4a2e      	ldr	r2, [pc, #184]	; (f68 <main+0x3ac>)
     eb0:	39f6      	subs	r1, #246	; 0xf6
     eb2:	54b1      	strb	r1, [r6, r2]
     eb4:	4a2d      	ldr	r2, [pc, #180]	; (f6c <main+0x3b0>)
     eb6:	31ef      	adds	r1, #239	; 0xef
     eb8:	54b3      	strb	r3, [r6, r2]
     eba:	3201      	adds	r2, #1
     ebc:	54b1      	strb	r1, [r6, r2]
     ebe:	4a2c      	ldr	r2, [pc, #176]	; (f70 <main+0x3b4>)
     ec0:	39ed      	subs	r1, #237	; 0xed
     ec2:	54b1      	strb	r1, [r6, r2]
     ec4:	4a2b      	ldr	r2, [pc, #172]	; (f74 <main+0x3b8>)
     ec6:	54b3      	strb	r3, [r6, r2]
     ec8:	18b3      	adds	r3, r6, r2
     eca:	4a2b      	ldr	r2, [pc, #172]	; (f78 <main+0x3bc>)
     ecc:	18b0      	adds	r0, r6, r2
     ece:	2200      	movs	r2, #0
     ed0:	e001      	b.n	ed6 <main+0x31a>
     ed2:	7819      	ldrb	r1, [r3, #0]
     ed4:	3301      	adds	r3, #1
     ed6:	1852      	adds	r2, r2, r1
     ed8:	4283      	cmp	r3, r0
     eda:	d1fa      	bne.n	ed2 <main+0x316>
     edc:	43d2      	mvns	r2, r2
     ede:	0035      	movs	r5, r6
     ee0:	4b25      	ldr	r3, [pc, #148]	; (f78 <main+0x3bc>)
     ee2:	21ff      	movs	r1, #255	; 0xff
     ee4:	54f2      	strb	r2, [r6, r3]
     ee6:	4b1f      	ldr	r3, [pc, #124]	; (f64 <main+0x3a8>)
     ee8:	3544      	adds	r5, #68	; 0x44
     eea:	18f4      	adds	r4, r6, r3
     eec:	330f      	adds	r3, #15
     eee:	18f7      	adds	r7, r6, r3
     ef0:	e001      	b.n	ef6 <main+0x33a>
     ef2:	7821      	ldrb	r1, [r4, #0]
     ef4:	3401      	adds	r4, #1
     ef6:	0028      	movs	r0, r5
     ef8:	f003 f916 	bl	4128 <mbed::Stream::putc(int)>
     efc:	42bc      	cmp	r4, r7
     efe:	d1f8      	bne.n	ef2 <main+0x336>
     f00:	1d70      	adds	r0, r6, #5
     f02:	30ff      	adds	r0, #255	; 0xff
     f04:	f003 f940 	bl	4188 <mbed::Timer::read_ms()>
     f08:	238a      	movs	r3, #138	; 0x8a
     f0a:	005b      	lsls	r3, r3, #1
     f0c:	50f0      	str	r0, [r6, r3]
     f0e:	23c0      	movs	r3, #192	; 0xc0
     f10:	4652      	mov	r2, r10
     f12:	00db      	lsls	r3, r3, #3
     f14:	50f2      	str	r2, [r6, r3]
     f16:	e6aa      	b.n	c6e <main+0xb2>
     f18:	4b09      	ldr	r3, [pc, #36]	; (f40 <main+0x384>)
     f1a:	54e1      	strb	r1, [r4, r3]
     f1c:	e694      	b.n	c48 <main+0x8c>
     f1e:	46c0      	nop			; (mov r8, r8)
     f20:	1ffff178 	.word	0x1ffff178
     f24:	000005ec 	.word	0x000005ec
     f28:	000005f4 	.word	0x000005f4
     f2c:	1ffff6fc 	.word	0x1ffff6fc
     f30:	1ffff7b0 	.word	0x1ffff7b0
     f34:	00000604 	.word	0x00000604
     f38:	1ffff27c 	.word	0x1ffff27c
     f3c:	00002af8 	.word	0x00002af8
     f40:	000005fc 	.word	0x000005fc
     f44:	000009c4 	.word	0x000009c4
     f48:	000005a5 	.word	0x000005a5
     f4c:	00000327 	.word	0x00000327
     f50:	00000329 	.word	0x00000329
     f54:	0000032a 	.word	0x0000032a
     f58:	0000032b 	.word	0x0000032b
     f5c:	0000032d 	.word	0x0000032d
     f60:	0000032e 	.word	0x0000032e
     f64:	00000321 	.word	0x00000321
     f68:	00000322 	.word	0x00000322
     f6c:	00000323 	.word	0x00000323
     f70:	00000325 	.word	0x00000325
     f74:	00000326 	.word	0x00000326
     f78:	0000032f 	.word	0x0000032f
     f7c:	2390      	movs	r3, #144	; 0x90
     f7e:	005b      	lsls	r3, r3, #1
     f80:	5ce5      	ldrb	r5, [r4, r3]
     f82:	4ba9      	ldr	r3, [pc, #676]	; (1228 <main+0x66c>)
     f84:	5ce3      	ldrb	r3, [r4, r3]
     f86:	42ab      	cmp	r3, r5
     f88:	d205      	bcs.n	f96 <main+0x3da>
     f8a:	4fa8      	ldr	r7, [pc, #672]	; (122c <main+0x670>)
     f8c:	00a9      	lsls	r1, r5, #2
     f8e:	59e0      	ldr	r0, [r4, r7]
     f90:	f001 fafc 	bl	258c <__wrap_realloc>
     f94:	51e0      	str	r0, [r4, r7]
     f96:	4ba4      	ldr	r3, [pc, #656]	; (1228 <main+0x66c>)
     f98:	54f5      	strb	r5, [r6, r3]
     f9a:	2d00      	cmp	r5, #0
     f9c:	d100      	bne.n	fa0 <main+0x3e4>
     f9e:	e32c      	b.n	15fa <main+0xa3e>
     fa0:	2304      	movs	r3, #4
     fa2:	0025      	movs	r5, r4
     fa4:	4698      	mov	r8, r3
     fa6:	4ba1      	ldr	r3, [pc, #644]	; (122c <main+0x670>)
     fa8:	2700      	movs	r7, #0
     faa:	4699      	mov	r9, r3
     fac:	3525      	adds	r5, #37	; 0x25
     fae:	35ff      	adds	r5, #255	; 0xff
     fb0:	786b      	ldrb	r3, [r5, #1]
     fb2:	00b8      	lsls	r0, r7, #2
     fb4:	021a      	lsls	r2, r3, #8
     fb6:	78ab      	ldrb	r3, [r5, #2]
     fb8:	499d      	ldr	r1, [pc, #628]	; (1230 <main+0x674>)
     fba:	041b      	lsls	r3, r3, #16
     fbc:	4313      	orrs	r3, r2
     fbe:	782a      	ldrb	r2, [r5, #0]
     fc0:	3701      	adds	r7, #1
     fc2:	431a      	orrs	r2, r3
     fc4:	78eb      	ldrb	r3, [r5, #3]
     fc6:	b2ff      	uxtb	r7, r7
     fc8:	061b      	lsls	r3, r3, #24
     fca:	4313      	orrs	r3, r2
     fcc:	22c3      	movs	r2, #195	; 0xc3
     fce:	00d2      	lsls	r2, r2, #3
     fd0:	50b3      	str	r3, [r6, r2]
     fd2:	2304      	movs	r3, #4
     fd4:	469c      	mov	r12, r3
     fd6:	464b      	mov	r3, r9
     fd8:	58f3      	ldr	r3, [r6, r3]
     fda:	44e0      	add	r8, r12
     fdc:	469c      	mov	r12, r3
     fde:	2204      	movs	r2, #4
     fe0:	4460      	add	r0, r12
     fe2:	f003 fe3c 	bl	4c5e <memcpy>
     fe6:	4b90      	ldr	r3, [pc, #576]	; (1228 <main+0x66c>)
     fe8:	3504      	adds	r5, #4
     fea:	5cf3      	ldrb	r3, [r6, r3]
     fec:	42bb      	cmp	r3, r7
     fee:	d8df      	bhi.n	fb0 <main+0x3f4>
     ff0:	4645      	mov	r5, r8
     ff2:	1d2b      	adds	r3, r5, #4
     ff4:	4698      	mov	r8, r3
     ff6:	001f      	movs	r7, r3
     ff8:	23c4      	movs	r3, #196	; 0xc4
     ffa:	1975      	adds	r5, r6, r5
     ffc:	3521      	adds	r5, #33	; 0x21
     ffe:	35ff      	adds	r5, #255	; 0xff
    1000:	00db      	lsls	r3, r3, #3
    1002:	782d      	ldrb	r5, [r5, #0]
    1004:	5cf3      	ldrb	r3, [r6, r3]
    1006:	42ab      	cmp	r3, r5
    1008:	d208      	bcs.n	101c <main+0x460>
    100a:	23c5      	movs	r3, #197	; 0xc5
    100c:	00db      	lsls	r3, r3, #3
    100e:	4699      	mov	r9, r3
    1010:	58e0      	ldr	r0, [r4, r3]
    1012:	00a9      	lsls	r1, r5, #2
    1014:	f001 faba 	bl	258c <__wrap_realloc>
    1018:	464b      	mov	r3, r9
    101a:	50e0      	str	r0, [r4, r3]
    101c:	23c4      	movs	r3, #196	; 0xc4
    101e:	00db      	lsls	r3, r3, #3
    1020:	54f5      	strb	r5, [r6, r3]
    1022:	2d00      	cmp	r5, #0
    1024:	d02d      	beq.n	1082 <main+0x4c6>
    1026:	2300      	movs	r3, #0
    1028:	003d      	movs	r5, r7
    102a:	4698      	mov	r8, r3
    102c:	23c5      	movs	r3, #197	; 0xc5
    102e:	3521      	adds	r5, #33	; 0x21
    1030:	35ff      	adds	r5, #255	; 0xff
    1032:	1965      	adds	r5, r4, r5
    1034:	00db      	lsls	r3, r3, #3
    1036:	4699      	mov	r9, r3
    1038:	002b      	movs	r3, r5
    103a:	4645      	mov	r5, r8
    103c:	46b8      	mov	r8, r7
    103e:	001f      	movs	r7, r3
    1040:	787b      	ldrb	r3, [r7, #1]
    1042:	00a8      	lsls	r0, r5, #2
    1044:	021a      	lsls	r2, r3, #8
    1046:	78bb      	ldrb	r3, [r7, #2]
    1048:	497a      	ldr	r1, [pc, #488]	; (1234 <main+0x678>)
    104a:	041b      	lsls	r3, r3, #16
    104c:	4313      	orrs	r3, r2
    104e:	783a      	ldrb	r2, [r7, #0]
    1050:	3501      	adds	r5, #1
    1052:	431a      	orrs	r2, r3
    1054:	78fb      	ldrb	r3, [r7, #3]
    1056:	b2ed      	uxtb	r5, r5
    1058:	061b      	lsls	r3, r3, #24
    105a:	4313      	orrs	r3, r2
    105c:	4a76      	ldr	r2, [pc, #472]	; (1238 <main+0x67c>)
    105e:	3704      	adds	r7, #4
    1060:	50b3      	str	r3, [r6, r2]
    1062:	2304      	movs	r3, #4
    1064:	469c      	mov	r12, r3
    1066:	464b      	mov	r3, r9
    1068:	58f3      	ldr	r3, [r6, r3]
    106a:	44e0      	add	r8, r12
    106c:	469c      	mov	r12, r3
    106e:	2204      	movs	r2, #4
    1070:	4460      	add	r0, r12
    1072:	f003 fdf4 	bl	4c5e <memcpy>
    1076:	23c4      	movs	r3, #196	; 0xc4
    1078:	00db      	lsls	r3, r3, #3
    107a:	5cf3      	ldrb	r3, [r6, r3]
    107c:	42ab      	cmp	r3, r5
    107e:	d8df      	bhi.n	1040 <main+0x484>
    1080:	4647      	mov	r7, r8
    1082:	4643      	mov	r3, r8
    1084:	18f3      	adds	r3, r6, r3
    1086:	3321      	adds	r3, #33	; 0x21
    1088:	33ff      	adds	r3, #255	; 0xff
    108a:	781b      	ldrb	r3, [r3, #0]
    108c:	4698      	mov	r8, r3
    108e:	4b6b      	ldr	r3, [pc, #428]	; (123c <main+0x680>)
    1090:	5cf3      	ldrb	r3, [r6, r3]
    1092:	4543      	cmp	r3, r8
    1094:	d206      	bcs.n	10a4 <main+0x4e8>
    1096:	4643      	mov	r3, r8
    1098:	4d69      	ldr	r5, [pc, #420]	; (1240 <main+0x684>)
    109a:	0099      	lsls	r1, r3, #2
    109c:	5960      	ldr	r0, [r4, r5]
    109e:	f001 fa75 	bl	258c <__wrap_realloc>
    10a2:	5160      	str	r0, [r4, r5]
    10a4:	4642      	mov	r2, r8
    10a6:	4b65      	ldr	r3, [pc, #404]	; (123c <main+0x680>)
    10a8:	3704      	adds	r7, #4
    10aa:	54f2      	strb	r2, [r6, r3]
    10ac:	2390      	movs	r3, #144	; 0x90
    10ae:	005b      	lsls	r3, r3, #1
    10b0:	4699      	mov	r9, r3
    10b2:	4643      	mov	r3, r8
    10b4:	2500      	movs	r5, #0
    10b6:	44b1      	add	r9, r6
    10b8:	2b00      	cmp	r3, #0
    10ba:	d033      	beq.n	1124 <main+0x568>
    10bc:	464b      	mov	r3, r9
    10be:	2204      	movs	r2, #4
    10c0:	19d9      	adds	r1, r3, r7
    10c2:	a807      	add	r0, sp, #28
    10c4:	f003 fdcb 	bl	4c5e <memcpy>
    10c8:	1d3b      	adds	r3, r7, #4
    10ca:	469c      	mov	r12, r3
    10cc:	9b07      	ldr	r3, [sp, #28]
    10ce:	4463      	add	r3, r12
    10d0:	1e18      	subs	r0, r3, #0
    10d2:	4560      	cmp	r0, r12
    10d4:	d90a      	bls.n	10ec <main+0x530>
    10d6:	003b      	movs	r3, r7
    10d8:	4662      	mov	r2, r12
    10da:	3324      	adds	r3, #36	; 0x24
    10dc:	33ff      	adds	r3, #255	; 0xff
    10de:	18e3      	adds	r3, r4, r3
    10e0:	7859      	ldrb	r1, [r3, #1]
    10e2:	3201      	adds	r2, #1
    10e4:	7019      	strb	r1, [r3, #0]
    10e6:	3301      	adds	r3, #1
    10e8:	4290      	cmp	r0, r2
    10ea:	d8f9      	bhi.n	10e0 <main+0x524>
    10ec:	2200      	movs	r2, #0
    10ee:	1833      	adds	r3, r6, r0
    10f0:	3320      	adds	r3, #32
    10f2:	33ff      	adds	r3, #255	; 0xff
    10f4:	701a      	strb	r2, [r3, #0]
    10f6:	4663      	mov	r3, r12
    10f8:	22c6      	movs	r2, #198	; 0xc6
    10fa:	3b01      	subs	r3, #1
    10fc:	444b      	add	r3, r9
    10fe:	00d2      	lsls	r2, r2, #3
    1100:	50b3      	str	r3, [r6, r2]
    1102:	4a4f      	ldr	r2, [pc, #316]	; (1240 <main+0x684>)
    1104:	0007      	movs	r7, r0
    1106:	58b0      	ldr	r0, [r6, r2]
    1108:	00ab      	lsls	r3, r5, #2
    110a:	18c0      	adds	r0, r0, r3
    110c:	23c6      	movs	r3, #198	; 0xc6
    110e:	00db      	lsls	r3, r3, #3
    1110:	18f1      	adds	r1, r6, r3
    1112:	2204      	movs	r2, #4
    1114:	f003 fda3 	bl	4c5e <memcpy>
    1118:	4b48      	ldr	r3, [pc, #288]	; (123c <main+0x680>)
    111a:	3501      	adds	r5, #1
    111c:	5cf3      	ldrb	r3, [r6, r3]
    111e:	b2ed      	uxtb	r5, r5
    1120:	42ab      	cmp	r3, r5
    1122:	d8cb      	bhi.n	10bc <main+0x500>
    1124:	2201      	movs	r2, #1
    1126:	4b47      	ldr	r3, [pc, #284]	; (1244 <main+0x688>)
    1128:	54f2      	strb	r2, [r6, r3]
    112a:	e58d      	b.n	c48 <main+0x8c>
    112c:	1d63      	adds	r3, r4, #5
    112e:	33ff      	adds	r3, #255	; 0xff
    1130:	0018      	movs	r0, r3
    1132:	4698      	mov	r8, r3
    1134:	f003 f828 	bl	4188 <mbed::Timer::read_ms()>
    1138:	238a      	movs	r3, #138	; 0x8a
    113a:	005b      	lsls	r3, r3, #1
    113c:	58e3      	ldr	r3, [r4, r3]
    113e:	4a42      	ldr	r2, [pc, #264]	; (1248 <main+0x68c>)
    1140:	1ac7      	subs	r7, r0, r3
    1142:	2390      	movs	r3, #144	; 0x90
    1144:	4694      	mov	r12, r2
    1146:	005b      	lsls	r3, r3, #1
    1148:	58e5      	ldr	r5, [r4, r3]
    114a:	3304      	adds	r3, #4
    114c:	58e3      	ldr	r3, [r4, r3]
    114e:	4640      	mov	r0, r8
    1150:	4463      	add	r3, r12
    1152:	9301      	str	r3, [sp, #4]
    1154:	f003 f818 	bl	4188 <mbed::Timer::read_ms()>
    1158:	21fa      	movs	r1, #250	; 0xfa
    115a:	4681      	mov	r9, r0
    115c:	0089      	lsls	r1, r1, #2
    115e:	0038      	movs	r0, r7
    1160:	f003 f832 	bl	41c8 <__aeabi_uidiv>
    1164:	21fa      	movs	r1, #250	; 0xfa
    1166:	3d01      	subs	r5, #1
    1168:	1945      	adds	r5, r0, r5
    116a:	0089      	lsls	r1, r1, #2
    116c:	4648      	mov	r0, r9
    116e:	f003 f82b 	bl	41c8 <__aeabi_uidiv>
    1172:	238c      	movs	r3, #140	; 0x8c
    1174:	21fa      	movs	r1, #250	; 0xfa
    1176:	1a2d      	subs	r5, r5, r0
    1178:	005b      	lsls	r3, r3, #1
    117a:	50e5      	str	r5, [r4, r3]
    117c:	0038      	movs	r0, r7
    117e:	0089      	lsls	r1, r1, #2
    1180:	f003 f8a8 	bl	42d4 <__aeabi_uidivmod>
    1184:	4d31      	ldr	r5, [pc, #196]	; (124c <main+0x690>)
    1186:	9b01      	ldr	r3, [sp, #4]
    1188:	4369      	muls	r1, r5
    118a:	000f      	movs	r7, r1
    118c:	21fa      	movs	r1, #250	; 0xfa
    118e:	469c      	mov	r12, r3
    1190:	0089      	lsls	r1, r1, #2
    1192:	4648      	mov	r0, r9
    1194:	4467      	add	r7, r12
    1196:	f003 f89d 	bl	42d4 <__aeabi_uidivmod>
    119a:	238e      	movs	r3, #142	; 0x8e
    119c:	0020      	movs	r0, r4
    119e:	434d      	muls	r5, r1
    11a0:	005b      	lsls	r3, r3, #1
    11a2:	3019      	adds	r0, #25
    11a4:	18e1      	adds	r1, r4, r3
    11a6:	30ff      	adds	r0, #255	; 0xff
    11a8:	1b7d      	subs	r5, r7, r5
    11aa:	50e5      	str	r5, [r4, r3]
    11ac:	f001 f9fe 	bl	25ac <ros::normalizeSecNSec(unsigned long&, unsigned long&)>
    11b0:	4640      	mov	r0, r8
    11b2:	f002 ffe9 	bl	4188 <mbed::Timer::read_ms()>
    11b6:	465b      	mov	r3, r11
    11b8:	50e0      	str	r0, [r4, r3]
    11ba:	e545      	b.n	c48 <main+0x8c>
    11bc:	4924      	ldr	r1, [pc, #144]	; (1250 <main+0x694>)
    11be:	5472      	strb	r2, [r6, r1]
    11c0:	3101      	adds	r1, #1
    11c2:	5472      	strb	r2, [r6, r1]
    11c4:	4923      	ldr	r1, [pc, #140]	; (1254 <main+0x698>)
    11c6:	5472      	strb	r2, [r6, r1]
    11c8:	4923      	ldr	r1, [pc, #140]	; (1258 <main+0x69c>)
    11ca:	5472      	strb	r2, [r6, r1]
    11cc:	4923      	ldr	r1, [pc, #140]	; (125c <main+0x6a0>)
    11ce:	5472      	strb	r2, [r6, r1]
    11d0:	3101      	adds	r1, #1
    11d2:	5472      	strb	r2, [r6, r1]
    11d4:	4922      	ldr	r1, [pc, #136]	; (1260 <main+0x6a4>)
    11d6:	5472      	strb	r2, [r6, r1]
    11d8:	4922      	ldr	r1, [pc, #136]	; (1264 <main+0x6a8>)
    11da:	5472      	strb	r2, [r6, r1]
    11dc:	390e      	subs	r1, #14
    11de:	5473      	strb	r3, [r6, r1]
    11e0:	21fe      	movs	r1, #254	; 0xfe
    11e2:	4b21      	ldr	r3, [pc, #132]	; (1268 <main+0x6ac>)
    11e4:	54f1      	strb	r1, [r6, r3]
    11e6:	4b21      	ldr	r3, [pc, #132]	; (126c <main+0x6b0>)
    11e8:	3907      	subs	r1, #7
    11ea:	54f5      	strb	r5, [r6, r3]
    11ec:	4b20      	ldr	r3, [pc, #128]	; (1270 <main+0x6b4>)
    11ee:	54f2      	strb	r2, [r6, r3]
    11f0:	3301      	adds	r3, #1
    11f2:	54f1      	strb	r1, [r6, r3]
    11f4:	4b1f      	ldr	r3, [pc, #124]	; (1274 <main+0x6b8>)
    11f6:	39ed      	subs	r1, #237	; 0xed
    11f8:	54f1      	strb	r1, [r6, r3]
    11fa:	4b1f      	ldr	r3, [pc, #124]	; (1278 <main+0x6bc>)
    11fc:	54f2      	strb	r2, [r6, r3]
    11fe:	4b1f      	ldr	r3, [pc, #124]	; (127c <main+0x6c0>)
    1200:	469c      	mov	r12, r3
    1202:	4b1f      	ldr	r3, [pc, #124]	; (1280 <main+0x6c4>)
    1204:	4464      	add	r4, r12
    1206:	e001      	b.n	120c <main+0x650>
    1208:	7819      	ldrb	r1, [r3, #0]
    120a:	3301      	adds	r3, #1
    120c:	1852      	adds	r2, r2, r1
    120e:	429c      	cmp	r4, r3
    1210:	d1fa      	bne.n	1208 <main+0x64c>
    1212:	43d2      	mvns	r2, r2
    1214:	0035      	movs	r5, r6
    1216:	4b19      	ldr	r3, [pc, #100]	; (127c <main+0x6c0>)
    1218:	4c1a      	ldr	r4, [pc, #104]	; (1284 <main+0x6c8>)
    121a:	54f2      	strb	r2, [r6, r3]
    121c:	3301      	adds	r3, #1
    121e:	18f7      	adds	r7, r6, r3
    1220:	21ff      	movs	r1, #255	; 0xff
    1222:	3544      	adds	r5, #68	; 0x44
    1224:	e032      	b.n	128c <main+0x6d0>
    1226:	46c0      	nop			; (mov r8, r8)
    1228:	00000614 	.word	0x00000614
    122c:	0000061c 	.word	0x0000061c
    1230:	1ffff790 	.word	0x1ffff790
    1234:	1ffff79c 	.word	0x1ffff79c
    1238:	00000624 	.word	0x00000624
    123c:	0000062c 	.word	0x0000062c
    1240:	00000634 	.word	0x00000634
    1244:	0000060c 	.word	0x0000060c
    1248:	3b9aca00 	.word	0x3b9aca00
    124c:	000f4240 	.word	0x000f4240
    1250:	00000327 	.word	0x00000327
    1254:	00000329 	.word	0x00000329
    1258:	0000032a 	.word	0x0000032a
    125c:	0000032b 	.word	0x0000032b
    1260:	0000032d 	.word	0x0000032d
    1264:	0000032e 	.word	0x0000032e
    1268:	00000321 	.word	0x00000321
    126c:	00000322 	.word	0x00000322
    1270:	00000323 	.word	0x00000323
    1274:	00000325 	.word	0x00000325
    1278:	00000326 	.word	0x00000326
    127c:	0000032f 	.word	0x0000032f
    1280:	1ffff49e 	.word	0x1ffff49e
    1284:	1ffff499 	.word	0x1ffff499
    1288:	7821      	ldrb	r1, [r4, #0]
    128a:	3401      	adds	r4, #1
    128c:	0028      	movs	r0, r5
    128e:	f002 ff4b 	bl	4128 <mbed::Stream::putc(int)>
    1292:	42bc      	cmp	r4, r7
    1294:	d1f8      	bne.n	1288 <main+0x6cc>
    1296:	1d70      	adds	r0, r6, #5
    1298:	30ff      	adds	r0, #255	; 0xff
    129a:	f002 ff75 	bl	4188 <mbed::Timer::read_ms()>
    129e:	238a      	movs	r3, #138	; 0x8a
    12a0:	005b      	lsls	r3, r3, #1
    12a2:	50f0      	str	r0, [r6, r3]
    12a4:	23a4      	movs	r3, #164	; 0xa4
    12a6:	00db      	lsls	r3, r3, #3
    12a8:	4699      	mov	r9, r3
    12aa:	44b1      	add	r9, r6
    12ac:	46b0      	mov	r8, r6
    12ae:	464d      	mov	r5, r9
    12b0:	682b      	ldr	r3, [r5, #0]
    12b2:	2b00      	cmp	r3, #0
    12b4:	d100      	bne.n	12b8 <main+0x6fc>
    12b6:	e0b4      	b.n	1422 <main+0x866>
    12b8:	6858      	ldr	r0, [r3, #4]
    12ba:	689c      	ldr	r4, [r3, #8]
    12bc:	681f      	ldr	r7, [r3, #0]
    12be:	6803      	ldr	r3, [r0, #0]
    12c0:	689b      	ldr	r3, [r3, #8]
    12c2:	4798      	blx	r3
    12c4:	682b      	ldr	r3, [r5, #0]
    12c6:	9001      	str	r0, [sp, #4]
    12c8:	6858      	ldr	r0, [r3, #4]
    12ca:	6803      	ldr	r3, [r0, #0]
    12cc:	68db      	ldr	r3, [r3, #12]
    12ce:	4798      	blx	r3
    12d0:	682b      	ldr	r3, [r5, #0]
    12d2:	9002      	str	r0, [sp, #8]
    12d4:	691b      	ldr	r3, [r3, #16]
    12d6:	9303      	str	r3, [sp, #12]
    12d8:	2b63      	cmp	r3, #99	; 0x63
    12da:	dd04      	ble.n	12e6 <main+0x72a>
    12dc:	4be7      	ldr	r3, [pc, #924]	; (167c <main+0xac0>)
    12de:	5cf3      	ldrb	r3, [r6, r3]
    12e0:	2b00      	cmp	r3, #0
    12e2:	d100      	bne.n	12e6 <main+0x72a>
    12e4:	e09d      	b.n	1422 <main+0x866>
    12e6:	4be6      	ldr	r3, [pc, #920]	; (1680 <main+0xac4>)
    12e8:	0038      	movs	r0, r7
    12ea:	54f4      	strb	r4, [r6, r3]
    12ec:	3301      	adds	r3, #1
    12ee:	0a24      	lsrs	r4, r4, #8
    12f0:	54f4      	strb	r4, [r6, r3]
    12f2:	f004 fb89 	bl	5a08 <strlen>
    12f6:	0004      	movs	r4, r0
    12f8:	4be2      	ldr	r3, [pc, #904]	; (1684 <main+0xac8>)
    12fa:	9005      	str	r0, [sp, #20]
    12fc:	2204      	movs	r2, #4
    12fe:	18f0      	adds	r0, r6, r3
    1300:	a905      	add	r1, sp, #20
    1302:	f003 fcac 	bl	4c5e <memcpy>
    1306:	4be0      	ldr	r3, [pc, #896]	; (1688 <main+0xacc>)
    1308:	0022      	movs	r2, r4
    130a:	0039      	movs	r1, r7
    130c:	18f0      	adds	r0, r6, r3
    130e:	f003 fca6 	bl	4c5e <memcpy>
    1312:	9801      	ldr	r0, [sp, #4]
    1314:	f004 fb78 	bl	5a08 <strlen>
    1318:	4ad9      	ldr	r2, [pc, #868]	; (1680 <main+0xac4>)
    131a:	1da3      	adds	r3, r4, #6
    131c:	4691      	mov	r9, r2
    131e:	44b1      	add	r9, r6
    1320:	444b      	add	r3, r9
    1322:	0007      	movs	r7, r0
    1324:	9006      	str	r0, [sp, #24]
    1326:	0018      	movs	r0, r3
    1328:	ab06      	add	r3, sp, #24
    132a:	0019      	movs	r1, r3
    132c:	2204      	movs	r2, #4
    132e:	f003 fc96 	bl	4c5e <memcpy>
    1332:	464b      	mov	r3, r9
    1334:	340a      	adds	r4, #10
    1336:	1918      	adds	r0, r3, r4
    1338:	003a      	movs	r2, r7
    133a:	9901      	ldr	r1, [sp, #4]
    133c:	f003 fc8f 	bl	4c5e <memcpy>
    1340:	9802      	ldr	r0, [sp, #8]
    1342:	f004 fb61 	bl	5a08 <strlen>
    1346:	464b      	mov	r3, r9
    1348:	193c      	adds	r4, r7, r4
    134a:	9007      	str	r0, [sp, #28]
    134c:	0007      	movs	r7, r0
    134e:	1918      	adds	r0, r3, r4
    1350:	ab07      	add	r3, sp, #28
    1352:	0019      	movs	r1, r3
    1354:	2204      	movs	r2, #4
    1356:	f003 fc82 	bl	4c5e <memcpy>
    135a:	464b      	mov	r3, r9
    135c:	3404      	adds	r4, #4
    135e:	1918      	adds	r0, r3, r4
    1360:	003a      	movs	r2, r7
    1362:	9902      	ldr	r1, [sp, #8]
    1364:	f003 fc7b 	bl	4c5e <memcpy>
    1368:	193c      	adds	r4, r7, r4
    136a:	4ac5      	ldr	r2, [pc, #788]	; (1680 <main+0xac4>)
    136c:	1933      	adds	r3, r6, r4
    136e:	1899      	adds	r1, r3, r2
    1370:	2200      	movs	r2, #0
    1372:	700a      	strb	r2, [r1, #0]
    1374:	21ca      	movs	r1, #202	; 0xca
    1376:	2002      	movs	r0, #2
    1378:	0089      	lsls	r1, r1, #2
    137a:	1859      	adds	r1, r3, r1
    137c:	7008      	strb	r0, [r1, #0]
    137e:	49c1      	ldr	r1, [pc, #772]	; (1684 <main+0xac8>)
    1380:	3404      	adds	r4, #4
    1382:	1859      	adds	r1, r3, r1
    1384:	700a      	strb	r2, [r1, #0]
    1386:	49c1      	ldr	r1, [pc, #772]	; (168c <main+0xad0>)
    1388:	0420      	lsls	r0, r4, #16
    138a:	468c      	mov	r12, r1
    138c:	4463      	add	r3, r12
    138e:	701a      	strb	r2, [r3, #0]
    1390:	23c8      	movs	r3, #200	; 0xc8
    1392:	32ff      	adds	r2, #255	; 0xff
    1394:	009b      	lsls	r3, r3, #2
    1396:	54f2      	strb	r2, [r6, r3]
    1398:	4bbd      	ldr	r3, [pc, #756]	; (1690 <main+0xad4>)
    139a:	3a01      	subs	r2, #1
    139c:	54f2      	strb	r2, [r6, r3]
    139e:	4bbd      	ldr	r3, [pc, #756]	; (1694 <main+0xad8>)
    13a0:	b2e1      	uxtb	r1, r4
    13a2:	1222      	asrs	r2, r4, #8
    13a4:	54f1      	strb	r1, [r6, r3]
    13a6:	b2d3      	uxtb	r3, r2
    13a8:	4abb      	ldr	r2, [pc, #748]	; (1698 <main+0xadc>)
    13aa:	0c00      	lsrs	r0, r0, #16
    13ac:	54b3      	strb	r3, [r6, r2]
    13ae:	18cb      	adds	r3, r1, r3
    13b0:	43db      	mvns	r3, r3
    13b2:	3201      	adds	r2, #1
    13b4:	54b3      	strb	r3, [r6, r2]
    13b6:	9a03      	ldr	r2, [sp, #12]
    13b8:	4bb8      	ldr	r3, [pc, #736]	; (169c <main+0xae0>)
    13ba:	b2d1      	uxtb	r1, r2
    13bc:	54f1      	strb	r1, [r6, r3]
    13be:	0a13      	lsrs	r3, r2, #8
    13c0:	4ab7      	ldr	r2, [pc, #732]	; (16a0 <main+0xae4>)
    13c2:	b2a7      	uxth	r7, r4
    13c4:	54b3      	strb	r3, [r6, r2]
    13c6:	4bae      	ldr	r3, [pc, #696]	; (1680 <main+0xac4>)
    13c8:	2200      	movs	r2, #0
    13ca:	469c      	mov	r12, r3
    13cc:	4460      	add	r0, r12
    13ce:	1830      	adds	r0, r6, r0
    13d0:	4bb4      	ldr	r3, [pc, #720]	; (16a4 <main+0xae8>)
    13d2:	e001      	b.n	13d8 <main+0x81c>
    13d4:	7819      	ldrb	r1, [r3, #0]
    13d6:	3301      	adds	r3, #1
    13d8:	1852      	adds	r2, r2, r1
    13da:	4283      	cmp	r3, r0
    13dc:	d1fa      	bne.n	13d4 <main+0x818>
    13de:	21c8      	movs	r1, #200	; 0xc8
    13e0:	0089      	lsls	r1, r1, #2
    13e2:	468c      	mov	r12, r1
    13e4:	43d2      	mvns	r2, r2
    13e6:	1dfb      	adds	r3, r7, #7
    13e8:	b29b      	uxth	r3, r3
    13ea:	003c      	movs	r4, r7
    13ec:	18f3      	adds	r3, r6, r3
    13ee:	4463      	add	r3, r12
    13f0:	701a      	strb	r2, [r3, #0]
    13f2:	2380      	movs	r3, #128	; 0x80
    13f4:	3408      	adds	r4, #8
    13f6:	b2a4      	uxth	r4, r4
    13f8:	009b      	lsls	r3, r3, #2
    13fa:	429c      	cmp	r4, r3
    13fc:	d900      	bls.n	1400 <main+0x844>
    13fe:	e101      	b.n	1604 <main+0xa48>
    1400:	2c00      	cmp	r4, #0
    1402:	d00e      	beq.n	1422 <main+0x866>
    1404:	3bbd      	subs	r3, #189	; 0xbd
    1406:	3bff      	subs	r3, #255	; 0xff
    1408:	4699      	mov	r9, r3
    140a:	2700      	movs	r7, #0
    140c:	44b1      	add	r9, r6
    140e:	23c8      	movs	r3, #200	; 0xc8
    1410:	009b      	lsls	r3, r3, #2
    1412:	18fb      	adds	r3, r7, r3
    1414:	5cf1      	ldrb	r1, [r6, r3]
    1416:	4648      	mov	r0, r9
    1418:	3701      	adds	r7, #1
    141a:	f002 fe85 	bl	4128 <mbed::Stream::putc(int)>
    141e:	42bc      	cmp	r4, r7
    1420:	dcf5      	bgt.n	140e <main+0x852>
    1422:	4ba1      	ldr	r3, [pc, #644]	; (16a8 <main+0xaec>)
    1424:	3504      	adds	r5, #4
    1426:	429d      	cmp	r5, r3
    1428:	d000      	beq.n	142c <main+0x870>
    142a:	e741      	b.n	12b0 <main+0x6f4>
    142c:	46b0      	mov	r8, r6
    142e:	001d      	movs	r5, r3
    1430:	6828      	ldr	r0, [r5, #0]
    1432:	2800      	cmp	r0, #0
    1434:	d100      	bne.n	1438 <main+0x87c>
    1436:	e0bf      	b.n	15b8 <main+0x9fc>
    1438:	499c      	ldr	r1, [pc, #624]	; (16ac <main+0xaf0>)
    143a:	6803      	ldr	r3, [r0, #0]
    143c:	9101      	str	r1, [sp, #4]
    143e:	689a      	ldr	r2, [r3, #8]
    1440:	499b      	ldr	r1, [pc, #620]	; (16b0 <main+0xaf4>)
    1442:	6844      	ldr	r4, [r0, #4]
    1444:	6887      	ldr	r7, [r0, #8]
    1446:	428a      	cmp	r2, r1
    1448:	d000      	beq.n	144c <main+0x890>
    144a:	e0cc      	b.n	15e6 <main+0xa2a>
    144c:	4999      	ldr	r1, [pc, #612]	; (16b4 <main+0xaf8>)
    144e:	68da      	ldr	r2, [r3, #12]
    1450:	9102      	str	r1, [sp, #8]
    1452:	4999      	ldr	r1, [pc, #612]	; (16b8 <main+0xafc>)
    1454:	428a      	cmp	r2, r1
    1456:	d000      	beq.n	145a <main+0x89e>
    1458:	e0c0      	b.n	15dc <main+0xa20>
    145a:	685b      	ldr	r3, [r3, #4]
    145c:	4a97      	ldr	r2, [pc, #604]	; (16bc <main+0xb00>)
    145e:	4293      	cmp	r3, r2
    1460:	d000      	beq.n	1464 <main+0x8a8>
    1462:	e0b8      	b.n	15d6 <main+0xa1a>
    1464:	6943      	ldr	r3, [r0, #20]
    1466:	4699      	mov	r9, r3
    1468:	464b      	mov	r3, r9
    146a:	2b63      	cmp	r3, #99	; 0x63
    146c:	dd04      	ble.n	1478 <main+0x8bc>
    146e:	4b83      	ldr	r3, [pc, #524]	; (167c <main+0xac0>)
    1470:	5cf3      	ldrb	r3, [r6, r3]
    1472:	2b00      	cmp	r3, #0
    1474:	d100      	bne.n	1478 <main+0x8bc>
    1476:	e09f      	b.n	15b8 <main+0x9fc>
    1478:	4b81      	ldr	r3, [pc, #516]	; (1680 <main+0xac4>)
    147a:	0038      	movs	r0, r7
    147c:	54f4      	strb	r4, [r6, r3]
    147e:	3301      	adds	r3, #1
    1480:	0a24      	lsrs	r4, r4, #8
    1482:	54f4      	strb	r4, [r6, r3]
    1484:	f004 fac0 	bl	5a08 <strlen>
    1488:	0004      	movs	r4, r0
    148a:	4b7e      	ldr	r3, [pc, #504]	; (1684 <main+0xac8>)
    148c:	9005      	str	r0, [sp, #20]
    148e:	2204      	movs	r2, #4
    1490:	18f0      	adds	r0, r6, r3
    1492:	a905      	add	r1, sp, #20
    1494:	f003 fbe3 	bl	4c5e <memcpy>
    1498:	4b7b      	ldr	r3, [pc, #492]	; (1688 <main+0xacc>)
    149a:	0022      	movs	r2, r4
    149c:	0039      	movs	r1, r7
    149e:	18f0      	adds	r0, r6, r3
    14a0:	f003 fbdd 	bl	4c5e <memcpy>
    14a4:	9801      	ldr	r0, [sp, #4]
    14a6:	f004 faaf 	bl	5a08 <strlen>
    14aa:	4a85      	ldr	r2, [pc, #532]	; (16c0 <main+0xb04>)
    14ac:	0007      	movs	r7, r0
    14ae:	4694      	mov	r12, r2
    14b0:	1da3      	adds	r3, r4, #6
    14b2:	4463      	add	r3, r12
    14b4:	9006      	str	r0, [sp, #24]
    14b6:	0018      	movs	r0, r3
    14b8:	ab06      	add	r3, sp, #24
    14ba:	0019      	movs	r1, r3
    14bc:	2204      	movs	r2, #4
    14be:	f003 fbce 	bl	4c5e <memcpy>
    14c2:	4b7f      	ldr	r3, [pc, #508]	; (16c0 <main+0xb04>)
    14c4:	340a      	adds	r4, #10
    14c6:	1918      	adds	r0, r3, r4
    14c8:	003a      	movs	r2, r7
    14ca:	9901      	ldr	r1, [sp, #4]
    14cc:	f003 fbc7 	bl	4c5e <memcpy>
    14d0:	9802      	ldr	r0, [sp, #8]
    14d2:	f004 fa99 	bl	5a08 <strlen>
    14d6:	193c      	adds	r4, r7, r4
    14d8:	0007      	movs	r7, r0
    14da:	4b79      	ldr	r3, [pc, #484]	; (16c0 <main+0xb04>)
    14dc:	9007      	str	r0, [sp, #28]
    14de:	1918      	adds	r0, r3, r4
    14e0:	ab07      	add	r3, sp, #28
    14e2:	0019      	movs	r1, r3
    14e4:	2204      	movs	r2, #4
    14e6:	f003 fbba 	bl	4c5e <memcpy>
    14ea:	4b75      	ldr	r3, [pc, #468]	; (16c0 <main+0xb04>)
    14ec:	3404      	adds	r4, #4
    14ee:	1918      	adds	r0, r3, r4
    14f0:	003a      	movs	r2, r7
    14f2:	9902      	ldr	r1, [sp, #8]
    14f4:	f003 fbb3 	bl	4c5e <memcpy>
    14f8:	193c      	adds	r4, r7, r4
    14fa:	4a61      	ldr	r2, [pc, #388]	; (1680 <main+0xac4>)
    14fc:	1933      	adds	r3, r6, r4
    14fe:	1899      	adds	r1, r3, r2
    1500:	2200      	movs	r2, #0
    1502:	700a      	strb	r2, [r1, #0]
    1504:	21ca      	movs	r1, #202	; 0xca
    1506:	2002      	movs	r0, #2
    1508:	0089      	lsls	r1, r1, #2
    150a:	1859      	adds	r1, r3, r1
    150c:	7008      	strb	r0, [r1, #0]
    150e:	495d      	ldr	r1, [pc, #372]	; (1684 <main+0xac8>)
    1510:	3404      	adds	r4, #4
    1512:	1859      	adds	r1, r3, r1
    1514:	700a      	strb	r2, [r1, #0]
    1516:	495d      	ldr	r1, [pc, #372]	; (168c <main+0xad0>)
    1518:	0420      	lsls	r0, r4, #16
    151a:	468c      	mov	r12, r1
    151c:	4463      	add	r3, r12
    151e:	701a      	strb	r2, [r3, #0]
    1520:	23c8      	movs	r3, #200	; 0xc8
    1522:	32ff      	adds	r2, #255	; 0xff
    1524:	009b      	lsls	r3, r3, #2
    1526:	54f2      	strb	r2, [r6, r3]
    1528:	4b59      	ldr	r3, [pc, #356]	; (1690 <main+0xad4>)
    152a:	3a01      	subs	r2, #1
    152c:	54f2      	strb	r2, [r6, r3]
    152e:	4b59      	ldr	r3, [pc, #356]	; (1694 <main+0xad8>)
    1530:	b2e1      	uxtb	r1, r4
    1532:	1222      	asrs	r2, r4, #8
    1534:	54f1      	strb	r1, [r6, r3]
    1536:	b2d3      	uxtb	r3, r2
    1538:	4a57      	ldr	r2, [pc, #348]	; (1698 <main+0xadc>)
    153a:	0c00      	lsrs	r0, r0, #16
    153c:	54b3      	strb	r3, [r6, r2]
    153e:	18cb      	adds	r3, r1, r3
    1540:	43db      	mvns	r3, r3
    1542:	3201      	adds	r2, #1
    1544:	54b3      	strb	r3, [r6, r2]
    1546:	466a      	mov	r2, sp
    1548:	464b      	mov	r3, r9
    154a:	7113      	strb	r3, [r2, #4]
    154c:	7911      	ldrb	r1, [r2, #4]
    154e:	4b53      	ldr	r3, [pc, #332]	; (169c <main+0xae0>)
    1550:	4a53      	ldr	r2, [pc, #332]	; (16a0 <main+0xae4>)
    1552:	54f1      	strb	r1, [r6, r3]
    1554:	464b      	mov	r3, r9
    1556:	0a1b      	lsrs	r3, r3, #8
    1558:	54b3      	strb	r3, [r6, r2]
    155a:	4b49      	ldr	r3, [pc, #292]	; (1680 <main+0xac4>)
    155c:	b2a7      	uxth	r7, r4
    155e:	469c      	mov	r12, r3
    1560:	4460      	add	r0, r12
    1562:	1830      	adds	r0, r6, r0
    1564:	4b4f      	ldr	r3, [pc, #316]	; (16a4 <main+0xae8>)
    1566:	2200      	movs	r2, #0
    1568:	e001      	b.n	156e <main+0x9b2>
    156a:	7819      	ldrb	r1, [r3, #0]
    156c:	3301      	adds	r3, #1
    156e:	1852      	adds	r2, r2, r1
    1570:	4283      	cmp	r3, r0
    1572:	d1fa      	bne.n	156a <main+0x9ae>
    1574:	21c8      	movs	r1, #200	; 0xc8
    1576:	0089      	lsls	r1, r1, #2
    1578:	468c      	mov	r12, r1
    157a:	43d2      	mvns	r2, r2
    157c:	1dfb      	adds	r3, r7, #7
    157e:	b29b      	uxth	r3, r3
    1580:	003c      	movs	r4, r7
    1582:	18f3      	adds	r3, r6, r3
    1584:	4463      	add	r3, r12
    1586:	701a      	strb	r2, [r3, #0]
    1588:	2380      	movs	r3, #128	; 0x80
    158a:	3408      	adds	r4, #8
    158c:	b2a4      	uxth	r4, r4
    158e:	009b      	lsls	r3, r3, #2
    1590:	429c      	cmp	r4, r3
    1592:	d900      	bls.n	1596 <main+0x9da>
    1594:	e0af      	b.n	16f6 <main+0xb3a>
    1596:	2c00      	cmp	r4, #0
    1598:	d00e      	beq.n	15b8 <main+0x9fc>
    159a:	3bbd      	subs	r3, #189	; 0xbd
    159c:	3bff      	subs	r3, #255	; 0xff
    159e:	4699      	mov	r9, r3
    15a0:	2700      	movs	r7, #0
    15a2:	44b1      	add	r9, r6
    15a4:	23c8      	movs	r3, #200	; 0xc8
    15a6:	009b      	lsls	r3, r3, #2
    15a8:	18fb      	adds	r3, r7, r3
    15aa:	5cf1      	ldrb	r1, [r6, r3]
    15ac:	4648      	mov	r0, r9
    15ae:	3701      	adds	r7, #1
    15b0:	f002 fdba 	bl	4128 <mbed::Stream::putc(int)>
    15b4:	42bc      	cmp	r4, r7
    15b6:	dcf5      	bgt.n	15a4 <main+0x9e8>
    15b8:	4b42      	ldr	r3, [pc, #264]	; (16c4 <main+0xb08>)
    15ba:	3504      	adds	r5, #4
    15bc:	429d      	cmp	r5, r3
    15be:	d000      	beq.n	15c2 <main+0xa06>
    15c0:	e736      	b.n	1430 <main+0x874>
    15c2:	2201      	movs	r2, #1
    15c4:	4b2d      	ldr	r3, [pc, #180]	; (167c <main+0xac0>)
    15c6:	54f2      	strb	r2, [r6, r3]
    15c8:	4652      	mov	r2, r10
    15ca:	3304      	adds	r3, #4
    15cc:	50f2      	str	r2, [r6, r3]
    15ce:	465b      	mov	r3, r11
    15d0:	50f2      	str	r2, [r6, r3]
    15d2:	f7ff fb4c 	bl	c6e <main+0xb2>
    15d6:	4798      	blx	r3
    15d8:	4681      	mov	r9, r0
    15da:	e745      	b.n	1468 <main+0x8ac>
    15dc:	4790      	blx	r2
    15de:	9002      	str	r0, [sp, #8]
    15e0:	6828      	ldr	r0, [r5, #0]
    15e2:	6803      	ldr	r3, [r0, #0]
    15e4:	e739      	b.n	145a <main+0x89e>
    15e6:	4790      	blx	r2
    15e8:	9001      	str	r0, [sp, #4]
    15ea:	6828      	ldr	r0, [r5, #0]
    15ec:	6803      	ldr	r3, [r0, #0]
    15ee:	e72d      	b.n	144c <main+0x890>
    15f0:	4935      	ldr	r1, [pc, #212]	; (16c8 <main+0xb0c>)
    15f2:	0018      	movs	r0, r3
    15f4:	4790      	blx	r2
    15f6:	f7ff fb27 	bl	c48 <main+0x8c>
    15fa:	2308      	movs	r3, #8
    15fc:	2708      	movs	r7, #8
    15fe:	4698      	mov	r8, r3
    1600:	2504      	movs	r5, #4
    1602:	e4f9      	b.n	ff8 <main+0x43c>
    1604:	2303      	movs	r3, #3
    1606:	4642      	mov	r2, r8
    1608:	491d      	ldr	r1, [pc, #116]	; (1680 <main+0xac4>)
    160a:	4830      	ldr	r0, [pc, #192]	; (16cc <main+0xb10>)
    160c:	5453      	strb	r3, [r2, r1]
    160e:	23ca      	movs	r3, #202	; 0xca
    1610:	2238      	movs	r2, #56	; 0x38
    1612:	4641      	mov	r1, r8
    1614:	009b      	lsls	r3, r3, #2
    1616:	50ca      	str	r2, [r1, r3]
    1618:	492d      	ldr	r1, [pc, #180]	; (16d0 <main+0xb14>)
    161a:	f003 fb20 	bl	4c5e <memcpy>
    161e:	23c8      	movs	r3, #200	; 0xc8
    1620:	4641      	mov	r1, r8
    1622:	22ff      	movs	r2, #255	; 0xff
    1624:	009b      	lsls	r3, r3, #2
    1626:	54ca      	strb	r2, [r1, r3]
    1628:	4b19      	ldr	r3, [pc, #100]	; (1690 <main+0xad4>)
    162a:	3a01      	subs	r2, #1
    162c:	54ca      	strb	r2, [r1, r3]
    162e:	4b19      	ldr	r3, [pc, #100]	; (1694 <main+0xad8>)
    1630:	3ac1      	subs	r2, #193	; 0xc1
    1632:	54ca      	strb	r2, [r1, r3]
    1634:	2300      	movs	r3, #0
    1636:	4a18      	ldr	r2, [pc, #96]	; (1698 <main+0xadc>)
    1638:	4640      	mov	r0, r8
    163a:	548b      	strb	r3, [r1, r2]
    163c:	21c2      	movs	r1, #194	; 0xc2
    163e:	3201      	adds	r2, #1
    1640:	5481      	strb	r1, [r0, r2]
    1642:	4a16      	ldr	r2, [pc, #88]	; (169c <main+0xae0>)
    1644:	39bb      	subs	r1, #187	; 0xbb
    1646:	5481      	strb	r1, [r0, r2]
    1648:	4a15      	ldr	r2, [pc, #84]	; (16a0 <main+0xae4>)
    164a:	2107      	movs	r1, #7
    164c:	5483      	strb	r3, [r0, r2]
    164e:	20d9      	movs	r0, #217	; 0xd9
    1650:	0080      	lsls	r0, r0, #2
    1652:	4440      	add	r0, r8
    1654:	4a13      	ldr	r2, [pc, #76]	; (16a4 <main+0xae8>)
    1656:	e001      	b.n	165c <main+0xaa0>
    1658:	7811      	ldrb	r1, [r2, #0]
    165a:	3201      	adds	r2, #1
    165c:	185b      	adds	r3, r3, r1
    165e:	4290      	cmp	r0, r2
    1660:	d1fa      	bne.n	1658 <main+0xa9c>
    1662:	22d9      	movs	r2, #217	; 0xd9
    1664:	43db      	mvns	r3, r3
    1666:	0092      	lsls	r2, r2, #2
    1668:	54b3      	strb	r3, [r6, r2]
    166a:	4b1a      	ldr	r3, [pc, #104]	; (16d4 <main+0xb18>)
    166c:	0037      	movs	r7, r6
    166e:	4699      	mov	r9, r3
    1670:	4c19      	ldr	r4, [pc, #100]	; (16d8 <main+0xb1c>)
    1672:	44b1      	add	r9, r6
    1674:	21ff      	movs	r1, #255	; 0xff
    1676:	3744      	adds	r7, #68	; 0x44
    1678:	e032      	b.n	16e0 <main+0xb24>
    167a:	46c0      	nop			; (mov r8, r8)
    167c:	000005fc 	.word	0x000005fc
    1680:	00000327 	.word	0x00000327
    1684:	00000329 	.word	0x00000329
    1688:	0000032d 	.word	0x0000032d
    168c:	0000032a 	.word	0x0000032a
    1690:	00000321 	.word	0x00000321
    1694:	00000322 	.word	0x00000322
    1698:	00000323 	.word	0x00000323
    169c:	00000325 	.word	0x00000325
    16a0:	00000326 	.word	0x00000326
    16a4:	1ffff49e 	.word	0x1ffff49e
    16a8:	1ffff6fc 	.word	0x1ffff6fc
    16ac:	00006828 	.word	0x00006828
    16b0:	000005b5 	.word	0x000005b5
    16b4:	00006838 	.word	0x00006838
    16b8:	000005bd 	.word	0x000005bd
    16bc:	000005b1 	.word	0x000005b1
    16c0:	1ffff49f 	.word	0x1ffff49f
    16c4:	1ffff760 	.word	0x1ffff760
    16c8:	1ffff298 	.word	0x1ffff298
    16cc:	1ffff4a4 	.word	0x1ffff4a4
    16d0:	0000685c 	.word	0x0000685c
    16d4:	00000365 	.word	0x00000365
    16d8:	1ffff499 	.word	0x1ffff499
    16dc:	7821      	ldrb	r1, [r4, #0]
    16de:	3401      	adds	r4, #1
    16e0:	0038      	movs	r0, r7
    16e2:	f002 fd21 	bl	4128 <mbed::Stream::putc(int)>
    16e6:	454c      	cmp	r4, r9
    16e8:	d1f8      	bne.n	16dc <main+0xb20>
    16ea:	4b27      	ldr	r3, [pc, #156]	; (1788 <main+0xbcc>)
    16ec:	3504      	adds	r5, #4
    16ee:	429d      	cmp	r5, r3
    16f0:	d000      	beq.n	16f4 <main+0xb38>
    16f2:	e5dd      	b.n	12b0 <main+0x6f4>
    16f4:	e69a      	b.n	142c <main+0x870>
    16f6:	2303      	movs	r3, #3
    16f8:	4642      	mov	r2, r8
    16fa:	4924      	ldr	r1, [pc, #144]	; (178c <main+0xbd0>)
    16fc:	4824      	ldr	r0, [pc, #144]	; (1790 <main+0xbd4>)
    16fe:	5453      	strb	r3, [r2, r1]
    1700:	23ca      	movs	r3, #202	; 0xca
    1702:	2238      	movs	r2, #56	; 0x38
    1704:	4641      	mov	r1, r8
    1706:	009b      	lsls	r3, r3, #2
    1708:	50ca      	str	r2, [r1, r3]
    170a:	4922      	ldr	r1, [pc, #136]	; (1794 <main+0xbd8>)
    170c:	f003 faa7 	bl	4c5e <memcpy>
    1710:	23c8      	movs	r3, #200	; 0xc8
    1712:	4641      	mov	r1, r8
    1714:	22ff      	movs	r2, #255	; 0xff
    1716:	009b      	lsls	r3, r3, #2
    1718:	54ca      	strb	r2, [r1, r3]
    171a:	4b1f      	ldr	r3, [pc, #124]	; (1798 <main+0xbdc>)
    171c:	3a01      	subs	r2, #1
    171e:	54ca      	strb	r2, [r1, r3]
    1720:	4b1e      	ldr	r3, [pc, #120]	; (179c <main+0xbe0>)
    1722:	3ac1      	subs	r2, #193	; 0xc1
    1724:	54ca      	strb	r2, [r1, r3]
    1726:	2300      	movs	r3, #0
    1728:	4a1d      	ldr	r2, [pc, #116]	; (17a0 <main+0xbe4>)
    172a:	4640      	mov	r0, r8
    172c:	548b      	strb	r3, [r1, r2]
    172e:	21c2      	movs	r1, #194	; 0xc2
    1730:	3201      	adds	r2, #1
    1732:	5481      	strb	r1, [r0, r2]
    1734:	4a1b      	ldr	r2, [pc, #108]	; (17a4 <main+0xbe8>)
    1736:	39bb      	subs	r1, #187	; 0xbb
    1738:	5481      	strb	r1, [r0, r2]
    173a:	4a1b      	ldr	r2, [pc, #108]	; (17a8 <main+0xbec>)
    173c:	2107      	movs	r1, #7
    173e:	5483      	strb	r3, [r0, r2]
    1740:	20d9      	movs	r0, #217	; 0xd9
    1742:	0080      	lsls	r0, r0, #2
    1744:	4440      	add	r0, r8
    1746:	4a19      	ldr	r2, [pc, #100]	; (17ac <main+0xbf0>)
    1748:	e001      	b.n	174e <main+0xb92>
    174a:	7811      	ldrb	r1, [r2, #0]
    174c:	3201      	adds	r2, #1
    174e:	185b      	adds	r3, r3, r1
    1750:	4282      	cmp	r2, r0
    1752:	d1fa      	bne.n	174a <main+0xb8e>
    1754:	22d9      	movs	r2, #217	; 0xd9
    1756:	43db      	mvns	r3, r3
    1758:	0092      	lsls	r2, r2, #2
    175a:	54b3      	strb	r3, [r6, r2]
    175c:	4b14      	ldr	r3, [pc, #80]	; (17b0 <main+0xbf4>)
    175e:	0037      	movs	r7, r6
    1760:	4699      	mov	r9, r3
    1762:	4c14      	ldr	r4, [pc, #80]	; (17b4 <main+0xbf8>)
    1764:	44b1      	add	r9, r6
    1766:	21ff      	movs	r1, #255	; 0xff
    1768:	3744      	adds	r7, #68	; 0x44
    176a:	e001      	b.n	1770 <main+0xbb4>
    176c:	7821      	ldrb	r1, [r4, #0]
    176e:	3401      	adds	r4, #1
    1770:	0038      	movs	r0, r7
    1772:	f002 fcd9 	bl	4128 <mbed::Stream::putc(int)>
    1776:	454c      	cmp	r4, r9
    1778:	d1f8      	bne.n	176c <main+0xbb0>
    177a:	4b0f      	ldr	r3, [pc, #60]	; (17b8 <main+0xbfc>)
    177c:	3504      	adds	r5, #4
    177e:	429d      	cmp	r5, r3
    1780:	d000      	beq.n	1784 <main+0xbc8>
    1782:	e655      	b.n	1430 <main+0x874>
    1784:	e71d      	b.n	15c2 <main+0xa06>
    1786:	46c0      	nop			; (mov r8, r8)
    1788:	1ffff6fc 	.word	0x1ffff6fc
    178c:	00000327 	.word	0x00000327
    1790:	1ffff4a4 	.word	0x1ffff4a4
    1794:	0000685c 	.word	0x0000685c
    1798:	00000321 	.word	0x00000321
    179c:	00000322 	.word	0x00000322
    17a0:	00000323 	.word	0x00000323
    17a4:	00000325 	.word	0x00000325
    17a8:	00000326 	.word	0x00000326
    17ac:	1ffff49e 	.word	0x1ffff49e
    17b0:	00000365 	.word	0x00000365
    17b4:	1ffff499 	.word	0x1ffff499
    17b8:	1ffff760 	.word	0x1ffff760

000017bc <ros::NodeHandle_<MbedHardware, 25, 25, 512, 512>::negotiateTopics()>:
    17bc:	b5f0      	push	{r4, r5, r6, r7, lr}
    17be:	465f      	mov	r7, r11
    17c0:	4656      	mov	r6, r10
    17c2:	464d      	mov	r5, r9
    17c4:	4644      	mov	r4, r8
    17c6:	4683      	mov	r11, r0
    17c8:	b4f0      	push	{r4, r5, r6, r7}
    17ca:	26a4      	movs	r6, #164	; 0xa4
    17cc:	2200      	movs	r2, #0
    17ce:	0005      	movs	r5, r0
    17d0:	4bc6      	ldr	r3, [pc, #792]	; (1aec <ros::NodeHandle_<MbedHardware, 25, 25, 512, 512>::negotiateTopics()+0x330>)
    17d2:	b091      	sub	sp, #68	; 0x44
    17d4:	930a      	str	r3, [sp, #40]	; 0x28
    17d6:	4bc6      	ldr	r3, [pc, #792]	; (1af0 <ros::NodeHandle_<MbedHardware, 25, 25, 512, 512>::negotiateTopics()+0x334>)
    17d8:	af0a      	add	r7, sp, #40	; 0x28
    17da:	60bb      	str	r3, [r7, #8]
    17dc:	60fb      	str	r3, [r7, #12]
    17de:	613b      	str	r3, [r7, #16]
    17e0:	4bc4      	ldr	r3, [pc, #784]	; (1af4 <ros::NodeHandle_<MbedHardware, 25, 25, 512, 512>::negotiateTopics()+0x338>)
    17e2:	00f6      	lsls	r6, r6, #3
    17e4:	445b      	add	r3, r11
    17e6:	80ba      	strh	r2, [r7, #4]
    17e8:	617a      	str	r2, [r7, #20]
    17ea:	445e      	add	r6, r11
    17ec:	9302      	str	r3, [sp, #8]
    17ee:	6833      	ldr	r3, [r6, #0]
    17f0:	2b00      	cmp	r3, #0
    17f2:	d100      	bne.n	17f6 <ros::NodeHandle_<MbedHardware, 25, 25, 512, 512>::negotiateTopics()+0x3a>
    17f4:	e0c8      	b.n	1988 <ros::NodeHandle_<MbedHardware, 25, 25, 512, 512>::negotiateTopics()+0x1cc>
    17f6:	891a      	ldrh	r2, [r3, #8]
    17f8:	6858      	ldr	r0, [r3, #4]
    17fa:	80ba      	strh	r2, [r7, #4]
    17fc:	681a      	ldr	r2, [r3, #0]
    17fe:	6803      	ldr	r3, [r0, #0]
    1800:	60ba      	str	r2, [r7, #8]
    1802:	689b      	ldr	r3, [r3, #8]
    1804:	4798      	blx	r3
    1806:	6833      	ldr	r3, [r6, #0]
    1808:	60f8      	str	r0, [r7, #12]
    180a:	6858      	ldr	r0, [r3, #4]
    180c:	6803      	ldr	r3, [r0, #0]
    180e:	68db      	ldr	r3, [r3, #12]
    1810:	4798      	blx	r3
    1812:	2380      	movs	r3, #128	; 0x80
    1814:	009b      	lsls	r3, r3, #2
    1816:	617b      	str	r3, [r7, #20]
    1818:	6832      	ldr	r2, [r6, #0]
    181a:	682b      	ldr	r3, [r5, #0]
    181c:	6138      	str	r0, [r7, #16]
    181e:	6912      	ldr	r2, [r2, #16]
    1820:	681b      	ldr	r3, [r3, #0]
    1822:	49b5      	ldr	r1, [pc, #724]	; (1af8 <ros::NodeHandle_<MbedHardware, 25, 25, 512, 512>::negotiateTopics()+0x33c>)
    1824:	4680      	mov	r8, r0
    1826:	9201      	str	r2, [sp, #4]
    1828:	428b      	cmp	r3, r1
    182a:	d000      	beq.n	182e <ros::NodeHandle_<MbedHardware, 25, 25, 512, 512>::negotiateTopics()+0x72>
    182c:	e1bf      	b.n	1bae <ros::NodeHandle_<MbedHardware, 25, 25, 512, 512>::negotiateTopics()+0x3f2>
    182e:	2a63      	cmp	r2, #99	; 0x63
    1830:	dd04      	ble.n	183c <ros::NodeHandle_<MbedHardware, 25, 25, 512, 512>::negotiateTopics()+0x80>
    1832:	4bb2      	ldr	r3, [pc, #712]	; (1afc <ros::NodeHandle_<MbedHardware, 25, 25, 512, 512>::negotiateTopics()+0x340>)
    1834:	5ceb      	ldrb	r3, [r5, r3]
    1836:	2b00      	cmp	r3, #0
    1838:	d100      	bne.n	183c <ros::NodeHandle_<MbedHardware, 25, 25, 512, 512>::negotiateTopics()+0x80>
    183a:	e0a5      	b.n	1988 <ros::NodeHandle_<MbedHardware, 25, 25, 512, 512>::negotiateTopics()+0x1cc>
    183c:	88bb      	ldrh	r3, [r7, #4]
    183e:	4ab0      	ldr	r2, [pc, #704]	; (1b00 <ros::NodeHandle_<MbedHardware, 25, 25, 512, 512>::negotiateTopics()+0x344>)
    1840:	54ab      	strb	r3, [r5, r2]
    1842:	3201      	adds	r2, #1
    1844:	0a1b      	lsrs	r3, r3, #8
    1846:	54ab      	strb	r3, [r5, r2]
    1848:	68bb      	ldr	r3, [r7, #8]
    184a:	0018      	movs	r0, r3
    184c:	4699      	mov	r9, r3
    184e:	f004 f8db 	bl	5a08 <strlen>
    1852:	0004      	movs	r4, r0
    1854:	4bab      	ldr	r3, [pc, #684]	; (1b04 <ros::NodeHandle_<MbedHardware, 25, 25, 512, 512>::negotiateTopics()+0x348>)
    1856:	9005      	str	r0, [sp, #20]
    1858:	2204      	movs	r2, #4
    185a:	a905      	add	r1, sp, #20
    185c:	18e8      	adds	r0, r5, r3
    185e:	f003 f9fe 	bl	4c5e <memcpy>
    1862:	4ba9      	ldr	r3, [pc, #676]	; (1b08 <ros::NodeHandle_<MbedHardware, 25, 25, 512, 512>::negotiateTopics()+0x34c>)
    1864:	4649      	mov	r1, r9
    1866:	0022      	movs	r2, r4
    1868:	18e8      	adds	r0, r5, r3
    186a:	f003 f9f8 	bl	4c5e <memcpy>
    186e:	68fa      	ldr	r2, [r7, #12]
    1870:	0010      	movs	r0, r2
    1872:	4693      	mov	r11, r2
    1874:	f004 f8c8 	bl	5a08 <strlen>
    1878:	4aa1      	ldr	r2, [pc, #644]	; (1b00 <ros::NodeHandle_<MbedHardware, 25, 25, 512, 512>::negotiateTopics()+0x344>)
    187a:	1da3      	adds	r3, r4, #6
    187c:	4691      	mov	r9, r2
    187e:	44a9      	add	r9, r5
    1880:	444b      	add	r3, r9
    1882:	4682      	mov	r10, r0
    1884:	9006      	str	r0, [sp, #24]
    1886:	0018      	movs	r0, r3
    1888:	ab06      	add	r3, sp, #24
    188a:	0019      	movs	r1, r3
    188c:	2204      	movs	r2, #4
    188e:	9303      	str	r3, [sp, #12]
    1890:	f003 f9e5 	bl	4c5e <memcpy>
    1894:	464b      	mov	r3, r9
    1896:	340a      	adds	r4, #10
    1898:	1918      	adds	r0, r3, r4
    189a:	4652      	mov	r2, r10
    189c:	4659      	mov	r1, r11
    189e:	f003 f9de 	bl	4c5e <memcpy>
    18a2:	4640      	mov	r0, r8
    18a4:	f004 f8b0 	bl	5a08 <strlen>
    18a8:	464b      	mov	r3, r9
    18aa:	4454      	add	r4, r10
    18ac:	9007      	str	r0, [sp, #28]
    18ae:	4682      	mov	r10, r0
    18b0:	1918      	adds	r0, r3, r4
    18b2:	ab07      	add	r3, sp, #28
    18b4:	0019      	movs	r1, r3
    18b6:	2204      	movs	r2, #4
    18b8:	469b      	mov	r11, r3
    18ba:	f003 f9d0 	bl	4c5e <memcpy>
    18be:	464b      	mov	r3, r9
    18c0:	3404      	adds	r4, #4
    18c2:	1918      	adds	r0, r3, r4
    18c4:	4641      	mov	r1, r8
    18c6:	4652      	mov	r2, r10
    18c8:	f003 f9c9 	bl	4c5e <memcpy>
    18cc:	2200      	movs	r2, #0
    18ce:	464b      	mov	r3, r9
    18d0:	2102      	movs	r1, #2
    18d2:	4454      	add	r4, r10
    18d4:	551a      	strb	r2, [r3, r4]
    18d6:	191b      	adds	r3, r3, r4
    18d8:	709a      	strb	r2, [r3, #2]
    18da:	70da      	strb	r2, [r3, #3]
    18dc:	1d22      	adds	r2, r4, #4
    18de:	7059      	strb	r1, [r3, #1]
    18e0:	b293      	uxth	r3, r2
    18e2:	469c      	mov	r12, r3
    18e4:	23c8      	movs	r3, #200	; 0xc8
    18e6:	31fd      	adds	r1, #253	; 0xfd
    18e8:	009b      	lsls	r3, r3, #2
    18ea:	54e9      	strb	r1, [r5, r3]
    18ec:	4b87      	ldr	r3, [pc, #540]	; (1b0c <ros::NodeHandle_<MbedHardware, 25, 25, 512, 512>::negotiateTopics()+0x350>)
    18ee:	3901      	subs	r1, #1
    18f0:	54e9      	strb	r1, [r5, r3]
    18f2:	4b87      	ldr	r3, [pc, #540]	; (1b10 <ros::NodeHandle_<MbedHardware, 25, 25, 512, 512>::negotiateTopics()+0x354>)
    18f4:	b2d0      	uxtb	r0, r2
    18f6:	1211      	asrs	r1, r2, #8
    18f8:	54e8      	strb	r0, [r5, r3]
    18fa:	b2cb      	uxtb	r3, r1
    18fc:	4985      	ldr	r1, [pc, #532]	; (1b14 <ros::NodeHandle_<MbedHardware, 25, 25, 512, 512>::negotiateTopics()+0x358>)
    18fe:	546b      	strb	r3, [r5, r1]
    1900:	18c3      	adds	r3, r0, r3
    1902:	43db      	mvns	r3, r3
    1904:	3101      	adds	r1, #1
    1906:	9801      	ldr	r0, [sp, #4]
    1908:	546b      	strb	r3, [r5, r1]
    190a:	4b83      	ldr	r3, [pc, #524]	; (1b18 <ros::NodeHandle_<MbedHardware, 25, 25, 512, 512>::negotiateTopics()+0x35c>)
    190c:	b2c1      	uxtb	r1, r0
    190e:	54e9      	strb	r1, [r5, r3]
    1910:	4b82      	ldr	r3, [pc, #520]	; (1b1c <ros::NodeHandle_<MbedHardware, 25, 25, 512, 512>::negotiateTopics()+0x360>)
    1912:	0a00      	lsrs	r0, r0, #8
    1914:	54e8      	strb	r0, [r5, r3]
    1916:	0410      	lsls	r0, r2, #16
    1918:	4a79      	ldr	r2, [pc, #484]	; (1b00 <ros::NodeHandle_<MbedHardware, 25, 25, 512, 512>::negotiateTopics()+0x344>)
    191a:	0c00      	lsrs	r0, r0, #16
    191c:	4690      	mov	r8, r2
    191e:	18ec      	adds	r4, r5, r3
    1920:	4440      	add	r0, r8
    1922:	0023      	movs	r3, r4
    1924:	1828      	adds	r0, r5, r0
    1926:	2200      	movs	r2, #0
    1928:	e001      	b.n	192e <ros::NodeHandle_<MbedHardware, 25, 25, 512, 512>::negotiateTopics()+0x172>
    192a:	7819      	ldrb	r1, [r3, #0]
    192c:	3301      	adds	r3, #1
    192e:	1852      	adds	r2, r2, r1
    1930:	4298      	cmp	r0, r3
    1932:	d1fa      	bne.n	192a <ros::NodeHandle_<MbedHardware, 25, 25, 512, 512>::negotiateTopics()+0x16e>
    1934:	4663      	mov	r3, r12
    1936:	21c8      	movs	r1, #200	; 0xc8
    1938:	3308      	adds	r3, #8
    193a:	b29b      	uxth	r3, r3
    193c:	4698      	mov	r8, r3
    193e:	4663      	mov	r3, r12
    1940:	0089      	lsls	r1, r1, #2
    1942:	468c      	mov	r12, r1
    1944:	43d2      	mvns	r2, r2
    1946:	3307      	adds	r3, #7
    1948:	b29b      	uxth	r3, r3
    194a:	18eb      	adds	r3, r5, r3
    194c:	4463      	add	r3, r12
    194e:	701a      	strb	r2, [r3, #0]
    1950:	2380      	movs	r3, #128	; 0x80
    1952:	009b      	lsls	r3, r3, #2
    1954:	4598      	cmp	r8, r3
    1956:	d900      	bls.n	195a <ros::NodeHandle_<MbedHardware, 25, 25, 512, 512>::negotiateTopics()+0x19e>
    1958:	e142      	b.n	1be0 <ros::NodeHandle_<MbedHardware, 25, 25, 512, 512>::negotiateTopics()+0x424>
    195a:	4689      	mov	r9, r1
    195c:	4643      	mov	r3, r8
    195e:	44a9      	add	r9, r5
    1960:	2b00      	cmp	r3, #0
    1962:	d011      	beq.n	1988 <ros::NodeHandle_<MbedHardware, 25, 25, 512, 512>::negotiateTopics()+0x1cc>
    1964:	2344      	movs	r3, #68	; 0x44
    1966:	469a      	mov	r10, r3
    1968:	002b      	movs	r3, r5
    196a:	44aa      	add	r10, r5
    196c:	2400      	movs	r4, #0
    196e:	4645      	mov	r5, r8
    1970:	46b0      	mov	r8, r6
    1972:	464e      	mov	r6, r9
    1974:	4699      	mov	r9, r3
    1976:	5d31      	ldrb	r1, [r6, r4]
    1978:	4650      	mov	r0, r10
    197a:	3401      	adds	r4, #1
    197c:	f002 fbd4 	bl	4128 <mbed::Stream::putc(int)>
    1980:	42a5      	cmp	r5, r4
    1982:	dcf8      	bgt.n	1976 <ros::NodeHandle_<MbedHardware, 25, 25, 512, 512>::negotiateTopics()+0x1ba>
    1984:	4646      	mov	r6, r8
    1986:	464d      	mov	r5, r9
    1988:	9b02      	ldr	r3, [sp, #8]
    198a:	3604      	adds	r6, #4
    198c:	429e      	cmp	r6, r3
    198e:	d000      	beq.n	1992 <ros::NodeHandle_<MbedHardware, 25, 25, 512, 512>::negotiateTopics()+0x1d6>
    1990:	e72d      	b.n	17ee <ros::NodeHandle_<MbedHardware, 25, 25, 512, 512>::negotiateTopics()+0x32>
    1992:	469a      	mov	r10, r3
    1994:	23bd      	movs	r3, #189	; 0xbd
    1996:	46ab      	mov	r11, r5
    1998:	00db      	lsls	r3, r3, #3
    199a:	445b      	add	r3, r11
    199c:	9302      	str	r3, [sp, #8]
    199e:	4653      	mov	r3, r10
    19a0:	6818      	ldr	r0, [r3, #0]
    19a2:	2800      	cmp	r0, #0
    19a4:	d100      	bne.n	19a8 <ros::NodeHandle_<MbedHardware, 25, 25, 512, 512>::negotiateTopics()+0x1ec>
    19a6:	e0f1      	b.n	1b8c <ros::NodeHandle_<MbedHardware, 25, 25, 512, 512>::negotiateTopics()+0x3d0>
    19a8:	8883      	ldrh	r3, [r0, #4]
    19aa:	495d      	ldr	r1, [pc, #372]	; (1b20 <ros::NodeHandle_<MbedHardware, 25, 25, 512, 512>::negotiateTopics()+0x364>)
    19ac:	80bb      	strh	r3, [r7, #4]
    19ae:	6883      	ldr	r3, [r0, #8]
    19b0:	60bb      	str	r3, [r7, #8]
    19b2:	6803      	ldr	r3, [r0, #0]
    19b4:	689a      	ldr	r2, [r3, #8]
    19b6:	428a      	cmp	r2, r1
    19b8:	d000      	beq.n	19bc <ros::NodeHandle_<MbedHardware, 25, 25, 512, 512>::negotiateTopics()+0x200>
    19ba:	e10b      	b.n	1bd4 <ros::NodeHandle_<MbedHardware, 25, 25, 512, 512>::negotiateTopics()+0x418>
    19bc:	4a59      	ldr	r2, [pc, #356]	; (1b24 <ros::NodeHandle_<MbedHardware, 25, 25, 512, 512>::negotiateTopics()+0x368>)
    19be:	60fa      	str	r2, [r7, #12]
    19c0:	68da      	ldr	r2, [r3, #12]
    19c2:	4959      	ldr	r1, [pc, #356]	; (1b28 <ros::NodeHandle_<MbedHardware, 25, 25, 512, 512>::negotiateTopics()+0x36c>)
    19c4:	428a      	cmp	r2, r1
    19c6:	d000      	beq.n	19ca <ros::NodeHandle_<MbedHardware, 25, 25, 512, 512>::negotiateTopics()+0x20e>
    19c8:	e0fe      	b.n	1bc8 <ros::NodeHandle_<MbedHardware, 25, 25, 512, 512>::negotiateTopics()+0x40c>
    19ca:	4a58      	ldr	r2, [pc, #352]	; (1b2c <ros::NodeHandle_<MbedHardware, 25, 25, 512, 512>::negotiateTopics()+0x370>)
    19cc:	613a      	str	r2, [r7, #16]
    19ce:	2280      	movs	r2, #128	; 0x80
    19d0:	0092      	lsls	r2, r2, #2
    19d2:	617a      	str	r2, [r7, #20]
    19d4:	682a      	ldr	r2, [r5, #0]
    19d6:	685b      	ldr	r3, [r3, #4]
    19d8:	6814      	ldr	r4, [r2, #0]
    19da:	4a55      	ldr	r2, [pc, #340]	; (1b30 <ros::NodeHandle_<MbedHardware, 25, 25, 512, 512>::negotiateTopics()+0x374>)
    19dc:	4293      	cmp	r3, r2
    19de:	d000      	beq.n	19e2 <ros::NodeHandle_<MbedHardware, 25, 25, 512, 512>::negotiateTopics()+0x226>
    19e0:	e0ef      	b.n	1bc2 <ros::NodeHandle_<MbedHardware, 25, 25, 512, 512>::negotiateTopics()+0x406>
    19e2:	6943      	ldr	r3, [r0, #20]
    19e4:	9301      	str	r3, [sp, #4]
    19e6:	4b44      	ldr	r3, [pc, #272]	; (1af8 <ros::NodeHandle_<MbedHardware, 25, 25, 512, 512>::negotiateTopics()+0x33c>)
    19e8:	429c      	cmp	r4, r3
    19ea:	d000      	beq.n	19ee <ros::NodeHandle_<MbedHardware, 25, 25, 512, 512>::negotiateTopics()+0x232>
    19ec:	e0e4      	b.n	1bb8 <ros::NodeHandle_<MbedHardware, 25, 25, 512, 512>::negotiateTopics()+0x3fc>
    19ee:	9b01      	ldr	r3, [sp, #4]
    19f0:	2b63      	cmp	r3, #99	; 0x63
    19f2:	dd04      	ble.n	19fe <ros::NodeHandle_<MbedHardware, 25, 25, 512, 512>::negotiateTopics()+0x242>
    19f4:	4b41      	ldr	r3, [pc, #260]	; (1afc <ros::NodeHandle_<MbedHardware, 25, 25, 512, 512>::negotiateTopics()+0x340>)
    19f6:	5ceb      	ldrb	r3, [r5, r3]
    19f8:	2b00      	cmp	r3, #0
    19fa:	d100      	bne.n	19fe <ros::NodeHandle_<MbedHardware, 25, 25, 512, 512>::negotiateTopics()+0x242>
    19fc:	e0c6      	b.n	1b8c <ros::NodeHandle_<MbedHardware, 25, 25, 512, 512>::negotiateTopics()+0x3d0>
    19fe:	88bb      	ldrh	r3, [r7, #4]
    1a00:	4a3f      	ldr	r2, [pc, #252]	; (1b00 <ros::NodeHandle_<MbedHardware, 25, 25, 512, 512>::negotiateTopics()+0x344>)
    1a02:	68be      	ldr	r6, [r7, #8]
    1a04:	54ab      	strb	r3, [r5, r2]
    1a06:	0a1b      	lsrs	r3, r3, #8
    1a08:	3201      	adds	r2, #1
    1a0a:	54ab      	strb	r3, [r5, r2]
    1a0c:	0030      	movs	r0, r6
    1a0e:	f003 fffb 	bl	5a08 <strlen>
    1a12:	0004      	movs	r4, r0
    1a14:	4b3b      	ldr	r3, [pc, #236]	; (1b04 <ros::NodeHandle_<MbedHardware, 25, 25, 512, 512>::negotiateTopics()+0x348>)
    1a16:	9005      	str	r0, [sp, #20]
    1a18:	2204      	movs	r2, #4
    1a1a:	a905      	add	r1, sp, #20
    1a1c:	18e8      	adds	r0, r5, r3
    1a1e:	f003 f91e 	bl	4c5e <memcpy>
    1a22:	4b39      	ldr	r3, [pc, #228]	; (1b08 <ros::NodeHandle_<MbedHardware, 25, 25, 512, 512>::negotiateTopics()+0x34c>)
    1a24:	0022      	movs	r2, r4
    1a26:	0031      	movs	r1, r6
    1a28:	18e8      	adds	r0, r5, r3
    1a2a:	f003 f918 	bl	4c5e <memcpy>
    1a2e:	1da3      	adds	r3, r4, #6
    1a30:	4699      	mov	r9, r3
    1a32:	68fb      	ldr	r3, [r7, #12]
    1a34:	340a      	adds	r4, #10
    1a36:	0018      	movs	r0, r3
    1a38:	469b      	mov	r11, r3
    1a3a:	f003 ffe5 	bl	5a08 <strlen>
    1a3e:	4b30      	ldr	r3, [pc, #192]	; (1b00 <ros::NodeHandle_<MbedHardware, 25, 25, 512, 512>::negotiateTopics()+0x344>)
    1a40:	4680      	mov	r8, r0
    1a42:	18ee      	adds	r6, r5, r3
    1a44:	464b      	mov	r3, r9
    1a46:	9006      	str	r0, [sp, #24]
    1a48:	18f0      	adds	r0, r6, r3
    1a4a:	ab06      	add	r3, sp, #24
    1a4c:	0019      	movs	r1, r3
    1a4e:	2204      	movs	r2, #4
    1a50:	9303      	str	r3, [sp, #12]
    1a52:	f003 f904 	bl	4c5e <memcpy>
    1a56:	4642      	mov	r2, r8
    1a58:	4659      	mov	r1, r11
    1a5a:	1930      	adds	r0, r6, r4
    1a5c:	f003 f8ff 	bl	4c5e <memcpy>
    1a60:	693b      	ldr	r3, [r7, #16]
    1a62:	4444      	add	r4, r8
    1a64:	0018      	movs	r0, r3
    1a66:	469b      	mov	r11, r3
    1a68:	f003 ffce 	bl	5a08 <strlen>
    1a6c:	4681      	mov	r9, r0
    1a6e:	ab07      	add	r3, sp, #28
    1a70:	0019      	movs	r1, r3
    1a72:	9007      	str	r0, [sp, #28]
    1a74:	2204      	movs	r2, #4
    1a76:	1930      	adds	r0, r6, r4
    1a78:	3404      	adds	r4, #4
    1a7a:	4698      	mov	r8, r3
    1a7c:	f003 f8ef 	bl	4c5e <memcpy>
    1a80:	1930      	adds	r0, r6, r4
    1a82:	464a      	mov	r2, r9
    1a84:	4659      	mov	r1, r11
    1a86:	f003 f8ea 	bl	4c5e <memcpy>
    1a8a:	697b      	ldr	r3, [r7, #20]
    1a8c:	444c      	add	r4, r9
    1a8e:	5533      	strb	r3, [r6, r4]
    1a90:	0a1a      	lsrs	r2, r3, #8
    1a92:	1936      	adds	r6, r6, r4
    1a94:	7072      	strb	r2, [r6, #1]
    1a96:	3404      	adds	r4, #4
    1a98:	0c1a      	lsrs	r2, r3, #16
    1a9a:	0e1b      	lsrs	r3, r3, #24
    1a9c:	70f3      	strb	r3, [r6, #3]
    1a9e:	b2a3      	uxth	r3, r4
    1aa0:	469c      	mov	r12, r3
    1aa2:	23c8      	movs	r3, #200	; 0xc8
    1aa4:	70b2      	strb	r2, [r6, #2]
    1aa6:	22ff      	movs	r2, #255	; 0xff
    1aa8:	009b      	lsls	r3, r3, #2
    1aaa:	54ea      	strb	r2, [r5, r3]
    1aac:	4b17      	ldr	r3, [pc, #92]	; (1b0c <ros::NodeHandle_<MbedHardware, 25, 25, 512, 512>::negotiateTopics()+0x350>)
    1aae:	3a01      	subs	r2, #1
    1ab0:	54ea      	strb	r2, [r5, r3]
    1ab2:	4b17      	ldr	r3, [pc, #92]	; (1b10 <ros::NodeHandle_<MbedHardware, 25, 25, 512, 512>::negotiateTopics()+0x354>)
    1ab4:	b2e1      	uxtb	r1, r4
    1ab6:	1222      	asrs	r2, r4, #8
    1ab8:	54e9      	strb	r1, [r5, r3]
    1aba:	b2d3      	uxtb	r3, r2
    1abc:	4a15      	ldr	r2, [pc, #84]	; (1b14 <ros::NodeHandle_<MbedHardware, 25, 25, 512, 512>::negotiateTopics()+0x358>)
    1abe:	0420      	lsls	r0, r4, #16
    1ac0:	54ab      	strb	r3, [r5, r2]
    1ac2:	18cb      	adds	r3, r1, r3
    1ac4:	43db      	mvns	r3, r3
    1ac6:	3201      	adds	r2, #1
    1ac8:	54ab      	strb	r3, [r5, r2]
    1aca:	9a01      	ldr	r2, [sp, #4]
    1acc:	4b12      	ldr	r3, [pc, #72]	; (1b18 <ros::NodeHandle_<MbedHardware, 25, 25, 512, 512>::negotiateTopics()+0x35c>)
    1ace:	b2d1      	uxtb	r1, r2
    1ad0:	54e9      	strb	r1, [r5, r3]
    1ad2:	4b12      	ldr	r3, [pc, #72]	; (1b1c <ros::NodeHandle_<MbedHardware, 25, 25, 512, 512>::negotiateTopics()+0x360>)
    1ad4:	0a12      	lsrs	r2, r2, #8
    1ad6:	54ea      	strb	r2, [r5, r3]
    1ad8:	4a09      	ldr	r2, [pc, #36]	; (1b00 <ros::NodeHandle_<MbedHardware, 25, 25, 512, 512>::negotiateTopics()+0x344>)
    1ada:	0c00      	lsrs	r0, r0, #16
    1adc:	4691      	mov	r9, r2
    1ade:	18ee      	adds	r6, r5, r3
    1ae0:	4448      	add	r0, r9
    1ae2:	0033      	movs	r3, r6
    1ae4:	1828      	adds	r0, r5, r0
    1ae6:	2200      	movs	r2, #0
    1ae8:	e026      	b.n	1b38 <ros::NodeHandle_<MbedHardware, 25, 25, 512, 512>::negotiateTopics()+0x37c>
    1aea:	46c0      	nop			; (mov r8, r8)
    1aec:	000066d4 	.word	0x000066d4
    1af0:	00006894 	.word	0x00006894
    1af4:	00000584 	.word	0x00000584
    1af8:	00000a1d 	.word	0x00000a1d
    1afc:	000005fc 	.word	0x000005fc
    1b00:	00000327 	.word	0x00000327
    1b04:	00000329 	.word	0x00000329
    1b08:	0000032d 	.word	0x0000032d
    1b0c:	00000321 	.word	0x00000321
    1b10:	00000322 	.word	0x00000322
    1b14:	00000323 	.word	0x00000323
    1b18:	00000325 	.word	0x00000325
    1b1c:	00000326 	.word	0x00000326
    1b20:	000005b5 	.word	0x000005b5
    1b24:	00006828 	.word	0x00006828
    1b28:	000005bd 	.word	0x000005bd
    1b2c:	00006838 	.word	0x00006838
    1b30:	000005b1 	.word	0x000005b1
    1b34:	7819      	ldrb	r1, [r3, #0]
    1b36:	3301      	adds	r3, #1
    1b38:	1852      	adds	r2, r2, r1
    1b3a:	4298      	cmp	r0, r3
    1b3c:	d1fa      	bne.n	1b34 <ros::NodeHandle_<MbedHardware, 25, 25, 512, 512>::negotiateTopics()+0x378>
    1b3e:	21c8      	movs	r1, #200	; 0xc8
    1b40:	4663      	mov	r3, r12
    1b42:	0089      	lsls	r1, r1, #2
    1b44:	4664      	mov	r4, r12
    1b46:	468c      	mov	r12, r1
    1b48:	43d2      	mvns	r2, r2
    1b4a:	3307      	adds	r3, #7
    1b4c:	b29b      	uxth	r3, r3
    1b4e:	18eb      	adds	r3, r5, r3
    1b50:	4463      	add	r3, r12
    1b52:	701a      	strb	r2, [r3, #0]
    1b54:	2380      	movs	r3, #128	; 0x80
    1b56:	3408      	adds	r4, #8
    1b58:	b2a4      	uxth	r4, r4
    1b5a:	009b      	lsls	r3, r3, #2
    1b5c:	429c      	cmp	r4, r3
    1b5e:	d900      	bls.n	1b62 <ros::NodeHandle_<MbedHardware, 25, 25, 512, 512>::negotiateTopics()+0x3a6>
    1b60:	e094      	b.n	1c8c <ros::NodeHandle_<MbedHardware, 25, 25, 512, 512>::negotiateTopics()+0x4d0>
    1b62:	4688      	mov	r8, r1
    1b64:	44a8      	add	r8, r5
    1b66:	2c00      	cmp	r4, #0
    1b68:	d010      	beq.n	1b8c <ros::NodeHandle_<MbedHardware, 25, 25, 512, 512>::negotiateTopics()+0x3d0>
    1b6a:	2344      	movs	r3, #68	; 0x44
    1b6c:	4699      	mov	r9, r3
    1b6e:	002b      	movs	r3, r5
    1b70:	44a9      	add	r9, r5
    1b72:	2600      	movs	r6, #0
    1b74:	0025      	movs	r5, r4
    1b76:	464c      	mov	r4, r9
    1b78:	4699      	mov	r9, r3
    1b7a:	4643      	mov	r3, r8
    1b7c:	0020      	movs	r0, r4
    1b7e:	5d99      	ldrb	r1, [r3, r6]
    1b80:	3601      	adds	r6, #1
    1b82:	f002 fad1 	bl	4128 <mbed::Stream::putc(int)>
    1b86:	42b5      	cmp	r5, r6
    1b88:	dcf7      	bgt.n	1b7a <ros::NodeHandle_<MbedHardware, 25, 25, 512, 512>::negotiateTopics()+0x3be>
    1b8a:	464d      	mov	r5, r9
    1b8c:	2304      	movs	r3, #4
    1b8e:	469c      	mov	r12, r3
    1b90:	9b02      	ldr	r3, [sp, #8]
    1b92:	44e2      	add	r10, r12
    1b94:	4553      	cmp	r3, r10
    1b96:	d000      	beq.n	1b9a <ros::NodeHandle_<MbedHardware, 25, 25, 512, 512>::negotiateTopics()+0x3de>
    1b98:	e701      	b.n	199e <ros::NodeHandle_<MbedHardware, 25, 25, 512, 512>::negotiateTopics()+0x1e2>
    1b9a:	2201      	movs	r2, #1
    1b9c:	4b6b      	ldr	r3, [pc, #428]	; (1d4c <ros::NodeHandle_<MbedHardware, 25, 25, 512, 512>::negotiateTopics()+0x590>)
    1b9e:	54ea      	strb	r2, [r5, r3]
    1ba0:	b011      	add	sp, #68	; 0x44
    1ba2:	bc3c      	pop	{r2, r3, r4, r5}
    1ba4:	4690      	mov	r8, r2
    1ba6:	4699      	mov	r9, r3
    1ba8:	46a2      	mov	r10, r4
    1baa:	46ab      	mov	r11, r5
    1bac:	bdf0      	pop	{r4, r5, r6, r7, pc}
    1bae:	003a      	movs	r2, r7
    1bb0:	9901      	ldr	r1, [sp, #4]
    1bb2:	0028      	movs	r0, r5
    1bb4:	4798      	blx	r3
    1bb6:	e6e7      	b.n	1988 <ros::NodeHandle_<MbedHardware, 25, 25, 512, 512>::negotiateTopics()+0x1cc>
    1bb8:	003a      	movs	r2, r7
    1bba:	9901      	ldr	r1, [sp, #4]
    1bbc:	0028      	movs	r0, r5
    1bbe:	47a0      	blx	r4
    1bc0:	e7e4      	b.n	1b8c <ros::NodeHandle_<MbedHardware, 25, 25, 512, 512>::negotiateTopics()+0x3d0>
    1bc2:	4798      	blx	r3
    1bc4:	9001      	str	r0, [sp, #4]
    1bc6:	e70e      	b.n	19e6 <ros::NodeHandle_<MbedHardware, 25, 25, 512, 512>::negotiateTopics()+0x22a>
    1bc8:	4790      	blx	r2
    1bca:	4653      	mov	r3, r10
    1bcc:	0002      	movs	r2, r0
    1bce:	6818      	ldr	r0, [r3, #0]
    1bd0:	6803      	ldr	r3, [r0, #0]
    1bd2:	e6fb      	b.n	19cc <ros::NodeHandle_<MbedHardware, 25, 25, 512, 512>::negotiateTopics()+0x210>
    1bd4:	4790      	blx	r2
    1bd6:	4653      	mov	r3, r10
    1bd8:	0002      	movs	r2, r0
    1bda:	6818      	ldr	r0, [r3, #0]
    1bdc:	6803      	ldr	r3, [r0, #0]
    1bde:	e6ee      	b.n	19be <ros::NodeHandle_<MbedHardware, 25, 25, 512, 512>::negotiateTopics()+0x202>
    1be0:	465b      	mov	r3, r11
    1be2:	4a5b      	ldr	r2, [pc, #364]	; (1d50 <ros::NodeHandle_<MbedHardware, 25, 25, 512, 512>::negotiateTopics()+0x594>)
    1be4:	495b      	ldr	r1, [pc, #364]	; (1d54 <ros::NodeHandle_<MbedHardware, 25, 25, 512, 512>::negotiateTopics()+0x598>)
    1be6:	601a      	str	r2, [r3, #0]
    1be8:	2203      	movs	r2, #3
    1bea:	6099      	str	r1, [r3, #8]
    1bec:	711a      	strb	r2, [r3, #4]
    1bee:	682b      	ldr	r3, [r5, #0]
    1bf0:	4959      	ldr	r1, [pc, #356]	; (1d58 <ros::NodeHandle_<MbedHardware, 25, 25, 512, 512>::negotiateTopics()+0x59c>)
    1bf2:	681b      	ldr	r3, [r3, #0]
    1bf4:	428b      	cmp	r3, r1
    1bf6:	d000      	beq.n	1bfa <ros::NodeHandle_<MbedHardware, 25, 25, 512, 512>::negotiateTopics()+0x43e>
    1bf8:	e0a2      	b.n	1d40 <ros::NodeHandle_<MbedHardware, 25, 25, 512, 512>::negotiateTopics()+0x584>
    1bfa:	4b58      	ldr	r3, [pc, #352]	; (1d5c <ros::NodeHandle_<MbedHardware, 25, 25, 512, 512>::negotiateTopics()+0x5a0>)
    1bfc:	9903      	ldr	r1, [sp, #12]
    1bfe:	54ea      	strb	r2, [r5, r3]
    1c00:	2338      	movs	r3, #56	; 0x38
    1c02:	9306      	str	r3, [sp, #24]
    1c04:	23ca      	movs	r3, #202	; 0xca
    1c06:	009b      	lsls	r3, r3, #2
    1c08:	3201      	adds	r2, #1
    1c0a:	18e8      	adds	r0, r5, r3
    1c0c:	f003 f827 	bl	4c5e <memcpy>
    1c10:	23cb      	movs	r3, #203	; 0xcb
    1c12:	009b      	lsls	r3, r3, #2
    1c14:	2238      	movs	r2, #56	; 0x38
    1c16:	494f      	ldr	r1, [pc, #316]	; (1d54 <ros::NodeHandle_<MbedHardware, 25, 25, 512, 512>::negotiateTopics()+0x598>)
    1c18:	18e8      	adds	r0, r5, r3
    1c1a:	f003 f820 	bl	4c5e <memcpy>
    1c1e:	23c8      	movs	r3, #200	; 0xc8
    1c20:	22ff      	movs	r2, #255	; 0xff
    1c22:	009b      	lsls	r3, r3, #2
    1c24:	54ea      	strb	r2, [r5, r3]
    1c26:	4b4e      	ldr	r3, [pc, #312]	; (1d60 <ros::NodeHandle_<MbedHardware, 25, 25, 512, 512>::negotiateTopics()+0x5a4>)
    1c28:	3a01      	subs	r2, #1
    1c2a:	54ea      	strb	r2, [r5, r3]
    1c2c:	4b4d      	ldr	r3, [pc, #308]	; (1d64 <ros::NodeHandle_<MbedHardware, 25, 25, 512, 512>::negotiateTopics()+0x5a8>)
    1c2e:	3ac1      	subs	r2, #193	; 0xc1
    1c30:	54ea      	strb	r2, [r5, r3]
    1c32:	2300      	movs	r3, #0
    1c34:	21c2      	movs	r1, #194	; 0xc2
    1c36:	4a4c      	ldr	r2, [pc, #304]	; (1d68 <ros::NodeHandle_<MbedHardware, 25, 25, 512, 512>::negotiateTopics()+0x5ac>)
    1c38:	54ab      	strb	r3, [r5, r2]
    1c3a:	3201      	adds	r2, #1
    1c3c:	54a9      	strb	r1, [r5, r2]
    1c3e:	4a4b      	ldr	r2, [pc, #300]	; (1d6c <ros::NodeHandle_<MbedHardware, 25, 25, 512, 512>::negotiateTopics()+0x5b0>)
    1c40:	39bb      	subs	r1, #187	; 0xbb
    1c42:	54a9      	strb	r1, [r5, r2]
    1c44:	4a4a      	ldr	r2, [pc, #296]	; (1d70 <ros::NodeHandle_<MbedHardware, 25, 25, 512, 512>::negotiateTopics()+0x5b4>)
    1c46:	54ab      	strb	r3, [r5, r2]
    1c48:	23d9      	movs	r3, #217	; 0xd9
    1c4a:	009b      	lsls	r3, r3, #2
    1c4c:	18e9      	adds	r1, r5, r3
    1c4e:	2207      	movs	r2, #7
    1c50:	2300      	movs	r3, #0
    1c52:	189b      	adds	r3, r3, r2
    1c54:	42a1      	cmp	r1, r4
    1c56:	d004      	beq.n	1c62 <ros::NodeHandle_<MbedHardware, 25, 25, 512, 512>::negotiateTopics()+0x4a6>
    1c58:	7822      	ldrb	r2, [r4, #0]
    1c5a:	3401      	adds	r4, #1
    1c5c:	189b      	adds	r3, r3, r2
    1c5e:	42a1      	cmp	r1, r4
    1c60:	d1fa      	bne.n	1c58 <ros::NodeHandle_<MbedHardware, 25, 25, 512, 512>::negotiateTopics()+0x49c>
    1c62:	22d9      	movs	r2, #217	; 0xd9
    1c64:	43db      	mvns	r3, r3
    1c66:	0092      	lsls	r2, r2, #2
    1c68:	54ab      	strb	r3, [r5, r2]
    1c6a:	2344      	movs	r3, #68	; 0x44
    1c6c:	4699      	mov	r9, r3
    1c6e:	23c8      	movs	r3, #200	; 0xc8
    1c70:	009b      	lsls	r3, r3, #2
    1c72:	18ec      	adds	r4, r5, r3
    1c74:	4b3f      	ldr	r3, [pc, #252]	; (1d74 <ros::NodeHandle_<MbedHardware, 25, 25, 512, 512>::negotiateTopics()+0x5b8>)
    1c76:	44a9      	add	r9, r5
    1c78:	4698      	mov	r8, r3
    1c7a:	44a8      	add	r8, r5
    1c7c:	7821      	ldrb	r1, [r4, #0]
    1c7e:	4648      	mov	r0, r9
    1c80:	3401      	adds	r4, #1
    1c82:	f002 fa51 	bl	4128 <mbed::Stream::putc(int)>
    1c86:	45a0      	cmp	r8, r4
    1c88:	d1f8      	bne.n	1c7c <ros::NodeHandle_<MbedHardware, 25, 25, 512, 512>::negotiateTopics()+0x4c0>
    1c8a:	e67d      	b.n	1988 <ros::NodeHandle_<MbedHardware, 25, 25, 512, 512>::negotiateTopics()+0x1cc>
    1c8c:	4642      	mov	r2, r8
    1c8e:	4b30      	ldr	r3, [pc, #192]	; (1d50 <ros::NodeHandle_<MbedHardware, 25, 25, 512, 512>::negotiateTopics()+0x594>)
    1c90:	4c30      	ldr	r4, [pc, #192]	; (1d54 <ros::NodeHandle_<MbedHardware, 25, 25, 512, 512>::negotiateTopics()+0x598>)
    1c92:	6013      	str	r3, [r2, #0]
    1c94:	4643      	mov	r3, r8
    1c96:	2203      	movs	r2, #3
    1c98:	609c      	str	r4, [r3, #8]
    1c9a:	711a      	strb	r2, [r3, #4]
    1c9c:	682b      	ldr	r3, [r5, #0]
    1c9e:	492e      	ldr	r1, [pc, #184]	; (1d58 <ros::NodeHandle_<MbedHardware, 25, 25, 512, 512>::negotiateTopics()+0x59c>)
    1ca0:	681b      	ldr	r3, [r3, #0]
    1ca2:	428b      	cmp	r3, r1
    1ca4:	d147      	bne.n	1d36 <ros::NodeHandle_<MbedHardware, 25, 25, 512, 512>::negotiateTopics()+0x57a>
    1ca6:	4b2d      	ldr	r3, [pc, #180]	; (1d5c <ros::NodeHandle_<MbedHardware, 25, 25, 512, 512>::negotiateTopics()+0x5a0>)
    1ca8:	9903      	ldr	r1, [sp, #12]
    1caa:	54ea      	strb	r2, [r5, r3]
    1cac:	2338      	movs	r3, #56	; 0x38
    1cae:	9306      	str	r3, [sp, #24]
    1cb0:	23ca      	movs	r3, #202	; 0xca
    1cb2:	009b      	lsls	r3, r3, #2
    1cb4:	3201      	adds	r2, #1
    1cb6:	18e8      	adds	r0, r5, r3
    1cb8:	f002 ffd1 	bl	4c5e <memcpy>
    1cbc:	23cb      	movs	r3, #203	; 0xcb
    1cbe:	009b      	lsls	r3, r3, #2
    1cc0:	2238      	movs	r2, #56	; 0x38
    1cc2:	0021      	movs	r1, r4
    1cc4:	18e8      	adds	r0, r5, r3
    1cc6:	f002 ffca 	bl	4c5e <memcpy>
    1cca:	23c8      	movs	r3, #200	; 0xc8
    1ccc:	22ff      	movs	r2, #255	; 0xff
    1cce:	009b      	lsls	r3, r3, #2
    1cd0:	54ea      	strb	r2, [r5, r3]
    1cd2:	4b23      	ldr	r3, [pc, #140]	; (1d60 <ros::NodeHandle_<MbedHardware, 25, 25, 512, 512>::negotiateTopics()+0x5a4>)
    1cd4:	3a01      	subs	r2, #1
    1cd6:	54ea      	strb	r2, [r5, r3]
    1cd8:	4b22      	ldr	r3, [pc, #136]	; (1d64 <ros::NodeHandle_<MbedHardware, 25, 25, 512, 512>::negotiateTopics()+0x5a8>)
    1cda:	3ac1      	subs	r2, #193	; 0xc1
    1cdc:	54ea      	strb	r2, [r5, r3]
    1cde:	2300      	movs	r3, #0
    1ce0:	21c2      	movs	r1, #194	; 0xc2
    1ce2:	4a21      	ldr	r2, [pc, #132]	; (1d68 <ros::NodeHandle_<MbedHardware, 25, 25, 512, 512>::negotiateTopics()+0x5ac>)
    1ce4:	54ab      	strb	r3, [r5, r2]
    1ce6:	3201      	adds	r2, #1
    1ce8:	54a9      	strb	r1, [r5, r2]
    1cea:	4a20      	ldr	r2, [pc, #128]	; (1d6c <ros::NodeHandle_<MbedHardware, 25, 25, 512, 512>::negotiateTopics()+0x5b0>)
    1cec:	39bb      	subs	r1, #187	; 0xbb
    1cee:	54a9      	strb	r1, [r5, r2]
    1cf0:	4a1f      	ldr	r2, [pc, #124]	; (1d70 <ros::NodeHandle_<MbedHardware, 25, 25, 512, 512>::negotiateTopics()+0x5b4>)
    1cf2:	54ab      	strb	r3, [r5, r2]
    1cf4:	23d9      	movs	r3, #217	; 0xd9
    1cf6:	009b      	lsls	r3, r3, #2
    1cf8:	18e9      	adds	r1, r5, r3
    1cfa:	2207      	movs	r2, #7
    1cfc:	2300      	movs	r3, #0
    1cfe:	189b      	adds	r3, r3, r2
    1d00:	428e      	cmp	r6, r1
    1d02:	d004      	beq.n	1d0e <ros::NodeHandle_<MbedHardware, 25, 25, 512, 512>::negotiateTopics()+0x552>
    1d04:	7832      	ldrb	r2, [r6, #0]
    1d06:	3601      	adds	r6, #1
    1d08:	189b      	adds	r3, r3, r2
    1d0a:	428e      	cmp	r6, r1
    1d0c:	d1fa      	bne.n	1d04 <ros::NodeHandle_<MbedHardware, 25, 25, 512, 512>::negotiateTopics()+0x548>
    1d0e:	22d9      	movs	r2, #217	; 0xd9
    1d10:	43db      	mvns	r3, r3
    1d12:	0092      	lsls	r2, r2, #2
    1d14:	54ab      	strb	r3, [r5, r2]
    1d16:	2344      	movs	r3, #68	; 0x44
    1d18:	4698      	mov	r8, r3
    1d1a:	23c8      	movs	r3, #200	; 0xc8
    1d1c:	009b      	lsls	r3, r3, #2
    1d1e:	18ec      	adds	r4, r5, r3
    1d20:	4b14      	ldr	r3, [pc, #80]	; (1d74 <ros::NodeHandle_<MbedHardware, 25, 25, 512, 512>::negotiateTopics()+0x5b8>)
    1d22:	44a8      	add	r8, r5
    1d24:	18ee      	adds	r6, r5, r3
    1d26:	7821      	ldrb	r1, [r4, #0]
    1d28:	4640      	mov	r0, r8
    1d2a:	3401      	adds	r4, #1
    1d2c:	f002 f9fc 	bl	4128 <mbed::Stream::putc(int)>
    1d30:	42b4      	cmp	r4, r6
    1d32:	d1f8      	bne.n	1d26 <ros::NodeHandle_<MbedHardware, 25, 25, 512, 512>::negotiateTopics()+0x56a>
    1d34:	e72a      	b.n	1b8c <ros::NodeHandle_<MbedHardware, 25, 25, 512, 512>::negotiateTopics()+0x3d0>
    1d36:	4642      	mov	r2, r8
    1d38:	2107      	movs	r1, #7
    1d3a:	0028      	movs	r0, r5
    1d3c:	4798      	blx	r3
    1d3e:	e725      	b.n	1b8c <ros::NodeHandle_<MbedHardware, 25, 25, 512, 512>::negotiateTopics()+0x3d0>
    1d40:	465a      	mov	r2, r11
    1d42:	2107      	movs	r1, #7
    1d44:	0028      	movs	r0, r5
    1d46:	4798      	blx	r3
    1d48:	e61e      	b.n	1988 <ros::NodeHandle_<MbedHardware, 25, 25, 512, 512>::negotiateTopics()+0x1cc>
    1d4a:	46c0      	nop			; (mov r8, r8)
    1d4c:	000005fc 	.word	0x000005fc
    1d50:	000066ec 	.word	0x000066ec
    1d54:	0000685c 	.word	0x0000685c
    1d58:	00000a1d 	.word	0x00000a1d
    1d5c:	00000327 	.word	0x00000327
    1d60:	00000321 	.word	0x00000321
    1d64:	00000322 	.word	0x00000322
    1d68:	00000323 	.word	0x00000323
    1d6c:	00000325 	.word	0x00000325
    1d70:	00000326 	.word	0x00000326
    1d74:	00000365 	.word	0x00000365

00001d78 <ros::NodeHandle_<MbedHardware, 25, 25, 512, 512>::spinOnce()>:
    1d78:	b5f0      	push	{r4, r5, r6, r7, lr}
    1d7a:	465f      	mov	r7, r11
    1d7c:	464d      	mov	r5, r9
    1d7e:	4644      	mov	r4, r8
    1d80:	4656      	mov	r6, r10
    1d82:	b4f0      	push	{r4, r5, r6, r7}
    1d84:	1d43      	adds	r3, r0, #5
    1d86:	33ff      	adds	r3, #255	; 0xff
    1d88:	0004      	movs	r4, r0
    1d8a:	b089      	sub	sp, #36	; 0x24
    1d8c:	0018      	movs	r0, r3
    1d8e:	4699      	mov	r9, r3
    1d90:	f002 f9fa 	bl	4188 <mbed::Timer::read_ms()>
    1d94:	4bcf      	ldr	r3, [pc, #828]	; (20d4 <ros::NodeHandle_<MbedHardware, 25, 25, 512, 512>::spinOnce()+0x35c>)
    1d96:	4ad0      	ldr	r2, [pc, #832]	; (20d8 <ros::NodeHandle_<MbedHardware, 25, 25, 512, 512>::spinOnce()+0x360>)
    1d98:	58e3      	ldr	r3, [r4, r3]
    1d9a:	4683      	mov	r11, r0
    1d9c:	1ac3      	subs	r3, r0, r3
    1d9e:	4293      	cmp	r3, r2
    1da0:	d902      	bls.n	1da8 <ros::NodeHandle_<MbedHardware, 25, 25, 512, 512>::spinOnce()+0x30>
    1da2:	2200      	movs	r2, #0
    1da4:	4bcd      	ldr	r3, [pc, #820]	; (20dc <ros::NodeHandle_<MbedHardware, 25, 25, 512, 512>::spinOnce()+0x364>)
    1da6:	54e2      	strb	r2, [r4, r3]
    1da8:	23bd      	movs	r3, #189	; 0xbd
    1daa:	00db      	lsls	r3, r3, #3
    1dac:	58e2      	ldr	r2, [r4, r3]
    1dae:	2a00      	cmp	r2, #0
    1db0:	d005      	beq.n	1dbe <ros::NodeHandle_<MbedHardware, 25, 25, 512, 512>::spinOnce()+0x46>
    1db2:	22c1      	movs	r2, #193	; 0xc1
    1db4:	00d2      	lsls	r2, r2, #3
    1db6:	58a2      	ldr	r2, [r4, r2]
    1db8:	455a      	cmp	r2, r11
    1dba:	d200      	bcs.n	1dbe <ros::NodeHandle_<MbedHardware, 25, 25, 512, 512>::spinOnce()+0x46>
    1dbc:	e12b      	b.n	2016 <ros::NodeHandle_<MbedHardware, 25, 25, 512, 512>::spinOnce()+0x29e>
    1dbe:	1d25      	adds	r5, r4, #4
    1dc0:	0028      	movs	r0, r5
    1dc2:	f000 fda3 	bl	290c <AjK::MODSERIAL::rxBufferEmpty()>
    1dc6:	1e07      	subs	r7, r0, #0
    1dc8:	d014      	beq.n	1df4 <ros::NodeHandle_<MbedHardware, 25, 25, 512, 512>::spinOnce()+0x7c>
    1dca:	4bc4      	ldr	r3, [pc, #784]	; (20dc <ros::NodeHandle_<MbedHardware, 25, 25, 512, 512>::spinOnce()+0x364>)
    1dcc:	2000      	movs	r0, #0
    1dce:	5ce3      	ldrb	r3, [r4, r3]
    1dd0:	2b00      	cmp	r3, #0
    1dd2:	d008      	beq.n	1de6 <ros::NodeHandle_<MbedHardware, 25, 25, 512, 512>::spinOnce()+0x6e>
    1dd4:	23c0      	movs	r3, #192	; 0xc0
    1dd6:	465a      	mov	r2, r11
    1dd8:	00db      	lsls	r3, r3, #3
    1dda:	58e3      	ldr	r3, [r4, r3]
    1ddc:	1ad3      	subs	r3, r2, r3
    1dde:	4ac0      	ldr	r2, [pc, #768]	; (20e0 <ros::NodeHandle_<MbedHardware, 25, 25, 512, 512>::spinOnce()+0x368>)
    1de0:	4293      	cmp	r3, r2
    1de2:	d900      	bls.n	1de6 <ros::NodeHandle_<MbedHardware, 25, 25, 512, 512>::spinOnce()+0x6e>
    1de4:	e11a      	b.n	201c <ros::NodeHandle_<MbedHardware, 25, 25, 512, 512>::spinOnce()+0x2a4>
    1de6:	b009      	add	sp, #36	; 0x24
    1de8:	bc3c      	pop	{r2, r3, r4, r5}
    1dea:	4690      	mov	r8, r2
    1dec:	4699      	mov	r9, r3
    1dee:	46a2      	mov	r10, r4
    1df0:	46ab      	mov	r11, r5
    1df2:	bdf0      	pop	{r4, r5, r6, r7, pc}
    1df4:	2101      	movs	r1, #1
    1df6:	0028      	movs	r0, r5
    1df8:	f000 fbec 	bl	25d4 <AjK::MODSERIAL::__getc(bool)>
    1dfc:	2800      	cmp	r0, #0
    1dfe:	dbe4      	blt.n	1dca <ros::NodeHandle_<MbedHardware, 25, 25, 512, 512>::spinOnce()+0x52>
    1e00:	22bf      	movs	r2, #191	; 0xbf
    1e02:	21bd      	movs	r1, #189	; 0xbd
    1e04:	00d2      	lsls	r2, r2, #3
    1e06:	58a3      	ldr	r3, [r4, r2]
    1e08:	00c9      	lsls	r1, r1, #3
    1e0a:	5866      	ldr	r6, [r4, r1]
    1e0c:	18c3      	adds	r3, r0, r3
    1e0e:	50a3      	str	r3, [r4, r2]
    1e10:	2e07      	cmp	r6, #7
    1e12:	d04a      	beq.n	1eaa <ros::NodeHandle_<MbedHardware, 25, 25, 512, 512>::spinOnce()+0x132>
    1e14:	2e00      	cmp	r6, #0
    1e16:	d109      	bne.n	1e2c <ros::NodeHandle_<MbedHardware, 25, 25, 512, 512>::spinOnce()+0xb4>
    1e18:	28ff      	cmp	r0, #255	; 0xff
    1e1a:	d15a      	bne.n	1ed2 <ros::NodeHandle_<MbedHardware, 25, 25, 512, 512>::spinOnce()+0x15a>
    1e1c:	2301      	movs	r3, #1
    1e1e:	22c1      	movs	r2, #193	; 0xc1
    1e20:	5063      	str	r3, [r4, r1]
    1e22:	465b      	mov	r3, r11
    1e24:	00d2      	lsls	r2, r2, #3
    1e26:	3314      	adds	r3, #20
    1e28:	50a3      	str	r3, [r4, r2]
    1e2a:	e7c9      	b.n	1dc0 <ros::NodeHandle_<MbedHardware, 25, 25, 512, 512>::spinOnce()+0x48>
    1e2c:	2e01      	cmp	r6, #1
    1e2e:	d05d      	beq.n	1eec <ros::NodeHandle_<MbedHardware, 25, 25, 512, 512>::spinOnce()+0x174>
    1e30:	2e02      	cmp	r6, #2
    1e32:	d100      	bne.n	1e36 <ros::NodeHandle_<MbedHardware, 25, 25, 512, 512>::spinOnce()+0xbe>
    1e34:	e0ba      	b.n	1fac <ros::NodeHandle_<MbedHardware, 25, 25, 512, 512>::spinOnce()+0x234>
    1e36:	2e03      	cmp	r6, #3
    1e38:	d100      	bne.n	1e3c <ros::NodeHandle_<MbedHardware, 25, 25, 512, 512>::spinOnce()+0xc4>
    1e3a:	e0bf      	b.n	1fbc <ros::NodeHandle_<MbedHardware, 25, 25, 512, 512>::spinOnce()+0x244>
    1e3c:	2e04      	cmp	r6, #4
    1e3e:	d100      	bne.n	1e42 <ros::NodeHandle_<MbedHardware, 25, 25, 512, 512>::spinOnce()+0xca>
    1e40:	e0c5      	b.n	1fce <ros::NodeHandle_<MbedHardware, 25, 25, 512, 512>::spinOnce()+0x256>
    1e42:	2e05      	cmp	r6, #5
    1e44:	d100      	bne.n	1e48 <ros::NodeHandle_<MbedHardware, 25, 25, 512, 512>::spinOnce()+0xd0>
    1e46:	e0cf      	b.n	1fe8 <ros::NodeHandle_<MbedHardware, 25, 25, 512, 512>::spinOnce()+0x270>
    1e48:	2e06      	cmp	r6, #6
    1e4a:	d100      	bne.n	1e4e <ros::NodeHandle_<MbedHardware, 25, 25, 512, 512>::spinOnce()+0xd6>
    1e4c:	e0d3      	b.n	1ff6 <ros::NodeHandle_<MbedHardware, 25, 25, 512, 512>::spinOnce()+0x27e>
    1e4e:	2e08      	cmp	r6, #8
    1e50:	d1b6      	bne.n	1dc0 <ros::NodeHandle_<MbedHardware, 25, 25, 512, 512>::spinOnce()+0x48>
    1e52:	22bd      	movs	r2, #189	; 0xbd
    1e54:	2100      	movs	r1, #0
    1e56:	20ff      	movs	r0, #255	; 0xff
    1e58:	00d2      	lsls	r2, r2, #3
    1e5a:	50a1      	str	r1, [r4, r2]
    1e5c:	17da      	asrs	r2, r3, #31
    1e5e:	0e12      	lsrs	r2, r2, #24
    1e60:	189b      	adds	r3, r3, r2
    1e62:	4003      	ands	r3, r0
    1e64:	1a9b      	subs	r3, r3, r2
    1e66:	2bff      	cmp	r3, #255	; 0xff
    1e68:	d1aa      	bne.n	1dc0 <ros::NodeHandle_<MbedHardware, 25, 25, 512, 512>::spinOnce()+0x48>
    1e6a:	23be      	movs	r3, #190	; 0xbe
    1e6c:	00db      	lsls	r3, r3, #3
    1e6e:	58e3      	ldr	r3, [r4, r3]
    1e70:	2b00      	cmp	r3, #0
    1e72:	d100      	bne.n	1e76 <ros::NodeHandle_<MbedHardware, 25, 25, 512, 512>::spinOnce()+0xfe>
    1e74:	e2a4      	b.n	23c0 <ros::NodeHandle_<MbedHardware, 25, 25, 512, 512>::spinOnce()+0x648>
    1e76:	2b0a      	cmp	r3, #10
    1e78:	d100      	bne.n	1e7c <ros::NodeHandle_<MbedHardware, 25, 25, 512, 512>::spinOnce()+0x104>
    1e7a:	e15d      	b.n	2138 <ros::NodeHandle_<MbedHardware, 25, 25, 512, 512>::spinOnce()+0x3c0>
    1e7c:	2b06      	cmp	r3, #6
    1e7e:	d100      	bne.n	1e82 <ros::NodeHandle_<MbedHardware, 25, 25, 512, 512>::spinOnce()+0x10a>
    1e80:	e1b5      	b.n	21ee <ros::NodeHandle_<MbedHardware, 25, 25, 512, 512>::spinOnce()+0x476>
    1e82:	2b0b      	cmp	r3, #11
    1e84:	d100      	bne.n	1e88 <ros::NodeHandle_<MbedHardware, 25, 25, 512, 512>::spinOnce()+0x110>
    1e86:	e154      	b.n	2132 <ros::NodeHandle_<MbedHardware, 25, 25, 512, 512>::spinOnce()+0x3ba>
    1e88:	33fc      	adds	r3, #252	; 0xfc
    1e8a:	009b      	lsls	r3, r3, #2
    1e8c:	18e3      	adds	r3, r4, r3
    1e8e:	685b      	ldr	r3, [r3, #4]
    1e90:	2b00      	cmp	r3, #0
    1e92:	d095      	beq.n	1dc0 <ros::NodeHandle_<MbedHardware, 25, 25, 512, 512>::spinOnce()+0x48>
    1e94:	681a      	ldr	r2, [r3, #0]
    1e96:	4993      	ldr	r1, [pc, #588]	; (20e4 <ros::NodeHandle_<MbedHardware, 25, 25, 512, 512>::spinOnce()+0x36c>)
    1e98:	6812      	ldr	r2, [r2, #0]
    1e9a:	428a      	cmp	r2, r1
    1e9c:	d000      	beq.n	1ea0 <ros::NodeHandle_<MbedHardware, 25, 25, 512, 512>::spinOnce()+0x128>
    1e9e:	e289      	b.n	23b4 <ros::NodeHandle_<MbedHardware, 25, 25, 512, 512>::spinOnce()+0x63c>
    1ea0:	0018      	movs	r0, r3
    1ea2:	691b      	ldr	r3, [r3, #16]
    1ea4:	300c      	adds	r0, #12
    1ea6:	4798      	blx	r3
    1ea8:	e78a      	b.n	1dc0 <ros::NodeHandle_<MbedHardware, 25, 25, 512, 512>::spinOnce()+0x48>
    1eaa:	4a8f      	ldr	r2, [pc, #572]	; (20e8 <ros::NodeHandle_<MbedHardware, 25, 25, 512, 512>::spinOnce()+0x370>)
    1eac:	58a3      	ldr	r3, [r4, r2]
    1eae:	1c59      	adds	r1, r3, #1
    1eb0:	18e3      	adds	r3, r4, r3
    1eb2:	3321      	adds	r3, #33	; 0x21
    1eb4:	50a1      	str	r1, [r4, r2]
    1eb6:	33ff      	adds	r3, #255	; 0xff
    1eb8:	4a8c      	ldr	r2, [pc, #560]	; (20ec <ros::NodeHandle_<MbedHardware, 25, 25, 512, 512>::spinOnce()+0x374>)
    1eba:	7018      	strb	r0, [r3, #0]
    1ebc:	58a3      	ldr	r3, [r4, r2]
    1ebe:	3b01      	subs	r3, #1
    1ec0:	50a3      	str	r3, [r4, r2]
    1ec2:	2b00      	cmp	r3, #0
    1ec4:	d000      	beq.n	1ec8 <ros::NodeHandle_<MbedHardware, 25, 25, 512, 512>::spinOnce()+0x150>
    1ec6:	e77b      	b.n	1dc0 <ros::NodeHandle_<MbedHardware, 25, 25, 512, 512>::spinOnce()+0x48>
    1ec8:	23bd      	movs	r3, #189	; 0xbd
    1eca:	2208      	movs	r2, #8
    1ecc:	00db      	lsls	r3, r3, #3
    1ece:	50e2      	str	r2, [r4, r3]
    1ed0:	e776      	b.n	1dc0 <ros::NodeHandle_<MbedHardware, 25, 25, 512, 512>::spinOnce()+0x48>
    1ed2:	4648      	mov	r0, r9
    1ed4:	f002 f958 	bl	4188 <mbed::Timer::read_ms()>
    1ed8:	465b      	mov	r3, r11
    1eda:	1ac0      	subs	r0, r0, r3
    1edc:	2805      	cmp	r0, #5
    1ede:	d800      	bhi.n	1ee2 <ros::NodeHandle_<MbedHardware, 25, 25, 512, 512>::spinOnce()+0x16a>
    1ee0:	e76e      	b.n	1dc0 <ros::NodeHandle_<MbedHardware, 25, 25, 512, 512>::spinOnce()+0x48>
    1ee2:	2002      	movs	r0, #2
    1ee4:	4b7d      	ldr	r3, [pc, #500]	; (20dc <ros::NodeHandle_<MbedHardware, 25, 25, 512, 512>::spinOnce()+0x364>)
    1ee6:	4240      	negs	r0, r0
    1ee8:	54e6      	strb	r6, [r4, r3]
    1eea:	e77c      	b.n	1de6 <ros::NodeHandle_<MbedHardware, 25, 25, 512, 512>::spinOnce()+0x6e>
    1eec:	28fe      	cmp	r0, #254	; 0xfe
    1eee:	d078      	beq.n	1fe2 <ros::NodeHandle_<MbedHardware, 25, 25, 512, 512>::spinOnce()+0x26a>
    1ef0:	4b7a      	ldr	r3, [pc, #488]	; (20dc <ros::NodeHandle_<MbedHardware, 25, 25, 512, 512>::spinOnce()+0x364>)
    1ef2:	5067      	str	r7, [r4, r1]
    1ef4:	5ce3      	ldrb	r3, [r4, r3]
    1ef6:	2b00      	cmp	r3, #0
    1ef8:	d000      	beq.n	1efc <ros::NodeHandle_<MbedHardware, 25, 25, 512, 512>::spinOnce()+0x184>
    1efa:	e761      	b.n	1dc0 <ros::NodeHandle_<MbedHardware, 25, 25, 512, 512>::spinOnce()+0x48>
    1efc:	aa05      	add	r2, sp, #20
    1efe:	4690      	mov	r8, r2
    1f00:	4a7b      	ldr	r2, [pc, #492]	; (20f0 <ros::NodeHandle_<MbedHardware, 25, 25, 512, 512>::spinOnce()+0x378>)
    1f02:	9205      	str	r2, [sp, #20]
    1f04:	4642      	mov	r2, r8
    1f06:	6053      	str	r3, [r2, #4]
    1f08:	6093      	str	r3, [r2, #8]
    1f0a:	6822      	ldr	r2, [r4, #0]
    1f0c:	6816      	ldr	r6, [r2, #0]
    1f0e:	4a79      	ldr	r2, [pc, #484]	; (20f4 <ros::NodeHandle_<MbedHardware, 25, 25, 512, 512>::spinOnce()+0x37c>)
    1f10:	4296      	cmp	r6, r2
    1f12:	d000      	beq.n	1f16 <ros::NodeHandle_<MbedHardware, 25, 25, 512, 512>::spinOnce()+0x19e>
    1f14:	e0d8      	b.n	20c8 <ros::NodeHandle_<MbedHardware, 25, 25, 512, 512>::spinOnce()+0x350>
    1f16:	21ff      	movs	r1, #255	; 0xff
    1f18:	4a77      	ldr	r2, [pc, #476]	; (20f8 <ros::NodeHandle_<MbedHardware, 25, 25, 512, 512>::spinOnce()+0x380>)
    1f1a:	54a3      	strb	r3, [r4, r2]
    1f1c:	3201      	adds	r2, #1
    1f1e:	54a3      	strb	r3, [r4, r2]
    1f20:	4a76      	ldr	r2, [pc, #472]	; (20fc <ros::NodeHandle_<MbedHardware, 25, 25, 512, 512>::spinOnce()+0x384>)
    1f22:	54a3      	strb	r3, [r4, r2]
    1f24:	4a76      	ldr	r2, [pc, #472]	; (2100 <ros::NodeHandle_<MbedHardware, 25, 25, 512, 512>::spinOnce()+0x388>)
    1f26:	54a3      	strb	r3, [r4, r2]
    1f28:	4a76      	ldr	r2, [pc, #472]	; (2104 <ros::NodeHandle_<MbedHardware, 25, 25, 512, 512>::spinOnce()+0x38c>)
    1f2a:	54a3      	strb	r3, [r4, r2]
    1f2c:	3201      	adds	r2, #1
    1f2e:	54a3      	strb	r3, [r4, r2]
    1f30:	4a75      	ldr	r2, [pc, #468]	; (2108 <ros::NodeHandle_<MbedHardware, 25, 25, 512, 512>::spinOnce()+0x390>)
    1f32:	54a3      	strb	r3, [r4, r2]
    1f34:	4a75      	ldr	r2, [pc, #468]	; (210c <ros::NodeHandle_<MbedHardware, 25, 25, 512, 512>::spinOnce()+0x394>)
    1f36:	54a3      	strb	r3, [r4, r2]
    1f38:	3a0e      	subs	r2, #14
    1f3a:	54a1      	strb	r1, [r4, r2]
    1f3c:	4a74      	ldr	r2, [pc, #464]	; (2110 <ros::NodeHandle_<MbedHardware, 25, 25, 512, 512>::spinOnce()+0x398>)
    1f3e:	3901      	subs	r1, #1
    1f40:	54a1      	strb	r1, [r4, r2]
    1f42:	4a74      	ldr	r2, [pc, #464]	; (2114 <ros::NodeHandle_<MbedHardware, 25, 25, 512, 512>::spinOnce()+0x39c>)
    1f44:	39f6      	subs	r1, #246	; 0xf6
    1f46:	54a1      	strb	r1, [r4, r2]
    1f48:	4a73      	ldr	r2, [pc, #460]	; (2118 <ros::NodeHandle_<MbedHardware, 25, 25, 512, 512>::spinOnce()+0x3a0>)
    1f4a:	31ef      	adds	r1, #239	; 0xef
    1f4c:	54a3      	strb	r3, [r4, r2]
    1f4e:	3201      	adds	r2, #1
    1f50:	54a1      	strb	r1, [r4, r2]
    1f52:	4a72      	ldr	r2, [pc, #456]	; (211c <ros::NodeHandle_<MbedHardware, 25, 25, 512, 512>::spinOnce()+0x3a4>)
    1f54:	39ed      	subs	r1, #237	; 0xed
    1f56:	54a1      	strb	r1, [r4, r2]
    1f58:	4a71      	ldr	r2, [pc, #452]	; (2120 <ros::NodeHandle_<MbedHardware, 25, 25, 512, 512>::spinOnce()+0x3a8>)
    1f5a:	54a3      	strb	r3, [r4, r2]
    1f5c:	18a3      	adds	r3, r4, r2
    1f5e:	4a71      	ldr	r2, [pc, #452]	; (2124 <ros::NodeHandle_<MbedHardware, 25, 25, 512, 512>::spinOnce()+0x3ac>)
    1f60:	18a0      	adds	r0, r4, r2
    1f62:	2200      	movs	r2, #0
    1f64:	e001      	b.n	1f6a <ros::NodeHandle_<MbedHardware, 25, 25, 512, 512>::spinOnce()+0x1f2>
    1f66:	7819      	ldrb	r1, [r3, #0]
    1f68:	3301      	adds	r3, #1
    1f6a:	1852      	adds	r2, r2, r1
    1f6c:	4298      	cmp	r0, r3
    1f6e:	d1fa      	bne.n	1f66 <ros::NodeHandle_<MbedHardware, 25, 25, 512, 512>::spinOnce()+0x1ee>
    1f70:	43d2      	mvns	r2, r2
    1f72:	4b6c      	ldr	r3, [pc, #432]	; (2124 <ros::NodeHandle_<MbedHardware, 25, 25, 512, 512>::spinOnce()+0x3ac>)
    1f74:	54e2      	strb	r2, [r4, r3]
    1f76:	2344      	movs	r3, #68	; 0x44
    1f78:	4698      	mov	r8, r3
    1f7a:	23c8      	movs	r3, #200	; 0xc8
    1f7c:	009b      	lsls	r3, r3, #2
    1f7e:	18e6      	adds	r6, r4, r3
    1f80:	3310      	adds	r3, #16
    1f82:	18e7      	adds	r7, r4, r3
    1f84:	0023      	movs	r3, r4
    1f86:	44a0      	add	r8, r4
    1f88:	003c      	movs	r4, r7
    1f8a:	4647      	mov	r7, r8
    1f8c:	4698      	mov	r8, r3
    1f8e:	7831      	ldrb	r1, [r6, #0]
    1f90:	0038      	movs	r0, r7
    1f92:	3601      	adds	r6, #1
    1f94:	f002 f8c8 	bl	4128 <mbed::Stream::putc(int)>
    1f98:	42a6      	cmp	r6, r4
    1f9a:	d1f8      	bne.n	1f8e <ros::NodeHandle_<MbedHardware, 25, 25, 512, 512>::spinOnce()+0x216>
    1f9c:	4644      	mov	r4, r8
    1f9e:	4648      	mov	r0, r9
    1fa0:	f002 f8f2 	bl	4188 <mbed::Timer::read_ms()>
    1fa4:	238a      	movs	r3, #138	; 0x8a
    1fa6:	005b      	lsls	r3, r3, #1
    1fa8:	50e0      	str	r0, [r4, r3]
    1faa:	e709      	b.n	1dc0 <ros::NodeHandle_<MbedHardware, 25, 25, 512, 512>::spinOnce()+0x48>
    1fac:	4b4f      	ldr	r3, [pc, #316]	; (20ec <ros::NodeHandle_<MbedHardware, 25, 25, 512, 512>::spinOnce()+0x374>)
    1fae:	50e0      	str	r0, [r4, r3]
    1fb0:	4b4d      	ldr	r3, [pc, #308]	; (20e8 <ros::NodeHandle_<MbedHardware, 25, 25, 512, 512>::spinOnce()+0x370>)
    1fb2:	50e7      	str	r7, [r4, r3]
    1fb4:	2303      	movs	r3, #3
    1fb6:	5063      	str	r3, [r4, r1]
    1fb8:	50a0      	str	r0, [r4, r2]
    1fba:	e701      	b.n	1dc0 <ros::NodeHandle_<MbedHardware, 25, 25, 512, 512>::spinOnce()+0x48>
    1fbc:	4b4b      	ldr	r3, [pc, #300]	; (20ec <ros::NodeHandle_<MbedHardware, 25, 25, 512, 512>::spinOnce()+0x374>)
    1fbe:	0200      	lsls	r0, r0, #8
    1fc0:	58e2      	ldr	r2, [r4, r3]
    1fc2:	4694      	mov	r12, r2
    1fc4:	4460      	add	r0, r12
    1fc6:	50e0      	str	r0, [r4, r3]
    1fc8:	2304      	movs	r3, #4
    1fca:	5063      	str	r3, [r4, r1]
    1fcc:	e6f8      	b.n	1dc0 <ros::NodeHandle_<MbedHardware, 25, 25, 512, 512>::spinOnce()+0x48>
    1fce:	20ff      	movs	r0, #255	; 0xff
    1fd0:	17da      	asrs	r2, r3, #31
    1fd2:	0e12      	lsrs	r2, r2, #24
    1fd4:	189b      	adds	r3, r3, r2
    1fd6:	4003      	ands	r3, r0
    1fd8:	1a9b      	subs	r3, r3, r2
    1fda:	2bff      	cmp	r3, #255	; 0xff
    1fdc:	d071      	beq.n	20c2 <ros::NodeHandle_<MbedHardware, 25, 25, 512, 512>::spinOnce()+0x34a>
    1fde:	5067      	str	r7, [r4, r1]
    1fe0:	e6ee      	b.n	1dc0 <ros::NodeHandle_<MbedHardware, 25, 25, 512, 512>::spinOnce()+0x48>
    1fe2:	2302      	movs	r3, #2
    1fe4:	5063      	str	r3, [r4, r1]
    1fe6:	e6eb      	b.n	1dc0 <ros::NodeHandle_<MbedHardware, 25, 25, 512, 512>::spinOnce()+0x48>
    1fe8:	23be      	movs	r3, #190	; 0xbe
    1fea:	00db      	lsls	r3, r3, #3
    1fec:	50e0      	str	r0, [r4, r3]
    1fee:	2306      	movs	r3, #6
    1ff0:	5063      	str	r3, [r4, r1]
    1ff2:	50a0      	str	r0, [r4, r2]
    1ff4:	e6e4      	b.n	1dc0 <ros::NodeHandle_<MbedHardware, 25, 25, 512, 512>::spinOnce()+0x48>
    1ff6:	23be      	movs	r3, #190	; 0xbe
    1ff8:	00db      	lsls	r3, r3, #3
    1ffa:	58e2      	ldr	r2, [r4, r3]
    1ffc:	0200      	lsls	r0, r0, #8
    1ffe:	4694      	mov	r12, r2
    2000:	2207      	movs	r2, #7
    2002:	4460      	add	r0, r12
    2004:	50e0      	str	r0, [r4, r3]
    2006:	3b08      	subs	r3, #8
    2008:	50e2      	str	r2, [r4, r3]
    200a:	4b38      	ldr	r3, [pc, #224]	; (20ec <ros::NodeHandle_<MbedHardware, 25, 25, 512, 512>::spinOnce()+0x374>)
    200c:	58e3      	ldr	r3, [r4, r3]
    200e:	2b00      	cmp	r3, #0
    2010:	d100      	bne.n	2014 <ros::NodeHandle_<MbedHardware, 25, 25, 512, 512>::spinOnce()+0x29c>
    2012:	e759      	b.n	1ec8 <ros::NodeHandle_<MbedHardware, 25, 25, 512, 512>::spinOnce()+0x150>
    2014:	e6d4      	b.n	1dc0 <ros::NodeHandle_<MbedHardware, 25, 25, 512, 512>::spinOnce()+0x48>
    2016:	2200      	movs	r2, #0
    2018:	50e2      	str	r2, [r4, r3]
    201a:	e6d0      	b.n	1dbe <ros::NodeHandle_<MbedHardware, 25, 25, 512, 512>::spinOnce()+0x46>
    201c:	4b34      	ldr	r3, [pc, #208]	; (20f0 <ros::NodeHandle_<MbedHardware, 25, 25, 512, 512>::spinOnce()+0x378>)
    201e:	4a35      	ldr	r2, [pc, #212]	; (20f4 <ros::NodeHandle_<MbedHardware, 25, 25, 512, 512>::spinOnce()+0x37c>)
    2020:	9305      	str	r3, [sp, #20]
    2022:	6823      	ldr	r3, [r4, #0]
    2024:	9006      	str	r0, [sp, #24]
    2026:	681b      	ldr	r3, [r3, #0]
    2028:	9007      	str	r0, [sp, #28]
    202a:	4293      	cmp	r3, r2
    202c:	d17c      	bne.n	2128 <ros::NodeHandle_<MbedHardware, 25, 25, 512, 512>::spinOnce()+0x3b0>
    202e:	22ff      	movs	r2, #255	; 0xff
    2030:	4b31      	ldr	r3, [pc, #196]	; (20f8 <ros::NodeHandle_<MbedHardware, 25, 25, 512, 512>::spinOnce()+0x380>)
    2032:	210a      	movs	r1, #10
    2034:	54e0      	strb	r0, [r4, r3]
    2036:	3301      	adds	r3, #1
    2038:	54e0      	strb	r0, [r4, r3]
    203a:	4b30      	ldr	r3, [pc, #192]	; (20fc <ros::NodeHandle_<MbedHardware, 25, 25, 512, 512>::spinOnce()+0x384>)
    203c:	54e0      	strb	r0, [r4, r3]
    203e:	4b30      	ldr	r3, [pc, #192]	; (2100 <ros::NodeHandle_<MbedHardware, 25, 25, 512, 512>::spinOnce()+0x388>)
    2040:	54e0      	strb	r0, [r4, r3]
    2042:	4b30      	ldr	r3, [pc, #192]	; (2104 <ros::NodeHandle_<MbedHardware, 25, 25, 512, 512>::spinOnce()+0x38c>)
    2044:	54e0      	strb	r0, [r4, r3]
    2046:	3301      	adds	r3, #1
    2048:	54e0      	strb	r0, [r4, r3]
    204a:	4b2f      	ldr	r3, [pc, #188]	; (2108 <ros::NodeHandle_<MbedHardware, 25, 25, 512, 512>::spinOnce()+0x390>)
    204c:	54e0      	strb	r0, [r4, r3]
    204e:	4b2f      	ldr	r3, [pc, #188]	; (210c <ros::NodeHandle_<MbedHardware, 25, 25, 512, 512>::spinOnce()+0x394>)
    2050:	54e0      	strb	r0, [r4, r3]
    2052:	3b0e      	subs	r3, #14
    2054:	54e2      	strb	r2, [r4, r3]
    2056:	4b2e      	ldr	r3, [pc, #184]	; (2110 <ros::NodeHandle_<MbedHardware, 25, 25, 512, 512>::spinOnce()+0x398>)
    2058:	3a01      	subs	r2, #1
    205a:	54e2      	strb	r2, [r4, r3]
    205c:	4b2d      	ldr	r3, [pc, #180]	; (2114 <ros::NodeHandle_<MbedHardware, 25, 25, 512, 512>::spinOnce()+0x39c>)
    205e:	3af6      	subs	r2, #246	; 0xf6
    2060:	54e2      	strb	r2, [r4, r3]
    2062:	4b2d      	ldr	r3, [pc, #180]	; (2118 <ros::NodeHandle_<MbedHardware, 25, 25, 512, 512>::spinOnce()+0x3a0>)
    2064:	32ef      	adds	r2, #239	; 0xef
    2066:	54e0      	strb	r0, [r4, r3]
    2068:	3301      	adds	r3, #1
    206a:	54e2      	strb	r2, [r4, r3]
    206c:	4b2b      	ldr	r3, [pc, #172]	; (211c <ros::NodeHandle_<MbedHardware, 25, 25, 512, 512>::spinOnce()+0x3a4>)
    206e:	3aed      	subs	r2, #237	; 0xed
    2070:	54e2      	strb	r2, [r4, r3]
    2072:	4b2b      	ldr	r3, [pc, #172]	; (2120 <ros::NodeHandle_<MbedHardware, 25, 25, 512, 512>::spinOnce()+0x3a8>)
    2074:	4a2b      	ldr	r2, [pc, #172]	; (2124 <ros::NodeHandle_<MbedHardware, 25, 25, 512, 512>::spinOnce()+0x3ac>)
    2076:	54e0      	strb	r0, [r4, r3]
    2078:	18a0      	adds	r0, r4, r2
    207a:	18e3      	adds	r3, r4, r3
    207c:	2200      	movs	r2, #0
    207e:	e001      	b.n	2084 <ros::NodeHandle_<MbedHardware, 25, 25, 512, 512>::spinOnce()+0x30c>
    2080:	7819      	ldrb	r1, [r3, #0]
    2082:	3301      	adds	r3, #1
    2084:	1852      	adds	r2, r2, r1
    2086:	4283      	cmp	r3, r0
    2088:	d1fa      	bne.n	2080 <ros::NodeHandle_<MbedHardware, 25, 25, 512, 512>::spinOnce()+0x308>
    208a:	43d2      	mvns	r2, r2
    208c:	0027      	movs	r7, r4
    208e:	4b25      	ldr	r3, [pc, #148]	; (2124 <ros::NodeHandle_<MbedHardware, 25, 25, 512, 512>::spinOnce()+0x3ac>)
    2090:	3744      	adds	r7, #68	; 0x44
    2092:	54e2      	strb	r2, [r4, r3]
    2094:	3b0f      	subs	r3, #15
    2096:	18e5      	adds	r5, r4, r3
    2098:	3310      	adds	r3, #16
    209a:	18e6      	adds	r6, r4, r3
    209c:	7829      	ldrb	r1, [r5, #0]
    209e:	0038      	movs	r0, r7
    20a0:	3501      	adds	r5, #1
    20a2:	f002 f841 	bl	4128 <mbed::Stream::putc(int)>
    20a6:	42ae      	cmp	r6, r5
    20a8:	d1f8      	bne.n	209c <ros::NodeHandle_<MbedHardware, 25, 25, 512, 512>::spinOnce()+0x324>
    20aa:	4648      	mov	r0, r9
    20ac:	f002 f86c 	bl	4188 <mbed::Timer::read_ms()>
    20b0:	238a      	movs	r3, #138	; 0x8a
    20b2:	005b      	lsls	r3, r3, #1
    20b4:	50e0      	str	r0, [r4, r3]
    20b6:	23c0      	movs	r3, #192	; 0xc0
    20b8:	465a      	mov	r2, r11
    20ba:	00db      	lsls	r3, r3, #3
    20bc:	50e2      	str	r2, [r4, r3]
    20be:	2000      	movs	r0, #0
    20c0:	e691      	b.n	1de6 <ros::NodeHandle_<MbedHardware, 25, 25, 512, 512>::spinOnce()+0x6e>
    20c2:	3bfa      	subs	r3, #250	; 0xfa
    20c4:	5063      	str	r3, [r4, r1]
    20c6:	e67b      	b.n	1dc0 <ros::NodeHandle_<MbedHardware, 25, 25, 512, 512>::spinOnce()+0x48>
    20c8:	4642      	mov	r2, r8
    20ca:	210a      	movs	r1, #10
    20cc:	0020      	movs	r0, r4
    20ce:	47b0      	blx	r6
    20d0:	e765      	b.n	1f9e <ros::NodeHandle_<MbedHardware, 25, 25, 512, 512>::spinOnce()+0x226>
    20d2:	46c0      	nop			; (mov r8, r8)
    20d4:	00000604 	.word	0x00000604
    20d8:	00002af8 	.word	0x00002af8
    20dc:	000005fc 	.word	0x000005fc
    20e0:	000009c4 	.word	0x000009c4
    20e4:	000005a5 	.word	0x000005a5
    20e8:	000005f4 	.word	0x000005f4
    20ec:	000005ec 	.word	0x000005ec
    20f0:	000066bc 	.word	0x000066bc
    20f4:	00000a1d 	.word	0x00000a1d
    20f8:	00000327 	.word	0x00000327
    20fc:	00000329 	.word	0x00000329
    2100:	0000032a 	.word	0x0000032a
    2104:	0000032b 	.word	0x0000032b
    2108:	0000032d 	.word	0x0000032d
    210c:	0000032e 	.word	0x0000032e
    2110:	00000321 	.word	0x00000321
    2114:	00000322 	.word	0x00000322
    2118:	00000323 	.word	0x00000323
    211c:	00000325 	.word	0x00000325
    2120:	00000326 	.word	0x00000326
    2124:	0000032f 	.word	0x0000032f
    2128:	aa05      	add	r2, sp, #20
    212a:	210a      	movs	r1, #10
    212c:	0020      	movs	r0, r4
    212e:	4798      	blx	r3
    2130:	e7bb      	b.n	20aa <ros::NodeHandle_<MbedHardware, 25, 25, 512, 512>::spinOnce()+0x332>
    2132:	4bb4      	ldr	r3, [pc, #720]	; (2404 <ros::NodeHandle_<MbedHardware, 25, 25, 512, 512>::spinOnce()+0x68c>)
    2134:	54e1      	strb	r1, [r4, r3]
    2136:	e643      	b.n	1dc0 <ros::NodeHandle_<MbedHardware, 25, 25, 512, 512>::spinOnce()+0x48>
    2138:	4648      	mov	r0, r9
    213a:	f002 f825 	bl	4188 <mbed::Timer::read_ms()>
    213e:	238a      	movs	r3, #138	; 0x8a
    2140:	005b      	lsls	r3, r3, #1
    2142:	58e3      	ldr	r3, [r4, r3]
    2144:	1ac3      	subs	r3, r0, r3
    2146:	469a      	mov	r10, r3
    2148:	2390      	movs	r3, #144	; 0x90
    214a:	005b      	lsls	r3, r3, #1
    214c:	18e0      	adds	r0, r4, r3
    214e:	5ce1      	ldrb	r1, [r4, r3]
    2150:	7843      	ldrb	r3, [r0, #1]
    2152:	7887      	ldrb	r7, [r0, #2]
    2154:	021b      	lsls	r3, r3, #8
    2156:	430b      	orrs	r3, r1
    2158:	043f      	lsls	r7, r7, #16
    215a:	001a      	movs	r2, r3
    215c:	003b      	movs	r3, r7
    215e:	78c7      	ldrb	r7, [r0, #3]
    2160:	4313      	orrs	r3, r2
    2162:	063f      	lsls	r7, r7, #24
    2164:	431f      	orrs	r7, r3
    2166:	2392      	movs	r3, #146	; 0x92
    2168:	005b      	lsls	r3, r3, #1
    216a:	18e0      	adds	r0, r4, r3
    216c:	5ce1      	ldrb	r1, [r4, r3]
    216e:	7843      	ldrb	r3, [r0, #1]
    2170:	7886      	ldrb	r6, [r0, #2]
    2172:	021b      	lsls	r3, r3, #8
    2174:	430b      	orrs	r3, r1
    2176:	0436      	lsls	r6, r6, #16
    2178:	001a      	movs	r2, r3
    217a:	0033      	movs	r3, r6
    217c:	78c6      	ldrb	r6, [r0, #3]
    217e:	4313      	orrs	r3, r2
    2180:	0636      	lsls	r6, r6, #24
    2182:	431e      	orrs	r6, r3
    2184:	4ba0      	ldr	r3, [pc, #640]	; (2408 <ros::NodeHandle_<MbedHardware, 25, 25, 512, 512>::spinOnce()+0x690>)
    2186:	4648      	mov	r0, r9
    2188:	469c      	mov	r12, r3
    218a:	4466      	add	r6, r12
    218c:	f001 fffc 	bl	4188 <mbed::Timer::read_ms()>
    2190:	21fa      	movs	r1, #250	; 0xfa
    2192:	4680      	mov	r8, r0
    2194:	0089      	lsls	r1, r1, #2
    2196:	4650      	mov	r0, r10
    2198:	f002 f816 	bl	41c8 <__aeabi_uidiv>
    219c:	21fa      	movs	r1, #250	; 0xfa
    219e:	3f01      	subs	r7, #1
    21a0:	19c7      	adds	r7, r0, r7
    21a2:	0089      	lsls	r1, r1, #2
    21a4:	4640      	mov	r0, r8
    21a6:	f002 f80f 	bl	41c8 <__aeabi_uidiv>
    21aa:	238c      	movs	r3, #140	; 0x8c
    21ac:	21fa      	movs	r1, #250	; 0xfa
    21ae:	005b      	lsls	r3, r3, #1
    21b0:	1a3f      	subs	r7, r7, r0
    21b2:	50e7      	str	r7, [r4, r3]
    21b4:	0089      	lsls	r1, r1, #2
    21b6:	4650      	mov	r0, r10
    21b8:	f002 f88c 	bl	42d4 <__aeabi_uidivmod>
    21bc:	4f93      	ldr	r7, [pc, #588]	; (240c <ros::NodeHandle_<MbedHardware, 25, 25, 512, 512>::spinOnce()+0x694>)
    21be:	4640      	mov	r0, r8
    21c0:	4379      	muls	r1, r7
    21c2:	198e      	adds	r6, r1, r6
    21c4:	21fa      	movs	r1, #250	; 0xfa
    21c6:	0089      	lsls	r1, r1, #2
    21c8:	f002 f884 	bl	42d4 <__aeabi_uidivmod>
    21cc:	238e      	movs	r3, #142	; 0x8e
    21ce:	0020      	movs	r0, r4
    21d0:	4379      	muls	r1, r7
    21d2:	005b      	lsls	r3, r3, #1
    21d4:	1a76      	subs	r6, r6, r1
    21d6:	3019      	adds	r0, #25
    21d8:	50e6      	str	r6, [r4, r3]
    21da:	18e1      	adds	r1, r4, r3
    21dc:	30ff      	adds	r0, #255	; 0xff
    21de:	f000 f9e5 	bl	25ac <ros::normalizeSecNSec(unsigned long&, unsigned long&)>
    21e2:	4648      	mov	r0, r9
    21e4:	f001 ffd0 	bl	4188 <mbed::Timer::read_ms()>
    21e8:	4b89      	ldr	r3, [pc, #548]	; (2410 <ros::NodeHandle_<MbedHardware, 25, 25, 512, 512>::spinOnce()+0x698>)
    21ea:	50e0      	str	r0, [r4, r3]
    21ec:	e5e8      	b.n	1dc0 <ros::NodeHandle_<MbedHardware, 25, 25, 512, 512>::spinOnce()+0x48>
    21ee:	331b      	adds	r3, #27
    21f0:	33ff      	adds	r3, #255	; 0xff
    21f2:	469c      	mov	r12, r3
    21f4:	44a4      	add	r12, r4
    21f6:	4663      	mov	r3, r12
    21f8:	9301      	str	r3, [sp, #4]
    21fa:	2390      	movs	r3, #144	; 0x90
    21fc:	005b      	lsls	r3, r3, #1
    21fe:	5ce6      	ldrb	r6, [r4, r3]
    2200:	23c2      	movs	r3, #194	; 0xc2
    2202:	00db      	lsls	r3, r3, #3
    2204:	469a      	mov	r10, r3
    2206:	44a2      	add	r10, r4
    2208:	4653      	mov	r3, r10
    220a:	791b      	ldrb	r3, [r3, #4]
    220c:	42b3      	cmp	r3, r6
    220e:	d206      	bcs.n	221e <ros::NodeHandle_<MbedHardware, 25, 25, 512, 512>::spinOnce()+0x4a6>
    2210:	4653      	mov	r3, r10
    2212:	00b1      	lsls	r1, r6, #2
    2214:	68d8      	ldr	r0, [r3, #12]
    2216:	f000 f9b9 	bl	258c <__wrap_realloc>
    221a:	4653      	mov	r3, r10
    221c:	60d8      	str	r0, [r3, #12]
    221e:	4653      	mov	r3, r10
    2220:	711e      	strb	r6, [r3, #4]
    2222:	2e00      	cmp	r6, #0
    2224:	d100      	bne.n	2228 <ros::NodeHandle_<MbedHardware, 25, 25, 512, 512>::spinOnce()+0x4b0>
    2226:	e0e7      	b.n	23f8 <ros::NodeHandle_<MbedHardware, 25, 25, 512, 512>::spinOnce()+0x680>
    2228:	23c3      	movs	r3, #195	; 0xc3
    222a:	00db      	lsls	r3, r3, #3
    222c:	469c      	mov	r12, r3
    222e:	44a4      	add	r12, r4
    2230:	4663      	mov	r3, r12
    2232:	9302      	str	r3, [sp, #8]
    2234:	2304      	movs	r3, #4
    2236:	9a01      	ldr	r2, [sp, #4]
    2238:	0026      	movs	r6, r4
    223a:	1a9b      	subs	r3, r3, r2
    223c:	9303      	str	r3, [sp, #12]
    223e:	4653      	mov	r3, r10
    2240:	2700      	movs	r7, #0
    2242:	46a2      	mov	r10, r4
    2244:	001c      	movs	r4, r3
    2246:	3625      	adds	r6, #37	; 0x25
    2248:	36ff      	adds	r6, #255	; 0xff
    224a:	7873      	ldrb	r3, [r6, #1]
    224c:	00b8      	lsls	r0, r7, #2
    224e:	021a      	lsls	r2, r3, #8
    2250:	78b3      	ldrb	r3, [r6, #2]
    2252:	9902      	ldr	r1, [sp, #8]
    2254:	041b      	lsls	r3, r3, #16
    2256:	4313      	orrs	r3, r2
    2258:	7832      	ldrb	r2, [r6, #0]
    225a:	3701      	adds	r7, #1
    225c:	431a      	orrs	r2, r3
    225e:	78f3      	ldrb	r3, [r6, #3]
    2260:	b2ff      	uxtb	r7, r7
    2262:	061b      	lsls	r3, r3, #24
    2264:	4313      	orrs	r3, r2
    2266:	60a3      	str	r3, [r4, #8]
    2268:	9b03      	ldr	r3, [sp, #12]
    226a:	2204      	movs	r2, #4
    226c:	4698      	mov	r8, r3
    226e:	68e3      	ldr	r3, [r4, #12]
    2270:	44b0      	add	r8, r6
    2272:	469c      	mov	r12, r3
    2274:	4460      	add	r0, r12
    2276:	f002 fcf2 	bl	4c5e <memcpy>
    227a:	7923      	ldrb	r3, [r4, #4]
    227c:	3604      	adds	r6, #4
    227e:	42bb      	cmp	r3, r7
    2280:	d8e3      	bhi.n	224a <ros::NodeHandle_<MbedHardware, 25, 25, 512, 512>::spinOnce()+0x4d2>
    2282:	0023      	movs	r3, r4
    2284:	4654      	mov	r4, r10
    2286:	469a      	mov	r10, r3
    2288:	4643      	mov	r3, r8
    228a:	1d1e      	adds	r6, r3, #4
    228c:	46b0      	mov	r8, r6
    228e:	9a01      	ldr	r2, [sp, #4]
    2290:	5cd7      	ldrb	r7, [r2, r3]
    2292:	4653      	mov	r3, r10
    2294:	7c1b      	ldrb	r3, [r3, #16]
    2296:	42bb      	cmp	r3, r7
    2298:	d206      	bcs.n	22a8 <ros::NodeHandle_<MbedHardware, 25, 25, 512, 512>::spinOnce()+0x530>
    229a:	4653      	mov	r3, r10
    229c:	00b9      	lsls	r1, r7, #2
    229e:	6998      	ldr	r0, [r3, #24]
    22a0:	f000 f974 	bl	258c <__wrap_realloc>
    22a4:	4653      	mov	r3, r10
    22a6:	6198      	str	r0, [r3, #24]
    22a8:	4653      	mov	r3, r10
    22aa:	741f      	strb	r7, [r3, #16]
    22ac:	2f00      	cmp	r7, #0
    22ae:	d02f      	beq.n	2310 <ros::NodeHandle_<MbedHardware, 25, 25, 512, 512>::spinOnce()+0x598>
    22b0:	4b58      	ldr	r3, [pc, #352]	; (2414 <ros::NodeHandle_<MbedHardware, 25, 25, 512, 512>::spinOnce()+0x69c>)
    22b2:	4652      	mov	r2, r10
    22b4:	469c      	mov	r12, r3
    22b6:	44a4      	add	r12, r4
    22b8:	4663      	mov	r3, r12
    22ba:	9302      	str	r3, [sp, #8]
    22bc:	9b01      	ldr	r3, [sp, #4]
    22be:	46a2      	mov	r10, r4
    22c0:	4443      	add	r3, r8
    22c2:	001f      	movs	r7, r3
    22c4:	4643      	mov	r3, r8
    22c6:	2600      	movs	r6, #0
    22c8:	46a8      	mov	r8, r5
    22ca:	0014      	movs	r4, r2
    22cc:	001d      	movs	r5, r3
    22ce:	787b      	ldrb	r3, [r7, #1]
    22d0:	00b0      	lsls	r0, r6, #2
    22d2:	021a      	lsls	r2, r3, #8
    22d4:	78bb      	ldrb	r3, [r7, #2]
    22d6:	9902      	ldr	r1, [sp, #8]
    22d8:	041b      	lsls	r3, r3, #16
    22da:	4313      	orrs	r3, r2
    22dc:	783a      	ldrb	r2, [r7, #0]
    22de:	3601      	adds	r6, #1
    22e0:	431a      	orrs	r2, r3
    22e2:	78fb      	ldrb	r3, [r7, #3]
    22e4:	b2f6      	uxtb	r6, r6
    22e6:	061b      	lsls	r3, r3, #24
    22e8:	4313      	orrs	r3, r2
    22ea:	6163      	str	r3, [r4, #20]
    22ec:	69a3      	ldr	r3, [r4, #24]
    22ee:	2204      	movs	r2, #4
    22f0:	469c      	mov	r12, r3
    22f2:	4460      	add	r0, r12
    22f4:	f002 fcb3 	bl	4c5e <memcpy>
    22f8:	7c23      	ldrb	r3, [r4, #16]
    22fa:	3504      	adds	r5, #4
    22fc:	3704      	adds	r7, #4
    22fe:	42b3      	cmp	r3, r6
    2300:	d8e5      	bhi.n	22ce <ros::NodeHandle_<MbedHardware, 25, 25, 512, 512>::spinOnce()+0x556>
    2302:	002a      	movs	r2, r5
    2304:	0023      	movs	r3, r4
    2306:	4645      	mov	r5, r8
    2308:	4654      	mov	r4, r10
    230a:	4690      	mov	r8, r2
    230c:	469a      	mov	r10, r3
    230e:	0016      	movs	r6, r2
    2310:	9b01      	ldr	r3, [sp, #4]
    2312:	5d9e      	ldrb	r6, [r3, r6]
    2314:	4653      	mov	r3, r10
    2316:	7f1b      	ldrb	r3, [r3, #28]
    2318:	42b3      	cmp	r3, r6
    231a:	d206      	bcs.n	232a <ros::NodeHandle_<MbedHardware, 25, 25, 512, 512>::spinOnce()+0x5b2>
    231c:	4653      	mov	r3, r10
    231e:	00b1      	lsls	r1, r6, #2
    2320:	6a58      	ldr	r0, [r3, #36]	; 0x24
    2322:	f000 f933 	bl	258c <__wrap_realloc>
    2326:	4653      	mov	r3, r10
    2328:	6258      	str	r0, [r3, #36]	; 0x24
    232a:	4647      	mov	r7, r8
    232c:	4653      	mov	r3, r10
    232e:	3704      	adds	r7, #4
    2330:	771e      	strb	r6, [r3, #28]
    2332:	2e00      	cmp	r6, #0
    2334:	d03a      	beq.n	23ac <ros::NodeHandle_<MbedHardware, 25, 25, 512, 512>::spinOnce()+0x634>
    2336:	23c6      	movs	r3, #198	; 0xc6
    2338:	00db      	lsls	r3, r3, #3
    233a:	469c      	mov	r12, r3
    233c:	44a4      	add	r12, r4
    233e:	4663      	mov	r3, r12
    2340:	9303      	str	r3, [sp, #12]
    2342:	2300      	movs	r3, #0
    2344:	9302      	str	r3, [sp, #8]
    2346:	ab05      	add	r3, sp, #20
    2348:	4698      	mov	r8, r3
    234a:	4653      	mov	r3, r10
    234c:	46a2      	mov	r10, r4
    234e:	001c      	movs	r4, r3
    2350:	9b01      	ldr	r3, [sp, #4]
    2352:	2204      	movs	r2, #4
    2354:	19de      	adds	r6, r3, r7
    2356:	0031      	movs	r1, r6
    2358:	4640      	mov	r0, r8
    235a:	f002 fc80 	bl	4c5e <memcpy>
    235e:	9b05      	ldr	r3, [sp, #20]
    2360:	1d39      	adds	r1, r7, #4
    2362:	18cf      	adds	r7, r1, r3
    2364:	1e0b      	subs	r3, r1, #0
    2366:	42bb      	cmp	r3, r7
    2368:	d205      	bcs.n	2376 <ros::NodeHandle_<MbedHardware, 25, 25, 512, 512>::spinOnce()+0x5fe>
    236a:	7932      	ldrb	r2, [r6, #4]
    236c:	3301      	adds	r3, #1
    236e:	70f2      	strb	r2, [r6, #3]
    2370:	3601      	adds	r6, #1
    2372:	42bb      	cmp	r3, r7
    2374:	d3f9      	bcc.n	236a <ros::NodeHandle_<MbedHardware, 25, 25, 512, 512>::spinOnce()+0x5f2>
    2376:	2000      	movs	r0, #0
    2378:	9a01      	ldr	r2, [sp, #4]
    237a:	3901      	subs	r1, #1
    237c:	4694      	mov	r12, r2
    237e:	19d3      	adds	r3, r2, r7
    2380:	3b01      	subs	r3, #1
    2382:	7018      	strb	r0, [r3, #0]
    2384:	6a63      	ldr	r3, [r4, #36]	; 0x24
    2386:	4461      	add	r1, r12
    2388:	469c      	mov	r12, r3
    238a:	9e02      	ldr	r6, [sp, #8]
    238c:	6221      	str	r1, [r4, #32]
    238e:	00b0      	lsls	r0, r6, #2
    2390:	2204      	movs	r2, #4
    2392:	4460      	add	r0, r12
    2394:	9903      	ldr	r1, [sp, #12]
    2396:	f002 fc62 	bl	4c5e <memcpy>
    239a:	0033      	movs	r3, r6
    239c:	3301      	adds	r3, #1
    239e:	b2db      	uxtb	r3, r3
    23a0:	9302      	str	r3, [sp, #8]
    23a2:	001a      	movs	r2, r3
    23a4:	7f23      	ldrb	r3, [r4, #28]
    23a6:	4293      	cmp	r3, r2
    23a8:	d8d2      	bhi.n	2350 <ros::NodeHandle_<MbedHardware, 25, 25, 512, 512>::spinOnce()+0x5d8>
    23aa:	4654      	mov	r4, r10
    23ac:	2201      	movs	r2, #1
    23ae:	4b1a      	ldr	r3, [pc, #104]	; (2418 <ros::NodeHandle_<MbedHardware, 25, 25, 512, 512>::spinOnce()+0x6a0>)
    23b0:	54e2      	strb	r2, [r4, r3]
    23b2:	e505      	b.n	1dc0 <ros::NodeHandle_<MbedHardware, 25, 25, 512, 512>::spinOnce()+0x48>
    23b4:	0021      	movs	r1, r4
    23b6:	3121      	adds	r1, #33	; 0x21
    23b8:	31ff      	adds	r1, #255	; 0xff
    23ba:	0018      	movs	r0, r3
    23bc:	4790      	blx	r2
    23be:	e4ff      	b.n	1dc0 <ros::NodeHandle_<MbedHardware, 25, 25, 512, 512>::spinOnce()+0x48>
    23c0:	4a16      	ldr	r2, [pc, #88]	; (241c <ros::NodeHandle_<MbedHardware, 25, 25, 512, 512>::spinOnce()+0x6a4>)
    23c2:	9306      	str	r3, [sp, #24]
    23c4:	9307      	str	r3, [sp, #28]
    23c6:	6823      	ldr	r3, [r4, #0]
    23c8:	9205      	str	r2, [sp, #20]
    23ca:	681b      	ldr	r3, [r3, #0]
    23cc:	aa05      	add	r2, sp, #20
    23ce:	310a      	adds	r1, #10
    23d0:	0020      	movs	r0, r4
    23d2:	4798      	blx	r3
    23d4:	4648      	mov	r0, r9
    23d6:	f001 fed7 	bl	4188 <mbed::Timer::read_ms()>
    23da:	238a      	movs	r3, #138	; 0x8a
    23dc:	005b      	lsls	r3, r3, #1
    23de:	50e0      	str	r0, [r4, r3]
    23e0:	0020      	movs	r0, r4
    23e2:	f7ff f9eb 	bl	17bc <ros::NodeHandle_<MbedHardware, 25, 25, 512, 512>::negotiateTopics()>
    23e6:	23c0      	movs	r3, #192	; 0xc0
    23e8:	465a      	mov	r2, r11
    23ea:	2001      	movs	r0, #1
    23ec:	00db      	lsls	r3, r3, #3
    23ee:	50e2      	str	r2, [r4, r3]
    23f0:	4b07      	ldr	r3, [pc, #28]	; (2410 <ros::NodeHandle_<MbedHardware, 25, 25, 512, 512>::spinOnce()+0x698>)
    23f2:	4240      	negs	r0, r0
    23f4:	50e2      	str	r2, [r4, r3]
    23f6:	e4f6      	b.n	1de6 <ros::NodeHandle_<MbedHardware, 25, 25, 512, 512>::spinOnce()+0x6e>
    23f8:	2308      	movs	r3, #8
    23fa:	2608      	movs	r6, #8
    23fc:	4698      	mov	r8, r3
    23fe:	3b04      	subs	r3, #4
    2400:	e745      	b.n	228e <ros::NodeHandle_<MbedHardware, 25, 25, 512, 512>::spinOnce()+0x516>
    2402:	46c0      	nop			; (mov r8, r8)
    2404:	000005fc 	.word	0x000005fc
    2408:	3b9aca00 	.word	0x3b9aca00
    240c:	000f4240 	.word	0x000f4240
    2410:	00000604 	.word	0x00000604
    2414:	00000624 	.word	0x00000624
    2418:	0000060c 	.word	0x0000060c
    241c:	000066bc 	.word	0x000066bc

00002420 <_GLOBAL__sub_I_nh>:
    2420:	b570      	push	{r4, r5, r6, lr}
    2422:	4c32      	ldr	r4, [pc, #200]	; (24ec <_GLOBAL__sub_I_nh+0xcc>)
    2424:	4b32      	ldr	r3, [pc, #200]	; (24f0 <_GLOBAL__sub_I_nh+0xd0>)
    2426:	0020      	movs	r0, r4
    2428:	1d65      	adds	r5, r4, #5
    242a:	2108      	movs	r1, #8
    242c:	2204      	movs	r2, #4
    242e:	c008      	stmia	r0!, {r3}
    2430:	35ff      	adds	r5, #255	; 0xff
    2432:	2300      	movs	r3, #0
    2434:	f000 fa42 	bl	28bc <AjK::MODSERIAL::MODSERIAL(PinName, PinName, char const*)>
    2438:	0028      	movs	r0, r5
    243a:	f001 fe89 	bl	4150 <mbed::Timer::Timer()>
    243e:	22e1      	movs	r2, #225	; 0xe1
    2440:	2380      	movs	r3, #128	; 0x80
    2442:	0212      	lsls	r2, r2, #8
    2444:	005b      	lsls	r3, r3, #1
    2446:	50e2      	str	r2, [r4, r3]
    2448:	0028      	movs	r0, r5
    244a:	f001 fe91 	bl	4170 <mbed::Timer::start()>
    244e:	2300      	movs	r3, #0
    2450:	4a28      	ldr	r2, [pc, #160]	; (24f4 <_GLOBAL__sub_I_nh+0xd4>)
    2452:	4929      	ldr	r1, [pc, #164]	; (24f8 <_GLOBAL__sub_I_nh+0xd8>)
    2454:	54a3      	strb	r3, [r4, r2]
    2456:	3214      	adds	r2, #20
    2458:	50a1      	str	r1, [r4, r2]
    245a:	4a28      	ldr	r2, [pc, #160]	; (24fc <_GLOBAL__sub_I_nh+0xdc>)
    245c:	2000      	movs	r0, #0
    245e:	54a3      	strb	r3, [r4, r2]
    2460:	4a27      	ldr	r2, [pc, #156]	; (2500 <_GLOBAL__sub_I_nh+0xe0>)
    2462:	50a3      	str	r3, [r4, r2]
    2464:	3204      	adds	r2, #4
    2466:	54a3      	strb	r3, [r4, r2]
    2468:	3208      	adds	r2, #8
    246a:	50a3      	str	r3, [r4, r2]
    246c:	4a25      	ldr	r2, [pc, #148]	; (2504 <_GLOBAL__sub_I_nh+0xe4>)
    246e:	54a3      	strb	r3, [r4, r2]
    2470:	4a25      	ldr	r2, [pc, #148]	; (2508 <_GLOBAL__sub_I_nh+0xe8>)
    2472:	50a3      	str	r3, [r4, r2]
    2474:	23a4      	movs	r3, #164	; 0xa4
    2476:	00db      	lsls	r3, r3, #3
    2478:	18e1      	adds	r1, r4, r3
    247a:	000a      	movs	r2, r1
    247c:	4b23      	ldr	r3, [pc, #140]	; (250c <_GLOBAL__sub_I_nh+0xec>)
    247e:	18e3      	adds	r3, r4, r3
    2480:	c201      	stmia	r2!, {r0}
    2482:	4293      	cmp	r3, r2
    2484:	d1fc      	bne.n	2480 <_GLOBAL__sub_I_nh+0x60>
    2486:	22bd      	movs	r2, #189	; 0xbd
    2488:	00d2      	lsls	r2, r2, #3
    248a:	18a0      	adds	r0, r4, r2
    248c:	2200      	movs	r2, #0
    248e:	c304      	stmia	r3!, {r2}
    2490:	4298      	cmp	r0, r3
    2492:	d1fc      	bne.n	248e <_GLOBAL__sub_I_nh+0x6e>
    2494:	0022      	movs	r2, r4
    2496:	23c8      	movs	r3, #200	; 0xc8
    2498:	2000      	movs	r0, #0
    249a:	3221      	adds	r2, #33	; 0x21
    249c:	009b      	lsls	r3, r3, #2
    249e:	32ff      	adds	r2, #255	; 0xff
    24a0:	18e3      	adds	r3, r4, r3
    24a2:	7010      	strb	r0, [r2, #0]
    24a4:	3201      	adds	r2, #1
    24a6:	4293      	cmp	r3, r2
    24a8:	d1fb      	bne.n	24a2 <_GLOBAL__sub_I_nh+0x82>
    24aa:	2200      	movs	r2, #0
    24ac:	701a      	strb	r2, [r3, #0]
    24ae:	3301      	adds	r3, #1
    24b0:	428b      	cmp	r3, r1
    24b2:	d1fb      	bne.n	24ac <_GLOBAL__sub_I_nh+0x8c>
    24b4:	4a16      	ldr	r2, [pc, #88]	; (2510 <_GLOBAL__sub_I_nh+0xf0>)
    24b6:	4917      	ldr	r1, [pc, #92]	; (2514 <_GLOBAL__sub_I_nh+0xf4>)
    24b8:	0020      	movs	r0, r4
    24ba:	f001 fe79 	bl	41b0 <__aeabi_atexit>
    24be:	4c16      	ldr	r4, [pc, #88]	; (2518 <_GLOBAL__sub_I_nh+0xf8>)
    24c0:	2218      	movs	r2, #24
    24c2:	2100      	movs	r1, #0
    24c4:	0020      	movs	r0, r4
    24c6:	f002 fbe8 	bl	4c9a <memset>
    24ca:	4914      	ldr	r1, [pc, #80]	; (251c <_GLOBAL__sub_I_nh+0xfc>)
    24cc:	0020      	movs	r0, r4
    24ce:	f000 fc3d 	bl	2d4c <gpio_init_out>
    24d2:	4b13      	ldr	r3, [pc, #76]	; (2520 <_GLOBAL__sub_I_nh+0x100>)
    24d4:	4a13      	ldr	r2, [pc, #76]	; (2524 <_GLOBAL__sub_I_nh+0x104>)
    24d6:	601a      	str	r2, [r3, #0]
    24d8:	4a13      	ldr	r2, [pc, #76]	; (2528 <_GLOBAL__sub_I_nh+0x108>)
    24da:	60da      	str	r2, [r3, #12]
    24dc:	4a13      	ldr	r2, [pc, #76]	; (252c <_GLOBAL__sub_I_nh+0x10c>)
    24de:	611a      	str	r2, [r3, #16]
    24e0:	2201      	movs	r2, #1
    24e2:	615a      	str	r2, [r3, #20]
    24e4:	4a12      	ldr	r2, [pc, #72]	; (2530 <_GLOBAL__sub_I_nh+0x110>)
    24e6:	609a      	str	r2, [r3, #8]
    24e8:	bd70      	pop	{r4, r5, r6, pc}
    24ea:	46c0      	nop			; (mov r8, r8)
    24ec:	1ffff178 	.word	0x1ffff178
    24f0:	00006734 	.word	0x00006734
    24f4:	000005fc 	.word	0x000005fc
    24f8:	00006704 	.word	0x00006704
    24fc:	00000614 	.word	0x00000614
    2500:	0000061c 	.word	0x0000061c
    2504:	0000062c 	.word	0x0000062c
    2508:	00000634 	.word	0x00000634
    250c:	00000584 	.word	0x00000584
    2510:	1ffff0c0 	.word	0x1ffff0c0
    2514:	00002535 	.word	0x00002535
    2518:	1ffff160 	.word	0x1ffff160
    251c:	00001048 	.word	0x00001048
    2520:	1ffff7b0 	.word	0x1ffff7b0
    2524:	00006748 	.word	0x00006748
    2528:	0000671c 	.word	0x0000671c
    252c:	00000589 	.word	0x00000589
    2530:	00006898 	.word	0x00006898

00002534 <ros::NodeHandle_<MbedHardware, 25, 25, 512, 512>::~NodeHandle_()>:
    2534:	b510      	push	{r4, lr}
    2536:	0004      	movs	r4, r0
    2538:	4b02      	ldr	r3, [pc, #8]	; (2544 <ros::NodeHandle_<MbedHardware, 25, 25, 512, 512>::~NodeHandle_()+0x10>)
    253a:	c008      	stmia	r0!, {r3}
    253c:	f000 f946 	bl	27cc <AjK::MODSERIAL::~MODSERIAL()>
    2540:	0020      	movs	r0, r4
    2542:	bd10      	pop	{r4, pc}
    2544:	00006734 	.word	0x00006734

00002548 <_start>:
    2548:	4807      	ldr	r0, [pc, #28]	; (2568 <_start+0x20>)
    254a:	4a08      	ldr	r2, [pc, #32]	; (256c <_start+0x24>)
    254c:	b510      	push	{r4, lr}
    254e:	1a12      	subs	r2, r2, r0
    2550:	2100      	movs	r1, #0
    2552:	f002 fba2 	bl	4c9a <memset>
    2556:	e000      	b.n	255a <_start+0x12>
    2558:	bf00      	nop
    255a:	f002 fae9 	bl	4b30 <__libc_init_array>
    255e:	f001 fc77 	bl	3e50 <__wrap_main>
    2562:	f001 ffbb 	bl	44dc <exit>
    2566:	46c0      	nop			; (mov r8, r8)
    2568:	1ffff144 	.word	0x1ffff144
    256c:	1ffff908 	.word	0x1ffff908

00002570 <__wrap__isatty>:
    2570:	b510      	push	{r4, lr}
    2572:	2301      	movs	r3, #1
    2574:	2802      	cmp	r0, #2
    2576:	dd02      	ble.n	257e <__wrap__isatty+0xe>
    2578:	f001 fc2e 	bl	3dd8 <_isatty>
    257c:	0003      	movs	r3, r0
    257e:	0018      	movs	r0, r3
    2580:	bd10      	pop	{r4, pc}
    2582:	46c0      	nop			; (mov r8, r8)

00002584 <__wrap_malloc>:
    2584:	b510      	push	{r4, lr}
    2586:	f002 fb4b 	bl	4c20 <malloc>
    258a:	bd10      	pop	{r4, pc}

0000258c <__wrap_realloc>:
    258c:	b510      	push	{r4, lr}
    258e:	f003 f8bb 	bl	5708 <realloc>
    2592:	bd10      	pop	{r4, pc}

00002594 <__wrap_free>:
    2594:	b510      	push	{r4, lr}
    2596:	f002 fb4d 	bl	4c34 <free>
    259a:	bd10      	pop	{r4, pc}

0000259c <abort>:
    259c:	b510      	push	{r4, lr}
    259e:	2001      	movs	r0, #1
    25a0:	f001 ff9c 	bl	44dc <exit>

000025a4 <__cxa_pure_virtual>:
    25a4:	b510      	push	{r4, lr}
    25a6:	f7ff fff9 	bl	259c <abort>
    25aa:	46c0      	nop			; (mov r8, r8)

000025ac <ros::normalizeSecNSec(unsigned long&, unsigned long&)>:
    25ac:	b570      	push	{r4, r5, r6, lr}
    25ae:	0006      	movs	r6, r0
    25b0:	680d      	ldr	r5, [r1, #0]
    25b2:	000c      	movs	r4, r1
    25b4:	0028      	movs	r0, r5
    25b6:	4906      	ldr	r1, [pc, #24]	; (25d0 <ros::normalizeSecNSec(unsigned long&, unsigned long&)+0x24>)
    25b8:	f001 fe06 	bl	41c8 <__aeabi_uidiv>
    25bc:	6833      	ldr	r3, [r6, #0]
    25be:	4904      	ldr	r1, [pc, #16]	; (25d0 <ros::normalizeSecNSec(unsigned long&, unsigned long&)+0x24>)
    25c0:	469c      	mov	r12, r3
    25c2:	4460      	add	r0, r12
    25c4:	6030      	str	r0, [r6, #0]
    25c6:	0028      	movs	r0, r5
    25c8:	f001 fe84 	bl	42d4 <__aeabi_uidivmod>
    25cc:	6021      	str	r1, [r4, #0]
    25ce:	bd70      	pop	{r4, r5, r6, pc}
    25d0:	3b9aca00 	.word	0x3b9aca00

000025d4 <AjK::MODSERIAL::__getc(bool)>:
    25d4:	6fc3      	ldr	r3, [r0, #124]	; 0x7c
    25d6:	b570      	push	{r4, r5, r6, lr}
    25d8:	0004      	movs	r4, r0
    25da:	2b00      	cmp	r3, #0
    25dc:	d02e      	beq.n	263c <AjK::MODSERIAL::__getc(bool)+0x68>
    25de:	6e40      	ldr	r0, [r0, #100]	; 0x64
    25e0:	2800      	cmp	r0, #0
    25e2:	d02b      	beq.n	263c <AjK::MODSERIAL::__getc(bool)+0x68>
    25e4:	2900      	cmp	r1, #0
    25e6:	d131      	bne.n	264c <AjK::MODSERIAL::__getc(bool)+0x78>
    25e8:	2384      	movs	r3, #132	; 0x84
    25ea:	58e3      	ldr	r3, [r4, r3]
    25ec:	2b00      	cmp	r3, #0
    25ee:	d032      	beq.n	2656 <AjK::MODSERIAL::__getc(bool)+0x82>
    25f0:	6f63      	ldr	r3, [r4, #116]	; 0x74
    25f2:	18c3      	adds	r3, r0, r3
    25f4:	7818      	ldrb	r0, [r3, #0]
    25f6:	6f63      	ldr	r3, [r4, #116]	; 0x74
    25f8:	b2c5      	uxtb	r5, r0
    25fa:	3301      	adds	r3, #1
    25fc:	6763      	str	r3, [r4, #116]	; 0x74
    25fe:	6f62      	ldr	r2, [r4, #116]	; 0x74
    2600:	6fe3      	ldr	r3, [r4, #124]	; 0x7c
    2602:	429a      	cmp	r2, r3
    2604:	db01      	blt.n	260a <AjK::MODSERIAL::__getc(bool)+0x36>
    2606:	2300      	movs	r3, #0
    2608:	6763      	str	r3, [r4, #116]	; 0x74
    260a:	2384      	movs	r3, #132	; 0x84
    260c:	58e2      	ldr	r2, [r4, r3]
    260e:	6fe3      	ldr	r3, [r4, #124]	; 0x7c
    2610:	429a      	cmp	r2, r3
    2612:	d00b      	beq.n	262c <AjK::MODSERIAL::__getc(bool)+0x58>
    2614:	2120      	movs	r1, #32
    2616:	6de3      	ldr	r3, [r4, #92]	; 0x5c
    2618:	0020      	movs	r0, r4
    261a:	78de      	ldrb	r6, [r3, #3]
    261c:	78da      	ldrb	r2, [r3, #3]
    261e:	b2f6      	uxtb	r6, r6
    2620:	438a      	bics	r2, r1
    2622:	70da      	strb	r2, [r3, #3]
    2624:	f000 f81a 	bl	265c <AjK::MODSERIAL::isr_rx()>
    2628:	6de3      	ldr	r3, [r4, #92]	; 0x5c
    262a:	70de      	strb	r6, [r3, #3]
    262c:	b672      	cpsid	i
    262e:	2284      	movs	r2, #132	; 0x84
    2630:	58a3      	ldr	r3, [r4, r2]
    2632:	3b01      	subs	r3, #1
    2634:	50a3      	str	r3, [r4, r2]
    2636:	b662      	cpsie	i
    2638:	0028      	movs	r0, r5
    263a:	e006      	b.n	264a <AjK::MODSERIAL::__getc(bool)+0x76>
    263c:	2120      	movs	r1, #32
    263e:	6de2      	ldr	r2, [r4, #92]	; 0x5c
    2640:	7913      	ldrb	r3, [r2, #4]
    2642:	4219      	tst	r1, r3
    2644:	d0fc      	beq.n	2640 <AjK::MODSERIAL::__getc(bool)+0x6c>
    2646:	79d0      	ldrb	r0, [r2, #7]
    2648:	b2c0      	uxtb	r0, r0
    264a:	bd70      	pop	{r4, r5, r6, pc}
    264c:	2284      	movs	r2, #132	; 0x84
    264e:	58a3      	ldr	r3, [r4, r2]
    2650:	2b00      	cmp	r3, #0
    2652:	d0fc      	beq.n	264e <AjK::MODSERIAL::__getc(bool)+0x7a>
    2654:	e7cc      	b.n	25f0 <AjK::MODSERIAL::__getc(bool)+0x1c>
    2656:	2001      	movs	r0, #1
    2658:	4240      	negs	r0, r0
    265a:	e7f6      	b.n	264a <AjK::MODSERIAL::__getc(bool)+0x76>

0000265c <AjK::MODSERIAL::isr_rx()>:
    265c:	b5f0      	push	{r4, r5, r6, r7, lr}
    265e:	4647      	mov	r7, r8
    2660:	b480      	push	{r7}
    2662:	6dc3      	ldr	r3, [r0, #92]	; 0x5c
    2664:	0004      	movs	r4, r0
    2666:	78da      	ldrb	r2, [r3, #3]
    2668:	0692      	lsls	r2, r2, #26
    266a:	d53a      	bpl.n	26e2 <AjK::MODSERIAL::isr_rx()+0x86>
    266c:	2b00      	cmp	r3, #0
    266e:	d03b      	beq.n	26e8 <AjK::MODSERIAL::isr_rx()+0x8c>
    2670:	6fc2      	ldr	r2, [r0, #124]	; 0x7c
    2672:	2a00      	cmp	r2, #0
    2674:	d038      	beq.n	26e8 <AjK::MODSERIAL::isr_rx()+0x8c>
    2676:	6e42      	ldr	r2, [r0, #100]	; 0x64
    2678:	2a00      	cmp	r2, #0
    267a:	d035      	beq.n	26e8 <AjK::MODSERIAL::isr_rx()+0x8c>
    267c:	2720      	movs	r7, #32
    267e:	791a      	ldrb	r2, [r3, #4]
    2680:	2561      	movs	r5, #97	; 0x61
    2682:	2684      	movs	r6, #132	; 0x84
    2684:	4217      	tst	r7, r2
    2686:	d02c      	beq.n	26e2 <AjK::MODSERIAL::isr_rx()+0x86>
    2688:	79db      	ldrb	r3, [r3, #7]
    268a:	b2db      	uxtb	r3, r3
    268c:	5563      	strb	r3, [r4, r5]
    268e:	59a2      	ldr	r2, [r4, r6]
    2690:	6fe3      	ldr	r3, [r4, #124]	; 0x7c
    2692:	429a      	cmp	r2, r3
    2694:	d038      	beq.n	2708 <AjK::MODSERIAL::isr_rx()+0xac>
    2696:	6e62      	ldr	r2, [r4, #100]	; 0x64
    2698:	2a00      	cmp	r2, #0
    269a:	d010      	beq.n	26be <AjK::MODSERIAL::isr_rx()+0x62>
    269c:	6ee3      	ldr	r3, [r4, #108]	; 0x6c
    269e:	18d3      	adds	r3, r2, r3
    26a0:	5d62      	ldrb	r2, [r4, r5]
    26a2:	b2d2      	uxtb	r2, r2
    26a4:	701a      	strb	r2, [r3, #0]
    26a6:	59a3      	ldr	r3, [r4, r6]
    26a8:	3301      	adds	r3, #1
    26aa:	51a3      	str	r3, [r4, r6]
    26ac:	6ee3      	ldr	r3, [r4, #108]	; 0x6c
    26ae:	3301      	adds	r3, #1
    26b0:	66e3      	str	r3, [r4, #108]	; 0x6c
    26b2:	6ee2      	ldr	r2, [r4, #108]	; 0x6c
    26b4:	6fe3      	ldr	r3, [r4, #124]	; 0x7c
    26b6:	429a      	cmp	r2, r3
    26b8:	db01      	blt.n	26be <AjK::MODSERIAL::isr_rx()+0x62>
    26ba:	2300      	movs	r3, #0
    26bc:	66e3      	str	r3, [r4, #108]	; 0x6c
    26be:	2358      	movs	r3, #88	; 0x58
    26c0:	4698      	mov	r8, r3
    26c2:	3340      	adds	r3, #64	; 0x40
    26c4:	58e3      	ldr	r3, [r4, r3]
    26c6:	44a0      	add	r8, r4
    26c8:	2b00      	cmp	r3, #0
    26ca:	d038      	beq.n	273e <AjK::MODSERIAL::isr_rx()+0xe2>
    26cc:	4640      	mov	r0, r8
    26ce:	4798      	blx	r3
    26d0:	2394      	movs	r3, #148	; 0x94
    26d2:	5ce2      	ldrb	r2, [r4, r3]
    26d4:	5d63      	ldrb	r3, [r4, r5]
    26d6:	429a      	cmp	r2, r3
    26d8:	d00e      	beq.n	26f8 <AjK::MODSERIAL::isr_rx()+0x9c>
    26da:	6de3      	ldr	r3, [r4, #92]	; 0x5c
    26dc:	791a      	ldrb	r2, [r3, #4]
    26de:	4217      	tst	r7, r2
    26e0:	d1d2      	bne.n	2688 <AjK::MODSERIAL::isr_rx()+0x2c>
    26e2:	bc04      	pop	{r2}
    26e4:	4690      	mov	r8, r2
    26e6:	bdf0      	pop	{r4, r5, r6, r7, pc}
    26e8:	2398      	movs	r3, #152	; 0x98
    26ea:	0020      	movs	r0, r4
    26ec:	58e3      	ldr	r3, [r4, r3]
    26ee:	3058      	adds	r0, #88	; 0x58
    26f0:	2b00      	cmp	r3, #0
    26f2:	d034      	beq.n	275e <AjK::MODSERIAL::isr_rx()+0x102>
    26f4:	4798      	blx	r3
    26f6:	e7f4      	b.n	26e2 <AjK::MODSERIAL::isr_rx()+0x86>
    26f8:	23e8      	movs	r3, #232	; 0xe8
    26fa:	58e3      	ldr	r3, [r4, r3]
    26fc:	2b00      	cmp	r3, #0
    26fe:	d03e      	beq.n	277e <AjK::MODSERIAL::isr_rx()+0x122>
    2700:	4640      	mov	r0, r8
    2702:	4798      	blx	r3
    2704:	6de3      	ldr	r3, [r4, #92]	; 0x5c
    2706:	e7e9      	b.n	26dc <AjK::MODSERIAL::isr_rx()+0x80>
    2708:	228c      	movs	r2, #140	; 0x8c
    270a:	5d63      	ldrb	r3, [r4, r5]
    270c:	b2db      	uxtb	r3, r3
    270e:	50a3      	str	r3, [r4, r2]
    2710:	2358      	movs	r3, #88	; 0x58
    2712:	4698      	mov	r8, r3
    2714:	3360      	adds	r3, #96	; 0x60
    2716:	58e3      	ldr	r3, [r4, r3]
    2718:	44a0      	add	r8, r4
    271a:	2b00      	cmp	r3, #0
    271c:	d1d6      	bne.n	26cc <AjK::MODSERIAL::isr_rx()+0x70>
    271e:	0021      	movs	r1, r4
    2720:	31b8      	adds	r1, #184	; 0xb8
    2722:	684b      	ldr	r3, [r1, #4]
    2724:	2b00      	cmp	r3, #0
    2726:	d0d3      	beq.n	26d0 <AjK::MODSERIAL::isr_rx()+0x74>
    2728:	688a      	ldr	r2, [r1, #8]
    272a:	68c8      	ldr	r0, [r1, #12]
    272c:	2a00      	cmp	r2, #0
    272e:	d00f      	beq.n	2750 <AjK::MODSERIAL::isr_rx()+0xf4>
    2730:	07c1      	lsls	r1, r0, #31
    2732:	d40f      	bmi.n	2754 <AjK::MODSERIAL::isr_rx()+0xf8>
    2734:	1040      	asrs	r0, r0, #1
    2736:	1818      	adds	r0, r3, r0
    2738:	4641      	mov	r1, r8
    273a:	4790      	blx	r2
    273c:	e7c8      	b.n	26d0 <AjK::MODSERIAL::isr_rx()+0x74>
    273e:	0021      	movs	r1, r4
    2740:	3198      	adds	r1, #152	; 0x98
    2742:	684b      	ldr	r3, [r1, #4]
    2744:	2b00      	cmp	r3, #0
    2746:	d0c3      	beq.n	26d0 <AjK::MODSERIAL::isr_rx()+0x74>
    2748:	688a      	ldr	r2, [r1, #8]
    274a:	68c8      	ldr	r0, [r1, #12]
    274c:	2a00      	cmp	r2, #0
    274e:	d1ef      	bne.n	2730 <AjK::MODSERIAL::isr_rx()+0xd4>
    2750:	07c1      	lsls	r1, r0, #31
    2752:	d5bd      	bpl.n	26d0 <AjK::MODSERIAL::isr_rx()+0x74>
    2754:	1040      	asrs	r0, r0, #1
    2756:	1818      	adds	r0, r3, r0
    2758:	6803      	ldr	r3, [r0, #0]
    275a:	589a      	ldr	r2, [r3, r2]
    275c:	e7ec      	b.n	2738 <AjK::MODSERIAL::isr_rx()+0xdc>
    275e:	3498      	adds	r4, #152	; 0x98
    2760:	6863      	ldr	r3, [r4, #4]
    2762:	2b00      	cmp	r3, #0
    2764:	d0bd      	beq.n	26e2 <AjK::MODSERIAL::isr_rx()+0x86>
    2766:	68a5      	ldr	r5, [r4, #8]
    2768:	68e2      	ldr	r2, [r4, #12]
    276a:	2d00      	cmp	r5, #0
    276c:	d018      	beq.n	27a0 <AjK::MODSERIAL::isr_rx()+0x144>
    276e:	07d1      	lsls	r1, r2, #31
    2770:	d418      	bmi.n	27a4 <AjK::MODSERIAL::isr_rx()+0x148>
    2772:	1052      	asrs	r2, r2, #1
    2774:	189b      	adds	r3, r3, r2
    2776:	0001      	movs	r1, r0
    2778:	0018      	movs	r0, r3
    277a:	47a8      	blx	r5
    277c:	e7b1      	b.n	26e2 <AjK::MODSERIAL::isr_rx()+0x86>
    277e:	0023      	movs	r3, r4
    2780:	33e8      	adds	r3, #232	; 0xe8
    2782:	6858      	ldr	r0, [r3, #4]
    2784:	2800      	cmp	r0, #0
    2786:	d0a8      	beq.n	26da <AjK::MODSERIAL::isr_rx()+0x7e>
    2788:	689a      	ldr	r2, [r3, #8]
    278a:	68db      	ldr	r3, [r3, #12]
    278c:	2a00      	cmp	r2, #0
    278e:	d00e      	beq.n	27ae <AjK::MODSERIAL::isr_rx()+0x152>
    2790:	07d9      	lsls	r1, r3, #31
    2792:	d40e      	bmi.n	27b2 <AjK::MODSERIAL::isr_rx()+0x156>
    2794:	105b      	asrs	r3, r3, #1
    2796:	18c0      	adds	r0, r0, r3
    2798:	4641      	mov	r1, r8
    279a:	4790      	blx	r2
    279c:	6de3      	ldr	r3, [r4, #92]	; 0x5c
    279e:	e79d      	b.n	26dc <AjK::MODSERIAL::isr_rx()+0x80>
    27a0:	07d1      	lsls	r1, r2, #31
    27a2:	d59e      	bpl.n	26e2 <AjK::MODSERIAL::isr_rx()+0x86>
    27a4:	1052      	asrs	r2, r2, #1
    27a6:	189b      	adds	r3, r3, r2
    27a8:	681a      	ldr	r2, [r3, #0]
    27aa:	5955      	ldr	r5, [r2, r5]
    27ac:	e7e3      	b.n	2776 <AjK::MODSERIAL::isr_rx()+0x11a>
    27ae:	07d9      	lsls	r1, r3, #31
    27b0:	d593      	bpl.n	26da <AjK::MODSERIAL::isr_rx()+0x7e>
    27b2:	105b      	asrs	r3, r3, #1
    27b4:	18c0      	adds	r0, r0, r3
    27b6:	6803      	ldr	r3, [r0, #0]
    27b8:	589a      	ldr	r2, [r3, r2]
    27ba:	e7ed      	b.n	2798 <AjK::MODSERIAL::isr_rx()+0x13c>

000027bc <mbed::SerialBase::~SerialBase()>:
    27bc:	4770      	bx	lr
    27be:	46c0      	nop			; (mov r8, r8)

000027c0 <mbed::SerialBase::~SerialBase()>:
    27c0:	b510      	push	{r4, lr}
    27c2:	0004      	movs	r4, r0
    27c4:	f001 fcfb 	bl	41be <operator delete(void*)>
    27c8:	0020      	movs	r0, r4
    27ca:	bd10      	pop	{r4, pc}

000027cc <AjK::MODSERIAL::~MODSERIAL()>:
    27cc:	4b15      	ldr	r3, [pc, #84]	; (2824 <AjK::MODSERIAL::~MODSERIAL()+0x58>)
    27ce:	b510      	push	{r4, lr}
    27d0:	001a      	movs	r2, r3
    27d2:	3208      	adds	r2, #8
    27d4:	6002      	str	r2, [r0, #0]
    27d6:	001a      	movs	r2, r3
    27d8:	3354      	adds	r3, #84	; 0x54
    27da:	6443      	str	r3, [r0, #68]	; 0x44
    27dc:	23f8      	movs	r3, #248	; 0xf8
    27de:	3220      	adds	r2, #32
    27e0:	6402      	str	r2, [r0, #64]	; 0x40
    27e2:	221f      	movs	r2, #31
    27e4:	5cc3      	ldrb	r3, [r0, r3]
    27e6:	0004      	movs	r4, r0
    27e8:	401a      	ands	r2, r3
    27ea:	2301      	movs	r3, #1
    27ec:	4093      	lsls	r3, r2
    27ee:	2280      	movs	r2, #128	; 0x80
    27f0:	490d      	ldr	r1, [pc, #52]	; (2828 <AjK::MODSERIAL::~MODSERIAL()+0x5c>)
    27f2:	6e40      	ldr	r0, [r0, #100]	; 0x64
    27f4:	508b      	str	r3, [r1, r2]
    27f6:	2800      	cmp	r0, #0
    27f8:	d001      	beq.n	27fe <AjK::MODSERIAL::~MODSERIAL()+0x32>
    27fa:	f7ff fecb 	bl	2594 <__wrap_free>
    27fe:	6ea0      	ldr	r0, [r4, #104]	; 0x68
    2800:	2800      	cmp	r0, #0
    2802:	d001      	beq.n	2808 <AjK::MODSERIAL::~MODSERIAL()+0x3c>
    2804:	f7ff fec6 	bl	2594 <__wrap_free>
    2808:	4b08      	ldr	r3, [pc, #32]	; (282c <AjK::MODSERIAL::~MODSERIAL()+0x60>)
    280a:	0020      	movs	r0, r4
    280c:	001a      	movs	r2, r3
    280e:	6023      	str	r3, [r4, #0]
    2810:	3218      	adds	r2, #24
    2812:	334c      	adds	r3, #76	; 0x4c
    2814:	6422      	str	r2, [r4, #64]	; 0x40
    2816:	6463      	str	r3, [r4, #68]	; 0x44
    2818:	3040      	adds	r0, #64	; 0x40
    281a:	f001 fc73 	bl	4104 <mbed::Stream::~Stream()>
    281e:	0020      	movs	r0, r4
    2820:	bd10      	pop	{r4, pc}
    2822:	46c0      	nop			; (mov r8, r8)
    2824:	000068c0 	.word	0x000068c0
    2828:	e000e100 	.word	0xe000e100
    282c:	00006b60 	.word	0x00006b60

00002830 <non-virtual thunk to AjK::MODSERIAL::~MODSERIAL()>:
    2830:	b408      	push	{r3}
    2832:	4b02      	ldr	r3, [pc, #8]	; (283c <non-virtual thunk to AjK::MODSERIAL::~MODSERIAL()+0xc>)
    2834:	469c      	mov	r12, r3
    2836:	3840      	subs	r0, #64	; 0x40
    2838:	bc08      	pop	{r3}
    283a:	4760      	bx	r12
    283c:	000027cd 	.word	0x000027cd

00002840 <non-virtual thunk to AjK::MODSERIAL::~MODSERIAL()>:
    2840:	b408      	push	{r3}
    2842:	4b02      	ldr	r3, [pc, #8]	; (284c <non-virtual thunk to AjK::MODSERIAL::~MODSERIAL()+0xc>)
    2844:	469c      	mov	r12, r3
    2846:	3844      	subs	r0, #68	; 0x44
    2848:	bc08      	pop	{r3}
    284a:	4760      	bx	r12
    284c:	000027cd 	.word	0x000027cd

00002850 <AjK::MODSERIAL::~MODSERIAL()>:
    2850:	b510      	push	{r4, lr}
    2852:	0004      	movs	r4, r0
    2854:	f7ff ffba 	bl	27cc <AjK::MODSERIAL::~MODSERIAL()>
    2858:	0020      	movs	r0, r4
    285a:	f001 fcb0 	bl	41be <operator delete(void*)>
    285e:	0020      	movs	r0, r4
    2860:	bd10      	pop	{r4, pc}
    2862:	46c0      	nop			; (mov r8, r8)

00002864 <non-virtual thunk to AjK::MODSERIAL::~MODSERIAL()>:
    2864:	b408      	push	{r3}
    2866:	4b02      	ldr	r3, [pc, #8]	; (2870 <non-virtual thunk to AjK::MODSERIAL::~MODSERIAL()+0xc>)
    2868:	469c      	mov	r12, r3
    286a:	3844      	subs	r0, #68	; 0x44
    286c:	bc08      	pop	{r3}
    286e:	4760      	bx	r12
    2870:	00002851 	.word	0x00002851

00002874 <non-virtual thunk to AjK::MODSERIAL::~MODSERIAL()>:
    2874:	b408      	push	{r3}
    2876:	4b02      	ldr	r3, [pc, #8]	; (2880 <non-virtual thunk to AjK::MODSERIAL::~MODSERIAL()+0xc>)
    2878:	469c      	mov	r12, r3
    287a:	3840      	subs	r0, #64	; 0x40
    287c:	bc08      	pop	{r3}
    287e:	4760      	bx	r12
    2880:	00002851 	.word	0x00002851

00002884 <AjK::MODSERIAL::_getc()>:
    2884:	b510      	push	{r4, lr}
    2886:	2101      	movs	r1, #1
    2888:	f7ff fea4 	bl	25d4 <AjK::MODSERIAL::__getc(bool)>
    288c:	bd10      	pop	{r4, pc}
    288e:	46c0      	nop			; (mov r8, r8)

00002890 <non-virtual thunk to AjK::MODSERIAL::_getc()>:
    2890:	b408      	push	{r3}
    2892:	4b02      	ldr	r3, [pc, #8]	; (289c <non-virtual thunk to AjK::MODSERIAL::_getc()+0xc>)
    2894:	469c      	mov	r12, r3
    2896:	3840      	subs	r0, #64	; 0x40
    2898:	bc08      	pop	{r3}
    289a:	4760      	bx	r12
    289c:	00002885 	.word	0x00002885

000028a0 <AjK::MODSERIAL::_putc(int)>:
    28a0:	b510      	push	{r4, lr}
    28a2:	2201      	movs	r2, #1
    28a4:	f000 f838 	bl	2918 <AjK::MODSERIAL::__putc(int, bool)>
    28a8:	bd10      	pop	{r4, pc}
    28aa:	46c0      	nop			; (mov r8, r8)

000028ac <non-virtual thunk to AjK::MODSERIAL::_putc(int)>:
    28ac:	b408      	push	{r3}
    28ae:	4b02      	ldr	r3, [pc, #8]	; (28b8 <non-virtual thunk to AjK::MODSERIAL::_putc(int)+0xc>)
    28b0:	469c      	mov	r12, r3
    28b2:	3840      	subs	r0, #64	; 0x40
    28b4:	bc08      	pop	{r3}
    28b6:	4760      	bx	r12
    28b8:	000028a1 	.word	0x000028a1

000028bc <AjK::MODSERIAL::MODSERIAL(PinName, PinName, char const*)>:
    28bc:	b570      	push	{r4, r5, r6, lr}
    28be:	0004      	movs	r4, r0
    28c0:	0015      	movs	r5, r2
    28c2:	f001 fbb3 	bl	402c <mbed::Serial::Serial(PinName, PinName, char const*)>
    28c6:	4b10      	ldr	r3, [pc, #64]	; (2908 <AjK::MODSERIAL::MODSERIAL(PinName, PinName, char const*)+0x4c>)
    28c8:	0021      	movs	r1, r4
    28ca:	001a      	movs	r2, r3
    28cc:	3208      	adds	r2, #8
    28ce:	6022      	str	r2, [r4, #0]
    28d0:	001a      	movs	r2, r3
    28d2:	3354      	adds	r3, #84	; 0x54
    28d4:	6463      	str	r3, [r4, #68]	; 0x44
    28d6:	2300      	movs	r3, #0
    28d8:	3220      	adds	r2, #32
    28da:	65a3      	str	r3, [r4, #88]	; 0x58
    28dc:	0023      	movs	r3, r4
    28de:	6422      	str	r2, [r4, #64]	; 0x40
    28e0:	2200      	movs	r2, #0
    28e2:	3398      	adds	r3, #152	; 0x98
    28e4:	31f8      	adds	r1, #248	; 0xf8
    28e6:	601a      	str	r2, [r3, #0]
    28e8:	605a      	str	r2, [r3, #4]
    28ea:	609a      	str	r2, [r3, #8]
    28ec:	60da      	str	r2, [r3, #12]
    28ee:	3310      	adds	r3, #16
    28f0:	428b      	cmp	r3, r1
    28f2:	d1f8      	bne.n	28e6 <AjK::MODSERIAL::MODSERIAL(PinName, PinName, char const*)+0x2a>
    28f4:	2280      	movs	r2, #128	; 0x80
    28f6:	0052      	lsls	r2, r2, #1
    28f8:	002b      	movs	r3, r5
    28fa:	0020      	movs	r0, r4
    28fc:	0011      	movs	r1, r2
    28fe:	f000 f8b1 	bl	2a64 <AjK::MODSERIAL::init(int, int, PinName)>
    2902:	0020      	movs	r0, r4
    2904:	bd70      	pop	{r4, r5, r6, pc}
    2906:	46c0      	nop			; (mov r8, r8)
    2908:	000068c0 	.word	0x000068c0

0000290c <AjK::MODSERIAL::rxBufferEmpty()>:
    290c:	2384      	movs	r3, #132	; 0x84
    290e:	58c0      	ldr	r0, [r0, r3]
    2910:	4243      	negs	r3, r0
    2912:	4158      	adcs	r0, r3
    2914:	b2c0      	uxtb	r0, r0
    2916:	4770      	bx	lr

00002918 <AjK::MODSERIAL::__putc(int, bool)>:
    2918:	b5f0      	push	{r4, r5, r6, r7, lr}
    291a:	4647      	mov	r7, r8
    291c:	6e83      	ldr	r3, [r0, #104]	; 0x68
    291e:	b480      	push	{r7}
    2920:	0004      	movs	r4, r0
    2922:	000d      	movs	r5, r1
    2924:	2b00      	cmp	r3, #0
    2926:	d003      	beq.n	2930 <AjK::MODSERIAL::__putc(int, bool)+0x18>
    2928:	2380      	movs	r3, #128	; 0x80
    292a:	58c3      	ldr	r3, [r0, r3]
    292c:	2b00      	cmp	r3, #0
    292e:	d10a      	bne.n	2946 <AjK::MODSERIAL::__putc(int, bool)+0x2e>
    2930:	6de2      	ldr	r2, [r4, #92]	; 0x5c
    2932:	7913      	ldrb	r3, [r2, #4]
    2934:	b25b      	sxtb	r3, r3
    2936:	2b00      	cmp	r3, #0
    2938:	dafb      	bge.n	2932 <AjK::MODSERIAL::__putc(int, bool)+0x1a>
    293a:	2000      	movs	r0, #0
    293c:	b2ed      	uxtb	r5, r5
    293e:	71d5      	strb	r5, [r2, #7]
    2940:	bc04      	pop	{r2}
    2942:	4690      	mov	r8, r2
    2944:	bdf0      	pop	{r4, r5, r6, r7, pc}
    2946:	6dc3      	ldr	r3, [r0, #92]	; 0x5c
    2948:	7919      	ldrb	r1, [r3, #4]
    294a:	b249      	sxtb	r1, r1
    294c:	2900      	cmp	r1, #0
    294e:	db3d      	blt.n	29cc <AjK::MODSERIAL::__putc(int, bool)+0xb4>
    2950:	2a00      	cmp	r2, #0
    2952:	d042      	beq.n	29da <AjK::MODSERIAL::__putc(int, bool)+0xc2>
    2954:	217f      	movs	r1, #127	; 0x7f
    2956:	78da      	ldrb	r2, [r3, #3]
    2958:	2788      	movs	r7, #136	; 0x88
    295a:	b2d2      	uxtb	r2, r2
    295c:	4690      	mov	r8, r2
    295e:	78da      	ldrb	r2, [r3, #3]
    2960:	2680      	movs	r6, #128	; 0x80
    2962:	400a      	ands	r2, r1
    2964:	70da      	strb	r2, [r3, #3]
    2966:	2388      	movs	r3, #136	; 0x88
    2968:	58e2      	ldr	r2, [r4, r3]
    296a:	3b08      	subs	r3, #8
    296c:	58e3      	ldr	r3, [r4, r3]
    296e:	429a      	cmp	r2, r3
    2970:	d107      	bne.n	2982 <AjK::MODSERIAL::__putc(int, bool)+0x6a>
    2972:	2100      	movs	r1, #0
    2974:	0020      	movs	r0, r4
    2976:	f000 f8f3 	bl	2b60 <AjK::MODSERIAL::isr_tx(bool)>
    297a:	59e2      	ldr	r2, [r4, r7]
    297c:	59a3      	ldr	r3, [r4, r6]
    297e:	429a      	cmp	r2, r3
    2980:	d0f7      	beq.n	2972 <AjK::MODSERIAL::__putc(int, bool)+0x5a>
    2982:	4642      	mov	r2, r8
    2984:	6de3      	ldr	r3, [r4, #92]	; 0x5c
    2986:	70da      	strb	r2, [r3, #3]
    2988:	6de3      	ldr	r3, [r4, #92]	; 0x5c
    298a:	217f      	movs	r1, #127	; 0x7f
    298c:	78da      	ldrb	r2, [r3, #3]
    298e:	b2ed      	uxtb	r5, r5
    2990:	400a      	ands	r2, r1
    2992:	70da      	strb	r2, [r3, #3]
    2994:	6ea2      	ldr	r2, [r4, #104]	; 0x68
    2996:	6f23      	ldr	r3, [r4, #112]	; 0x70
    2998:	4694      	mov	r12, r2
    299a:	4463      	add	r3, r12
    299c:	701d      	strb	r5, [r3, #0]
    299e:	b672      	cpsid	i
    29a0:	2288      	movs	r2, #136	; 0x88
    29a2:	58a3      	ldr	r3, [r4, r2]
    29a4:	3301      	adds	r3, #1
    29a6:	50a3      	str	r3, [r4, r2]
    29a8:	b662      	cpsie	i
    29aa:	6f23      	ldr	r3, [r4, #112]	; 0x70
    29ac:	3301      	adds	r3, #1
    29ae:	6723      	str	r3, [r4, #112]	; 0x70
    29b0:	2380      	movs	r3, #128	; 0x80
    29b2:	6f22      	ldr	r2, [r4, #112]	; 0x70
    29b4:	58e3      	ldr	r3, [r4, r3]
    29b6:	429a      	cmp	r2, r3
    29b8:	db01      	blt.n	29be <AjK::MODSERIAL::__putc(int, bool)+0xa6>
    29ba:	2300      	movs	r3, #0
    29bc:	6723      	str	r3, [r4, #112]	; 0x70
    29be:	2380      	movs	r3, #128	; 0x80
    29c0:	6de2      	ldr	r2, [r4, #92]	; 0x5c
    29c2:	2000      	movs	r0, #0
    29c4:	78d1      	ldrb	r1, [r2, #3]
    29c6:	430b      	orrs	r3, r1
    29c8:	70d3      	strb	r3, [r2, #3]
    29ca:	e7b9      	b.n	2940 <AjK::MODSERIAL::__putc(int, bool)+0x28>
    29cc:	2188      	movs	r1, #136	; 0x88
    29ce:	5840      	ldr	r0, [r0, r1]
    29d0:	2800      	cmp	r0, #0
    29d2:	d1bd      	bne.n	2950 <AjK::MODSERIAL::__putc(int, bool)+0x38>
    29d4:	b2ed      	uxtb	r5, r5
    29d6:	71dd      	strb	r5, [r3, #7]
    29d8:	e7b2      	b.n	2940 <AjK::MODSERIAL::__putc(int, bool)+0x28>
    29da:	2288      	movs	r2, #136	; 0x88
    29dc:	58a1      	ldr	r1, [r4, r2]
    29de:	3a08      	subs	r2, #8
    29e0:	58a2      	ldr	r2, [r4, r2]
    29e2:	4291      	cmp	r1, r2
    29e4:	d1d1      	bne.n	298a <AjK::MODSERIAL::__putc(int, bool)+0x72>
    29e6:	2390      	movs	r3, #144	; 0x90
    29e8:	0020      	movs	r0, r4
    29ea:	50e5      	str	r5, [r4, r3]
    29ec:	3338      	adds	r3, #56	; 0x38
    29ee:	58e3      	ldr	r3, [r4, r3]
    29f0:	3058      	adds	r0, #88	; 0x58
    29f2:	2b00      	cmp	r3, #0
    29f4:	d003      	beq.n	29fe <AjK::MODSERIAL::__putc(int, bool)+0xe6>
    29f6:	4798      	blx	r3
    29f8:	2001      	movs	r0, #1
    29fa:	4240      	negs	r0, r0
    29fc:	e7a0      	b.n	2940 <AjK::MODSERIAL::__putc(int, bool)+0x28>
    29fe:	34c8      	adds	r4, #200	; 0xc8
    2a00:	6862      	ldr	r2, [r4, #4]
    2a02:	2a00      	cmp	r2, #0
    2a04:	d014      	beq.n	2a30 <AjK::MODSERIAL::__putc(int, bool)+0x118>
    2a06:	68a5      	ldr	r5, [r4, #8]
    2a08:	68e3      	ldr	r3, [r4, #12]
    2a0a:	2d00      	cmp	r5, #0
    2a0c:	d00e      	beq.n	2a2c <AjK::MODSERIAL::__putc(int, bool)+0x114>
    2a0e:	07d9      	lsls	r1, r3, #31
    2a10:	d407      	bmi.n	2a22 <AjK::MODSERIAL::__putc(int, bool)+0x10a>
    2a12:	105b      	asrs	r3, r3, #1
    2a14:	18d3      	adds	r3, r2, r3
    2a16:	0001      	movs	r1, r0
    2a18:	0018      	movs	r0, r3
    2a1a:	47a8      	blx	r5
    2a1c:	2001      	movs	r0, #1
    2a1e:	4240      	negs	r0, r0
    2a20:	e78e      	b.n	2940 <AjK::MODSERIAL::__putc(int, bool)+0x28>
    2a22:	105b      	asrs	r3, r3, #1
    2a24:	18d3      	adds	r3, r2, r3
    2a26:	681a      	ldr	r2, [r3, #0]
    2a28:	5955      	ldr	r5, [r2, r5]
    2a2a:	e7f4      	b.n	2a16 <AjK::MODSERIAL::__putc(int, bool)+0xfe>
    2a2c:	07d9      	lsls	r1, r3, #31
    2a2e:	d4f8      	bmi.n	2a22 <AjK::MODSERIAL::__putc(int, bool)+0x10a>
    2a30:	2001      	movs	r0, #1
    2a32:	4240      	negs	r0, r0
    2a34:	e784      	b.n	2940 <AjK::MODSERIAL::__putc(int, bool)+0x28>
    2a36:	46c0      	nop			; (mov r8, r8)

00002a38 <void mbed::FunctionPointerArg1<void, void>::membercaller<AjK::MODSERIAL>(void*, unsigned int*)>:
    2a38:	684b      	ldr	r3, [r1, #4]
    2a3a:	b510      	push	{r4, lr}
    2a3c:	07da      	lsls	r2, r3, #31
    2a3e:	d506      	bpl.n	2a4e <void mbed::FunctionPointerArg1<void, void>::membercaller<AjK::MODSERIAL>(void*, unsigned int*)+0x16>
    2a40:	105b      	asrs	r3, r3, #1
    2a42:	18c0      	adds	r0, r0, r3
    2a44:	6802      	ldr	r2, [r0, #0]
    2a46:	680b      	ldr	r3, [r1, #0]
    2a48:	58d2      	ldr	r2, [r2, r3]
    2a4a:	4790      	blx	r2
    2a4c:	bd10      	pop	{r4, pc}
    2a4e:	105b      	asrs	r3, r3, #1
    2a50:	680a      	ldr	r2, [r1, #0]
    2a52:	18c0      	adds	r0, r0, r3
    2a54:	e7f9      	b.n	2a4a <void mbed::FunctionPointerArg1<void, void>::membercaller<AjK::MODSERIAL>(void*, unsigned int*)+0x12>
    2a56:	46c0      	nop			; (mov r8, r8)

00002a58 <AjK::MODSERIAL::isr_tx()>:
    2a58:	b510      	push	{r4, lr}
    2a5a:	2101      	movs	r1, #1
    2a5c:	f000 f880 	bl	2b60 <AjK::MODSERIAL::isr_tx(bool)>
    2a60:	bd10      	pop	{r4, pc}
    2a62:	46c0      	nop			; (mov r8, r8)

00002a64 <AjK::MODSERIAL::init(int, int, PinName)>:
    2a64:	23f8      	movs	r3, #248	; 0xf8
    2a66:	b570      	push	{r4, r5, r6, lr}
    2a68:	0016      	movs	r6, r2
    2a6a:	221f      	movs	r2, #31
    2a6c:	5cc3      	ldrb	r3, [r0, r3]
    2a6e:	0004      	movs	r4, r0
    2a70:	401a      	ands	r2, r3
    2a72:	2301      	movs	r3, #1
    2a74:	4093      	lsls	r3, r2
    2a76:	2280      	movs	r2, #128	; 0x80
    2a78:	000d      	movs	r5, r1
    2a7a:	4934      	ldr	r1, [pc, #208]	; (2b4c <AjK::MODSERIAL::init(int, int, PinName)+0xe8>)
    2a7c:	508b      	str	r3, [r1, r2]
    2a7e:	f000 f907 	bl	2c90 <AjK::MODSERIAL::setBase()>
    2a82:	6de3      	ldr	r3, [r4, #92]	; 0x5c
    2a84:	65a4      	str	r4, [r4, #88]	; 0x58
    2a86:	2b00      	cmp	r3, #0
    2a88:	d05b      	beq.n	2b42 <AjK::MODSERIAL::init(int, int, PinName)+0xde>
    2a8a:	67e6      	str	r6, [r4, #124]	; 0x7c
    2a8c:	2000      	movs	r0, #0
    2a8e:	2e00      	cmp	r6, #0
    2a90:	dd02      	ble.n	2a98 <AjK::MODSERIAL::init(int, int, PinName)+0x34>
    2a92:	6fe0      	ldr	r0, [r4, #124]	; 0x7c
    2a94:	f7ff fd76 	bl	2584 <__wrap_malloc>
    2a98:	2300      	movs	r3, #0
    2a9a:	2284      	movs	r2, #132	; 0x84
    2a9c:	66e3      	str	r3, [r4, #108]	; 0x6c
    2a9e:	6660      	str	r0, [r4, #100]	; 0x64
    2aa0:	6763      	str	r3, [r4, #116]	; 0x74
    2aa2:	50a3      	str	r3, [r4, r2]
    2aa4:	3208      	adds	r2, #8
    2aa6:	50a3      	str	r3, [r4, r2]
    2aa8:	2c00      	cmp	r4, #0
    2aaa:	d03e      	beq.n	2b2a <AjK::MODSERIAL::init(int, int, PinName)+0xc6>
    2aac:	4a28      	ldr	r2, [pc, #160]	; (2b50 <AjK::MODSERIAL::init(int, int, PinName)+0xec>)
    2aae:	6163      	str	r3, [r4, #20]
    2ab0:	4b28      	ldr	r3, [pc, #160]	; (2b54 <AjK::MODSERIAL::init(int, int, PinName)+0xf0>)
    2ab2:	1d26      	adds	r6, r4, #4
    2ab4:	6122      	str	r2, [r4, #16]
    2ab6:	6223      	str	r3, [r4, #32]
    2ab8:	60e4      	str	r4, [r4, #12]
    2aba:	2201      	movs	r2, #1
    2abc:	2100      	movs	r1, #0
    2abe:	0030      	movs	r0, r6
    2ac0:	f000 feec 	bl	389c <serial_irq_set>
    2ac4:	2380      	movs	r3, #128	; 0x80
    2ac6:	50e5      	str	r5, [r4, r3]
    2ac8:	2d00      	cmp	r5, #0
    2aca:	dd38      	ble.n	2b3e <AjK::MODSERIAL::init(int, int, PinName)+0xda>
    2acc:	58e0      	ldr	r0, [r4, r3]
    2ace:	f7ff fd59 	bl	2584 <__wrap_malloc>
    2ad2:	2300      	movs	r3, #0
    2ad4:	2288      	movs	r2, #136	; 0x88
    2ad6:	6723      	str	r3, [r4, #112]	; 0x70
    2ad8:	66a0      	str	r0, [r4, #104]	; 0x68
    2ada:	67a3      	str	r3, [r4, #120]	; 0x78
    2adc:	50a3      	str	r3, [r4, r2]
    2ade:	3208      	adds	r2, #8
    2ae0:	50a3      	str	r3, [r4, r2]
    2ae2:	4a1d      	ldr	r2, [pc, #116]	; (2b58 <AjK::MODSERIAL::init(int, int, PinName)+0xf4>)
    2ae4:	2a00      	cmp	r2, #0
    2ae6:	d01a      	beq.n	2b1e <AjK::MODSERIAL::init(int, int, PinName)+0xba>
    2ae8:	2c00      	cmp	r4, #0
    2aea:	d018      	beq.n	2b1e <AjK::MODSERIAL::init(int, int, PinName)+0xba>
    2aec:	62e3      	str	r3, [r4, #44]	; 0x2c
    2aee:	4b19      	ldr	r3, [pc, #100]	; (2b54 <AjK::MODSERIAL::init(int, int, PinName)+0xf0>)
    2af0:	62a2      	str	r2, [r4, #40]	; 0x28
    2af2:	6264      	str	r4, [r4, #36]	; 0x24
    2af4:	63a3      	str	r3, [r4, #56]	; 0x38
    2af6:	2201      	movs	r2, #1
    2af8:	2101      	movs	r1, #1
    2afa:	0030      	movs	r0, r6
    2afc:	f000 fece 	bl	389c <serial_irq_set>
    2b00:	0020      	movs	r0, r4
    2b02:	f000 f8e9 	bl	2cd8 <AjK::MODSERIAL::initDevice()>
    2b06:	2200      	movs	r2, #0
    2b08:	2394      	movs	r3, #148	; 0x94
    2b0a:	54e2      	strb	r2, [r4, r3]
    2b0c:	3364      	adds	r3, #100	; 0x64
    2b0e:	5ce3      	ldrb	r3, [r4, r3]
    2b10:	321f      	adds	r2, #31
    2b12:	401a      	ands	r2, r3
    2b14:	2301      	movs	r3, #1
    2b16:	4093      	lsls	r3, r2
    2b18:	4a0c      	ldr	r2, [pc, #48]	; (2b4c <AjK::MODSERIAL::init(int, int, PinName)+0xe8>)
    2b1a:	6013      	str	r3, [r2, #0]
    2b1c:	bd70      	pop	{r4, r5, r6, pc}
    2b1e:	2200      	movs	r2, #0
    2b20:	2101      	movs	r1, #1
    2b22:	0030      	movs	r0, r6
    2b24:	f000 feba 	bl	389c <serial_irq_set>
    2b28:	e7ea      	b.n	2b00 <AjK::MODSERIAL::init(int, int, PinName)+0x9c>
    2b2a:	2200      	movs	r2, #0
    2b2c:	2100      	movs	r1, #0
    2b2e:	2004      	movs	r0, #4
    2b30:	f000 feb4 	bl	389c <serial_irq_set>
    2b34:	2380      	movs	r3, #128	; 0x80
    2b36:	2604      	movs	r6, #4
    2b38:	50e5      	str	r5, [r4, r3]
    2b3a:	2d00      	cmp	r5, #0
    2b3c:	dcc6      	bgt.n	2acc <AjK::MODSERIAL::init(int, int, PinName)+0x68>
    2b3e:	2000      	movs	r0, #0
    2b40:	e7c7      	b.n	2ad2 <AjK::MODSERIAL::init(int, int, PinName)+0x6e>
    2b42:	4806      	ldr	r0, [pc, #24]	; (2b5c <AjK::MODSERIAL::init(int, int, PinName)+0xf8>)
    2b44:	f000 f8e2 	bl	2d0c <error>
    2b48:	e7da      	b.n	2b00 <AjK::MODSERIAL::init(int, int, PinName)+0x9c>
    2b4a:	46c0      	nop			; (mov r8, r8)
    2b4c:	e000e100 	.word	0xe000e100
    2b50:	0000265d 	.word	0x0000265d
    2b54:	00002a39 	.word	0x00002a39
    2b58:	00002a59 	.word	0x00002a59
    2b5c:	0000691c 	.word	0x0000691c

00002b60 <AjK::MODSERIAL::isr_tx(bool)>:
    2b60:	b5f8      	push	{r3, r4, r5, r6, r7, lr}
    2b62:	4646      	mov	r6, r8
    2b64:	464f      	mov	r7, r9
    2b66:	b4c0      	push	{r6, r7}
    2b68:	6dc2      	ldr	r2, [r0, #92]	; 0x5c
    2b6a:	0004      	movs	r4, r0
    2b6c:	78d3      	ldrb	r3, [r2, #3]
    2b6e:	000e      	movs	r6, r1
    2b70:	b25b      	sxtb	r3, r3
    2b72:	2b00      	cmp	r3, #0
    2b74:	db09      	blt.n	2b8a <AjK::MODSERIAL::isr_tx(bool)+0x2a>
    2b76:	2388      	movs	r3, #136	; 0x88
    2b78:	58c1      	ldr	r1, [r0, r3]
    2b7a:	3b08      	subs	r3, #8
    2b7c:	58c3      	ldr	r3, [r0, r3]
    2b7e:	4299      	cmp	r1, r3
    2b80:	d003      	beq.n	2b8a <AjK::MODSERIAL::isr_tx(bool)+0x2a>
    2b82:	bc0c      	pop	{r2, r3}
    2b84:	4690      	mov	r8, r2
    2b86:	4699      	mov	r9, r3
    2b88:	bdf8      	pop	{r3, r4, r5, r6, r7, pc}
    2b8a:	2a00      	cmp	r2, #0
    2b8c:	d024      	beq.n	2bd8 <AjK::MODSERIAL::isr_tx(bool)+0x78>
    2b8e:	2380      	movs	r3, #128	; 0x80
    2b90:	58e3      	ldr	r3, [r4, r3]
    2b92:	2b00      	cmp	r3, #0
    2b94:	d020      	beq.n	2bd8 <AjK::MODSERIAL::isr_tx(bool)+0x78>
    2b96:	6ea3      	ldr	r3, [r4, #104]	; 0x68
    2b98:	2b00      	cmp	r3, #0
    2b9a:	d01d      	beq.n	2bd8 <AjK::MODSERIAL::isr_tx(bool)+0x78>
    2b9c:	2360      	movs	r3, #96	; 0x60
    2b9e:	2588      	movs	r5, #136	; 0x88
    2ba0:	4698      	mov	r8, r3
    2ba2:	2780      	movs	r7, #128	; 0x80
    2ba4:	2200      	movs	r2, #0
    2ba6:	5963      	ldr	r3, [r4, r5]
    2ba8:	2b00      	cmp	r3, #0
    2baa:	d004      	beq.n	2bb6 <AjK::MODSERIAL::isr_tx(bool)+0x56>
    2bac:	6de1      	ldr	r1, [r4, #92]	; 0x5c
    2bae:	790b      	ldrb	r3, [r1, #4]
    2bb0:	b25b      	sxtb	r3, r3
    2bb2:	2b00      	cmp	r3, #0
    2bb4:	db26      	blt.n	2c04 <AjK::MODSERIAL::isr_tx(bool)+0xa4>
    2bb6:	2388      	movs	r3, #136	; 0x88
    2bb8:	58e3      	ldr	r3, [r4, r3]
    2bba:	2b00      	cmp	r3, #0
    2bbc:	d1e1      	bne.n	2b82 <AjK::MODSERIAL::isr_tx(bool)+0x22>
    2bbe:	217f      	movs	r1, #127	; 0x7f
    2bc0:	6de2      	ldr	r2, [r4, #92]	; 0x5c
    2bc2:	0020      	movs	r0, r4
    2bc4:	78d3      	ldrb	r3, [r2, #3]
    2bc6:	3058      	adds	r0, #88	; 0x58
    2bc8:	400b      	ands	r3, r1
    2bca:	70d3      	strb	r3, [r2, #3]
    2bcc:	23d8      	movs	r3, #216	; 0xd8
    2bce:	58e3      	ldr	r3, [r4, r3]
    2bd0:	2b00      	cmp	r3, #0
    2bd2:	d035      	beq.n	2c40 <AjK::MODSERIAL::isr_tx(bool)+0xe0>
    2bd4:	4798      	blx	r3
    2bd6:	e7d4      	b.n	2b82 <AjK::MODSERIAL::isr_tx(bool)+0x22>
    2bd8:	23a8      	movs	r3, #168	; 0xa8
    2bda:	0020      	movs	r0, r4
    2bdc:	58e3      	ldr	r3, [r4, r3]
    2bde:	3058      	adds	r0, #88	; 0x58
    2be0:	2b00      	cmp	r3, #0
    2be2:	d1f7      	bne.n	2bd4 <AjK::MODSERIAL::isr_tx(bool)+0x74>
    2be4:	34a8      	adds	r4, #168	; 0xa8
    2be6:	6863      	ldr	r3, [r4, #4]
    2be8:	2b00      	cmp	r3, #0
    2bea:	d0ca      	beq.n	2b82 <AjK::MODSERIAL::isr_tx(bool)+0x22>
    2bec:	68a5      	ldr	r5, [r4, #8]
    2bee:	68e2      	ldr	r2, [r4, #12]
    2bf0:	2d00      	cmp	r5, #0
    2bf2:	d03c      	beq.n	2c6e <AjK::MODSERIAL::isr_tx(bool)+0x10e>
    2bf4:	07d1      	lsls	r1, r2, #31
    2bf6:	d43d      	bmi.n	2c74 <AjK::MODSERIAL::isr_tx(bool)+0x114>
    2bf8:	1052      	asrs	r2, r2, #1
    2bfa:	189b      	adds	r3, r3, r2
    2bfc:	0001      	movs	r1, r0
    2bfe:	0018      	movs	r0, r3
    2c00:	47a8      	blx	r5
    2c02:	e7be      	b.n	2b82 <AjK::MODSERIAL::isr_tx(bool)+0x22>
    2c04:	6ea0      	ldr	r0, [r4, #104]	; 0x68
    2c06:	6fa3      	ldr	r3, [r4, #120]	; 0x78
    2c08:	4684      	mov	r12, r0
    2c0a:	4640      	mov	r0, r8
    2c0c:	4463      	add	r3, r12
    2c0e:	781b      	ldrb	r3, [r3, #0]
    2c10:	b2db      	uxtb	r3, r3
    2c12:	5423      	strb	r3, [r4, r0]
    2c14:	71cb      	strb	r3, [r1, #7]
    2c16:	5963      	ldr	r3, [r4, r5]
    2c18:	3b01      	subs	r3, #1
    2c1a:	5163      	str	r3, [r4, r5]
    2c1c:	6fa3      	ldr	r3, [r4, #120]	; 0x78
    2c1e:	3301      	adds	r3, #1
    2c20:	67a3      	str	r3, [r4, #120]	; 0x78
    2c22:	6fa1      	ldr	r1, [r4, #120]	; 0x78
    2c24:	59e3      	ldr	r3, [r4, r7]
    2c26:	4299      	cmp	r1, r3
    2c28:	db00      	blt.n	2c2c <AjK::MODSERIAL::isr_tx(bool)+0xcc>
    2c2a:	67a2      	str	r2, [r4, #120]	; 0x78
    2c2c:	2e00      	cmp	r6, #0
    2c2e:	d0ba      	beq.n	2ba6 <AjK::MODSERIAL::isr_tx(bool)+0x46>
    2c30:	23a8      	movs	r3, #168	; 0xa8
    2c32:	0020      	movs	r0, r4
    2c34:	58e3      	ldr	r3, [r4, r3]
    2c36:	3058      	adds	r0, #88	; 0x58
    2c38:	2b00      	cmp	r3, #0
    2c3a:	d006      	beq.n	2c4a <AjK::MODSERIAL::isr_tx(bool)+0xea>
    2c3c:	4798      	blx	r3
    2c3e:	e7b1      	b.n	2ba4 <AjK::MODSERIAL::isr_tx(bool)+0x44>
    2c40:	34d8      	adds	r4, #216	; 0xd8
    2c42:	6863      	ldr	r3, [r4, #4]
    2c44:	2b00      	cmp	r3, #0
    2c46:	d1d1      	bne.n	2bec <AjK::MODSERIAL::isr_tx(bool)+0x8c>
    2c48:	e79b      	b.n	2b82 <AjK::MODSERIAL::isr_tx(bool)+0x22>
    2c4a:	0022      	movs	r2, r4
    2c4c:	32a8      	adds	r2, #168	; 0xa8
    2c4e:	6853      	ldr	r3, [r2, #4]
    2c50:	2b00      	cmp	r3, #0
    2c52:	d0a7      	beq.n	2ba4 <AjK::MODSERIAL::isr_tx(bool)+0x44>
    2c54:	6891      	ldr	r1, [r2, #8]
    2c56:	68d2      	ldr	r2, [r2, #12]
    2c58:	4689      	mov	r9, r1
    2c5a:	2900      	cmp	r1, #0
    2c5c:	d00f      	beq.n	2c7e <AjK::MODSERIAL::isr_tx(bool)+0x11e>
    2c5e:	07d1      	lsls	r1, r2, #31
    2c60:	d40f      	bmi.n	2c82 <AjK::MODSERIAL::isr_tx(bool)+0x122>
    2c62:	1052      	asrs	r2, r2, #1
    2c64:	189b      	adds	r3, r3, r2
    2c66:	0001      	movs	r1, r0
    2c68:	0018      	movs	r0, r3
    2c6a:	47c8      	blx	r9
    2c6c:	e79a      	b.n	2ba4 <AjK::MODSERIAL::isr_tx(bool)+0x44>
    2c6e:	07d1      	lsls	r1, r2, #31
    2c70:	d400      	bmi.n	2c74 <AjK::MODSERIAL::isr_tx(bool)+0x114>
    2c72:	e786      	b.n	2b82 <AjK::MODSERIAL::isr_tx(bool)+0x22>
    2c74:	1052      	asrs	r2, r2, #1
    2c76:	189b      	adds	r3, r3, r2
    2c78:	681a      	ldr	r2, [r3, #0]
    2c7a:	5955      	ldr	r5, [r2, r5]
    2c7c:	e7be      	b.n	2bfc <AjK::MODSERIAL::isr_tx(bool)+0x9c>
    2c7e:	07d1      	lsls	r1, r2, #31
    2c80:	d590      	bpl.n	2ba4 <AjK::MODSERIAL::isr_tx(bool)+0x44>
    2c82:	4649      	mov	r1, r9
    2c84:	1052      	asrs	r2, r2, #1
    2c86:	189b      	adds	r3, r3, r2
    2c88:	681a      	ldr	r2, [r3, #0]
    2c8a:	5852      	ldr	r2, [r2, r1]
    2c8c:	4691      	mov	r9, r2
    2c8e:	e7ea      	b.n	2c66 <AjK::MODSERIAL::isr_tx(bool)+0x106>

00002c90 <AjK::MODSERIAL::setBase()>:
    2c90:	6883      	ldr	r3, [r0, #8]
    2c92:	2b01      	cmp	r3, #1
    2c94:	d014      	beq.n	2cc0 <AjK::MODSERIAL::setBase()+0x30>
    2c96:	2b02      	cmp	r3, #2
    2c98:	d00c      	beq.n	2cb4 <AjK::MODSERIAL::setBase()+0x24>
    2c9a:	2b00      	cmp	r3, #0
    2c9c:	d004      	beq.n	2ca8 <AjK::MODSERIAL::setBase()+0x18>
    2c9e:	2300      	movs	r3, #0
    2ca0:	22f8      	movs	r2, #248	; 0xf8
    2ca2:	65c3      	str	r3, [r0, #92]	; 0x5c
    2ca4:	5483      	strb	r3, [r0, r2]
    2ca6:	4770      	bx	lr
    2ca8:	4b08      	ldr	r3, [pc, #32]	; (2ccc <AjK::MODSERIAL::setBase()+0x3c>)
    2caa:	220c      	movs	r2, #12
    2cac:	65c3      	str	r3, [r0, #92]	; 0x5c
    2cae:	23f8      	movs	r3, #248	; 0xf8
    2cb0:	54c2      	strb	r2, [r0, r3]
    2cb2:	e7f8      	b.n	2ca6 <AjK::MODSERIAL::setBase()+0x16>
    2cb4:	4b06      	ldr	r3, [pc, #24]	; (2cd0 <AjK::MODSERIAL::setBase()+0x40>)
    2cb6:	220e      	movs	r2, #14
    2cb8:	65c3      	str	r3, [r0, #92]	; 0x5c
    2cba:	23f8      	movs	r3, #248	; 0xf8
    2cbc:	54c2      	strb	r2, [r0, r3]
    2cbe:	e7f2      	b.n	2ca6 <AjK::MODSERIAL::setBase()+0x16>
    2cc0:	4b04      	ldr	r3, [pc, #16]	; (2cd4 <AjK::MODSERIAL::setBase()+0x44>)
    2cc2:	220d      	movs	r2, #13
    2cc4:	65c3      	str	r3, [r0, #92]	; 0x5c
    2cc6:	23f8      	movs	r3, #248	; 0xf8
    2cc8:	54c2      	strb	r2, [r0, r3]
    2cca:	e7ec      	b.n	2ca6 <AjK::MODSERIAL::setBase()+0x16>
    2ccc:	4006a000 	.word	0x4006a000
    2cd0:	4006c000 	.word	0x4006c000
    2cd4:	4006b000 	.word	0x4006b000

00002cd8 <AjK::MODSERIAL::initDevice()>:
    2cd8:	4770      	bx	lr
    2cda:	46c0      	nop			; (mov r8, r8)

00002cdc <mbed_die>:
    2cdc:	b500      	push	{lr}
    2cde:	b089      	sub	sp, #36	; 0x24
    2ce0:	b672      	cpsid	i
    2ce2:	4909      	ldr	r1, [pc, #36]	; (2d08 <mbed_die+0x2c>)
    2ce4:	a802      	add	r0, sp, #8
    2ce6:	f000 f831 	bl	2d4c <gpio_init_out>
    2cea:	9a03      	ldr	r2, [sp, #12]
    2cec:	9b05      	ldr	r3, [sp, #20]
    2cee:	2096      	movs	r0, #150	; 0x96
    2cf0:	601a      	str	r2, [r3, #0]
    2cf2:	9201      	str	r2, [sp, #4]
    2cf4:	f000 f8de 	bl	2eb4 <wait_ms>
    2cf8:	9a03      	ldr	r2, [sp, #12]
    2cfa:	9b06      	ldr	r3, [sp, #24]
    2cfc:	2096      	movs	r0, #150	; 0x96
    2cfe:	601a      	str	r2, [r3, #0]
    2d00:	9201      	str	r2, [sp, #4]
    2d02:	f000 f8d7 	bl	2eb4 <wait_ms>
    2d06:	e7f0      	b.n	2cea <mbed_die+0xe>
    2d08:	00001048 	.word	0x00001048

00002d0c <error>:
    2d0c:	b40f      	push	{r0, r1, r2, r3}
    2d0e:	b500      	push	{lr}
    2d10:	4b05      	ldr	r3, [pc, #20]	; (2d28 <error+0x1c>)
    2d12:	b083      	sub	sp, #12
    2d14:	aa04      	add	r2, sp, #16
    2d16:	681b      	ldr	r3, [r3, #0]
    2d18:	ca02      	ldmia	r2!, {r1}
    2d1a:	68d8      	ldr	r0, [r3, #12]
    2d1c:	9201      	str	r2, [sp, #4]
    2d1e:	f002 f9a5 	bl	506c <vfiprintf>
    2d22:	2001      	movs	r0, #1
    2d24:	f001 fbda 	bl	44dc <exit>
    2d28:	1ffff130 	.word	0x1ffff130

00002d2c <gpio_init_in>:
    2d2c:	b570      	push	{r4, r5, r6, lr}
    2d2e:	000d      	movs	r5, r1
    2d30:	0004      	movs	r4, r0
    2d32:	f000 f939 	bl	2fa8 <gpio_init>
    2d36:	1c6b      	adds	r3, r5, #1
    2d38:	d007      	beq.n	2d4a <gpio_init_in+0x1e>
    2d3a:	2100      	movs	r1, #0
    2d3c:	0020      	movs	r0, r4
    2d3e:	f000 f959 	bl	2ff4 <gpio_dir>
    2d42:	2102      	movs	r1, #2
    2d44:	0020      	movs	r0, r4
    2d46:	f000 f94f 	bl	2fe8 <gpio_mode>
    2d4a:	bd70      	pop	{r4, r5, r6, pc}

00002d4c <gpio_init_out>:
    2d4c:	b570      	push	{r4, r5, r6, lr}
    2d4e:	000d      	movs	r5, r1
    2d50:	0004      	movs	r4, r0
    2d52:	f000 f929 	bl	2fa8 <gpio_init>
    2d56:	1c6b      	adds	r3, r5, #1
    2d58:	d00a      	beq.n	2d70 <gpio_init_out+0x24>
    2d5a:	6923      	ldr	r3, [r4, #16]
    2d5c:	6862      	ldr	r2, [r4, #4]
    2d5e:	2101      	movs	r1, #1
    2d60:	0020      	movs	r0, r4
    2d62:	601a      	str	r2, [r3, #0]
    2d64:	f000 f946 	bl	2ff4 <gpio_dir>
    2d68:	2100      	movs	r1, #0
    2d6a:	0020      	movs	r0, r4
    2d6c:	f000 f93c 	bl	2fe8 <gpio_mode>
    2d70:	bd70      	pop	{r4, r5, r6, pc}
    2d72:	46c0      	nop			; (mov r8, r8)

00002d74 <mbed_interface_connected>:
    2d74:	b510      	push	{r4, lr}
    2d76:	f000 f853 	bl	2e20 <semihost_connected>
    2d7a:	bd10      	pop	{r4, pc}

00002d7c <pinmap_pinout>:
    2d7c:	b510      	push	{r4, lr}
    2d7e:	0004      	movs	r4, r0
    2d80:	1c43      	adds	r3, r0, #1
    2d82:	d103      	bne.n	2d8c <pinmap_pinout+0x10>
    2d84:	e009      	b.n	2d9a <pinmap_pinout+0x1e>
    2d86:	429c      	cmp	r4, r3
    2d88:	d008      	beq.n	2d9c <pinmap_pinout+0x20>
    2d8a:	310c      	adds	r1, #12
    2d8c:	2200      	movs	r2, #0
    2d8e:	5e8b      	ldrsh	r3, [r1, r2]
    2d90:	1c5a      	adds	r2, r3, #1
    2d92:	d1f8      	bne.n	2d86 <pinmap_pinout+0xa>
    2d94:	4806      	ldr	r0, [pc, #24]	; (2db0 <pinmap_pinout+0x34>)
    2d96:	f7ff ffb9 	bl	2d0c <error>
    2d9a:	bd10      	pop	{r4, pc}
    2d9c:	0020      	movs	r0, r4
    2d9e:	6889      	ldr	r1, [r1, #8]
    2da0:	f000 f938 	bl	3014 <pin_function>
    2da4:	2100      	movs	r1, #0
    2da6:	0020      	movs	r0, r4
    2da8:	f000 f956 	bl	3058 <pin_mode>
    2dac:	e7f5      	b.n	2d9a <pinmap_pinout+0x1e>
    2dae:	46c0      	nop			; (mov r8, r8)
    2db0:	0000694c 	.word	0x0000694c

00002db4 <pinmap_merge>:
    2db4:	b510      	push	{r4, lr}
    2db6:	4288      	cmp	r0, r1
    2db8:	d008      	beq.n	2dcc <pinmap_merge+0x18>
    2dba:	1c43      	adds	r3, r0, #1
    2dbc:	d007      	beq.n	2dce <pinmap_merge+0x1a>
    2dbe:	1c4b      	adds	r3, r1, #1
    2dc0:	d004      	beq.n	2dcc <pinmap_merge+0x18>
    2dc2:	4804      	ldr	r0, [pc, #16]	; (2dd4 <pinmap_merge+0x20>)
    2dc4:	f7ff ffa2 	bl	2d0c <error>
    2dc8:	2001      	movs	r0, #1
    2dca:	4240      	negs	r0, r0
    2dcc:	bd10      	pop	{r4, pc}
    2dce:	0008      	movs	r0, r1
    2dd0:	e7fc      	b.n	2dcc <pinmap_merge+0x18>
    2dd2:	46c0      	nop			; (mov r8, r8)
    2dd4:	00006960 	.word	0x00006960

00002dd8 <pinmap_peripheral>:
    2dd8:	b510      	push	{r4, lr}
    2dda:	0002      	movs	r2, r0
    2ddc:	1c43      	adds	r3, r0, #1
    2dde:	d103      	bne.n	2de8 <pinmap_peripheral+0x10>
    2de0:	e00b      	b.n	2dfa <pinmap_peripheral+0x22>
    2de2:	429a      	cmp	r2, r3
    2de4:	d00a      	beq.n	2dfc <pinmap_peripheral+0x24>
    2de6:	310c      	adds	r1, #12
    2de8:	2000      	movs	r0, #0
    2dea:	5e0b      	ldrsh	r3, [r1, r0]
    2dec:	1c58      	adds	r0, r3, #1
    2dee:	d1f8      	bne.n	2de2 <pinmap_peripheral+0xa>
    2df0:	4804      	ldr	r0, [pc, #16]	; (2e04 <pinmap_peripheral+0x2c>)
    2df2:	f7ff ff8b 	bl	2d0c <error>
    2df6:	2001      	movs	r0, #1
    2df8:	4240      	negs	r0, r0
    2dfa:	bd10      	pop	{r4, pc}
    2dfc:	6848      	ldr	r0, [r1, #4]
    2dfe:	1c43      	adds	r3, r0, #1
    2e00:	d1fb      	bne.n	2dfa <pinmap_peripheral+0x22>
    2e02:	e7f5      	b.n	2df0 <pinmap_peripheral+0x18>
    2e04:	00006974 	.word	0x00006974

00002e08 <semihost_exit>:
    2e08:	b530      	push	{r4, r5, lr}
    2e0a:	b085      	sub	sp, #20
    2e0c:	466d      	mov	r5, sp
    2e0e:	2418      	movs	r4, #24
    2e10:	1c20      	adds	r0, r4, #0
    2e12:	1c29      	adds	r1, r5, #0
    2e14:	beab      	bkpt	0x00ab
    2e16:	1c04      	adds	r4, r0, #0
    2e18:	0020      	movs	r0, r4
    2e1a:	b005      	add	sp, #20
    2e1c:	bd30      	pop	{r4, r5, pc}
    2e1e:	46c0      	nop			; (mov r8, r8)

00002e20 <semihost_connected>:
    2e20:	4b01      	ldr	r3, [pc, #4]	; (2e28 <semihost_connected+0x8>)
    2e22:	6818      	ldr	r0, [r3, #0]
    2e24:	4770      	bx	lr
    2e26:	46c0      	nop			; (mov r8, r8)
    2e28:	1ffff0c4 	.word	0x1ffff0c4

00002e2c <ticker_irq_handler>:
    2e2c:	6803      	ldr	r3, [r0, #0]
    2e2e:	b570      	push	{r4, r5, r6, lr}
    2e30:	68db      	ldr	r3, [r3, #12]
    2e32:	0005      	movs	r5, r0
    2e34:	4798      	blx	r3
    2e36:	686b      	ldr	r3, [r5, #4]
    2e38:	685b      	ldr	r3, [r3, #4]
    2e3a:	e00d      	b.n	2e58 <ticker_irq_handler+0x2c>
    2e3c:	681c      	ldr	r4, [r3, #0]
    2e3e:	682b      	ldr	r3, [r5, #0]
    2e40:	685b      	ldr	r3, [r3, #4]
    2e42:	4798      	blx	r3
    2e44:	1a24      	subs	r4, r4, r0
    2e46:	2c00      	cmp	r4, #0
    2e48:	dc0c      	bgt.n	2e64 <ticker_irq_handler+0x38>
    2e4a:	686a      	ldr	r2, [r5, #4]
    2e4c:	6851      	ldr	r1, [r2, #4]
    2e4e:	688b      	ldr	r3, [r1, #8]
    2e50:	6053      	str	r3, [r2, #4]
    2e52:	6812      	ldr	r2, [r2, #0]
    2e54:	2a00      	cmp	r2, #0
    2e56:	d10c      	bne.n	2e72 <ticker_irq_handler+0x46>
    2e58:	2b00      	cmp	r3, #0
    2e5a:	d1ef      	bne.n	2e3c <ticker_irq_handler+0x10>
    2e5c:	682b      	ldr	r3, [r5, #0]
    2e5e:	689b      	ldr	r3, [r3, #8]
    2e60:	4798      	blx	r3
    2e62:	bd70      	pop	{r4, r5, r6, pc}
    2e64:	686b      	ldr	r3, [r5, #4]
    2e66:	685b      	ldr	r3, [r3, #4]
    2e68:	6818      	ldr	r0, [r3, #0]
    2e6a:	682b      	ldr	r3, [r5, #0]
    2e6c:	691b      	ldr	r3, [r3, #16]
    2e6e:	4798      	blx	r3
    2e70:	e7f7      	b.n	2e62 <ticker_irq_handler+0x36>
    2e72:	6848      	ldr	r0, [r1, #4]
    2e74:	4790      	blx	r2
    2e76:	e7de      	b.n	2e36 <ticker_irq_handler+0xa>

00002e78 <ticker_read>:
    2e78:	b510      	push	{r4, lr}
    2e7a:	6803      	ldr	r3, [r0, #0]
    2e7c:	685b      	ldr	r3, [r3, #4]
    2e7e:	4798      	blx	r3
    2e80:	bd10      	pop	{r4, pc}
    2e82:	46c0      	nop			; (mov r8, r8)

00002e84 <get_us_ticker_data>:
    2e84:	4800      	ldr	r0, [pc, #0]	; (2e88 <get_us_ticker_data+0x4>)
    2e86:	4770      	bx	lr
    2e88:	000069c8 	.word	0x000069c8

00002e8c <us_ticker_irq_handler>:
    2e8c:	b510      	push	{r4, lr}
    2e8e:	4802      	ldr	r0, [pc, #8]	; (2e98 <us_ticker_irq_handler+0xc>)
    2e90:	f7ff ffcc 	bl	2e2c <ticker_irq_handler>
    2e94:	bd10      	pop	{r4, pc}
    2e96:	46c0      	nop			; (mov r8, r8)
    2e98:	000069c8 	.word	0x000069c8

00002e9c <wait_us>:
    2e9c:	b570      	push	{r4, r5, r6, lr}
    2e9e:	0005      	movs	r5, r0
    2ea0:	f000 fa3c 	bl	331c <us_ticker_read>
    2ea4:	0004      	movs	r4, r0
    2ea6:	f000 fa39 	bl	331c <us_ticker_read>
    2eaa:	1b00      	subs	r0, r0, r4
    2eac:	42a8      	cmp	r0, r5
    2eae:	d3fa      	bcc.n	2ea6 <wait_us+0xa>
    2eb0:	bd70      	pop	{r4, r5, r6, pc}
    2eb2:	46c0      	nop			; (mov r8, r8)

00002eb4 <wait_ms>:
    2eb4:	23fa      	movs	r3, #250	; 0xfa
    2eb6:	b510      	push	{r4, lr}
    2eb8:	009b      	lsls	r3, r3, #2
    2eba:	4358      	muls	r0, r3
    2ebc:	f7ff ffee 	bl	2e9c <wait_us>
    2ec0:	bd10      	pop	{r4, pc}
    2ec2:	46c0      	nop			; (mov r8, r8)

00002ec4 <NVIC_SetVector>:
    2ec4:	4a0a      	ldr	r2, [pc, #40]	; (2ef0 <NVIC_SetVector+0x2c>)
    2ec6:	b530      	push	{r4, r5, lr}
    2ec8:	6894      	ldr	r4, [r2, #8]
    2eca:	6892      	ldr	r2, [r2, #8]
    2ecc:	0023      	movs	r3, r4
    2ece:	2a00      	cmp	r2, #0
    2ed0:	d10a      	bne.n	2ee8 <NVIC_SetVector+0x24>
    2ed2:	2300      	movs	r3, #0
    2ed4:	4a07      	ldr	r2, [pc, #28]	; (2ef4 <NVIC_SetVector+0x30>)
    2ed6:	591d      	ldr	r5, [r3, r4]
    2ed8:	189a      	adds	r2, r3, r2
    2eda:	3304      	adds	r3, #4
    2edc:	6015      	str	r5, [r2, #0]
    2ede:	2bc0      	cmp	r3, #192	; 0xc0
    2ee0:	d1f8      	bne.n	2ed4 <NVIC_SetVector+0x10>
    2ee2:	4b04      	ldr	r3, [pc, #16]	; (2ef4 <NVIC_SetVector+0x30>)
    2ee4:	4a02      	ldr	r2, [pc, #8]	; (2ef0 <NVIC_SetVector+0x2c>)
    2ee6:	6093      	str	r3, [r2, #8]
    2ee8:	3010      	adds	r0, #16
    2eea:	0080      	lsls	r0, r0, #2
    2eec:	50c1      	str	r1, [r0, r3]
    2eee:	bd30      	pop	{r4, r5, pc}
    2ef0:	e000ed00 	.word	0xe000ed00
    2ef4:	1ffff000 	.word	0x1ffff000

00002ef8 <SystemInit>:
    2ef8:	2288      	movs	r2, #136	; 0x88
    2efa:	2000      	movs	r0, #0
    2efc:	b510      	push	{r4, lr}
    2efe:	2480      	movs	r4, #128	; 0x80
    2f00:	4b21      	ldr	r3, [pc, #132]	; (2f88 <SystemInit+0x90>)
    2f02:	4922      	ldr	r1, [pc, #136]	; (2f8c <SystemInit+0x94>)
    2f04:	0152      	lsls	r2, r2, #5
    2f06:	5098      	str	r0, [r3, r2]
    2f08:	585a      	ldr	r2, [r3, r1]
    2f0a:	00a4      	lsls	r4, r4, #2
    2f0c:	4322      	orrs	r2, r4
    2f0e:	505a      	str	r2, [r3, r1]
    2f10:	491f      	ldr	r1, [pc, #124]	; (2f90 <SystemInit+0x98>)
    2f12:	4a20      	ldr	r2, [pc, #128]	; (2f94 <SystemInit+0x9c>)
    2f14:	5099      	str	r1, [r3, r2]
    2f16:	4b20      	ldr	r3, [pc, #128]	; (2f98 <SystemInit+0xa0>)
    2f18:	4a20      	ldr	r2, [pc, #128]	; (2f9c <SystemInit+0xa4>)
    2f1a:	6c99      	ldr	r1, [r3, #72]	; 0x48
    2f1c:	4011      	ands	r1, r2
    2f1e:	6499      	str	r1, [r3, #72]	; 0x48
    2f20:	6cd9      	ldr	r1, [r3, #76]	; 0x4c
    2f22:	400a      	ands	r2, r1
    2f24:	64da      	str	r2, [r3, #76]	; 0x4c
    2f26:	2289      	movs	r2, #137	; 0x89
    2f28:	4b1d      	ldr	r3, [pc, #116]	; (2fa0 <SystemInit+0xa8>)
    2f2a:	211f      	movs	r1, #31
    2f2c:	701a      	strb	r2, [r3, #0]
    2f2e:	2324      	movs	r3, #36	; 0x24
    2f30:	4a1c      	ldr	r2, [pc, #112]	; (2fa4 <SystemInit+0xac>)
    2f32:	7053      	strb	r3, [r2, #1]
    2f34:	3376      	adds	r3, #118	; 0x76
    2f36:	7013      	strb	r3, [r2, #0]
    2f38:	78d3      	ldrb	r3, [r2, #3]
    2f3a:	400b      	ands	r3, r1
    2f3c:	70d3      	strb	r3, [r2, #3]
    2f3e:	2301      	movs	r3, #1
    2f40:	390f      	subs	r1, #15
    2f42:	7113      	strb	r3, [r2, #4]
    2f44:	7150      	strb	r0, [r2, #5]
    2f46:	7993      	ldrb	r3, [r2, #6]
    2f48:	4219      	tst	r1, r3
    2f4a:	d1fc      	bne.n	2f46 <SystemInit+0x4e>
    2f4c:	210c      	movs	r1, #12
    2f4e:	4815      	ldr	r0, [pc, #84]	; (2fa4 <SystemInit+0xac>)
    2f50:	7983      	ldrb	r3, [r0, #6]
    2f52:	4a14      	ldr	r2, [pc, #80]	; (2fa4 <SystemInit+0xac>)
    2f54:	400b      	ands	r3, r1
    2f56:	2b08      	cmp	r3, #8
    2f58:	d1fa      	bne.n	2f50 <SystemInit+0x58>
    2f5a:	210c      	movs	r1, #12
    2f5c:	3338      	adds	r3, #56	; 0x38
    2f5e:	7153      	strb	r3, [r2, #5]
    2f60:	7993      	ldrb	r3, [r2, #6]
    2f62:	400b      	ands	r3, r1
    2f64:	2b08      	cmp	r3, #8
    2f66:	d1fb      	bne.n	2f60 <SystemInit+0x68>
    2f68:	2140      	movs	r1, #64	; 0x40
    2f6a:	480e      	ldr	r0, [pc, #56]	; (2fa4 <SystemInit+0xac>)
    2f6c:	7982      	ldrb	r2, [r0, #6]
    2f6e:	4b0d      	ldr	r3, [pc, #52]	; (2fa4 <SystemInit+0xac>)
    2f70:	4211      	tst	r1, r2
    2f72:	d0fb      	beq.n	2f6c <SystemInit+0x74>
    2f74:	221a      	movs	r2, #26
    2f76:	210c      	movs	r1, #12
    2f78:	701a      	strb	r2, [r3, #0]
    2f7a:	001a      	movs	r2, r3
    2f7c:	7993      	ldrb	r3, [r2, #6]
    2f7e:	400b      	ands	r3, r1
    2f80:	2b0c      	cmp	r3, #12
    2f82:	d1fb      	bne.n	2f7c <SystemInit+0x84>
    2f84:	bd10      	pop	{r4, pc}
    2f86:	46c0      	nop			; (mov r8, r8)
    2f88:	40047000 	.word	0x40047000
    2f8c:	00001038 	.word	0x00001038
    2f90:	10010000 	.word	0x10010000
    2f94:	00001044 	.word	0x00001044
    2f98:	40049000 	.word	0x40049000
    2f9c:	fefff8ff 	.word	0xfefff8ff
    2fa0:	40065000 	.word	0x40065000
    2fa4:	40064000 	.word	0x40064000

00002fa8 <gpio_init>:
    2fa8:	b570      	push	{r4, r5, r6, lr}
    2faa:	0005      	movs	r5, r0
    2fac:	000c      	movs	r4, r1
    2fae:	8029      	strh	r1, [r5, #0]
    2fb0:	1c4b      	adds	r3, r1, #1
    2fb2:	d015      	beq.n	2fe0 <gpio_init+0x38>
    2fb4:	0020      	movs	r0, r4
    2fb6:	2101      	movs	r1, #1
    2fb8:	f000 f82c 	bl	3014 <pin_function>
    2fbc:	2301      	movs	r3, #1
    2fbe:	0662      	lsls	r2, r4, #25
    2fc0:	0ed2      	lsrs	r2, r2, #27
    2fc2:	4093      	lsls	r3, r2
    2fc4:	606b      	str	r3, [r5, #4]
    2fc6:	4b07      	ldr	r3, [pc, #28]	; (2fe4 <gpio_init+0x3c>)
    2fc8:	0b24      	lsrs	r4, r4, #12
    2fca:	469c      	mov	r12, r3
    2fcc:	4464      	add	r4, r12
    2fce:	01a4      	lsls	r4, r4, #6
    2fd0:	1d23      	adds	r3, r4, #4
    2fd2:	60eb      	str	r3, [r5, #12]
    2fd4:	3304      	adds	r3, #4
    2fd6:	612b      	str	r3, [r5, #16]
    2fd8:	3414      	adds	r4, #20
    2fda:	3308      	adds	r3, #8
    2fdc:	616b      	str	r3, [r5, #20]
    2fde:	60ac      	str	r4, [r5, #8]
    2fe0:	bd70      	pop	{r4, r5, r6, pc}
    2fe2:	46c0      	nop			; (mov r8, r8)
    2fe4:	03e03fc0 	.word	0x03e03fc0

00002fe8 <gpio_mode>:
    2fe8:	b510      	push	{r4, lr}
    2fea:	2300      	movs	r3, #0
    2fec:	5ec0      	ldrsh	r0, [r0, r3]
    2fee:	f000 f833 	bl	3058 <pin_mode>
    2ff2:	bd10      	pop	{r4, pc}

00002ff4 <gpio_dir>:
    2ff4:	2900      	cmp	r1, #0
    2ff6:	d007      	beq.n	3008 <gpio_dir+0x14>
    2ff8:	2901      	cmp	r1, #1
    2ffa:	d104      	bne.n	3006 <gpio_dir+0x12>
    2ffc:	6882      	ldr	r2, [r0, #8]
    2ffe:	6843      	ldr	r3, [r0, #4]
    3000:	6811      	ldr	r1, [r2, #0]
    3002:	430b      	orrs	r3, r1
    3004:	6013      	str	r3, [r2, #0]
    3006:	4770      	bx	lr
    3008:	6882      	ldr	r2, [r0, #8]
    300a:	6841      	ldr	r1, [r0, #4]
    300c:	6813      	ldr	r3, [r2, #0]
    300e:	438b      	bics	r3, r1
    3010:	6013      	str	r3, [r2, #0]
    3012:	e7f8      	b.n	3006 <gpio_dir+0x12>

00003014 <pin_function>:
    3014:	0b03      	lsrs	r3, r0, #12
    3016:	b5f0      	push	{r4, r5, r6, r7, lr}
    3018:	001f      	movs	r7, r3
    301a:	2201      	movs	r2, #1
    301c:	3709      	adds	r7, #9
    301e:	40ba      	lsls	r2, r7
    3020:	4e09      	ldr	r6, [pc, #36]	; (3048 <pin_function+0x34>)
    3022:	4d0a      	ldr	r5, [pc, #40]	; (304c <pin_function+0x38>)
    3024:	0209      	lsls	r1, r1, #8
    3026:	5974      	ldr	r4, [r6, r5]
    3028:	4322      	orrs	r2, r4
    302a:	5172      	str	r2, [r6, r5]
    302c:	4a08      	ldr	r2, [pc, #32]	; (3050 <pin_function+0x3c>)
    302e:	4694      	mov	r12, r2
    3030:	4463      	add	r3, r12
    3032:	031a      	lsls	r2, r3, #12
    3034:	237c      	movs	r3, #124	; 0x7c
    3036:	4018      	ands	r0, r3
    3038:	1810      	adds	r0, r2, r0
    303a:	6802      	ldr	r2, [r0, #0]
    303c:	4b05      	ldr	r3, [pc, #20]	; (3054 <pin_function+0x40>)
    303e:	4013      	ands	r3, r2
    3040:	4319      	orrs	r1, r3
    3042:	6001      	str	r1, [r0, #0]
    3044:	bdf0      	pop	{r4, r5, r6, r7, pc}
    3046:	46c0      	nop			; (mov r8, r8)
    3048:	40047000 	.word	0x40047000
    304c:	00001038 	.word	0x00001038
    3050:	00040049 	.word	0x00040049
    3054:	fffff8ff 	.word	0xfffff8ff

00003058 <pin_mode>:
    3058:	4b04      	ldr	r3, [pc, #16]	; (306c <pin_mode+0x14>)
    305a:	2203      	movs	r2, #3
    305c:	469c      	mov	r12, r3
    305e:	4460      	add	r0, r12
    3060:	6803      	ldr	r3, [r0, #0]
    3062:	4393      	bics	r3, r2
    3064:	4319      	orrs	r1, r3
    3066:	6001      	str	r1, [r0, #0]
    3068:	4770      	bx	lr
    306a:	46c0      	nop			; (mov r8, r8)
    306c:	40049000 	.word	0x40049000

00003070 <pit_init>:
    3070:	2080      	movs	r0, #128	; 0x80
    3072:	4b16      	ldr	r3, [pc, #88]	; (30cc <pit_init+0x5c>)
    3074:	4916      	ldr	r1, [pc, #88]	; (30d0 <pit_init+0x60>)
    3076:	0400      	lsls	r0, r0, #16
    3078:	585a      	ldr	r2, [r3, r1]
    307a:	b570      	push	{r4, r5, r6, lr}
    307c:	4302      	orrs	r2, r0
    307e:	505a      	str	r2, [r3, r1]
    3080:	2200      	movs	r2, #0
    3082:	2101      	movs	r1, #1
    3084:	2501      	movs	r5, #1
    3086:	4c13      	ldr	r4, [pc, #76]	; (30d4 <pit_init+0x64>)
    3088:	4249      	negs	r1, r1
    308a:	6022      	str	r2, [r4, #0]
    308c:	3211      	adds	r2, #17
    308e:	32ff      	adds	r2, #255	; 0xff
    3090:	50a1      	str	r1, [r4, r2]
    3092:	3208      	adds	r2, #8
    3094:	3105      	adds	r1, #5
    3096:	50a1      	str	r1, [r4, r2]
    3098:	58a1      	ldr	r1, [r4, r2]
    309a:	4329      	orrs	r1, r5
    309c:	50a1      	str	r1, [r4, r2]
    309e:	4a0e      	ldr	r2, [pc, #56]	; (30d8 <pit_init+0x68>)
    30a0:	5899      	ldr	r1, [r3, r2]
    30a2:	4b0e      	ldr	r3, [pc, #56]	; (30dc <pit_init+0x6c>)
    30a4:	0349      	lsls	r1, r1, #13
    30a6:	0f49      	lsrs	r1, r1, #29
    30a8:	6818      	ldr	r0, [r3, #0]
    30aa:	3101      	adds	r1, #1
    30ac:	f001 f88c 	bl	41c8 <__aeabi_uidiv>
    30b0:	4b0b      	ldr	r3, [pc, #44]	; (30e0 <pit_init+0x70>)
    30b2:	490c      	ldr	r1, [pc, #48]	; (30e4 <pit_init+0x74>)
    30b4:	469c      	mov	r12, r3
    30b6:	4460      	add	r0, r12
    30b8:	f001 f886 	bl	41c8 <__aeabi_uidiv>
    30bc:	2380      	movs	r3, #128	; 0x80
    30be:	3801      	subs	r0, #1
    30c0:	005b      	lsls	r3, r3, #1
    30c2:	50e0      	str	r0, [r4, r3]
    30c4:	3308      	adds	r3, #8
    30c6:	50e5      	str	r5, [r4, r3]
    30c8:	bd70      	pop	{r4, r5, r6, pc}
    30ca:	46c0      	nop			; (mov r8, r8)
    30cc:	40047000 	.word	0x40047000
    30d0:	0000103c 	.word	0x0000103c
    30d4:	40037000 	.word	0x40037000
    30d8:	00001044 	.word	0x00001044
    30dc:	1ffff0c8 	.word	0x1ffff0c8
    30e0:	0007a120 	.word	0x0007a120
    30e4:	000f4240 	.word	0x000f4240

000030e8 <lptmr_init>:
    30e8:	b570      	push	{r4, r5, r6, lr}
    30ea:	2401      	movs	r4, #1
    30ec:	4d5f      	ldr	r5, [pc, #380]	; (326c <lptmr_init+0x184>)
    30ee:	4b60      	ldr	r3, [pc, #384]	; (3270 <lptmr_init+0x188>)
    30f0:	4960      	ldr	r1, [pc, #384]	; (3274 <lptmr_init+0x18c>)
    30f2:	58ea      	ldr	r2, [r5, r3]
    30f4:	201c      	movs	r0, #28
    30f6:	4322      	orrs	r2, r4
    30f8:	50ea      	str	r2, [r5, r3]
    30fa:	2200      	movs	r2, #0
    30fc:	4b5e      	ldr	r3, [pc, #376]	; (3278 <lptmr_init+0x190>)
    30fe:	263f      	movs	r6, #63	; 0x3f
    3100:	601a      	str	r2, [r3, #0]
    3102:	f7ff fedf 	bl	2ec4 <NVIC_SetVector>
    3106:	2280      	movs	r2, #128	; 0x80
    3108:	4b5c      	ldr	r3, [pc, #368]	; (327c <lptmr_init+0x194>)
    310a:	0552      	lsls	r2, r2, #21
    310c:	601a      	str	r2, [r3, #0]
    310e:	4a5c      	ldr	r2, [pc, #368]	; (3280 <lptmr_init+0x198>)
    3110:	4b5c      	ldr	r3, [pc, #368]	; (3284 <lptmr_init+0x19c>)
    3112:	6810      	ldr	r0, [r2, #0]
    3114:	58eb      	ldr	r3, [r5, r3]
    3116:	4a5c      	ldr	r2, [pc, #368]	; (3288 <lptmr_init+0x1a0>)
    3118:	0f1b      	lsrs	r3, r3, #28
    311a:	7811      	ldrb	r1, [r2, #0]
    311c:	3301      	adds	r3, #1
    311e:	4358      	muls	r0, r3
    3120:	43b1      	bics	r1, r6
    3122:	2980      	cmp	r1, #128	; 0x80
    3124:	d100      	bne.n	3128 <lptmr_init+0x40>
    3126:	e07a      	b.n	321e <lptmr_init+0x136>
    3128:	7811      	ldrb	r1, [r2, #0]
    312a:	43b1      	bics	r1, r6
    312c:	d122      	bne.n	3174 <lptmr_init+0x8c>
    312e:	7953      	ldrb	r3, [r2, #5]
    3130:	065b      	lsls	r3, r3, #25
    3132:	d445      	bmi.n	31c0 <lptmr_init+0xd8>
    3134:	7993      	ldrb	r3, [r2, #6]
    3136:	06db      	lsls	r3, r3, #27
    3138:	d41c      	bmi.n	3174 <lptmr_init+0x8c>
    313a:	7813      	ldrb	r3, [r2, #0]
    313c:	069b      	lsls	r3, r3, #26
    313e:	0f5b      	lsrs	r3, r3, #29
    3140:	409c      	lsls	r4, r3
    3142:	7853      	ldrb	r3, [r2, #1]
    3144:	2230      	movs	r2, #48	; 0x30
    3146:	0025      	movs	r5, r4
    3148:	421a      	tst	r2, r3
    314a:	d000      	beq.n	314e <lptmr_init+0x66>
    314c:	0165      	lsls	r5, r4, #5
    314e:	221f      	movs	r2, #31
    3150:	4b4d      	ldr	r3, [pc, #308]	; (3288 <lptmr_init+0x1a0>)
    3152:	78db      	ldrb	r3, [r3, #3]
    3154:	4393      	bics	r3, r2
    3156:	2b60      	cmp	r3, #96	; 0x60
    3158:	d100      	bne.n	315c <lptmr_init+0x74>
    315a:	e07e      	b.n	325a <lptmr_init+0x172>
    315c:	d861      	bhi.n	3222 <lptmr_init+0x13a>
    315e:	2b20      	cmp	r3, #32
    3160:	d100      	bne.n	3164 <lptmr_init+0x7c>
    3162:	e072      	b.n	324a <lptmr_init+0x162>
    3164:	2b40      	cmp	r3, #64	; 0x40
    3166:	d100      	bne.n	316a <lptmr_init+0x82>
    3168:	e07a      	b.n	3260 <lptmr_init+0x178>
    316a:	2b00      	cmp	r3, #0
    316c:	d100      	bne.n	3170 <lptmr_init+0x88>
    316e:	e06f      	b.n	3250 <lptmr_init+0x168>
    3170:	4946      	ldr	r1, [pc, #280]	; (328c <lptmr_init+0x1a4>)
    3172:	e065      	b.n	3240 <lptmr_init+0x158>
    3174:	2202      	movs	r2, #2
    3176:	4b44      	ldr	r3, [pc, #272]	; (3288 <lptmr_init+0x1a0>)
    3178:	200e      	movs	r0, #14
    317a:	7819      	ldrb	r1, [r3, #0]
    317c:	430a      	orrs	r2, r1
    317e:	701a      	strb	r2, [r3, #0]
    3180:	2201      	movs	r2, #1
    3182:	7859      	ldrb	r1, [r3, #1]
    3184:	430a      	orrs	r2, r1
    3186:	705a      	strb	r2, [r3, #1]
    3188:	2200      	movs	r2, #0
    318a:	493b      	ldr	r1, [pc, #236]	; (3278 <lptmr_init+0x190>)
    318c:	604a      	str	r2, [r1, #4]
    318e:	7a1a      	ldrb	r2, [r3, #8]
    3190:	4002      	ands	r2, r0
    3192:	d010      	beq.n	31b6 <lptmr_init+0xce>
    3194:	2a02      	cmp	r2, #2
    3196:	d00b      	beq.n	31b0 <lptmr_init+0xc8>
    3198:	7a1a      	ldrb	r2, [r3, #8]
    319a:	4382      	bics	r2, r0
    319c:	721a      	strb	r2, [r3, #8]
    319e:	2204      	movs	r2, #4
    31a0:	7a18      	ldrb	r0, [r3, #8]
    31a2:	4302      	orrs	r2, r0
    31a4:	721a      	strb	r2, [r3, #8]
    31a6:	2304      	movs	r3, #4
    31a8:	684a      	ldr	r2, [r1, #4]
    31aa:	4313      	orrs	r3, r2
    31ac:	604b      	str	r3, [r1, #4]
    31ae:	bd70      	pop	{r4, r5, r6, pc}
    31b0:	684b      	ldr	r3, [r1, #4]
    31b2:	604b      	str	r3, [r1, #4]
    31b4:	e7fb      	b.n	31ae <lptmr_init+0xc6>
    31b6:	2308      	movs	r3, #8
    31b8:	684a      	ldr	r2, [r1, #4]
    31ba:	4313      	orrs	r3, r2
    31bc:	604b      	str	r3, [r1, #4]
    31be:	e7f6      	b.n	31ae <lptmr_init+0xc6>
    31c0:	211f      	movs	r1, #31
    31c2:	7914      	ldrb	r4, [r2, #4]
    31c4:	7953      	ldrb	r3, [r2, #5]
    31c6:	400c      	ands	r4, r1
    31c8:	3401      	adds	r4, #1
    31ca:	4019      	ands	r1, r3
    31cc:	4360      	muls	r0, r4
    31ce:	3118      	adds	r1, #24
    31d0:	f000 fffa 	bl	41c8 <__aeabi_uidiv>
    31d4:	0004      	movs	r4, r0
    31d6:	2c00      	cmp	r4, #0
    31d8:	d0cc      	beq.n	3174 <lptmr_init+0x8c>
    31da:	492d      	ldr	r1, [pc, #180]	; (3290 <lptmr_init+0x1a8>)
    31dc:	0020      	movs	r0, r4
    31de:	f001 f879 	bl	42d4 <__aeabi_uidivmod>
    31e2:	2900      	cmp	r1, #0
    31e4:	d1c6      	bne.n	3174 <lptmr_init+0x8c>
    31e6:	492a      	ldr	r1, [pc, #168]	; (3290 <lptmr_init+0x1a8>)
    31e8:	0020      	movs	r0, r4
    31ea:	f000 ffed 	bl	41c8 <__aeabi_uidiv>
    31ee:	2801      	cmp	r0, #1
    31f0:	d020      	beq.n	3234 <lptmr_init+0x14c>
    31f2:	0840      	lsrs	r0, r0, #1
    31f4:	2801      	cmp	r0, #1
    31f6:	d02e      	beq.n	3256 <lptmr_init+0x16e>
    31f8:	07c3      	lsls	r3, r0, #31
    31fa:	d4bb      	bmi.n	3174 <lptmr_init+0x8c>
    31fc:	2300      	movs	r3, #0
    31fe:	2201      	movs	r2, #1
    3200:	e001      	b.n	3206 <lptmr_init+0x11e>
    3202:	4202      	tst	r2, r0
    3204:	d1b6      	bne.n	3174 <lptmr_init+0x8c>
    3206:	3301      	adds	r3, #1
    3208:	0840      	lsrs	r0, r0, #1
    320a:	2801      	cmp	r0, #1
    320c:	d1f9      	bne.n	3202 <lptmr_init+0x11a>
    320e:	2278      	movs	r2, #120	; 0x78
    3210:	00db      	lsls	r3, r3, #3
    3212:	4013      	ands	r3, r2
    3214:	3a75      	subs	r2, #117	; 0x75
    3216:	4313      	orrs	r3, r2
    3218:	4a17      	ldr	r2, [pc, #92]	; (3278 <lptmr_init+0x190>)
    321a:	6053      	str	r3, [r2, #4]
    321c:	e7c7      	b.n	31ae <lptmr_init+0xc6>
    321e:	0004      	movs	r4, r0
    3220:	e7d9      	b.n	31d6 <lptmr_init+0xee>
    3222:	2ba0      	cmp	r3, #160	; 0xa0
    3224:	d00a      	beq.n	323c <lptmr_init+0x154>
    3226:	2bc0      	cmp	r3, #192	; 0xc0
    3228:	d01d      	beq.n	3266 <lptmr_init+0x17e>
    322a:	2b80      	cmp	r3, #128	; 0x80
    322c:	d1a0      	bne.n	3170 <lptmr_init+0x88>
    322e:	21b7      	movs	r1, #183	; 0xb7
    3230:	0089      	lsls	r1, r1, #2
    3232:	e005      	b.n	3240 <lptmr_init+0x158>
    3234:	2207      	movs	r2, #7
    3236:	4b10      	ldr	r3, [pc, #64]	; (3278 <lptmr_init+0x190>)
    3238:	605a      	str	r2, [r3, #4]
    323a:	e7b8      	b.n	31ae <lptmr_init+0xc6>
    323c:	21b7      	movs	r1, #183	; 0xb7
    323e:	00c9      	lsls	r1, r1, #3
    3240:	4368      	muls	r0, r5
    3242:	f000 ffc1 	bl	41c8 <__aeabi_uidiv>
    3246:	0004      	movs	r4, r0
    3248:	e7c5      	b.n	31d6 <lptmr_init+0xee>
    324a:	21a0      	movs	r1, #160	; 0xa0
    324c:	00c9      	lsls	r1, r1, #3
    324e:	e7f7      	b.n	3240 <lptmr_init+0x158>
    3250:	21a0      	movs	r1, #160	; 0xa0
    3252:	0089      	lsls	r1, r1, #2
    3254:	e7f4      	b.n	3240 <lptmr_init+0x158>
    3256:	2303      	movs	r3, #3
    3258:	e7de      	b.n	3218 <lptmr_init+0x130>
    325a:	21a0      	movs	r1, #160	; 0xa0
    325c:	0109      	lsls	r1, r1, #4
    325e:	e7ef      	b.n	3240 <lptmr_init+0x158>
    3260:	21f0      	movs	r1, #240	; 0xf0
    3262:	00c9      	lsls	r1, r1, #3
    3264:	e7ec      	b.n	3240 <lptmr_init+0x158>
    3266:	490b      	ldr	r1, [pc, #44]	; (3294 <lptmr_init+0x1ac>)
    3268:	e7ea      	b.n	3240 <lptmr_init+0x158>
    326a:	46c0      	nop			; (mov r8, r8)
    326c:	40047000 	.word	0x40047000
    3270:	00001038 	.word	0x00001038
    3274:	00003299 	.word	0x00003299
    3278:	40040000 	.word	0x40040000
    327c:	e000e100 	.word	0xe000e100
    3280:	1ffff0c8 	.word	0x1ffff0c8
    3284:	00001044 	.word	0x00001044
    3288:	40064000 	.word	0x40064000
    328c:	00000b71 	.word	0x00000b71
    3290:	000f4240 	.word	0x000f4240
    3294:	00000895 	.word	0x00000895

00003298 <lptmr_isr>:
    3298:	2280      	movs	r2, #128	; 0x80
    329a:	4b15      	ldr	r3, [pc, #84]	; (32f0 <lptmr_isr+0x58>)
    329c:	b510      	push	{r4, lr}
    329e:	6819      	ldr	r1, [r3, #0]
    32a0:	430a      	orrs	r2, r1
    32a2:	4914      	ldr	r1, [pc, #80]	; (32f4 <lptmr_isr+0x5c>)
    32a4:	601a      	str	r2, [r3, #0]
    32a6:	680a      	ldr	r2, [r1, #0]
    32a8:	2a00      	cmp	r2, #0
    32aa:	d112      	bne.n	32d2 <lptmr_isr+0x3a>
    32ac:	4912      	ldr	r1, [pc, #72]	; (32f8 <lptmr_isr+0x60>)
    32ae:	8808      	ldrh	r0, [r1, #0]
    32b0:	2800      	cmp	r0, #0
    32b2:	d00b      	beq.n	32cc <lptmr_isr+0x34>
    32b4:	601a      	str	r2, [r3, #0]
    32b6:	6098      	str	r0, [r3, #8]
    32b8:	2040      	movs	r0, #64	; 0x40
    32ba:	681c      	ldr	r4, [r3, #0]
    32bc:	4320      	orrs	r0, r4
    32be:	6018      	str	r0, [r3, #0]
    32c0:	2001      	movs	r0, #1
    32c2:	681c      	ldr	r4, [r3, #0]
    32c4:	4320      	orrs	r0, r4
    32c6:	6018      	str	r0, [r3, #0]
    32c8:	800a      	strh	r2, [r1, #0]
    32ca:	bd10      	pop	{r4, pc}
    32cc:	f7ff fdde 	bl	2e8c <us_ticker_irq_handler>
    32d0:	e7fb      	b.n	32ca <lptmr_isr+0x32>
    32d2:	2000      	movs	r0, #0
    32d4:	6018      	str	r0, [r3, #0]
    32d6:	4809      	ldr	r0, [pc, #36]	; (32fc <lptmr_isr+0x64>)
    32d8:	3a01      	subs	r2, #1
    32da:	6098      	str	r0, [r3, #8]
    32dc:	2040      	movs	r0, #64	; 0x40
    32de:	681c      	ldr	r4, [r3, #0]
    32e0:	4320      	orrs	r0, r4
    32e2:	6018      	str	r0, [r3, #0]
    32e4:	2001      	movs	r0, #1
    32e6:	681c      	ldr	r4, [r3, #0]
    32e8:	4320      	orrs	r0, r4
    32ea:	6018      	str	r0, [r3, #0]
    32ec:	600a      	str	r2, [r1, #0]
    32ee:	e7ec      	b.n	32ca <lptmr_isr+0x32>
    32f0:	40040000 	.word	0x40040000
    32f4:	1ffff7d0 	.word	0x1ffff7d0
    32f8:	1ffff7d8 	.word	0x1ffff7d8
    32fc:	0000ffff 	.word	0x0000ffff

00003300 <us_ticker_init>:
    3300:	4b05      	ldr	r3, [pc, #20]	; (3318 <us_ticker_init+0x18>)
    3302:	b510      	push	{r4, lr}
    3304:	681a      	ldr	r2, [r3, #0]
    3306:	2a00      	cmp	r2, #0
    3308:	d105      	bne.n	3316 <us_ticker_init+0x16>
    330a:	3201      	adds	r2, #1
    330c:	601a      	str	r2, [r3, #0]
    330e:	f7ff feaf 	bl	3070 <pit_init>
    3312:	f7ff fee9 	bl	30e8 <lptmr_init>
    3316:	bd10      	pop	{r4, pc}
    3318:	1ffff7d4 	.word	0x1ffff7d4

0000331c <us_ticker_read>:
    331c:	4b08      	ldr	r3, [pc, #32]	; (3340 <us_ticker_read+0x24>)
    331e:	b510      	push	{r4, lr}
    3320:	681a      	ldr	r2, [r3, #0]
    3322:	2a00      	cmp	r2, #0
    3324:	d105      	bne.n	3332 <us_ticker_read+0x16>
    3326:	3201      	adds	r2, #1
    3328:	601a      	str	r2, [r3, #0]
    332a:	f7ff fea1 	bl	3070 <pit_init>
    332e:	f7ff fedb 	bl	30e8 <lptmr_init>
    3332:	238a      	movs	r3, #138	; 0x8a
    3334:	4a03      	ldr	r2, [pc, #12]	; (3344 <us_ticker_read+0x28>)
    3336:	005b      	lsls	r3, r3, #1
    3338:	58d0      	ldr	r0, [r2, r3]
    333a:	43c0      	mvns	r0, r0
    333c:	bd10      	pop	{r4, pc}
    333e:	46c0      	nop			; (mov r8, r8)
    3340:	1ffff7d4 	.word	0x1ffff7d4
    3344:	40037000 	.word	0x40037000

00003348 <us_ticker_disable_interrupt>:
    3348:	2140      	movs	r1, #64	; 0x40
    334a:	4a02      	ldr	r2, [pc, #8]	; (3354 <us_ticker_disable_interrupt+0xc>)
    334c:	6813      	ldr	r3, [r2, #0]
    334e:	438b      	bics	r3, r1
    3350:	6013      	str	r3, [r2, #0]
    3352:	4770      	bx	lr
    3354:	40040000 	.word	0x40040000

00003358 <us_ticker_clear_interrupt>:
    3358:	4770      	bx	lr
    335a:	46c0      	nop			; (mov r8, r8)

0000335c <us_ticker_set_interrupt>:
    335c:	4b1d      	ldr	r3, [pc, #116]	; (33d4 <us_ticker_set_interrupt+0x78>)
    335e:	b510      	push	{r4, lr}
    3360:	681a      	ldr	r2, [r3, #0]
    3362:	0004      	movs	r4, r0
    3364:	2a00      	cmp	r2, #0
